///////////////////////////////////////////////////////////////////////////////
//
// IAR C/C++ Compiler V10.30.1.6000 for 8051              23/Feb/2022  09:34:57
// Copyright 2004-2018 IAR Systems AB.
// PC-locked license - IAR Embedded Workbench for 8051
//
//    Core               =  plain
//    Code model         =  banked
//    Data model         =  large
//    Calling convention =  xdata reentrant
//    Constant location  =  data_rom
//    Dptr setup         =  1,16
//                          
//    Source file        =  
//        D:\A_proj\A_Cproj\Zigbee\ZigBee-DoorLock-2021.09.27\Projects\zstack\AT-command\ATApp\Source\UserAPI\AT_cmd.c
//    Command line       =  
//        -f C:\Users\Administrator\AppData\Local\Temp\EW2D3C.tmp
//        (D:\A_proj\A_Cproj\Zigbee\ZigBee-DoorLock-2021.09.27\Projects\zstack\AT-command\ATApp\Source\UserAPI\AT_cmd.c
//        -D WDT_IN_PM1 -D ZIGBEEPRO -D INTER_PAN -D ZIGBEE_FREQ_AGILITY -D
//        DISABLE_GREENPOWER_BASIC_PROXY -D REFLECTOR -D HAL_UART=FALSE -D
//        HAL_LED=FALSE -D HAL_KEY=FALSE -D SECURE=1 -D TC_LINKKEY_JOIN -D
//        NV_INIT -D NV_RESTORE -D POWER_SAVING -D NWK_AUTO_POLL -D xZTOOL_P1
//        -D xMT_TASK -D xMT_APP_FUNC -D xMT_SYS_FUNC -D xMT_ZDO_FUNC -D
//        xMT_ZDO_MGMT -D xMT_APP_CNF_FUNC -D xLEGACY_LCD_DEBUG -D
//        xLCD_SUPPORTED=DEBUG -D MULTICAST_ENABLED=FALSE -D ZCL_READ -D
//        ZCL_WRITE -D ZCL_DISCOVER -D ZCL_BASIC -D ZCL_IDENTIFY -D ZCL_SCENES
//        -D ZCL_GROUPS -D BDB_REPORTING -D ZCL_DOORLOCK -D ZCL_DOORLOCK_EXT -D
//        ISR_KEYINTERRUPT -lC
//        D:\A_proj\A_Cproj\Zigbee\ZigBee-DoorLock-2021.09.27\Projects\zstack\AT-command\ATApp\CC2530DB\EndDeviceEB\List
//        -lA
//        D:\A_proj\A_Cproj\Zigbee\ZigBee-DoorLock-2021.09.27\Projects\zstack\AT-command\ATApp\CC2530DB\EndDeviceEB\List
//        --diag_suppress Pe001,Pa010 -o
//        D:\A_proj\A_Cproj\Zigbee\ZigBee-DoorLock-2021.09.27\Projects\zstack\AT-command\ATApp\CC2530DB\EndDeviceEB\Obj
//        -e --debug --core=plain --dptr=16,1 --data_model=large
//        --code_model=banked --calling_convention=xdata_reentrant
//        --place_constants=data_rom --nr_virtual_regs 16 -f
//        D:\A_proj\A_Cproj\Zigbee\ZigBee-DoorLock-2021.09.27\Projects\zstack\AT-command\ATApp\CC2530DB\..\..\..\Tools\CC2530DB\f8wEndev.cfg
//        (-DCPU32MHZ -DROOT=__near_func -DMAC_CFG_TX_DATA_MAX=3
//        -DMAC_CFG_TX_MAX=6 -DMAC_CFG_RX_MAX=3) -f
//        D:\A_proj\A_Cproj\Zigbee\ZigBee-DoorLock-2021.09.27\Projects\zstack\AT-command\ATApp\CC2530DB\..\..\..\Tools\CC2530DB\f8wConfig.cfg
//        (-DZIGBEEPRO -DSECURE=1 -DZG_SECURE_DYNAMIC=0 -DREFLECTOR
//        -DDEFAULT_CHANLIST=0x00000800 -DZDAPP_CONFIG_PAN_ID=0xFFFF
//        -DNWK_START_DELAY=100 -DEXTENDED_JOINING_RANDOM_MASK=0x007F
//        -DBEACON_REQUEST_DELAY=100 -DBEACON_REQ_DELAY_MASK=0x00FF
//        -DLINK_STATUS_JITTER_MASK=0x007F -DROUTE_EXPIRY_TIME=30
//        -DAPSC_ACK_WAIT_DURATION_POLLED=3000 -DNWK_INDIRECT_MSG_TIMEOUT=7
//        -DMAX_RREQ_ENTRIES=8 -DAPSC_MAX_FRAME_RETRIES=3
//        -DNWK_MAX_DATA_RETRIES=2 -DMAX_POLL_FAILURE_RETRIES=2 -DMAX_BCAST=9
//        -DAPS_MAX_GROUPS=10 -DMAX_RTG_ENTRIES=15 -DNWK_MAX_BINDING_ENTRIES=4
//        -DMAX_BINDING_CLUSTER_IDS=4 -DDEFAULT_KEY={0}
//        -DMAC_MAX_FRAME_SIZE=116 -DZDNWKMGR_MIN_TRANSMISSIONS=20
//        "-DCONST=const __code" -DGENERIC=__generic -DRFD_RCVC_ALWAYS_ON=FALSE
//        -DPOLL_RATE=300 -DQUEUED_POLL_RATE=100 -DRESPONSE_POLL_RATE=100
//        -DREJOIN_POLL_RATE=440 -DREJOIN_BACKOFF=900000 -DREJOIN_SCAN=900000)
//        -f
//        D:\A_proj\A_Cproj\Zigbee\ZigBee-DoorLock-2021.09.27\Projects\zstack\AT-command\ATApp\CC2530DB\..\..\..\Tools\CC2530DB\f8wZCL.cfg
//        -I
//        D:\A_proj\A_Cproj\Zigbee\ZigBee-DoorLock-2021.09.27\Projects\zstack\AT-command\ATApp\CC2530DB\
//        -I
//        D:\A_proj\A_Cproj\Zigbee\ZigBee-DoorLock-2021.09.27\Projects\zstack\AT-command\ATApp\CC2530DB\..\Source\
//        -I
//        D:\A_proj\A_Cproj\Zigbee\ZigBee-DoorLock-2021.09.27\Projects\zstack\AT-command\ATApp\CC2530DB\..\Source\ZCL\
//        -I
//        D:\A_proj\A_Cproj\Zigbee\ZigBee-DoorLock-2021.09.27\Projects\zstack\AT-command\ATApp\CC2530DB\..\Source\UserAPI\
//        -I
//        D:\A_proj\A_Cproj\Zigbee\ZigBee-DoorLock-2021.09.27\Projects\zstack\AT-command\ATApp\CC2530DB\..\Source\Controller\
//        -I
//        D:\A_proj\A_Cproj\Zigbee\ZigBee-DoorLock-2021.09.27\Projects\zstack\AT-command\ATApp\CC2530DB\..\..\..\ZMain\TI2530DB\
//        -I
//        D:\A_proj\A_Cproj\Zigbee\ZigBee-DoorLock-2021.09.27\Projects\zstack\AT-command\ATApp\CC2530DB\..\..\..\..\..\Components\hal\include\
//        -I
//        D:\A_proj\A_Cproj\Zigbee\ZigBee-DoorLock-2021.09.27\Projects\zstack\AT-command\ATApp\CC2530DB\..\..\..\..\..\Components\hal\target\CC2530EB\
//        -I
//        D:\A_proj\A_Cproj\Zigbee\ZigBee-DoorLock-2021.09.27\Projects\zstack\AT-command\ATApp\CC2530DB\..\..\..\..\..\Components\mac\include\
//        -I
//        D:\A_proj\A_Cproj\Zigbee\ZigBee-DoorLock-2021.09.27\Projects\zstack\AT-command\ATApp\CC2530DB\..\..\..\..\..\Components\mac\high_level\
//        -I
//        D:\A_proj\A_Cproj\Zigbee\ZigBee-DoorLock-2021.09.27\Projects\zstack\AT-command\ATApp\CC2530DB\..\..\..\..\..\Components\mac\low_level\srf04\
//        -I
//        D:\A_proj\A_Cproj\Zigbee\ZigBee-DoorLock-2021.09.27\Projects\zstack\AT-command\ATApp\CC2530DB\..\..\..\..\..\Components\mac\low_level\srf04\single_chip\
//        -I
//        D:\A_proj\A_Cproj\Zigbee\ZigBee-DoorLock-2021.09.27\Projects\zstack\AT-command\ATApp\CC2530DB\..\..\..\..\..\Components\mt\
//        -I
//        D:\A_proj\A_Cproj\Zigbee\ZigBee-DoorLock-2021.09.27\Projects\zstack\AT-command\ATApp\CC2530DB\..\..\..\..\..\Components\osal\include\
//        -I
//        D:\A_proj\A_Cproj\Zigbee\ZigBee-DoorLock-2021.09.27\Projects\zstack\AT-command\ATApp\CC2530DB\..\..\..\..\..\Components\services\saddr\
//        -I
//        D:\A_proj\A_Cproj\Zigbee\ZigBee-DoorLock-2021.09.27\Projects\zstack\AT-command\ATApp\CC2530DB\..\..\..\..\..\Components\services\sdata\
//        -I
//        D:\A_proj\A_Cproj\Zigbee\ZigBee-DoorLock-2021.09.27\Projects\zstack\AT-command\ATApp\CC2530DB\..\..\..\..\..\Components\stack\af\
//        -I
//        D:\A_proj\A_Cproj\Zigbee\ZigBee-DoorLock-2021.09.27\Projects\zstack\AT-command\ATApp\CC2530DB\..\..\..\..\..\Components\stack\bdb\
//        -I
//        D:\A_proj\A_Cproj\Zigbee\ZigBee-DoorLock-2021.09.27\Projects\zstack\AT-command\ATApp\CC2530DB\..\..\..\..\..\Components\stack\gp\
//        -I
//        D:\A_proj\A_Cproj\Zigbee\ZigBee-DoorLock-2021.09.27\Projects\zstack\AT-command\ATApp\CC2530DB\..\..\..\..\..\Components\stack\nwk\
//        -I
//        D:\A_proj\A_Cproj\Zigbee\ZigBee-DoorLock-2021.09.27\Projects\zstack\AT-command\ATApp\CC2530DB\..\..\..\..\..\Components\stack\sapi\
//        -I
//        D:\A_proj\A_Cproj\Zigbee\ZigBee-DoorLock-2021.09.27\Projects\zstack\AT-command\ATApp\CC2530DB\..\..\..\..\..\Components\stack\sec\
//        -I
//        D:\A_proj\A_Cproj\Zigbee\ZigBee-DoorLock-2021.09.27\Projects\zstack\AT-command\ATApp\CC2530DB\..\..\..\..\..\Components\stack\sys\
//        -I
//        D:\A_proj\A_Cproj\Zigbee\ZigBee-DoorLock-2021.09.27\Projects\zstack\AT-command\ATApp\CC2530DB\..\..\..\..\..\Components\stack\zcl\
//        -I
//        D:\A_proj\A_Cproj\Zigbee\ZigBee-DoorLock-2021.09.27\Projects\zstack\AT-command\ATApp\CC2530DB\..\..\..\..\..\Components\stack\zdo\
//        -I
//        D:\A_proj\A_Cproj\Zigbee\ZigBee-DoorLock-2021.09.27\Projects\zstack\AT-command\ATApp\CC2530DB\..\..\..\..\..\Components\zmac\
//        -I
//        D:\A_proj\A_Cproj\Zigbee\ZigBee-DoorLock-2021.09.27\Projects\zstack\AT-command\ATApp\CC2530DB\..\..\..\..\..\Components\zmac\f8w\
//        -Ohz --require_prototypes)
//    Locale             =  Chinese (Simplified)_CHN.936
//    List file          =  
//        D:\A_proj\A_Cproj\Zigbee\ZigBee-DoorLock-2021.09.27\Projects\zstack\AT-command\ATApp\CC2530DB\EndDeviceEB\List\AT_cmd.s51
//
///////////////////////////////////////////////////////////////////////////////

        NAME AT_cmd

        RTMODEL "__SystemLibrary", "CLib"
        RTMODEL "__calling_convention", "xdata_reentrant"
        RTMODEL "__code_model", "banked"
        RTMODEL "__core", "plain"
        RTMODEL "__data_model", "large"
        RTMODEL "__dptr_size", "16"
        RTMODEL "__extended_stack", "disabled"
        RTMODEL "__location_for_constants", "data"
        RTMODEL "__number_of_dptrs", "1"
        RTMODEL "__register_banks", "*"
        RTMODEL "__rt_version", "1"

        RSEG DOVERLAY:DATA:NOROOT(0)
        RSEG IOVERLAY:IDATA:NOROOT(0)
        RSEG ISTACK:IDATA:NOROOT(0)
        RSEG PSTACK:XDATA:NOROOT(0)
        RSEG XSTACK:XDATA:NOROOT(0)

        EXTERN ?V0
        EXTERN ?V1
        EXTERN ?V2
        EXTERN ?V3
        EXTERN ?V4
        EXTERN ?V5
        EXTERN ?V6
        EXTERN ?V7
        EXTERN ?V8
        EXTERN ?V9
        EXTERN ?V10
        EXTERN ?V12
        EXTERN ?V13
        EXTERN ?V14
        EXTERN ?V15
        EXTERN ?V11
        EXTERN ?ALLOC_XSTACK8
        EXTERN ?BANKED_ENTER_XDATA
        EXTERN ?BANKED_LEAVE_XDATA
        EXTERN ?BDISPATCH
        EXTERN ?BRET
        EXTERN ?DEALLOC_XSTACK8
        EXTERN ?L_MOV_X
        EXTERN ?PUSH_XSTACK8_X_TWO
        EXTERN ?PUSH_XSTACK_I_THREE
        EXTERN ?PUSH_XSTACK_I_TWO
        EXTERN ?UL_SHR
        EXTERN ?US_SHR
        EXTERN ?US_SWITCH_SPARSE
        EXTERN ?XLOAD_R2345
        EXTERN ?XSP
        EXTERN ?XSTACK_DISP0_8
        EXTERN ?XSTACK_DISP100_8
        EXTERN ?XSTACK_DISP101_8
        EXTERN ?XSTACK_DISP102_8
        EXTERN __INIT_XDATA_I

        PUBLIC `??AT_Cmd_ESCAN_CB::?relay`
        FUNCTION `??AT_Cmd_ESCAN_CB::?relay`,0203H
        PUBLIC `??AT_Cmd_FN_CB::?relay`
        FUNCTION `??AT_Cmd_FN_CB::?relay`,0203H
        PUBLIC `??AT_Cmd_ProcessDataConfirm::?relay`
        FUNCTION `??AT_Cmd_ProcessDataConfirm::?relay`,0203H
        PUBLIC `??AT_ZDO_ProcessJOIN_CNF_CB::?relay`
        FUNCTION `??AT_ZDO_ProcessJOIN_CNF_CB::?relay`,0203H
        FUNCTION `??AT_ZDO_ProcessMgmtBindRsp::?relay`,0203H
        FUNCTION `??AT_ZDO_ProcessMgmtLqiRsp::?relay`,0203H
        PUBLIC `??AT_ZDO_ProcessMgmtNwkDiscRsp::?relay`
        FUNCTION `??AT_ZDO_ProcessMgmtNwkDiscRsp::?relay`,0203H
        FUNCTION `??AT_ZDO_ProcessMgmtRtgRsp::?relay`,0203H
        PUBLIC `??AT_ZDO_ProcessMsgCBs::?relay`
        FUNCTION `??AT_ZDO_ProcessMsgCBs::?relay`,0203H
        FUNCTION `??AT_ZDO_ProcessPowerDescRsp::?relay`,0203H
        FUNCTION `??AT_ZDO_ProcessSimpleDescRsp::?relay`,0203H
        PUBLIC `??AT_ZDO_Register::?relay`
        FUNCTION `??AT_ZDO_Register::?relay`,0203H
        FUNCTION `??GetSeqNumIndexInBuffer::?relay`,0203H
        PUBLIC `??StoreSeqNumInBuffer::?relay`
        FUNCTION `??StoreSeqNumInBuffer::?relay`,0203H
        PUBLIC AT_Cmd_ESCAN_CB
        FUNCTION AT_Cmd_ESCAN_CB,0a1203H
        ARGFRAME XSTACK, 0, STACK
        LOCFRAME XSTACK, 20, STACK
        PUBLIC AT_Cmd_FN_CB
        FUNCTION AT_Cmd_FN_CB,0a1203H
        ARGFRAME XSTACK, 0, STACK
        LOCFRAME XSTACK, 24, STACK
        PUBLIC AT_Cmd_ProcessDataConfirm
        FUNCTION AT_Cmd_ProcessDataConfirm,0a1203H
        ARGFRAME XSTACK, 0, STACK
        LOCFRAME XSTACK, 12, STACK
        PUBLIC AT_ZDO_ProcessJOIN_CNF_CB
        FUNCTION AT_ZDO_ProcessJOIN_CNF_CB,0a1203H
        ARGFRAME XSTACK, 0, STACK
        LOCFRAME XSTACK, 27, STACK
        FUNCTION AT_ZDO_ProcessMgmtBindRsp,0a1203H
        ARGFRAME XSTACK, 45, STACK
        ARGFRAME IOVERLAY, 0, STATIC
        ARGFRAME DOVERLAY, 0, STATIC
        LOCFRAME XSTACK, 60, STACK
        FUNCTION AT_ZDO_ProcessMgmtLqiRsp,0a1203H
        ARGFRAME XSTACK, 45, STACK
        ARGFRAME IOVERLAY, 0, STATIC
        ARGFRAME DOVERLAY, 0, STATIC
        LOCFRAME XSTACK, 36, STACK
        PUBLIC AT_ZDO_ProcessMgmtNwkDiscRsp
        FUNCTION AT_ZDO_ProcessMgmtNwkDiscRsp,0a1203H
        ARGFRAME XSTACK, 0, STACK
        LOCFRAME XSTACK, 30, STACK
        FUNCTION AT_ZDO_ProcessMgmtRtgRsp,0a1203H
        ARGFRAME XSTACK, 45, STACK
        ARGFRAME IOVERLAY, 0, STATIC
        ARGFRAME DOVERLAY, 0, STATIC
        LOCFRAME XSTACK, 22, STACK
        PUBLIC AT_ZDO_ProcessMsgCBs
        FUNCTION AT_ZDO_ProcessMsgCBs,0a1203H
        ARGFRAME XSTACK, 0, STACK
        LOCFRAME XSTACK, 57, STACK
        FUNCTION AT_ZDO_ProcessPowerDescRsp,0a1203H
        ARGFRAME XSTACK, 45, STACK
        ARGFRAME IOVERLAY, 0, STATIC
        ARGFRAME DOVERLAY, 0, STATIC
        LOCFRAME XSTACK, 19, STACK
        FUNCTION AT_ZDO_ProcessSimpleDescRsp,0a1203H
        ARGFRAME XSTACK, 45, STACK
        ARGFRAME IOVERLAY, 0, STATIC
        ARGFRAME DOVERLAY, 0, STATIC
        LOCFRAME XSTACK, 32, STACK
        PUBLIC AT_ZDO_Register
        FUNCTION AT_ZDO_Register,021203H
        ARGFRAME XSTACK, 0, STACK
        LOCFRAME XSTACK, 9, STACK
        PUBLIC EBindSeq
        FUNCTION GetSeqNumIndexInBuffer,0203H
        ARGFRAME XSTACK, 10, STACK
        ARGFRAME IOVERLAY, 0, STATIC
        ARGFRAME DOVERLAY, 0, STATIC
        LOCFRAME ISTACK, 2, STACK
        PUBLIC StoreSeqNumInBuffer
        FUNCTION StoreSeqNumInBuffer,021203H
        ARGFRAME XSTACK, 0, STACK
        LOCFRAME ISTACK, 1, STACK
        LOCFRAME XSTACK, 9, STACK
        PUBWEAK __Constant_7fff000
        PUBWEAK __Constant_800
        
          CFI Names cfiNames0
          CFI StackFrame CFA_SP SP IDATA
          CFI StackFrame CFA_PSP16 PSP16 XDATA
          CFI StackFrame CFA_XSP16 XSP16 XDATA
          CFI StaticOverlayFrame CFA_IOVERLAY IOVERLAY
          CFI StaticOverlayFrame CFA_DOVERLAY DOVERLAY
          CFI Resource `PSW.CY`:1, `B.BR0`:1, `B.BR1`:1, `B.BR2`:1, `B.BR3`:1
          CFI Resource `B.BR4`:1, `B.BR5`:1, `B.BR6`:1, `B.BR7`:1, `VB.BR8`:1
          CFI Resource `VB.BR9`:1, `VB.BR10`:1, `VB.BR11`:1, `VB.BR12`:1
          CFI Resource `VB.BR13`:1, `VB.BR14`:1, `VB.BR15`:1, VB:8, B:8, A:8
          CFI Resource PSW:8, DPL0:8, DPH0:8, R0:8, R1:8, R2:8, R3:8, R4:8, R5:8
          CFI Resource R6:8, R7:8, V0:8, V1:8, V2:8, V3:8, V4:8, V5:8, V6:8, V7:8
          CFI Resource V8:8, V9:8, V10:8, V11:8, V12:8, V13:8, V14:8, V15:8, SP:8
          CFI Resource PSPH:8, PSPL:8, PSP16:16, XSPH:8, XSPL:8, XSP16:16
          CFI VirtualResource ?RET:24
          CFI Resource ?BRET_EXT:8
          CFI VirtualResource ?RET_HIGH:8, ?RET_LOW:8
          CFI ResourceParts PSP16 PSPH, PSPL
          CFI ResourceParts XSP16 XSPH, XSPL
          CFI ResourceParts ?RET ?BRET_EXT, ?RET_HIGH, ?RET_LOW
          CFI EndNames cfiNames0
        
          CFI Common cfiCommon0 Using cfiNames0
          CFI CodeAlign 1
          CFI DataAlign -1
          CFI ReturnAddress ?RET CODE
          CFI CFA_DOVERLAY Used
          CFI CFA_IOVERLAY Used
          CFI CFA_SP SP+-3
          CFI CFA_PSP16 PSP16+0
          CFI CFA_XSP16 XSP16+0
          CFI `PSW.CY` SameValue
          CFI `B.BR0` SameValue
          CFI `B.BR1` SameValue
          CFI `B.BR2` SameValue
          CFI `B.BR3` SameValue
          CFI `B.BR4` SameValue
          CFI `B.BR5` SameValue
          CFI `B.BR6` SameValue
          CFI `B.BR7` SameValue
          CFI `VB.BR8` SameValue
          CFI `VB.BR9` SameValue
          CFI `VB.BR10` SameValue
          CFI `VB.BR11` SameValue
          CFI `VB.BR12` SameValue
          CFI `VB.BR13` SameValue
          CFI `VB.BR14` SameValue
          CFI `VB.BR15` SameValue
          CFI VB SameValue
          CFI B Undefined
          CFI A Undefined
          CFI PSW SameValue
          CFI DPL0 SameValue
          CFI DPH0 SameValue
          CFI R0 Undefined
          CFI R1 Undefined
          CFI R2 Undefined
          CFI R3 Undefined
          CFI R4 Undefined
          CFI R5 Undefined
          CFI R6 SameValue
          CFI R7 SameValue
          CFI V0 SameValue
          CFI V1 SameValue
          CFI V2 SameValue
          CFI V3 SameValue
          CFI V4 SameValue
          CFI V5 SameValue
          CFI V6 SameValue
          CFI V7 SameValue
          CFI V8 SameValue
          CFI V9 SameValue
          CFI V10 SameValue
          CFI V11 SameValue
          CFI V12 SameValue
          CFI V13 SameValue
          CFI V14 SameValue
          CFI V15 SameValue
          CFI PSPH Undefined
          CFI PSPL Undefined
          CFI XSPH Undefined
          CFI XSPL Undefined
          CFI ?RET Concat
          CFI ?BRET_EXT Frame(CFA_SP, 3)
          CFI ?RET_HIGH Frame(CFA_SP, 2)
          CFI ?RET_LOW Frame(CFA_SP, 1)
          CFI EndCommon cfiCommon0
        
        
          CFI Common cfiCommon1 Using cfiNames0
          CFI CodeAlign 1
          CFI DataAlign -1
          CFI ReturnAddress ?RET CODE
          CFI CFA_DOVERLAY Used
          CFI CFA_IOVERLAY Used
          CFI CFA_SP SP+-2
          CFI CFA_PSP16 PSP16+0
          CFI CFA_XSP16 XSP16+0
          CFI `PSW.CY` SameValue
          CFI `B.BR0` SameValue
          CFI `B.BR1` SameValue
          CFI `B.BR2` SameValue
          CFI `B.BR3` SameValue
          CFI `B.BR4` SameValue
          CFI `B.BR5` SameValue
          CFI `B.BR6` SameValue
          CFI `B.BR7` SameValue
          CFI `VB.BR8` SameValue
          CFI `VB.BR9` SameValue
          CFI `VB.BR10` SameValue
          CFI `VB.BR11` SameValue
          CFI `VB.BR12` SameValue
          CFI `VB.BR13` SameValue
          CFI `VB.BR14` SameValue
          CFI `VB.BR15` SameValue
          CFI VB SameValue
          CFI B SameValue
          CFI A SameValue
          CFI PSW SameValue
          CFI DPL0 SameValue
          CFI DPH0 SameValue
          CFI R0 SameValue
          CFI R1 SameValue
          CFI R2 SameValue
          CFI R3 SameValue
          CFI R4 SameValue
          CFI R5 SameValue
          CFI R6 SameValue
          CFI R7 SameValue
          CFI V0 SameValue
          CFI V1 SameValue
          CFI V2 SameValue
          CFI V3 SameValue
          CFI V4 SameValue
          CFI V5 SameValue
          CFI V6 SameValue
          CFI V7 SameValue
          CFI V8 SameValue
          CFI V9 SameValue
          CFI V10 SameValue
          CFI V11 SameValue
          CFI V12 SameValue
          CFI V13 SameValue
          CFI V14 SameValue
          CFI V15 SameValue
          CFI PSPH Undefined
          CFI PSPL Undefined
          CFI XSPH Undefined
          CFI XSPL Undefined
          CFI ?RET Concat
          CFI ?BRET_EXT SameValue
          CFI ?RET_HIGH Frame(CFA_SP, 2)
          CFI ?RET_LOW Frame(CFA_SP, 1)
          CFI EndCommon cfiCommon1
        
AT_GetIEEEAddrStr   SYMBOL "AT_GetIEEEAddrStr"
`??AT_GetIEEEAddrStr::?relay` SYMBOL "?relay", AT_GetIEEEAddrStr
AT_Int16toChar      SYMBOL "AT_Int16toChar"
`??AT_Int16toChar::?relay` SYMBOL "?relay", AT_Int16toChar
AT_Int8toChar       SYMBOL "AT_Int8toChar"
`??AT_Int8toChar::?relay` SYMBOL "?relay", AT_Int8toChar
AT_UARTWriteErrMsg  SYMBOL "AT_UARTWriteErrMsg"
`??AT_UARTWriteErrMsg::?relay` SYMBOL "?relay", AT_UARTWriteErrMsg
AT_Uart0_Send       SYMBOL "AT_Uart0_Send"
`??AT_Uart0_Send::?relay` SYMBOL "?relay", AT_Uart0_Send
NLME_GetShortAddr   SYMBOL "NLME_GetShortAddr"
`??NLME_GetShortAddr::?relay` SYMBOL "?relay", NLME_GetShortAddr
NLME_NwkDiscTerm    SYMBOL "NLME_NwkDiscTerm"
`??NLME_NwkDiscTerm::?relay` SYMBOL "?relay", NLME_NwkDiscTerm
`?<Name ZDNwkMgr_EDScanConfi 14>` SYMBOL "ZDNwkMgr_EDScanConfirmCB"
`??ZDNwkMgr_EDScanConfirmCB::?relay` SYMBOL "?relay", `?<Name ZDNwkMgr_EDScanConfi 14>`
ZDO_ParseAddrRsp    SYMBOL "ZDO_ParseAddrRsp"
`??ZDO_ParseAddrRsp::?relay` SYMBOL "?relay", ZDO_ParseAddrRsp
ZDO_ParseDeviceAnnce SYMBOL "ZDO_ParseDeviceAnnce"
`??ZDO_ParseDeviceAnnce::?relay` SYMBOL "?relay", ZDO_ParseDeviceAnnce
ZDO_ParseEPListRsp  SYMBOL "ZDO_ParseEPListRsp"
`??ZDO_ParseEPListRsp::?relay` SYMBOL "?relay", ZDO_ParseEPListRsp
ZDO_ParseMgmNwkDiscRsp SYMBOL "ZDO_ParseMgmNwkDiscRsp"
`??ZDO_ParseMgmNwkDiscRsp::?relay` SYMBOL "?relay", ZDO_ParseMgmNwkDiscRsp
ZDO_ParseMgmtBindRsp SYMBOL "ZDO_ParseMgmtBindRsp"
`??ZDO_ParseMgmtBindRsp::?relay` SYMBOL "?relay", ZDO_ParseMgmtBindRsp
ZDO_ParseMgmtLqiRsp SYMBOL "ZDO_ParseMgmtLqiRsp"
`??ZDO_ParseMgmtLqiRsp::?relay` SYMBOL "?relay", ZDO_ParseMgmtLqiRsp
ZDO_ParseMgmtRtgRsp SYMBOL "ZDO_ParseMgmtRtgRsp"
`??ZDO_ParseMgmtRtgRsp::?relay` SYMBOL "?relay", ZDO_ParseMgmtRtgRsp
ZDO_ParsePowerDescRsp SYMBOL "ZDO_ParsePowerDescRsp"
`??ZDO_ParsePowerDescRsp::?relay` SYMBOL "?relay", ZDO_ParsePowerDescRsp
ZDO_ParseSimpleDescRsp SYMBOL "ZDO_ParseSimpleDescRsp"
`??ZDO_ParseSimpleDescRsp::?relay` SYMBOL "?relay", ZDO_ParseSimpleDescRsp
ZDO_RegisterForZDOMsg SYMBOL "ZDO_RegisterForZDOMsg"
`??ZDO_RegisterForZDOMsg::?relay` SYMBOL "?relay", ZDO_RegisterForZDOMsg
ZDO_RegisterForZdoCB SYMBOL "ZDO_RegisterForZdoCB"
`??ZDO_RegisterForZdoCB::?relay` SYMBOL "?relay", ZDO_RegisterForZdoCB
bdb_setChannelAttribute SYMBOL "bdb_setChannelAttribute"
`??bdb_setChannelAttribute::?relay` SYMBOL "?relay", bdb_setChannelAttribute
osal_mem_alloc      SYMBOL "osal_mem_alloc"
`??osal_mem_alloc::?relay` SYMBOL "?relay", osal_mem_alloc
osal_mem_free       SYMBOL "osal_mem_free"
`??osal_mem_free::?relay` SYMBOL "?relay", osal_mem_free
osal_memcpy         SYMBOL "osal_memcpy"
`??osal_memcpy::?relay` SYMBOL "?relay", osal_memcpy
osal_nv_item_init   SYMBOL "osal_nv_item_init"
`??osal_nv_item_init::?relay` SYMBOL "?relay", osal_nv_item_init
osal_nv_write       SYMBOL "osal_nv_write"
`??osal_nv_write::?relay` SYMBOL "?relay", osal_nv_write
printf              SYMBOL "printf"
`??printf::?relay`  SYMBOL "?relay", printf
sprintf             SYMBOL "sprintf"
`??sprintf::?relay` SYMBOL "?relay", sprintf
AT_Cmd_ESCAN_CB     SYMBOL "AT_Cmd_ESCAN_CB"
`??AT_Cmd_ESCAN_CB::?relay` SYMBOL "?relay", AT_Cmd_ESCAN_CB
AT_Cmd_FN_CB        SYMBOL "AT_Cmd_FN_CB"
`??AT_Cmd_FN_CB::?relay` SYMBOL "?relay", AT_Cmd_FN_CB
AT_Cmd_ProcessDataConfirm SYMBOL "AT_Cmd_ProcessDataConfirm"
`??AT_Cmd_ProcessDataConfirm::?relay` SYMBOL "?relay", AT_Cmd_ProcessDataConfirm
AT_ZDO_ProcessJOIN_CNF_CB SYMBOL "AT_ZDO_ProcessJOIN_CNF_CB"
`??AT_ZDO_ProcessJOIN_CNF_CB::?relay` SYMBOL "?relay", AT_ZDO_ProcessJOIN_CNF_CB
AT_ZDO_ProcessMgmtNwkDiscRsp SYMBOL "AT_ZDO_ProcessMgmtNwkDiscRsp"
`??AT_ZDO_ProcessMgmtNwkDiscRsp::?relay` SYMBOL "?relay", AT_ZDO_ProcessMgmtNwkDiscRsp
AT_ZDO_ProcessMsgCBs SYMBOL "AT_ZDO_ProcessMsgCBs"
`??AT_ZDO_ProcessMsgCBs::?relay` SYMBOL "?relay", AT_ZDO_ProcessMsgCBs
AT_ZDO_Register     SYMBOL "AT_ZDO_Register"
`??AT_ZDO_Register::?relay` SYMBOL "?relay", AT_ZDO_Register
StoreSeqNumInBuffer SYMBOL "StoreSeqNumInBuffer"
`??StoreSeqNumInBuffer::?relay` SYMBOL "?relay", StoreSeqNumInBuffer

        EXTERN `??AT_GetIEEEAddrStr::?relay`
        FUNCTION `??AT_GetIEEEAddrStr::?relay`,00H
        EXTERN `??AT_Int16toChar::?relay`
        FUNCTION `??AT_Int16toChar::?relay`,00H
        EXTERN `??AT_Int8toChar::?relay`
        FUNCTION `??AT_Int8toChar::?relay`,00H
        EXTERN `??AT_UARTWriteErrMsg::?relay`
        FUNCTION `??AT_UARTWriteErrMsg::?relay`,00H
        EXTERN `??AT_Uart0_Send::?relay`
        FUNCTION `??AT_Uart0_Send::?relay`,00H
        EXTERN `??NLME_GetShortAddr::?relay`
        FUNCTION `??NLME_GetShortAddr::?relay`,00H
        EXTERN `??NLME_NwkDiscTerm::?relay`
        FUNCTION `??NLME_NwkDiscTerm::?relay`,00H
        EXTERN `??ZDNwkMgr_EDScanConfirmCB::?relay`
        FUNCTION `??ZDNwkMgr_EDScanConfirmCB::?relay`,00H
        EXTERN `??ZDO_ParseAddrRsp::?relay`
        FUNCTION `??ZDO_ParseAddrRsp::?relay`,00H
        EXTERN `??ZDO_ParseDeviceAnnce::?relay`
        FUNCTION `??ZDO_ParseDeviceAnnce::?relay`,00H
        EXTERN `??ZDO_ParseEPListRsp::?relay`
        FUNCTION `??ZDO_ParseEPListRsp::?relay`,00H
        EXTERN `??ZDO_ParseMgmNwkDiscRsp::?relay`
        FUNCTION `??ZDO_ParseMgmNwkDiscRsp::?relay`,00H
        EXTERN `??ZDO_ParseMgmtBindRsp::?relay`
        FUNCTION `??ZDO_ParseMgmtBindRsp::?relay`,00H
        EXTERN `??ZDO_ParseMgmtLqiRsp::?relay`
        FUNCTION `??ZDO_ParseMgmtLqiRsp::?relay`,00H
        EXTERN `??ZDO_ParseMgmtRtgRsp::?relay`
        FUNCTION `??ZDO_ParseMgmtRtgRsp::?relay`,00H
        EXTERN `??ZDO_ParsePowerDescRsp::?relay`
        FUNCTION `??ZDO_ParsePowerDescRsp::?relay`,00H
        EXTERN `??ZDO_ParseSimpleDescRsp::?relay`
        FUNCTION `??ZDO_ParseSimpleDescRsp::?relay`,00H
        EXTERN `??ZDO_RegisterForZDOMsg::?relay`
        FUNCTION `??ZDO_RegisterForZDOMsg::?relay`,00H
        EXTERN `??ZDO_RegisterForZdoCB::?relay`
        FUNCTION `??ZDO_RegisterForZdoCB::?relay`,00H
        EXTERN `??bdb_setChannelAttribute::?relay`
        FUNCTION `??bdb_setChannelAttribute::?relay`,00H
        EXTERN `??osal_mem_alloc::?relay`
        FUNCTION `??osal_mem_alloc::?relay`,00H
        EXTERN `??osal_mem_free::?relay`
        FUNCTION `??osal_mem_free::?relay`,00H
        EXTERN `??osal_memcpy::?relay`
        FUNCTION `??osal_memcpy::?relay`,00H
        EXTERN `??osal_nv_item_init::?relay`
        FUNCTION `??osal_nv_item_init::?relay`,00H
        EXTERN `??osal_nv_write::?relay`
        FUNCTION `??osal_nv_write::?relay`,00H
        EXTERN `??printf::?relay`
        FUNCTION `??printf::?relay`,00H
        EXTERN `??sprintf::?relay`
        FUNCTION `??sprintf::?relay`,00H
        EXTERN AT_GetIEEEAddrStr
        FUNCTION AT_GetIEEEAddrStr,0202H
        ARGFRAME ISTACK, 0, STACK
        ARGFRAME PSTACK, 0, STACK
        ARGFRAME XSTACK, 45, STACK
        ARGFRAME IOVERLAY, 0, STATIC
        ARGFRAME DOVERLAY, 0, STATIC
        EXTERN AT_Int16toChar
        FUNCTION AT_Int16toChar,0202H
        ARGFRAME ISTACK, 0, STACK
        ARGFRAME PSTACK, 0, STACK
        ARGFRAME XSTACK, 45, STACK
        ARGFRAME IOVERLAY, 0, STATIC
        ARGFRAME DOVERLAY, 0, STATIC
        EXTERN AT_Int8toChar
        FUNCTION AT_Int8toChar,0202H
        ARGFRAME ISTACK, 0, STACK
        ARGFRAME PSTACK, 0, STACK
        ARGFRAME XSTACK, 45, STACK
        ARGFRAME IOVERLAY, 0, STATIC
        ARGFRAME DOVERLAY, 0, STATIC
        EXTERN AT_UARTWriteErrMsg
        FUNCTION AT_UARTWriteErrMsg,0202H
        ARGFRAME ISTACK, 0, STACK
        ARGFRAME PSTACK, 0, STACK
        ARGFRAME XSTACK, 15, STACK
        ARGFRAME IOVERLAY, 0, STATIC
        ARGFRAME DOVERLAY, 0, STATIC
        EXTERN AT_Uart0_Send
        FUNCTION AT_Uart0_Send,0202H
        ARGFRAME ISTACK, 0, STACK
        ARGFRAME PSTACK, 0, STACK
        ARGFRAME XSTACK, 45, STACK
        ARGFRAME IOVERLAY, 0, STATIC
        ARGFRAME DOVERLAY, 0, STATIC
        EXTERN NLME_GetShortAddr
        FUNCTION NLME_GetShortAddr,0202H
        ARGFRAME ISTACK, 0, STACK
        ARGFRAME PSTACK, 0, STACK
        ARGFRAME XSTACK, 45, STACK
        ARGFRAME IOVERLAY, 0, STATIC
        ARGFRAME DOVERLAY, 0, STATIC
        EXTERN NLME_NwkDiscTerm
        FUNCTION NLME_NwkDiscTerm,0202H
        ARGFRAME ISTACK, 0, STACK
        ARGFRAME PSTACK, 0, STACK
        ARGFRAME XSTACK, 16, STACK
        ARGFRAME IOVERLAY, 0, STATIC
        ARGFRAME DOVERLAY, 0, STATIC
        EXTERN ZDO_ParseAddrRsp
        FUNCTION ZDO_ParseAddrRsp,0202H
        ARGFRAME ISTACK, 0, STACK
        ARGFRAME PSTACK, 0, STACK
        ARGFRAME XSTACK, 45, STACK
        ARGFRAME IOVERLAY, 0, STATIC
        ARGFRAME DOVERLAY, 0, STATIC
        EXTERN ZDO_ParseDeviceAnnce
        FUNCTION ZDO_ParseDeviceAnnce,0202H
        ARGFRAME ISTACK, 0, STACK
        ARGFRAME PSTACK, 0, STACK
        ARGFRAME XSTACK, 45, STACK
        ARGFRAME IOVERLAY, 0, STATIC
        ARGFRAME DOVERLAY, 0, STATIC
        EXTERN ZDO_ParseEPListRsp
        FUNCTION ZDO_ParseEPListRsp,0202H
        ARGFRAME ISTACK, 0, STACK
        ARGFRAME PSTACK, 0, STACK
        ARGFRAME XSTACK, 45, STACK
        ARGFRAME IOVERLAY, 0, STATIC
        ARGFRAME DOVERLAY, 0, STATIC
        EXTERN ZDO_ParseMgmNwkDiscRsp
        FUNCTION ZDO_ParseMgmNwkDiscRsp,0202H
        ARGFRAME ISTACK, 0, STACK
        ARGFRAME PSTACK, 0, STACK
        ARGFRAME XSTACK, 14, STACK
        ARGFRAME IOVERLAY, 0, STATIC
        ARGFRAME DOVERLAY, 0, STATIC
        EXTERN ZDO_ParseMgmtBindRsp
        FUNCTION ZDO_ParseMgmtBindRsp,0202H
        ARGFRAME ISTACK, 0, STACK
        ARGFRAME PSTACK, 0, STACK
        ARGFRAME XSTACK, 42, STACK
        ARGFRAME IOVERLAY, 0, STATIC
        ARGFRAME DOVERLAY, 0, STATIC
        EXTERN ZDO_ParseMgmtLqiRsp
        FUNCTION ZDO_ParseMgmtLqiRsp,0202H
        ARGFRAME ISTACK, 0, STACK
        ARGFRAME PSTACK, 0, STACK
        ARGFRAME XSTACK, 24, STACK
        ARGFRAME IOVERLAY, 0, STATIC
        ARGFRAME DOVERLAY, 0, STATIC
        EXTERN ZDO_ParseMgmtRtgRsp
        FUNCTION ZDO_ParseMgmtRtgRsp,0202H
        ARGFRAME ISTACK, 0, STACK
        ARGFRAME PSTACK, 0, STACK
        ARGFRAME XSTACK, 14, STACK
        ARGFRAME IOVERLAY, 0, STATIC
        ARGFRAME DOVERLAY, 0, STATIC
        EXTERN ZDO_ParsePowerDescRsp
        FUNCTION ZDO_ParsePowerDescRsp,0202H
        ARGFRAME ISTACK, 0, STACK
        ARGFRAME PSTACK, 0, STACK
        ARGFRAME XSTACK, 15, STACK
        ARGFRAME IOVERLAY, 0, STATIC
        ARGFRAME DOVERLAY, 0, STATIC
        EXTERN ZDO_ParseSimpleDescRsp
        FUNCTION ZDO_ParseSimpleDescRsp,0202H
        ARGFRAME ISTACK, 0, STACK
        ARGFRAME PSTACK, 0, STACK
        ARGFRAME XSTACK, 28, STACK
        ARGFRAME IOVERLAY, 0, STATIC
        ARGFRAME DOVERLAY, 0, STATIC
        EXTERN ZDO_RegisterForZDOMsg
        FUNCTION ZDO_RegisterForZDOMsg,0202H
        ARGFRAME ISTACK, 0, STACK
        ARGFRAME PSTACK, 0, STACK
        ARGFRAME XSTACK, 9, STACK
        ARGFRAME IOVERLAY, 0, STATIC
        ARGFRAME DOVERLAY, 0, STATIC
        EXTERN ZDO_RegisterForZdoCB
        FUNCTION ZDO_RegisterForZdoCB,0202H
        ARGFRAME ISTACK, 0, STACK
        ARGFRAME PSTACK, 0, STACK
        ARGFRAME XSTACK, 15, STACK
        ARGFRAME IOVERLAY, 0, STATIC
        ARGFRAME DOVERLAY, 0, STATIC
        EXTERN ZDO_UseExtendedPANID
        EXTERN _NIB
        EXTERN bdb_setChannelAttribute
        FUNCTION bdb_setChannelAttribute,0202H
        ARGFRAME ISTACK, 0, STACK
        ARGFRAME PSTACK, 0, STACK
        ARGFRAME XSTACK, 15, STACK
        ARGFRAME IOVERLAY, 0, STATIC
        ARGFRAME DOVERLAY, 0, STATIC
        EXTERN notdoEUIREQcmd
        EXTERN notdoSCANCmd
        EXTERN notdoSIMPLEDESCcmd
        EXTERN osal_mem_alloc
        FUNCTION osal_mem_alloc,0202H
        ARGFRAME ISTACK, 0, STACK
        ARGFRAME PSTACK, 0, STACK
        ARGFRAME XSTACK, 45, STACK
        ARGFRAME IOVERLAY, 0, STATIC
        ARGFRAME DOVERLAY, 0, STATIC
        EXTERN osal_mem_free
        FUNCTION osal_mem_free,0202H
        ARGFRAME ISTACK, 0, STACK
        ARGFRAME PSTACK, 0, STACK
        ARGFRAME XSTACK, 45, STACK
        ARGFRAME IOVERLAY, 0, STATIC
        ARGFRAME DOVERLAY, 0, STATIC
        EXTERN osal_memcpy
        FUNCTION osal_memcpy,0202H
        ARGFRAME ISTACK, 0, STACK
        ARGFRAME PSTACK, 0, STACK
        ARGFRAME XSTACK, 18, STACK
        ARGFRAME IOVERLAY, 0, STATIC
        ARGFRAME DOVERLAY, 0, STATIC
        EXTERN osal_nv_item_init
        FUNCTION osal_nv_item_init,0202H
        ARGFRAME ISTACK, 0, STACK
        ARGFRAME PSTACK, 0, STACK
        ARGFRAME XSTACK, 17, STACK
        ARGFRAME IOVERLAY, 0, STATIC
        ARGFRAME DOVERLAY, 0, STATIC
        EXTERN osal_nv_write
        FUNCTION osal_nv_write,0202H
        ARGFRAME ISTACK, 0, STACK
        ARGFRAME PSTACK, 0, STACK
        ARGFRAME XSTACK, 19, STACK
        ARGFRAME IOVERLAY, 0, STATIC
        ARGFRAME DOVERLAY, 0, STATIC
        EXTERN pZDNwkMgr_EDScanConfirmCB
        EXTERN printf
        FUNCTION printf,0202H
        ARGFRAME ISTACK, 0, STACK
        ARGFRAME PSTACK, 0, STACK
        ARGFRAME XSTACK, 60, STACK
        ARGFRAME IOVERLAY, 0, STATIC
        ARGFRAME DOVERLAY, 0, STATIC
        EXTERN sprintf
        FUNCTION sprintf,0202H
        ARGFRAME ISTACK, 0, STACK
        ARGFRAME PSTACK, 0, STACK
        ARGFRAME XSTACK, 44, STACK
        ARGFRAME IOVERLAY, 0, STATIC
        ARGFRAME DOVERLAY, 0, STATIC
        EXTERN zgConfigPANID

// D:\A_proj\A_Cproj\Zigbee\ZigBee-DoorLock-2021.09.27\Projects\zstack\AT-command\ATApp\Source\UserAPI\AT_cmd.c
//    1 /**************************************************************************************************
//    2   Filename:       AT_uart.c
//    3 
//    4   Description:    AT command functions
//    5   Author:         Yasin Zhang
//    6 **************************************************************************************************/
//    7 
//    8 /*********************************************************************
//    9  * INCLUDES
//   10  */
//   11 #include "string.h"
//   12 #include "ZDNwkMgr.h"
//   13 #include "ZDObject.h"
//   14 #include "zcl.h"
//   15 
//   16 #include "bdb.h"
//   17 #include "bdb_interface.h"
//   18 
//   19 #include "AT_cmd.h"
//   20 #include "ATApp.h"
//   21 #include "AT_controller.h"
//   22 
//   23 /*********************************************************************
//   24  * MACROS
//   25  */
//   26 
//   27 /*********************************************************************
//   28  * CONSTANTS
//   29  */
//   30 
//   31 /*********************************************************************
//   32  * TYPEDEFS
//   33  */
//   34 
//   35 /*********************************************************************
//   36  * GLOBAL VARIABLES
//   37  */

        RSEG XDATA_I:XDATA:NOROOT(0)
//   38 uint8 EBindSeq = 0xFF;
EBindSeq:
        DATA8
        DS 1
        REQUIRE `?<Initializer for EBindSeq>`
        REQUIRE __INIT_XDATA_I
//   39 
//   40 /*********************************************************************
//   41  * EXTERNAL VARIABLES
//   42  */
//   43 
//   44 /*********************************************************************
//   45  * EXTERNAL FUNCTIONS
//   46  */
//   47 // the Energy scan call back funtion
//   48 extern void ZDNwkMgr_EDScanConfirmCB( NLME_EDScanConfirm_t *EDScanConfirm );
//   49 
//   50 /*********************************************************************
//   51  * LOCAL VARIABLES
//   52  */

        RSEG XDATA_I:XDATA:NOROOT(0)
//   53 static ATSeqBuffer seqBuff = { 0xFF, 0xFF, 0xFF, 0xFF, 0xFF };
seqBuff:
        DATA8
        DS 5
        REQUIRE `?<Initializer for seqBuff>`
        REQUIRE __INIT_XDATA_I
//   54 
//   55 /*********************************************************************
//   56  * LOCAL FUNCTIONS
//   57  */
//   58 static uint8 GetSeqNumIndexInBuffer( uint8 seqNum );
//   59 static void ResetSeqNumInBuffer ( uint8 index );
//   60 
//   61 static void AT_ZDO_ProcessPowerDescRsp( zdoIncomingMsg_t *inMsg );
//   62 static void AT_ZDO_ProcessActEpRsp( zdoIncomingMsg_t *inMsg );
//   63 static void AT_ZDO_ProcessSimpleDescRsp( zdoIncomingMsg_t *inMsg );
//   64 static void AT_ZDO_ProcessMatchDescRsp( zdoIncomingMsg_t *inMsg );
//   65 static void AT_ZDO_ProcessAnnceRsp( zdoIncomingMsg_t *inMsg );
//   66 static void AT_ZDO_ProcessMgmtLqiRsp( zdoIncomingMsg_t *inMsg );
//   67 static void AT_ZDO_ProcessMgmtRtgRsp( zdoIncomingMsg_t *inMsg );
//   68 static void AT_ZDO_ProcessMgmtBindRsp( zdoIncomingMsg_t *inMsg );
//   69 static void AT_ZDO_ProcessBindRsp( zdoIncomingMsg_t *inMsg );
//   70 static void AT_ZDO_ProcessUnbindRsp( zdoIncomingMsg_t *inMsg );
//   71 static void AT_ZDO_ProcessEDbindRsp( zdoIncomingMsg_t *inMsg );
//   72 static void AT_ZDO_ProcessMgmtLeaveRsp( zdoIncomingMsg_t *inMsg );
//   73 
//   74 /*********************************************************************
//   75  * PUBLIC FUNCTIONS
//   76  */
//   77 
//   78 /*******************************************************************************
//   79 * @fn      AT_ZDO_Register
//   80 *
//   81 * @brief   Register ZDO messages
//   82 *
//   83 * @param   pTask_id - tack_id pointer
//   84 *
//   85 * @return  None
//   86 ******************************************************************************/

        RSEG BANKED_CODE:HUGECODE:NOROOT(0)
//   87 void AT_ZDO_Register( uint8 *pTask_id )
AT_ZDO_Register:
          CFI Block cfiBlock0 Using cfiCommon0
          CFI Function AT_ZDO_Register
        CODE
//   88 {
        FUNCALL AT_ZDO_Register, ZDO_RegisterForZDOMsg
        LOCFRAME ISTACK, 0, STACK
        LOCFRAME PSTACK, 0, STACK
        LOCFRAME XSTACK, 9, STACK
        LOCFRAME IOVERLAY, 0, STATIC
        LOCFRAME DOVERLAY, 0, STATIC
        ARGFRAME ISTACK, 0, STACK
        ARGFRAME PSTACK, 0, STACK
        ARGFRAME XSTACK, 9, STACK
        ARGFRAME IOVERLAY, 0, STATIC
        ARGFRAME DOVERLAY, 0, STATIC
        FUNCALL AT_ZDO_Register, ZDO_RegisterForZDOMsg
        LOCFRAME ISTACK, 0, STACK
        LOCFRAME PSTACK, 0, STACK
        LOCFRAME XSTACK, 9, STACK
        LOCFRAME IOVERLAY, 0, STATIC
        LOCFRAME DOVERLAY, 0, STATIC
        ARGFRAME ISTACK, 0, STACK
        ARGFRAME PSTACK, 0, STACK
        ARGFRAME XSTACK, 9, STACK
        ARGFRAME IOVERLAY, 0, STATIC
        ARGFRAME DOVERLAY, 0, STATIC
        FUNCALL AT_ZDO_Register, ZDO_RegisterForZDOMsg
        LOCFRAME ISTACK, 0, STACK
        LOCFRAME PSTACK, 0, STACK
        LOCFRAME XSTACK, 9, STACK
        LOCFRAME IOVERLAY, 0, STATIC
        LOCFRAME DOVERLAY, 0, STATIC
        ARGFRAME ISTACK, 0, STACK
        ARGFRAME PSTACK, 0, STACK
        ARGFRAME XSTACK, 9, STACK
        ARGFRAME IOVERLAY, 0, STATIC
        ARGFRAME DOVERLAY, 0, STATIC
        FUNCALL AT_ZDO_Register, ZDO_RegisterForZDOMsg
        LOCFRAME ISTACK, 0, STACK
        LOCFRAME PSTACK, 0, STACK
        LOCFRAME XSTACK, 9, STACK
        LOCFRAME IOVERLAY, 0, STATIC
        LOCFRAME DOVERLAY, 0, STATIC
        ARGFRAME ISTACK, 0, STACK
        ARGFRAME PSTACK, 0, STACK
        ARGFRAME XSTACK, 9, STACK
        ARGFRAME IOVERLAY, 0, STATIC
        ARGFRAME DOVERLAY, 0, STATIC
        FUNCALL AT_ZDO_Register, ZDO_RegisterForZDOMsg
        LOCFRAME ISTACK, 0, STACK
        LOCFRAME PSTACK, 0, STACK
        LOCFRAME XSTACK, 9, STACK
        LOCFRAME IOVERLAY, 0, STATIC
        LOCFRAME DOVERLAY, 0, STATIC
        ARGFRAME ISTACK, 0, STACK
        ARGFRAME PSTACK, 0, STACK
        ARGFRAME XSTACK, 9, STACK
        ARGFRAME IOVERLAY, 0, STATIC
        ARGFRAME DOVERLAY, 0, STATIC
        FUNCALL AT_ZDO_Register, ZDO_RegisterForZDOMsg
        LOCFRAME ISTACK, 0, STACK
        LOCFRAME PSTACK, 0, STACK
        LOCFRAME XSTACK, 9, STACK
        LOCFRAME IOVERLAY, 0, STATIC
        LOCFRAME DOVERLAY, 0, STATIC
        ARGFRAME ISTACK, 0, STACK
        ARGFRAME PSTACK, 0, STACK
        ARGFRAME XSTACK, 9, STACK
        ARGFRAME IOVERLAY, 0, STATIC
        ARGFRAME DOVERLAY, 0, STATIC
        FUNCALL AT_ZDO_Register, ZDO_RegisterForZDOMsg
        LOCFRAME ISTACK, 0, STACK
        LOCFRAME PSTACK, 0, STACK
        LOCFRAME XSTACK, 9, STACK
        LOCFRAME IOVERLAY, 0, STATIC
        LOCFRAME DOVERLAY, 0, STATIC
        ARGFRAME ISTACK, 0, STACK
        ARGFRAME PSTACK, 0, STACK
        ARGFRAME XSTACK, 9, STACK
        ARGFRAME IOVERLAY, 0, STATIC
        ARGFRAME DOVERLAY, 0, STATIC
        FUNCALL AT_ZDO_Register, ZDO_RegisterForZDOMsg
        LOCFRAME ISTACK, 0, STACK
        LOCFRAME PSTACK, 0, STACK
        LOCFRAME XSTACK, 9, STACK
        LOCFRAME IOVERLAY, 0, STATIC
        LOCFRAME DOVERLAY, 0, STATIC
        ARGFRAME ISTACK, 0, STACK
        ARGFRAME PSTACK, 0, STACK
        ARGFRAME XSTACK, 9, STACK
        ARGFRAME IOVERLAY, 0, STATIC
        ARGFRAME DOVERLAY, 0, STATIC
        FUNCALL AT_ZDO_Register, ZDO_RegisterForZDOMsg
        LOCFRAME ISTACK, 0, STACK
        LOCFRAME PSTACK, 0, STACK
        LOCFRAME XSTACK, 9, STACK
        LOCFRAME IOVERLAY, 0, STATIC
        LOCFRAME DOVERLAY, 0, STATIC
        ARGFRAME ISTACK, 0, STACK
        ARGFRAME PSTACK, 0, STACK
        ARGFRAME XSTACK, 9, STACK
        ARGFRAME IOVERLAY, 0, STATIC
        ARGFRAME DOVERLAY, 0, STATIC
        FUNCALL AT_ZDO_Register, ZDO_RegisterForZDOMsg
        LOCFRAME ISTACK, 0, STACK
        LOCFRAME PSTACK, 0, STACK
        LOCFRAME XSTACK, 9, STACK
        LOCFRAME IOVERLAY, 0, STATIC
        LOCFRAME DOVERLAY, 0, STATIC
        ARGFRAME ISTACK, 0, STACK
        ARGFRAME PSTACK, 0, STACK
        ARGFRAME XSTACK, 9, STACK
        ARGFRAME IOVERLAY, 0, STATIC
        ARGFRAME DOVERLAY, 0, STATIC
        FUNCALL AT_ZDO_Register, ZDO_RegisterForZDOMsg
        LOCFRAME ISTACK, 0, STACK
        LOCFRAME PSTACK, 0, STACK
        LOCFRAME XSTACK, 9, STACK
        LOCFRAME IOVERLAY, 0, STATIC
        LOCFRAME DOVERLAY, 0, STATIC
        ARGFRAME ISTACK, 0, STACK
        ARGFRAME PSTACK, 0, STACK
        ARGFRAME XSTACK, 9, STACK
        ARGFRAME IOVERLAY, 0, STATIC
        ARGFRAME DOVERLAY, 0, STATIC
        FUNCALL AT_ZDO_Register, ZDO_RegisterForZDOMsg
        LOCFRAME ISTACK, 0, STACK
        LOCFRAME PSTACK, 0, STACK
        LOCFRAME XSTACK, 9, STACK
        LOCFRAME IOVERLAY, 0, STATIC
        LOCFRAME DOVERLAY, 0, STATIC
        ARGFRAME ISTACK, 0, STACK
        ARGFRAME PSTACK, 0, STACK
        ARGFRAME XSTACK, 9, STACK
        ARGFRAME IOVERLAY, 0, STATIC
        ARGFRAME DOVERLAY, 0, STATIC
        FUNCALL AT_ZDO_Register, ZDO_RegisterForZDOMsg
        LOCFRAME ISTACK, 0, STACK
        LOCFRAME PSTACK, 0, STACK
        LOCFRAME XSTACK, 9, STACK
        LOCFRAME IOVERLAY, 0, STATIC
        LOCFRAME DOVERLAY, 0, STATIC
        ARGFRAME ISTACK, 0, STACK
        ARGFRAME PSTACK, 0, STACK
        ARGFRAME XSTACK, 9, STACK
        ARGFRAME IOVERLAY, 0, STATIC
        ARGFRAME DOVERLAY, 0, STATIC
        FUNCALL AT_ZDO_Register, ZDO_RegisterForZDOMsg
        LOCFRAME ISTACK, 0, STACK
        LOCFRAME PSTACK, 0, STACK
        LOCFRAME XSTACK, 9, STACK
        LOCFRAME IOVERLAY, 0, STATIC
        LOCFRAME DOVERLAY, 0, STATIC
        ARGFRAME ISTACK, 0, STACK
        ARGFRAME PSTACK, 0, STACK
        ARGFRAME XSTACK, 9, STACK
        ARGFRAME IOVERLAY, 0, STATIC
        ARGFRAME DOVERLAY, 0, STATIC
        MOV       A,#-0x9
        LCALL     ?BANKED_ENTER_XDATA
          CFI DPH0 load(1, XDATA, add(CFA_XSP16, literal(-1)))
          CFI DPL0 load(1, XDATA, add(CFA_XSP16, literal(-2)))
          CFI ?BRET_EXT load(1, XDATA, add(CFA_XSP16, literal(-3)))
          CFI ?RET_HIGH load(1, XDATA, add(CFA_XSP16, literal(-4)))
          CFI ?RET_LOW load(1, XDATA, add(CFA_XSP16, literal(-5)))
          CFI R7 load(1, XDATA, add(CFA_XSP16, literal(-6)))
          CFI V0 load(1, XDATA, add(CFA_XSP16, literal(-7)))
          CFI VB load(1, XDATA, add(CFA_XSP16, literal(-8)))
          CFI R6 load(1, XDATA, add(CFA_XSP16, literal(-9)))
          CFI CFA_SP SP+0
          CFI CFA_XSP16 add(XSP16, 9)
        ; Saved register size: 9
        ; Auto size: 0
//   89   uint8 task_id = *pTask_id;
        MOV       DPL,R2
        MOV       DPH,R3
        MOVX      A,@DPTR
        MOV       R6,A
//   90   ZDO_RegisterForZDOMsg( task_id, NWK_addr_rsp );
        ; Setup parameters for call to function ZDO_RegisterForZDOMsg
        MOV       R2,#0x0
        MOV       R3,#-0x80
        MOV       R1,A
        LCALL     `??ZDO_RegisterForZDOMsg::?relay`; Banked call to: ZDO_RegisterForZDOMsg
//   91   ZDO_RegisterForZDOMsg( task_id, IEEE_addr_rsp );
        ; Setup parameters for call to function ZDO_RegisterForZDOMsg
        MOV       R2,#0x1
        MOV       R3,#-0x80
        MOV       A,R6
        MOV       R1,A
        LCALL     `??ZDO_RegisterForZDOMsg::?relay`; Banked call to: ZDO_RegisterForZDOMsg
//   92   ZDO_RegisterForZDOMsg( task_id, Power_Desc_rsp );
        ; Setup parameters for call to function ZDO_RegisterForZDOMsg
        MOV       R2,#0x3
        MOV       R3,#-0x80
        MOV       A,R6
        MOV       R1,A
        LCALL     `??ZDO_RegisterForZDOMsg::?relay`; Banked call to: ZDO_RegisterForZDOMsg
//   93   ZDO_RegisterForZDOMsg( task_id, Active_EP_rsp );
        ; Setup parameters for call to function ZDO_RegisterForZDOMsg
        MOV       R2,#0x5
        MOV       R3,#-0x80
        MOV       A,R6
        MOV       R1,A
        LCALL     `??ZDO_RegisterForZDOMsg::?relay`; Banked call to: ZDO_RegisterForZDOMsg
//   94   ZDO_RegisterForZDOMsg( task_id, Simple_Desc_rsp );
        ; Setup parameters for call to function ZDO_RegisterForZDOMsg
        MOV       R2,#0x4
        MOV       R3,#-0x80
        MOV       A,R6
        MOV       R1,A
        LCALL     `??ZDO_RegisterForZDOMsg::?relay`; Banked call to: ZDO_RegisterForZDOMsg
//   95   ZDO_RegisterForZDOMsg( task_id, Match_Desc_rsp );
        ; Setup parameters for call to function ZDO_RegisterForZDOMsg
        MOV       R2,#0x6
        MOV       R3,#-0x80
        MOV       A,R6
        MOV       R1,A
        LCALL     `??ZDO_RegisterForZDOMsg::?relay`; Banked call to: ZDO_RegisterForZDOMsg
//   96   ZDO_RegisterForZDOMsg( task_id, Device_annce );
        ; Setup parameters for call to function ZDO_RegisterForZDOMsg
        MOV       R2,#0x13
        MOV       R3,#0x0
        MOV       A,R6
        MOV       R1,A
        LCALL     `??ZDO_RegisterForZDOMsg::?relay`; Banked call to: ZDO_RegisterForZDOMsg
//   97   ZDO_RegisterForZDOMsg( task_id, Mgmt_Lqi_rsp );
        ; Setup parameters for call to function ZDO_RegisterForZDOMsg
        MOV       R2,#0x31
        MOV       R3,#-0x80
        MOV       A,R6
        MOV       R1,A
        LCALL     `??ZDO_RegisterForZDOMsg::?relay`; Banked call to: ZDO_RegisterForZDOMsg
//   98   ZDO_RegisterForZDOMsg( task_id, Mgmt_Rtg_rsp );
        ; Setup parameters for call to function ZDO_RegisterForZDOMsg
        MOV       R2,#0x32
        MOV       R3,#-0x80
        MOV       A,R6
        MOV       R1,A
        LCALL     `??ZDO_RegisterForZDOMsg::?relay`; Banked call to: ZDO_RegisterForZDOMsg
//   99   ZDO_RegisterForZDOMsg( task_id, Mgmt_Bind_rsp );
        ; Setup parameters for call to function ZDO_RegisterForZDOMsg
        MOV       R2,#0x33
        MOV       R3,#-0x80
        MOV       A,R6
        MOV       R1,A
        LCALL     `??ZDO_RegisterForZDOMsg::?relay`; Banked call to: ZDO_RegisterForZDOMsg
//  100   ZDO_RegisterForZDOMsg( task_id, Bind_rsp );
        ; Setup parameters for call to function ZDO_RegisterForZDOMsg
        MOV       R2,#0x21
        MOV       R3,#-0x80
        MOV       A,R6
        MOV       R1,A
        LCALL     `??ZDO_RegisterForZDOMsg::?relay`; Banked call to: ZDO_RegisterForZDOMsg
//  101   ZDO_RegisterForZDOMsg( task_id, Unbind_rsp );
        ; Setup parameters for call to function ZDO_RegisterForZDOMsg
        MOV       R2,#0x22
        MOV       R3,#-0x80
        MOV       A,R6
        MOV       R1,A
        LCALL     `??ZDO_RegisterForZDOMsg::?relay`; Banked call to: ZDO_RegisterForZDOMsg
//  102   ZDO_RegisterForZDOMsg( task_id, End_Device_Bind_rsp );
        ; Setup parameters for call to function ZDO_RegisterForZDOMsg
        MOV       R2,#0x20
        MOV       R3,#-0x80
        MOV       A,R6
        MOV       R1,A
        LCALL     `??ZDO_RegisterForZDOMsg::?relay`; Banked call to: ZDO_RegisterForZDOMsg
//  103   ZDO_RegisterForZDOMsg( task_id, Mgmt_Leave_rsp );
        ; Setup parameters for call to function ZDO_RegisterForZDOMsg
        MOV       R2,#0x34
        MOV       R3,#-0x80
        MOV       A,R6
        MOV       R1,A
        LCALL     `??ZDO_RegisterForZDOMsg::?relay`; Banked call to: ZDO_RegisterForZDOMsg
//  104 }
          CFI EndBlock cfiBlock0
        REQUIRE ?Subroutine0
        ; // Fall through to label ?Subroutine0

        RSEG BANKED_CODE:HUGECODE:NOROOT(0)
?Subroutine0:
          CFI Block cfiBlock1 Using cfiCommon0
          CFI NoFunction
          CFI CFA_SP SP+0
          CFI CFA_XSP16 add(XSP16, 9)
          CFI VB load(1, XDATA, add(CFA_XSP16, literal(-8)))
          CFI DPL0 load(1, XDATA, add(CFA_XSP16, literal(-2)))
          CFI DPH0 load(1, XDATA, add(CFA_XSP16, literal(-1)))
          CFI R6 load(1, XDATA, add(CFA_XSP16, literal(-9)))
          CFI R7 load(1, XDATA, add(CFA_XSP16, literal(-6)))
          CFI V0 load(1, XDATA, add(CFA_XSP16, literal(-7)))
          CFI ?BRET_EXT load(1, XDATA, add(CFA_XSP16, literal(-3)))
          CFI ?RET_HIGH load(1, XDATA, add(CFA_XSP16, literal(-4)))
          CFI ?RET_LOW load(1, XDATA, add(CFA_XSP16, literal(-5)))
        MOV       R7,#0x1
        LJMP      ?BANKED_LEAVE_XDATA
          CFI EndBlock cfiBlock1
//  105 

        RSEG BANKED_CODE:HUGECODE:NOROOT(0)
//  106 void AT_ZDO_ProcessMsgCBs( zdoIncomingMsg_t *inMsg )
AT_ZDO_ProcessMsgCBs:
          CFI Block cfiBlock2 Using cfiCommon0
          CFI Function AT_ZDO_ProcessMsgCBs
        CODE
//  107 {
        FUNCALL AT_ZDO_ProcessMsgCBs, osal_mem_alloc
        LOCFRAME ISTACK, 0, STACK
        LOCFRAME PSTACK, 0, STACK
        LOCFRAME XSTACK, 45, STACK
        LOCFRAME IOVERLAY, 0, STATIC
        LOCFRAME DOVERLAY, 0, STATIC
        ARGFRAME ISTACK, 0, STACK
        ARGFRAME PSTACK, 0, STACK
        ARGFRAME XSTACK, 45, STACK
        ARGFRAME IOVERLAY, 0, STATIC
        ARGFRAME DOVERLAY, 0, STATIC
        FUNCALL AT_ZDO_ProcessMsgCBs, ZDO_ParseAddrRsp
        LOCFRAME ISTACK, 0, STACK
        LOCFRAME PSTACK, 0, STACK
        LOCFRAME XSTACK, 45, STACK
        LOCFRAME IOVERLAY, 0, STATIC
        LOCFRAME DOVERLAY, 0, STATIC
        ARGFRAME ISTACK, 0, STACK
        ARGFRAME PSTACK, 0, STACK
        ARGFRAME XSTACK, 45, STACK
        ARGFRAME IOVERLAY, 0, STATIC
        ARGFRAME DOVERLAY, 0, STATIC
        FUNCALL AT_ZDO_ProcessMsgCBs, AT_Uart0_Send
        LOCFRAME ISTACK, 0, STACK
        LOCFRAME PSTACK, 0, STACK
        LOCFRAME XSTACK, 45, STACK
        LOCFRAME IOVERLAY, 0, STATIC
        LOCFRAME DOVERLAY, 0, STATIC
        ARGFRAME ISTACK, 0, STACK
        ARGFRAME PSTACK, 0, STACK
        ARGFRAME XSTACK, 45, STACK
        ARGFRAME IOVERLAY, 0, STATIC
        ARGFRAME DOVERLAY, 0, STATIC
        FUNCALL AT_ZDO_ProcessMsgCBs, printf
        LOCFRAME ISTACK, 0, STACK
        LOCFRAME PSTACK, 0, STACK
        LOCFRAME XSTACK, 47, STACK
        LOCFRAME IOVERLAY, 0, STATIC
        LOCFRAME DOVERLAY, 0, STATIC
        ARGFRAME ISTACK, 0, STACK
        ARGFRAME PSTACK, 0, STACK
        ARGFRAME XSTACK, 47, STACK
        ARGFRAME IOVERLAY, 0, STATIC
        ARGFRAME DOVERLAY, 0, STATIC
        FUNCALL AT_ZDO_ProcessMsgCBs, AT_Uart0_Send
        LOCFRAME ISTACK, 0, STACK
        LOCFRAME PSTACK, 0, STACK
        LOCFRAME XSTACK, 45, STACK
        LOCFRAME IOVERLAY, 0, STATIC
        LOCFRAME DOVERLAY, 0, STATIC
        ARGFRAME ISTACK, 0, STACK
        ARGFRAME PSTACK, 0, STACK
        ARGFRAME XSTACK, 45, STACK
        ARGFRAME IOVERLAY, 0, STATIC
        ARGFRAME DOVERLAY, 0, STATIC
        FUNCALL AT_ZDO_ProcessMsgCBs, AT_Int16toChar
        LOCFRAME ISTACK, 0, STACK
        LOCFRAME PSTACK, 0, STACK
        LOCFRAME XSTACK, 45, STACK
        LOCFRAME IOVERLAY, 0, STATIC
        LOCFRAME DOVERLAY, 0, STATIC
        ARGFRAME ISTACK, 0, STACK
        ARGFRAME PSTACK, 0, STACK
        ARGFRAME XSTACK, 45, STACK
        ARGFRAME IOVERLAY, 0, STATIC
        ARGFRAME DOVERLAY, 0, STATIC
        FUNCALL AT_ZDO_ProcessMsgCBs, AT_Uart0_Send
        LOCFRAME ISTACK, 0, STACK
        LOCFRAME PSTACK, 0, STACK
        LOCFRAME XSTACK, 45, STACK
        LOCFRAME IOVERLAY, 0, STATIC
        LOCFRAME DOVERLAY, 0, STATIC
        ARGFRAME ISTACK, 0, STACK
        ARGFRAME PSTACK, 0, STACK
        ARGFRAME XSTACK, 45, STACK
        ARGFRAME IOVERLAY, 0, STATIC
        ARGFRAME DOVERLAY, 0, STATIC
        FUNCALL AT_ZDO_ProcessMsgCBs, AT_Uart0_Send
        LOCFRAME ISTACK, 0, STACK
        LOCFRAME PSTACK, 0, STACK
        LOCFRAME XSTACK, 45, STACK
        LOCFRAME IOVERLAY, 0, STATIC
        LOCFRAME DOVERLAY, 0, STATIC
        ARGFRAME ISTACK, 0, STACK
        ARGFRAME PSTACK, 0, STACK
        ARGFRAME XSTACK, 45, STACK
        ARGFRAME IOVERLAY, 0, STATIC
        ARGFRAME DOVERLAY, 0, STATIC
        FUNCALL AT_ZDO_ProcessMsgCBs, AT_GetIEEEAddrStr
        LOCFRAME ISTACK, 0, STACK
        LOCFRAME PSTACK, 0, STACK
        LOCFRAME XSTACK, 45, STACK
        LOCFRAME IOVERLAY, 0, STATIC
        LOCFRAME DOVERLAY, 0, STATIC
        ARGFRAME ISTACK, 0, STACK
        ARGFRAME PSTACK, 0, STACK
        ARGFRAME XSTACK, 45, STACK
        ARGFRAME IOVERLAY, 0, STATIC
        ARGFRAME DOVERLAY, 0, STATIC
        FUNCALL AT_ZDO_ProcessMsgCBs, AT_Uart0_Send
        LOCFRAME ISTACK, 0, STACK
        LOCFRAME PSTACK, 0, STACK
        LOCFRAME XSTACK, 45, STACK
        LOCFRAME IOVERLAY, 0, STATIC
        LOCFRAME DOVERLAY, 0, STATIC
        ARGFRAME ISTACK, 0, STACK
        ARGFRAME PSTACK, 0, STACK
        ARGFRAME XSTACK, 45, STACK
        ARGFRAME IOVERLAY, 0, STATIC
        ARGFRAME DOVERLAY, 0, STATIC
        FUNCALL AT_ZDO_ProcessMsgCBs, AT_Uart0_Send
        LOCFRAME ISTACK, 0, STACK
        LOCFRAME PSTACK, 0, STACK
        LOCFRAME XSTACK, 45, STACK
        LOCFRAME IOVERLAY, 0, STATIC
        LOCFRAME DOVERLAY, 0, STATIC
        ARGFRAME ISTACK, 0, STACK
        ARGFRAME PSTACK, 0, STACK
        ARGFRAME XSTACK, 45, STACK
        ARGFRAME IOVERLAY, 0, STATIC
        ARGFRAME DOVERLAY, 0, STATIC
        FUNCALL AT_ZDO_ProcessMsgCBs, AT_Int8toChar
        LOCFRAME ISTACK, 0, STACK
        LOCFRAME PSTACK, 0, STACK
        LOCFRAME XSTACK, 45, STACK
        LOCFRAME IOVERLAY, 0, STATIC
        LOCFRAME DOVERLAY, 0, STATIC
        ARGFRAME ISTACK, 0, STACK
        ARGFRAME PSTACK, 0, STACK
        ARGFRAME XSTACK, 45, STACK
        ARGFRAME IOVERLAY, 0, STATIC
        ARGFRAME DOVERLAY, 0, STATIC
        FUNCALL AT_ZDO_ProcessMsgCBs, AT_Uart0_Send
        LOCFRAME ISTACK, 0, STACK
        LOCFRAME PSTACK, 0, STACK
        LOCFRAME XSTACK, 45, STACK
        LOCFRAME IOVERLAY, 0, STATIC
        LOCFRAME DOVERLAY, 0, STATIC
        ARGFRAME ISTACK, 0, STACK
        ARGFRAME PSTACK, 0, STACK
        ARGFRAME XSTACK, 45, STACK
        ARGFRAME IOVERLAY, 0, STATIC
        ARGFRAME DOVERLAY, 0, STATIC
        FUNCALL AT_ZDO_ProcessMsgCBs, AT_Uart0_Send
        LOCFRAME ISTACK, 0, STACK
        LOCFRAME PSTACK, 0, STACK
        LOCFRAME XSTACK, 45, STACK
        LOCFRAME IOVERLAY, 0, STATIC
        LOCFRAME DOVERLAY, 0, STATIC
        ARGFRAME ISTACK, 0, STACK
        ARGFRAME PSTACK, 0, STACK
        ARGFRAME XSTACK, 45, STACK
        ARGFRAME IOVERLAY, 0, STATIC
        ARGFRAME DOVERLAY, 0, STATIC
        FUNCALL AT_ZDO_ProcessMsgCBs, AT_Int16toChar
        LOCFRAME ISTACK, 0, STACK
        LOCFRAME PSTACK, 0, STACK
        LOCFRAME XSTACK, 45, STACK
        LOCFRAME IOVERLAY, 0, STATIC
        LOCFRAME DOVERLAY, 0, STATIC
        ARGFRAME ISTACK, 0, STACK
        ARGFRAME PSTACK, 0, STACK
        ARGFRAME XSTACK, 45, STACK
        ARGFRAME IOVERLAY, 0, STATIC
        ARGFRAME DOVERLAY, 0, STATIC
        FUNCALL AT_ZDO_ProcessMsgCBs, AT_Uart0_Send
        LOCFRAME ISTACK, 0, STACK
        LOCFRAME PSTACK, 0, STACK
        LOCFRAME XSTACK, 45, STACK
        LOCFRAME IOVERLAY, 0, STATIC
        LOCFRAME DOVERLAY, 0, STATIC
        ARGFRAME ISTACK, 0, STACK
        ARGFRAME PSTACK, 0, STACK
        ARGFRAME XSTACK, 45, STACK
        ARGFRAME IOVERLAY, 0, STATIC
        ARGFRAME DOVERLAY, 0, STATIC
        FUNCALL AT_ZDO_ProcessMsgCBs, AT_Uart0_Send
        LOCFRAME ISTACK, 0, STACK
        LOCFRAME PSTACK, 0, STACK
        LOCFRAME XSTACK, 45, STACK
        LOCFRAME IOVERLAY, 0, STATIC
        LOCFRAME DOVERLAY, 0, STATIC
        ARGFRAME ISTACK, 0, STACK
        ARGFRAME PSTACK, 0, STACK
        ARGFRAME XSTACK, 45, STACK
        ARGFRAME IOVERLAY, 0, STATIC
        ARGFRAME DOVERLAY, 0, STATIC
        FUNCALL AT_ZDO_ProcessMsgCBs, osal_mem_free
        LOCFRAME ISTACK, 0, STACK
        LOCFRAME PSTACK, 0, STACK
        LOCFRAME XSTACK, 45, STACK
        LOCFRAME IOVERLAY, 0, STATIC
        LOCFRAME DOVERLAY, 0, STATIC
        ARGFRAME ISTACK, 0, STACK
        ARGFRAME PSTACK, 0, STACK
        ARGFRAME XSTACK, 45, STACK
        ARGFRAME IOVERLAY, 0, STATIC
        ARGFRAME DOVERLAY, 0, STATIC
        FUNCALL AT_ZDO_ProcessMsgCBs, AT_ZDO_ProcessPowerDescRsp
        LOCFRAME ISTACK, 0, STACK
        LOCFRAME PSTACK, 0, STACK
        LOCFRAME XSTACK, 45, STACK
        LOCFRAME IOVERLAY, 0, STATIC
        LOCFRAME DOVERLAY, 0, STATIC
        ARGFRAME ISTACK, 0, STACK
        ARGFRAME PSTACK, 0, STACK
        ARGFRAME XSTACK, 45, STACK
        ARGFRAME IOVERLAY, 0, STATIC
        ARGFRAME DOVERLAY, 0, STATIC
        FUNCALL AT_ZDO_ProcessMsgCBs, ZDO_ParseEPListRsp
        LOCFRAME ISTACK, 0, STACK
        LOCFRAME PSTACK, 0, STACK
        LOCFRAME XSTACK, 45, STACK
        LOCFRAME IOVERLAY, 0, STATIC
        LOCFRAME DOVERLAY, 0, STATIC
        ARGFRAME ISTACK, 0, STACK
        ARGFRAME PSTACK, 0, STACK
        ARGFRAME XSTACK, 45, STACK
        ARGFRAME IOVERLAY, 0, STATIC
        ARGFRAME DOVERLAY, 0, STATIC
        FUNCALL AT_ZDO_ProcessMsgCBs, AT_Uart0_Send
        LOCFRAME ISTACK, 0, STACK
        LOCFRAME PSTACK, 0, STACK
        LOCFRAME XSTACK, 45, STACK
        LOCFRAME IOVERLAY, 0, STATIC
        LOCFRAME DOVERLAY, 0, STATIC
        ARGFRAME ISTACK, 0, STACK
        ARGFRAME PSTACK, 0, STACK
        ARGFRAME XSTACK, 45, STACK
        ARGFRAME IOVERLAY, 0, STATIC
        ARGFRAME DOVERLAY, 0, STATIC
        FUNCALL AT_ZDO_ProcessMsgCBs, printf
        LOCFRAME ISTACK, 0, STACK
        LOCFRAME PSTACK, 0, STACK
        LOCFRAME XSTACK, 49, STACK
        LOCFRAME IOVERLAY, 0, STATIC
        LOCFRAME DOVERLAY, 0, STATIC
        ARGFRAME ISTACK, 0, STACK
        ARGFRAME PSTACK, 0, STACK
        ARGFRAME XSTACK, 49, STACK
        ARGFRAME IOVERLAY, 0, STATIC
        ARGFRAME DOVERLAY, 0, STATIC
        FUNCALL AT_ZDO_ProcessMsgCBs, printf
        LOCFRAME ISTACK, 0, STACK
        LOCFRAME PSTACK, 0, STACK
        LOCFRAME XSTACK, 47, STACK
        LOCFRAME IOVERLAY, 0, STATIC
        LOCFRAME DOVERLAY, 0, STATIC
        ARGFRAME ISTACK, 0, STACK
        ARGFRAME PSTACK, 0, STACK
        ARGFRAME XSTACK, 47, STACK
        ARGFRAME IOVERLAY, 0, STATIC
        ARGFRAME DOVERLAY, 0, STATIC
        FUNCALL AT_ZDO_ProcessMsgCBs, AT_Uart0_Send
        LOCFRAME ISTACK, 0, STACK
        LOCFRAME PSTACK, 0, STACK
        LOCFRAME XSTACK, 45, STACK
        LOCFRAME IOVERLAY, 0, STATIC
        LOCFRAME DOVERLAY, 0, STATIC
        ARGFRAME ISTACK, 0, STACK
        ARGFRAME PSTACK, 0, STACK
        ARGFRAME XSTACK, 45, STACK
        ARGFRAME IOVERLAY, 0, STATIC
        ARGFRAME DOVERLAY, 0, STATIC
        FUNCALL AT_ZDO_ProcessMsgCBs, osal_mem_free
        LOCFRAME ISTACK, 0, STACK
        LOCFRAME PSTACK, 0, STACK
        LOCFRAME XSTACK, 45, STACK
        LOCFRAME IOVERLAY, 0, STATIC
        LOCFRAME DOVERLAY, 0, STATIC
        ARGFRAME ISTACK, 0, STACK
        ARGFRAME PSTACK, 0, STACK
        ARGFRAME XSTACK, 45, STACK
        ARGFRAME IOVERLAY, 0, STATIC
        ARGFRAME DOVERLAY, 0, STATIC
        FUNCALL AT_ZDO_ProcessMsgCBs, AT_ZDO_ProcessSimpleDescRsp
        LOCFRAME ISTACK, 0, STACK
        LOCFRAME PSTACK, 0, STACK
        LOCFRAME XSTACK, 45, STACK
        LOCFRAME IOVERLAY, 0, STATIC
        LOCFRAME DOVERLAY, 0, STATIC
        ARGFRAME ISTACK, 0, STACK
        ARGFRAME PSTACK, 0, STACK
        ARGFRAME XSTACK, 45, STACK
        ARGFRAME IOVERLAY, 0, STATIC
        ARGFRAME DOVERLAY, 0, STATIC
        FUNCALL AT_ZDO_ProcessMsgCBs, ZDO_ParseEPListRsp
        LOCFRAME ISTACK, 0, STACK
        LOCFRAME PSTACK, 0, STACK
        LOCFRAME XSTACK, 45, STACK
        LOCFRAME IOVERLAY, 0, STATIC
        LOCFRAME DOVERLAY, 0, STATIC
        ARGFRAME ISTACK, 0, STACK
        ARGFRAME PSTACK, 0, STACK
        ARGFRAME XSTACK, 45, STACK
        ARGFRAME IOVERLAY, 0, STATIC
        ARGFRAME DOVERLAY, 0, STATIC
        FUNCALL AT_ZDO_ProcessMsgCBs, AT_Uart0_Send
        LOCFRAME ISTACK, 0, STACK
        LOCFRAME PSTACK, 0, STACK
        LOCFRAME XSTACK, 45, STACK
        LOCFRAME IOVERLAY, 0, STATIC
        LOCFRAME DOVERLAY, 0, STATIC
        ARGFRAME ISTACK, 0, STACK
        ARGFRAME PSTACK, 0, STACK
        ARGFRAME XSTACK, 45, STACK
        ARGFRAME IOVERLAY, 0, STATIC
        ARGFRAME DOVERLAY, 0, STATIC
        FUNCALL AT_ZDO_ProcessMsgCBs, printf
        LOCFRAME ISTACK, 0, STACK
        LOCFRAME PSTACK, 0, STACK
        LOCFRAME XSTACK, 49, STACK
        LOCFRAME IOVERLAY, 0, STATIC
        LOCFRAME DOVERLAY, 0, STATIC
        ARGFRAME ISTACK, 0, STACK
        ARGFRAME PSTACK, 0, STACK
        ARGFRAME XSTACK, 49, STACK
        ARGFRAME IOVERLAY, 0, STATIC
        ARGFRAME DOVERLAY, 0, STATIC
        FUNCALL AT_ZDO_ProcessMsgCBs, printf
        LOCFRAME ISTACK, 0, STACK
        LOCFRAME PSTACK, 0, STACK
        LOCFRAME XSTACK, 47, STACK
        LOCFRAME IOVERLAY, 0, STATIC
        LOCFRAME DOVERLAY, 0, STATIC
        ARGFRAME ISTACK, 0, STACK
        ARGFRAME PSTACK, 0, STACK
        ARGFRAME XSTACK, 47, STACK
        ARGFRAME IOVERLAY, 0, STATIC
        ARGFRAME DOVERLAY, 0, STATIC
        FUNCALL AT_ZDO_ProcessMsgCBs, AT_Uart0_Send
        LOCFRAME ISTACK, 0, STACK
        LOCFRAME PSTACK, 0, STACK
        LOCFRAME XSTACK, 45, STACK
        LOCFRAME IOVERLAY, 0, STATIC
        LOCFRAME DOVERLAY, 0, STATIC
        ARGFRAME ISTACK, 0, STACK
        ARGFRAME PSTACK, 0, STACK
        ARGFRAME XSTACK, 45, STACK
        ARGFRAME IOVERLAY, 0, STATIC
        ARGFRAME DOVERLAY, 0, STATIC
        FUNCALL AT_ZDO_ProcessMsgCBs, osal_mem_free
        LOCFRAME ISTACK, 0, STACK
        LOCFRAME PSTACK, 0, STACK
        LOCFRAME XSTACK, 45, STACK
        LOCFRAME IOVERLAY, 0, STATIC
        LOCFRAME DOVERLAY, 0, STATIC
        ARGFRAME ISTACK, 0, STACK
        ARGFRAME PSTACK, 0, STACK
        ARGFRAME XSTACK, 45, STACK
        ARGFRAME IOVERLAY, 0, STATIC
        ARGFRAME DOVERLAY, 0, STATIC
        FUNCALL AT_ZDO_ProcessMsgCBs, ZDO_ParseDeviceAnnce
        LOCFRAME ISTACK, 0, STACK
        LOCFRAME PSTACK, 0, STACK
        LOCFRAME XSTACK, 45, STACK
        LOCFRAME IOVERLAY, 0, STATIC
        LOCFRAME DOVERLAY, 0, STATIC
        ARGFRAME ISTACK, 0, STACK
        ARGFRAME PSTACK, 0, STACK
        ARGFRAME XSTACK, 45, STACK
        ARGFRAME IOVERLAY, 0, STATIC
        ARGFRAME DOVERLAY, 0, STATIC
        FUNCALL AT_ZDO_ProcessMsgCBs, AT_Uart0_Send
        LOCFRAME ISTACK, 0, STACK
        LOCFRAME PSTACK, 0, STACK
        LOCFRAME XSTACK, 45, STACK
        LOCFRAME IOVERLAY, 0, STATIC
        LOCFRAME DOVERLAY, 0, STATIC
        ARGFRAME ISTACK, 0, STACK
        ARGFRAME PSTACK, 0, STACK
        ARGFRAME XSTACK, 45, STACK
        ARGFRAME IOVERLAY, 0, STATIC
        ARGFRAME DOVERLAY, 0, STATIC
        FUNCALL AT_ZDO_ProcessMsgCBs, printf
        LOCFRAME ISTACK, 0, STACK
        LOCFRAME PSTACK, 0, STACK
        LOCFRAME XSTACK, 57, STACK
        LOCFRAME IOVERLAY, 0, STATIC
        LOCFRAME DOVERLAY, 0, STATIC
        ARGFRAME ISTACK, 0, STACK
        ARGFRAME PSTACK, 0, STACK
        ARGFRAME XSTACK, 57, STACK
        ARGFRAME IOVERLAY, 0, STATIC
        ARGFRAME DOVERLAY, 0, STATIC
        FUNCALL AT_ZDO_ProcessMsgCBs, AT_Uart0_Send
        LOCFRAME ISTACK, 0, STACK
        LOCFRAME PSTACK, 0, STACK
        LOCFRAME XSTACK, 45, STACK
        LOCFRAME IOVERLAY, 0, STATIC
        LOCFRAME DOVERLAY, 0, STATIC
        ARGFRAME ISTACK, 0, STACK
        ARGFRAME PSTACK, 0, STACK
        ARGFRAME XSTACK, 45, STACK
        ARGFRAME IOVERLAY, 0, STATIC
        ARGFRAME DOVERLAY, 0, STATIC
        FUNCALL AT_ZDO_ProcessMsgCBs, AT_ZDO_ProcessMgmtLqiRsp
        LOCFRAME ISTACK, 0, STACK
        LOCFRAME PSTACK, 0, STACK
        LOCFRAME XSTACK, 45, STACK
        LOCFRAME IOVERLAY, 0, STATIC
        LOCFRAME DOVERLAY, 0, STATIC
        ARGFRAME ISTACK, 0, STACK
        ARGFRAME PSTACK, 0, STACK
        ARGFRAME XSTACK, 45, STACK
        ARGFRAME IOVERLAY, 0, STATIC
        ARGFRAME DOVERLAY, 0, STATIC
        FUNCALL AT_ZDO_ProcessMsgCBs, AT_ZDO_ProcessMgmtRtgRsp
        LOCFRAME ISTACK, 0, STACK
        LOCFRAME PSTACK, 0, STACK
        LOCFRAME XSTACK, 45, STACK
        LOCFRAME IOVERLAY, 0, STATIC
        LOCFRAME DOVERLAY, 0, STATIC
        ARGFRAME ISTACK, 0, STACK
        ARGFRAME PSTACK, 0, STACK
        ARGFRAME XSTACK, 45, STACK
        ARGFRAME IOVERLAY, 0, STATIC
        ARGFRAME DOVERLAY, 0, STATIC
        FUNCALL AT_ZDO_ProcessMsgCBs, AT_ZDO_ProcessMgmtBindRsp
        LOCFRAME ISTACK, 0, STACK
        LOCFRAME PSTACK, 0, STACK
        LOCFRAME XSTACK, 45, STACK
        LOCFRAME IOVERLAY, 0, STATIC
        LOCFRAME DOVERLAY, 0, STATIC
        ARGFRAME ISTACK, 0, STACK
        ARGFRAME PSTACK, 0, STACK
        ARGFRAME XSTACK, 45, STACK
        ARGFRAME IOVERLAY, 0, STATIC
        ARGFRAME DOVERLAY, 0, STATIC
        FUNCALL AT_ZDO_ProcessMsgCBs, AT_Uart0_Send
        LOCFRAME ISTACK, 0, STACK
        LOCFRAME PSTACK, 0, STACK
        LOCFRAME XSTACK, 45, STACK
        LOCFRAME IOVERLAY, 0, STATIC
        LOCFRAME DOVERLAY, 0, STATIC
        ARGFRAME ISTACK, 0, STACK
        ARGFRAME PSTACK, 0, STACK
        ARGFRAME XSTACK, 45, STACK
        ARGFRAME IOVERLAY, 0, STATIC
        ARGFRAME DOVERLAY, 0, STATIC
        FUNCALL AT_ZDO_ProcessMsgCBs, printf
        LOCFRAME ISTACK, 0, STACK
        LOCFRAME PSTACK, 0, STACK
        LOCFRAME XSTACK, 49, STACK
        LOCFRAME IOVERLAY, 0, STATIC
        LOCFRAME DOVERLAY, 0, STATIC
        ARGFRAME ISTACK, 0, STACK
        ARGFRAME PSTACK, 0, STACK
        ARGFRAME XSTACK, 49, STACK
        ARGFRAME IOVERLAY, 0, STATIC
        ARGFRAME DOVERLAY, 0, STATIC
        FUNCALL AT_ZDO_ProcessMsgCBs, printf
        LOCFRAME ISTACK, 0, STACK
        LOCFRAME PSTACK, 0, STACK
        LOCFRAME XSTACK, 47, STACK
        LOCFRAME IOVERLAY, 0, STATIC
        LOCFRAME DOVERLAY, 0, STATIC
        ARGFRAME ISTACK, 0, STACK
        ARGFRAME PSTACK, 0, STACK
        ARGFRAME XSTACK, 47, STACK
        ARGFRAME IOVERLAY, 0, STATIC
        ARGFRAME DOVERLAY, 0, STATIC
        FUNCALL AT_ZDO_ProcessMsgCBs, AT_Uart0_Send
        LOCFRAME ISTACK, 0, STACK
        LOCFRAME PSTACK, 0, STACK
        LOCFRAME XSTACK, 45, STACK
        LOCFRAME IOVERLAY, 0, STATIC
        LOCFRAME DOVERLAY, 0, STATIC
        ARGFRAME ISTACK, 0, STACK
        ARGFRAME PSTACK, 0, STACK
        ARGFRAME XSTACK, 45, STACK
        ARGFRAME IOVERLAY, 0, STATIC
        ARGFRAME DOVERLAY, 0, STATIC
        FUNCALL AT_ZDO_ProcessMsgCBs, AT_Uart0_Send
        LOCFRAME ISTACK, 0, STACK
        LOCFRAME PSTACK, 0, STACK
        LOCFRAME XSTACK, 45, STACK
        LOCFRAME IOVERLAY, 0, STATIC
        LOCFRAME DOVERLAY, 0, STATIC
        ARGFRAME ISTACK, 0, STACK
        ARGFRAME PSTACK, 0, STACK
        ARGFRAME XSTACK, 45, STACK
        ARGFRAME IOVERLAY, 0, STATIC
        ARGFRAME DOVERLAY, 0, STATIC
        FUNCALL AT_ZDO_ProcessMsgCBs, printf
        LOCFRAME ISTACK, 0, STACK
        LOCFRAME PSTACK, 0, STACK
        LOCFRAME XSTACK, 49, STACK
        LOCFRAME IOVERLAY, 0, STATIC
        LOCFRAME DOVERLAY, 0, STATIC
        ARGFRAME ISTACK, 0, STACK
        ARGFRAME PSTACK, 0, STACK
        ARGFRAME XSTACK, 49, STACK
        ARGFRAME IOVERLAY, 0, STATIC
        ARGFRAME DOVERLAY, 0, STATIC
        FUNCALL AT_ZDO_ProcessMsgCBs, printf
        LOCFRAME ISTACK, 0, STACK
        LOCFRAME PSTACK, 0, STACK
        LOCFRAME XSTACK, 47, STACK
        LOCFRAME IOVERLAY, 0, STATIC
        LOCFRAME DOVERLAY, 0, STATIC
        ARGFRAME ISTACK, 0, STACK
        ARGFRAME PSTACK, 0, STACK
        ARGFRAME XSTACK, 47, STACK
        ARGFRAME IOVERLAY, 0, STATIC
        ARGFRAME DOVERLAY, 0, STATIC
        FUNCALL AT_ZDO_ProcessMsgCBs, AT_Uart0_Send
        LOCFRAME ISTACK, 0, STACK
        LOCFRAME PSTACK, 0, STACK
        LOCFRAME XSTACK, 45, STACK
        LOCFRAME IOVERLAY, 0, STATIC
        LOCFRAME DOVERLAY, 0, STATIC
        ARGFRAME ISTACK, 0, STACK
        ARGFRAME PSTACK, 0, STACK
        ARGFRAME XSTACK, 45, STACK
        ARGFRAME IOVERLAY, 0, STATIC
        ARGFRAME DOVERLAY, 0, STATIC
        FUNCALL AT_ZDO_ProcessMsgCBs, AT_Uart0_Send
        LOCFRAME ISTACK, 0, STACK
        LOCFRAME PSTACK, 0, STACK
        LOCFRAME XSTACK, 45, STACK
        LOCFRAME IOVERLAY, 0, STATIC
        LOCFRAME DOVERLAY, 0, STATIC
        ARGFRAME ISTACK, 0, STACK
        ARGFRAME PSTACK, 0, STACK
        ARGFRAME XSTACK, 45, STACK
        ARGFRAME IOVERLAY, 0, STATIC
        ARGFRAME DOVERLAY, 0, STATIC
        FUNCALL AT_ZDO_ProcessMsgCBs, printf
        LOCFRAME ISTACK, 0, STACK
        LOCFRAME PSTACK, 0, STACK
        LOCFRAME XSTACK, 47, STACK
        LOCFRAME IOVERLAY, 0, STATIC
        LOCFRAME DOVERLAY, 0, STATIC
        ARGFRAME ISTACK, 0, STACK
        ARGFRAME PSTACK, 0, STACK
        ARGFRAME XSTACK, 47, STACK
        ARGFRAME IOVERLAY, 0, STATIC
        ARGFRAME DOVERLAY, 0, STATIC
        FUNCALL AT_ZDO_ProcessMsgCBs, AT_Uart0_Send
        LOCFRAME ISTACK, 0, STACK
        LOCFRAME PSTACK, 0, STACK
        LOCFRAME XSTACK, 45, STACK
        LOCFRAME IOVERLAY, 0, STATIC
        LOCFRAME DOVERLAY, 0, STATIC
        ARGFRAME ISTACK, 0, STACK
        ARGFRAME PSTACK, 0, STACK
        ARGFRAME XSTACK, 45, STACK
        ARGFRAME IOVERLAY, 0, STATIC
        ARGFRAME DOVERLAY, 0, STATIC
        FUNCALL AT_ZDO_ProcessMsgCBs, AT_Uart0_Send
        LOCFRAME ISTACK, 0, STACK
        LOCFRAME PSTACK, 0, STACK
        LOCFRAME XSTACK, 45, STACK
        LOCFRAME IOVERLAY, 0, STATIC
        LOCFRAME DOVERLAY, 0, STATIC
        ARGFRAME ISTACK, 0, STACK
        ARGFRAME PSTACK, 0, STACK
        ARGFRAME XSTACK, 45, STACK
        ARGFRAME IOVERLAY, 0, STATIC
        ARGFRAME DOVERLAY, 0, STATIC
        FUNCALL AT_ZDO_ProcessMsgCBs, NLME_GetShortAddr
        LOCFRAME ISTACK, 0, STACK
        LOCFRAME PSTACK, 0, STACK
        LOCFRAME XSTACK, 45, STACK
        LOCFRAME IOVERLAY, 0, STATIC
        LOCFRAME DOVERLAY, 0, STATIC
        ARGFRAME ISTACK, 0, STACK
        ARGFRAME PSTACK, 0, STACK
        ARGFRAME XSTACK, 45, STACK
        ARGFRAME IOVERLAY, 0, STATIC
        ARGFRAME DOVERLAY, 0, STATIC
        FUNCALL AT_ZDO_ProcessMsgCBs, AT_Uart0_Send
        LOCFRAME ISTACK, 0, STACK
        LOCFRAME PSTACK, 0, STACK
        LOCFRAME XSTACK, 45, STACK
        LOCFRAME IOVERLAY, 0, STATIC
        LOCFRAME DOVERLAY, 0, STATIC
        ARGFRAME ISTACK, 0, STACK
        ARGFRAME PSTACK, 0, STACK
        ARGFRAME XSTACK, 45, STACK
        ARGFRAME IOVERLAY, 0, STATIC
        ARGFRAME DOVERLAY, 0, STATIC
        FUNCALL AT_ZDO_ProcessMsgCBs, printf
        LOCFRAME ISTACK, 0, STACK
        LOCFRAME PSTACK, 0, STACK
        LOCFRAME XSTACK, 45, STACK
        LOCFRAME IOVERLAY, 0, STATIC
        LOCFRAME DOVERLAY, 0, STATIC
        ARGFRAME ISTACK, 0, STACK
        ARGFRAME PSTACK, 0, STACK
        ARGFRAME XSTACK, 45, STACK
        ARGFRAME IOVERLAY, 0, STATIC
        ARGFRAME DOVERLAY, 0, STATIC
        FUNCALL AT_ZDO_ProcessMsgCBs, AT_Uart0_Send
        LOCFRAME ISTACK, 0, STACK
        LOCFRAME PSTACK, 0, STACK
        LOCFRAME XSTACK, 45, STACK
        LOCFRAME IOVERLAY, 0, STATIC
        LOCFRAME DOVERLAY, 0, STATIC
        ARGFRAME ISTACK, 0, STACK
        ARGFRAME PSTACK, 0, STACK
        ARGFRAME XSTACK, 45, STACK
        ARGFRAME IOVERLAY, 0, STATIC
        ARGFRAME DOVERLAY, 0, STATIC
        REQUIRE ?V0
        REQUIRE ?V1
        REQUIRE ?V2
        REQUIRE ?V3
        REQUIRE ?V4
        REQUIRE ?V5
        REQUIRE ?V6
        REQUIRE ?V7
        REQUIRE ?V8
        REQUIRE ?V9
        MOV       A,#-0x12
        LCALL     ?BANKED_ENTER_XDATA
          CFI DPH0 load(1, XDATA, add(CFA_XSP16, literal(-1)))
          CFI DPL0 load(1, XDATA, add(CFA_XSP16, literal(-2)))
          CFI ?BRET_EXT load(1, XDATA, add(CFA_XSP16, literal(-3)))
          CFI ?RET_HIGH load(1, XDATA, add(CFA_XSP16, literal(-4)))
          CFI ?RET_LOW load(1, XDATA, add(CFA_XSP16, literal(-5)))
          CFI R7 load(1, XDATA, add(CFA_XSP16, literal(-6)))
          CFI V9 load(1, XDATA, add(CFA_XSP16, literal(-7)))
          CFI V8 load(1, XDATA, add(CFA_XSP16, literal(-8)))
          CFI V7 load(1, XDATA, add(CFA_XSP16, literal(-9)))
          CFI V6 load(1, XDATA, add(CFA_XSP16, literal(-10)))
          CFI V5 load(1, XDATA, add(CFA_XSP16, literal(-11)))
          CFI V4 load(1, XDATA, add(CFA_XSP16, literal(-12)))
          CFI V3 load(1, XDATA, add(CFA_XSP16, literal(-13)))
          CFI V2 load(1, XDATA, add(CFA_XSP16, literal(-14)))
          CFI V1 load(1, XDATA, add(CFA_XSP16, literal(-15)))
          CFI V0 load(1, XDATA, add(CFA_XSP16, literal(-16)))
          CFI VB load(1, XDATA, add(CFA_XSP16, literal(-17)))
          CFI R6 load(1, XDATA, add(CFA_XSP16, literal(-18)))
          CFI CFA_SP SP+0
          CFI CFA_XSP16 add(XSP16, 18)
        ; Saved register size: 18
        ; Auto size: 27
        MOV       A,#-0x1b
        LCALL     ?ALLOC_XSTACK8
          CFI CFA_XSP16 add(XSP16, 45)
        MOV       ?V0,R2
        MOV       ?V1,R3
//  108   switch ( inMsg->clusterID )
        MOV       ?V6,#`?<Constant ",%02X">` & 0xff
        MOV       ?V7,#(`?<Constant ",%02X">` >> 8) & 0xff
        MOV       A,R2
        ADD       A,#0xa
        MOV       ?V4,A
        CLR       A
        ADDC      A,?V1
        MOV       ?V5,A
        MOV       A,R2
        ADD       A,#0x2
        MOV       ?V2,A
        CLR       A
        ADDC      A,?V1
        MOV       ?V3,A
        MOV       A,R2
        ADD       A,#0xc
        MOV       DPL,A
        CLR       A
        ADDC      A,?V1
        MOV       DPH,A
        MOVX      A,@DPTR
        MOV       ?V8,A
        INC       DPTR
        MOVX      A,@DPTR
        MOV       ?V9,A
        MOV       R0,#?V8
        LCALL     ?US_SWITCH_SPARSE
`?<Jumptable for AT_ZDO_ProcessMsgCBs>_0`:
        DATA
        DATA16
        DATA
        DATA16
        DATA
        DATA16
        DW        1
        DATA
        DATA16
        DATA
        DATA16
        DATA
        DATA16
        DW        32768
        DATA
        DATA16
        DATA
        DATA16
        DW        32769
        DATA
        DATA16
        DATA
        DATA16
        DATA
        DATA16
        DW        ??AT_ZDO_ProcessMsgCBs_0
        DATA
        DATA16
        DATA
        DATA16
        DATA
        DATA16
        DW        12
        DATA
        DATA16
        DATA
        DATA16
        DATA
        DATA16
        DW        19
        DATA
        DATA16
        DATA
        DATA16
        DATA
        DATA16
        DW        ??AT_ZDO_ProcessMsgCBs_1
        DATA
        DATA16
        DATA
        DATA16
        DATA
        DATA16
        DW        32771
        DATA
        DATA16
        DATA
        DATA16
        DATA
        DATA16
        DW        ??AT_ZDO_ProcessMsgCBs_2
        DATA
        DATA16
        DATA
        DATA16
        DATA
        DATA16
        DW        32772
        DATA
        DATA16
        DATA
        DATA16
        DATA
        DATA16
        DW        ??AT_ZDO_ProcessMsgCBs_3
        DATA
        DATA16
        DATA
        DATA16
        DATA
        DATA16
        DW        32773
        DATA
        DATA16
        DATA
        DATA16
        DATA
        DATA16
        DW        ??AT_ZDO_ProcessMsgCBs_4
        DATA
        DATA16
        DATA
        DATA16
        DATA
        DATA16
        DW        32774
        DATA
        DATA16
        DATA
        DATA16
        DATA
        DATA16
        DW        ??AT_ZDO_ProcessMsgCBs_5
        DATA
        DATA16
        DATA
        DATA16
        DATA
        DATA16
        DW        32800
        DATA
        DATA16
        DATA
        DATA16
        DATA
        DATA16
        DW        ??AT_ZDO_ProcessMsgCBs_6
        DATA
        DATA16
        DATA
        DATA16
        DATA
        DATA16
        DW        32801
        DATA
        DATA16
        DATA
        DATA16
        DATA
        DATA16
        DW        ??AT_ZDO_ProcessMsgCBs_7
        DATA
        DATA16
        DATA
        DATA16
        DATA
        DATA16
        DW        32802
        DATA
        DATA16
        DATA
        DATA16
        DATA
        DATA16
        DW        ??AT_ZDO_ProcessMsgCBs_8
        DATA
        DATA16
        DATA
        DATA16
        DATA
        DATA16
        DW        32817
        DATA
        DATA16
        DATA
        DATA16
        DATA
        DATA16
        DW        ??AT_ZDO_ProcessMsgCBs_9
        DATA
        DATA16
        DATA
        DATA16
        DATA
        DATA16
        DW        32818
        DATA
        DATA16
        DATA
        DATA16
        DATA
        DATA16
        DW        ??AT_ZDO_ProcessMsgCBs_10
        DATA
        DATA16
        DATA
        DATA16
        DATA
        DATA16
        DW        32819
        DATA
        DATA16
        DATA
        DATA16
        DATA
        DATA16
        DW        ??AT_ZDO_ProcessMsgCBs_11
        DATA
        DATA16
        DATA
        DATA16
        DATA
        DATA16
        DW        32820
        DATA
        DATA16
        DATA
        DATA16
        DATA
        DATA16
        DW        ??AT_ZDO_ProcessMsgCBs_12
        DATA
        DATA16
        DATA
        DATA16
        DW        ??AT_ZDO_ProcessMsgCBs_13
        CODE
//  109   {
//  110     case NWK_addr_rsp:
//  111     case IEEE_addr_rsp:
//  112     {
//  113       notdoEUIREQcmd = TRUE;
??AT_ZDO_ProcessMsgCBs_0:
        MOV       DPTR,#notdoEUIREQcmd
        MOV       A,#0x1
        MOVX      @DPTR,A
//  114       ZDO_NwkIEEEAddrResp_t *pAddrRsp = (ZDO_NwkIEEEAddrResp_t *)osal_mem_alloc(sizeof(ZDO_NwkIEEEAddrResp_t));
        ; Setup parameters for call to function osal_mem_alloc
        MOV       R2,#0xd
        MOV       R3,#0x0
        LCALL     `??osal_mem_alloc::?relay`; Banked call to: osal_mem_alloc
//  115       pAddrRsp = ZDO_ParseAddrRsp( inMsg );
        ; Setup parameters for call to function ZDO_ParseAddrRsp
        MOV       R2,?V0
        MOV       R3,?V1
        LCALL     `??ZDO_ParseAddrRsp::?relay`; Banked call to: ZDO_ParseAddrRsp
        MOV       ?V0,R2
        MOV       ?V1,R3
//  116       if ( pAddrRsp )
        MOV       A,R2
        ORL       A,R3
        JNZ       $+5
        LJMP      ??AT_ZDO_ProcessMsgCBs_13 & 0xFFFF
//  117       {
//  118         AT_NEW_LINE();
        ; Setup parameters for call to function AT_Uart0_Send
        LCALL     ??Subroutine32_0 & 0xFFFF
//  119         printf("AddrResp:%02X", pAddrRsp->status);
??CrossCallReturnLabel_84:
        LCALL     ?PUSH_XSTACK_I_TWO
          CFI CFA_XSP16 add(XSP16, 47)
        MOV       R2,#`?<Constant "AddrResp:%02X">` & 0xff
        MOV       R3,#(`?<Constant "AddrResp:%02X">` >> 8) & 0xff
        LCALL     ??Subroutine31_0 & 0xFFFF
??CrossCallReturnLabel_64:
        LCALL     ?DEALLOC_XSTACK8
          CFI CFA_XSP16 add(XSP16, 45)
//  120         if ( pAddrRsp->status == ZSuccess )
        MOV       DPL,?V0
        MOV       DPH,?V1
        MOVX      A,@DPTR
        JZ        $+5
        LJMP      ??AT_ZDO_ProcessMsgCBs_14 & 0xFFFF
//  121         {
//  122           uint8 i;
//  123           char str[16];
//  124           AT_RESP(",", 1);
        MOV       ?V2,#`?<Constant ",">` & 0xff
        MOV       ?V3,#(`?<Constant ",">` >> 8) & 0xff
        ; Setup parameters for call to function AT_Uart0_Send
        LCALL     ?Subroutine19 & 0xFFFF
//  125           AT_Int16toChar(pAddrRsp->nwkAddr, (uint8 *)str);
??CrossCallReturnLabel_48:
        LCALL     ?XSTACK_DISP102_8
        MOV       DPL,?V0
        MOV       DPH,?V1
        INC       DPTR
        LCALL     ?Subroutine7 & 0xFFFF
//  126           AT_RESP(str, 4);
??CrossCallReturnLabel_2:
        LCALL     ?XSTACK_DISP101_8
        LCALL     `??AT_Uart0_Send::?relay`; Banked call to: AT_Uart0_Send
//  127           AT_RESP(",", 1);
        ; Setup parameters for call to function AT_Uart0_Send
        LCALL     ?Subroutine19 & 0xFFFF
//  128           AT_GetIEEEAddrStr(pAddrRsp->extAddr, (uint8 *)str);
??CrossCallReturnLabel_49:
        LCALL     ?XSTACK_DISP102_8
        MOV       A,?V0
        ADD       A,#0x3
        MOV       R2,A
        CLR       A
        ADDC      A,?V1
        MOV       R3,A
        LCALL     `??AT_GetIEEEAddrStr::?relay`; Banked call to: AT_GetIEEEAddrStr
//  129           AT_RESP(str, 16);
        ; Setup parameters for call to function AT_Uart0_Send
        MOV       R4,#0x10
        MOV       R5,#0x0
        MOV       A,#0xb
        LCALL     ?XSTACK_DISP101_8
        LCALL     `??AT_Uart0_Send::?relay`; Banked call to: AT_Uart0_Send
//  130           for (i = 0; i < pAddrRsp->numAssocDevs; i++) {
        MOV       ?V2,#0x0
        SJMP      ??AT_ZDO_ProcessMsgCBs_15
//  131             AT_NEXT_LINE();
??AT_ZDO_ProcessMsgCBs_16:
        ; Setup parameters for call to function AT_Uart0_Send
        MOV       R4,#0x2
        MOV       R5,#0x0
        MOV       R2,#`?<Constant "\\r\\n">` & 0xff
        MOV       R3,#(`?<Constant "\\r\\n">` >> 8) & 0xff
        LCALL     ??Subroutine28_0 & 0xFFFF
//  132             AT_Int8toChar(i, (uint8 *)str);
??CrossCallReturnLabel_50:
        LCALL     ?XSTACK_DISP101_8
        MOV       R1,?V2
        LCALL     `??AT_Int8toChar::?relay`; Banked call to: AT_Int8toChar
//  133             AT_RESP(str, 2); AT_RESP(". ", 2);
        ; Setup parameters for call to function AT_Uart0_Send
        MOV       R4,#0x2
        MOV       R5,#0x0
        MOV       A,#0xb
        LCALL     ?XSTACK_DISP101_8
        LCALL     `??AT_Uart0_Send::?relay`; Banked call to: AT_Uart0_Send
        ; Setup parameters for call to function AT_Uart0_Send
        MOV       R4,#0x2
        MOV       R5,#0x0
        MOV       R2,#`?<Constant ". ">` & 0xff
        MOV       R3,#(`?<Constant ". ">` >> 8) & 0xff
        LCALL     ??Subroutine28_0 & 0xFFFF
//  134             AT_Int16toChar(pAddrRsp->devList[i], (uint8 *)str);
//  135             AT_RESP(str, 4);
//  136           }
??CrossCallReturnLabel_51:
        LCALL     ?XSTACK_DISP102_8
        MOV       R0,?V2
        MOV       A,R0
        ADD       A,R0
        MOV       R0,A
        CLR       A
        RLC       A
        MOV       R1,A
        MOV       A,?V0
        ADD       A,R0
        MOV       R0,A
        MOV       A,?V1
        ADDC      A,R1
        MOV       R1,A
        MOV       A,R0
        ADD       A,#0xd
        MOV       DPL,A
        CLR       A
        ADDC      A,R1
        MOV       DPH,A
        LCALL     ?Subroutine7 & 0xFFFF
??CrossCallReturnLabel_3:
        LCALL     ?XSTACK_DISP101_8
        LCALL     `??AT_Uart0_Send::?relay`; Banked call to: AT_Uart0_Send
        INC       ?V2
??AT_ZDO_ProcessMsgCBs_15:
        LCALL     ?Subroutine23 & 0xFFFF
//  137         }
??CrossCallReturnLabel_38:
        LCALL     ??Subroutine37_0 & 0xFFFF
??CrossCallReturnLabel_94:
        JC        ??AT_ZDO_ProcessMsgCBs_16
//  138 		AT_NEW_LINE();
        ; Setup parameters for call to function AT_Uart0_Send
        LJMP      ??AT_ZDO_ProcessMsgCBs_14 & 0xFFFF
//  139         osal_mem_free( pAddrRsp );
//  140       }
//  141     }
//  142       break;
//  143     case Power_Desc_rsp:
//  144       AT_ZDO_ProcessPowerDescRsp( inMsg );
??AT_ZDO_ProcessMsgCBs_2:
        ; Setup parameters for call to function AT_ZDO_ProcessPowerDescRsp
        LCALL     `??AT_ZDO_ProcessPowerDescRsp::?relay`; Banked call to: AT_ZDO_ProcessPowerDescRsp
//  145       break;
        LJMP      ??AT_ZDO_ProcessMsgCBs_13 & 0xFFFF
//  146     case Active_EP_rsp:
//  147       AT_ZDO_ProcessActEpRsp( inMsg );
??AT_ZDO_ProcessMsgCBs_4:
        ; Setup parameters for call to function ZDO_ParseEPListRsp
        LCALL     ?Subroutine4 & 0xFFFF
??CrossCallReturnLabel_82:
        LCALL     ?PUSH_XSTACK_I_TWO
          CFI CFA_XSP16 add(XSP16, 47)
        MOV       DPL,?V0
        MOV       DPH,?V1
        INC       DPTR
        LCALL     ?PUSH_XSTACK8_X_TWO
          CFI CFA_XSP16 add(XSP16, 49)
        MOV       R2,#`?<Constant "ActEpDesc:%04X,%02X">` & 0xff
        MOV       R3,#(`?<Constant "ActEpDesc:%04X,%02X">` >> 8) & 0xff
        LCALL     ?Subroutine21 & 0xFFFF
??CrossCallReturnLabel_27:
        LCALL     ?DEALLOC_XSTACK8
          CFI CFA_XSP16 add(XSP16, 45)
        MOV       DPL,?V0
        MOV       DPH,?V1
        MOVX      A,@DPTR
        JNZ       ??AT_ZDO_ProcessMsgCBs_14
        MOV       ?V2,#0x0
        SJMP      ??AT_ZDO_ProcessMsgCBs_17
??AT_ZDO_ProcessMsgCBs_18:
        ; Setup parameters for call to function printf
        LCALL     ?Subroutine5 & 0xFFFF
??CrossCallReturnLabel_92:
        LCALL     ?PUSH_XSTACK_I_TWO
          CFI CFA_XSP16 add(XSP16, 47)
        LCALL     ?Subroutine20 & 0xFFFF
??CrossCallReturnLabel_61:
        LCALL     ?DEALLOC_XSTACK8
          CFI CFA_XSP16 add(XSP16, 45)
        INC       ?V2
??AT_ZDO_ProcessMsgCBs_17:
        LCALL     ?Subroutine9 & 0xFFFF
??CrossCallReturnLabel_96:
        JC        ??AT_ZDO_ProcessMsgCBs_18
??AT_ZDO_ProcessMsgCBs_19:
        ; Setup parameters for call to function AT_Uart0_Send
        SJMP      ??AT_ZDO_ProcessMsgCBs_14
//  148       break;
//  149     case Simple_Desc_rsp:
//  150       AT_ZDO_ProcessSimpleDescRsp( inMsg );
??AT_ZDO_ProcessMsgCBs_3:
        ; Setup parameters for call to function AT_ZDO_ProcessSimpleDescRsp
        LCALL     `??AT_ZDO_ProcessSimpleDescRsp::?relay`; Banked call to: AT_ZDO_ProcessSimpleDescRsp
//  151       break;
        LJMP      ??AT_ZDO_ProcessMsgCBs_13 & 0xFFFF
//  152     case Match_Desc_rsp:
//  153       AT_ZDO_ProcessMatchDescRsp( inMsg );
??AT_ZDO_ProcessMsgCBs_5:
        ; Setup parameters for call to function ZDO_ParseEPListRsp
        LCALL     ?Subroutine4 & 0xFFFF
??CrossCallReturnLabel_83:
        LCALL     ?PUSH_XSTACK_I_TWO
          CFI CFA_XSP16 add(XSP16, 47)
        MOV       DPL,?V0
        MOV       DPH,?V1
        INC       DPTR
        LCALL     ?PUSH_XSTACK8_X_TWO
          CFI CFA_XSP16 add(XSP16, 49)
        MOV       R2,#`?<Constant "MatchDesc:%04X,%02X">` & 0xff
        MOV       R3,#(`?<Constant "MatchDesc:%04X,%02X">` >> 8) & 0xff
        LCALL     ?Subroutine21 & 0xFFFF
??CrossCallReturnLabel_28:
        LCALL     ?DEALLOC_XSTACK8
          CFI CFA_XSP16 add(XSP16, 45)
        MOV       DPL,?V0
        MOV       DPH,?V1
        MOVX      A,@DPTR
        JNZ       ??AT_ZDO_ProcessMsgCBs_14
        MOV       ?V2,#0x0
        SJMP      ??AT_ZDO_ProcessMsgCBs_20
??AT_ZDO_ProcessMsgCBs_21:
        ; Setup parameters for call to function printf
        LCALL     ?Subroutine5 & 0xFFFF
??CrossCallReturnLabel_93:
        LCALL     ?PUSH_XSTACK_I_TWO
          CFI CFA_XSP16 add(XSP16, 47)
        LCALL     ?Subroutine20 & 0xFFFF
??CrossCallReturnLabel_62:
        LCALL     ?DEALLOC_XSTACK8
          CFI CFA_XSP16 add(XSP16, 45)
        INC       ?V2
??AT_ZDO_ProcessMsgCBs_20:
        LCALL     ?Subroutine9 & 0xFFFF
??CrossCallReturnLabel_97:
        JC        ??AT_ZDO_ProcessMsgCBs_21
??AT_ZDO_ProcessMsgCBs_14:
        ; Setup parameters for call to function AT_Uart0_Send
        MOV       R4,#0x2
        MOV       R5,#0x0
        MOV       R2,#`?<Constant "\\r\\n">` & 0xff
        MOV       R3,#(`?<Constant "\\r\\n">` >> 8) & 0xff
        LCALL     ?Subroutine17 & 0xFFFF
//  154       break;
??CrossCallReturnLabel_20:
        LJMP      ??AT_ZDO_ProcessMsgCBs_13 & 0xFFFF
//  155     case Device_annce:
//  156       AT_ZDO_ProcessAnnceRsp( inMsg );
??AT_ZDO_ProcessMsgCBs_1:
        ; Setup parameters for call to function ZDO_ParseDeviceAnnce
        MOV       R4,?XSP + 0
        MOV       R5,?XSP + 1
        LCALL     `??ZDO_ParseDeviceAnnce::?relay`; Banked call to: ZDO_ParseDeviceAnnce
        ; Setup parameters for call to function AT_Uart0_Send
        MOV       R4,#0x2
        MOV       R5,#0x0
        MOV       R2,#`?<Constant "\\r\\n">` & 0xff
        MOV       R3,#(`?<Constant "\\r\\n">` >> 8) & 0xff
        LCALL     `??AT_Uart0_Send::?relay`; Banked call to: AT_Uart0_Send
        MOV       A,#0xa
        LCALL     ?XSTACK_DISP0_8
        MOVX      A,@DPTR
        MOV       C,0xE0 /* A   */.0
        JNC       ??AT_ZDO_ProcessMsgCBs_22
        MOV       ?V0,#`?<Constant "COORD">` & 0xff
        MOV       ?V1,#(`?<Constant "COORD">` >> 8) & 0xff
        SJMP      ??AT_ZDO_ProcessMsgCBs_23
??AT_ZDO_ProcessMsgCBs_22:
        MOV       C,0xE0 /* A   */.1
        JNC       ??AT_ZDO_ProcessMsgCBs_24
        MOV       ?V0,#`?<Constant "FFD">` & 0xff
        MOV       ?V1,#(`?<Constant "FFD">` >> 8) & 0xff
        SJMP      ??AT_ZDO_ProcessMsgCBs_23
??AT_ZDO_ProcessMsgCBs_24:
        MOV       ?V0,#`?<Constant "RFD">` & 0xff
        MOV       ?V1,#(`?<Constant "RFD">` >> 8) & 0xff
??AT_ZDO_ProcessMsgCBs_23:
        ; Setup parameters for call to function printf
        MOV       DPL,?XSP + 0
        MOV       DPH,?XSP + 1
        LCALL     ?PUSH_XSTACK8_X_TWO
          CFI CFA_XSP16 add(XSP16, 47)
        MOV       A,#0x4
        LCALL     ?XSTACK_DISP0_8
        LCALL     ?PUSH_XSTACK8_X_TWO
          CFI CFA_XSP16 add(XSP16, 49)
        MOV       A,#0x8
        LCALL     ?XSTACK_DISP0_8
        LCALL     ?PUSH_XSTACK8_X_TWO
          CFI CFA_XSP16 add(XSP16, 51)
        MOV       A,#0xc
        LCALL     ?XSTACK_DISP0_8
        LCALL     ?PUSH_XSTACK8_X_TWO
          CFI CFA_XSP16 add(XSP16, 53)
        MOV       A,#0x10
        LCALL     ?XSTACK_DISP0_8
        LCALL     ?PUSH_XSTACK8_X_TWO
          CFI CFA_XSP16 add(XSP16, 55)
        MOV       R0,#?V0
        LCALL     ?PUSH_XSTACK_I_TWO
          CFI CFA_XSP16 add(XSP16, 57)
        MOV       R2,#`?<Constant "%s:%04X%04X%04X%04X,%04X">` & 0xff
        MOV       R3,#(`?<Constant "%s:%04X%04X%04X%04X,%04X">` >> 8) & 0xff
        LCALL     ??Subroutine29_0 & 0xFFFF
??CrossCallReturnLabel_54:
        LCALL     ?DEALLOC_XSTACK8
          CFI CFA_XSP16 add(XSP16, 45)
        ; Setup parameters for call to function AT_Uart0_Send
        LJMP      ??AT_ZDO_ProcessMsgCBs_25 & 0xFFFF
//  157       break;
//  158     case Mgmt_Lqi_rsp:
//  159       AT_ZDO_ProcessMgmtLqiRsp( inMsg );
??AT_ZDO_ProcessMsgCBs_9:
        ; Setup parameters for call to function AT_ZDO_ProcessMgmtLqiRsp
        LCALL     `??AT_ZDO_ProcessMgmtLqiRsp::?relay`; Banked call to: AT_ZDO_ProcessMgmtLqiRsp
//  160       break;
        LJMP      ??AT_ZDO_ProcessMsgCBs_13 & 0xFFFF
//  161     case Mgmt_Rtg_rsp:
//  162       AT_ZDO_ProcessMgmtRtgRsp( inMsg );
??AT_ZDO_ProcessMsgCBs_10:
        ; Setup parameters for call to function AT_ZDO_ProcessMgmtRtgRsp
        LCALL     `??AT_ZDO_ProcessMgmtRtgRsp::?relay`; Banked call to: AT_ZDO_ProcessMgmtRtgRsp
//  163       break;
        LJMP      ??AT_ZDO_ProcessMsgCBs_13 & 0xFFFF
//  164     case Mgmt_Bind_rsp:
//  165       AT_ZDO_ProcessMgmtBindRsp( inMsg );
??AT_ZDO_ProcessMsgCBs_11:
        ; Setup parameters for call to function AT_ZDO_ProcessMgmtBindRsp
        LCALL     `??AT_ZDO_ProcessMgmtBindRsp::?relay`; Banked call to: AT_ZDO_ProcessMgmtBindRsp
//  166       break;
        LJMP      ??AT_ZDO_ProcessMsgCBs_13 & 0xFFFF
//  167     case Bind_rsp:
//  168       AT_ZDO_ProcessBindRsp( inMsg );
??AT_ZDO_ProcessMsgCBs_7:
        LCALL     ?Subroutine3 & 0xFFFF
??CrossCallReturnLabel_0:
        JNZ       ??AT_ZDO_ProcessMsgCBs_26
        ; Setup parameters for call to function printf
        LCALL     ?PUSH_XSTACK_I_TWO
          CFI CFA_XSP16 add(XSP16, 47)
        MOV       DPL,?V2
        MOV       DPH,?V3
        LCALL     ?PUSH_XSTACK8_X_TWO
          CFI CFA_XSP16 add(XSP16, 49)
        MOV       R2,#`?<Constant "Bind:%04X,%02X">` & 0xff
        MOV       R3,#(`?<Constant "Bind:%04X,%02X">` >> 8) & 0xff
        LCALL     ?Subroutine21 & 0xFFFF
??CrossCallReturnLabel_29:
        LCALL     ?DEALLOC_XSTACK8
          CFI CFA_XSP16 add(XSP16, 45)
        SJMP      ??AT_ZDO_ProcessMsgCBs_27
??AT_ZDO_ProcessMsgCBs_26:
        ; Setup parameters for call to function printf
        LCALL     ?PUSH_XSTACK_I_TWO
          CFI CFA_XSP16 add(XSP16, 47)
        MOV       R2,#`?<Constant "Bind:UNKNOWN,%02X">` & 0xff
        MOV       R3,#(`?<Constant "Bind:UNKNOWN,%02X">` >> 8) & 0xff
        LCALL     ??Subroutine31_0 & 0xFFFF
??CrossCallReturnLabel_65:
        LCALL     ?DEALLOC_XSTACK8
          CFI CFA_XSP16 add(XSP16, 45)
??AT_ZDO_ProcessMsgCBs_27:
        ; Setup parameters for call to function AT_Uart0_Send
        LJMP      ??AT_ZDO_ProcessMsgCBs_25 & 0xFFFF
//  169       break;
//  170     case Unbind_rsp:
//  171       AT_ZDO_ProcessUnbindRsp( inMsg );
??AT_ZDO_ProcessMsgCBs_8:
        LCALL     ?Subroutine3 & 0xFFFF
??CrossCallReturnLabel_1:
        JNZ       ??AT_ZDO_ProcessMsgCBs_28
        ; Setup parameters for call to function printf
        LCALL     ?PUSH_XSTACK_I_TWO
          CFI CFA_XSP16 add(XSP16, 47)
        MOV       DPL,?V2
        MOV       DPH,?V3
        LCALL     ?PUSH_XSTACK8_X_TWO
          CFI CFA_XSP16 add(XSP16, 49)
        MOV       R2,#`?<Constant "Unbind:%04X,%02X">` & 0xff
        MOV       R3,#(`?<Constant "Unbind:%04X,%02X">` >> 8) & 0xff
        LCALL     ?Subroutine21 & 0xFFFF
??CrossCallReturnLabel_30:
        LCALL     ?DEALLOC_XSTACK8
          CFI CFA_XSP16 add(XSP16, 45)
        SJMP      ??AT_ZDO_ProcessMsgCBs_25
??AT_ZDO_ProcessMsgCBs_28:
        ; Setup parameters for call to function printf
        LCALL     ?PUSH_XSTACK_I_TWO
          CFI CFA_XSP16 add(XSP16, 47)
        MOV       R2,#`?<Constant "Unbind:UNKNOWN,%02X">` & 0xff
        MOV       R3,#(`?<Constant "Unbind:UNKNOWN,%02X">` >> 8) & 0xff
        LCALL     ??Subroutine31_0 & 0xFFFF
??CrossCallReturnLabel_66:
        LCALL     ?DEALLOC_XSTACK8
          CFI CFA_XSP16 add(XSP16, 45)
??AT_ZDO_ProcessMsgCBs_29:
        ; Setup parameters for call to function AT_Uart0_Send
        SJMP      ??AT_ZDO_ProcessMsgCBs_25
//  172       break;
//  173     case End_Device_Bind_rsp:
//  174       AT_ZDO_ProcessEDbindRsp( inMsg );
??AT_ZDO_ProcessMsgCBs_6:
        LCALL     ?Subroutine10 & 0xFFFF
??CrossCallReturnLabel_4:
        ; Setup parameters for call to function AT_Uart0_Send
        MOV       R4,#0x2
        MOV       R5,#0x0
        MOV       R2,#`?<Constant "\\r\\n">` & 0xff
        MOV       R3,#(`?<Constant "\\r\\n">` >> 8) & 0xff
        LCALL     `??AT_Uart0_Send::?relay`; Banked call to: AT_Uart0_Send
        ; Setup parameters for call to function printf
        MOV       ?V1,#0x0
        MOV       R0,#?V0
        LCALL     ?PUSH_XSTACK_I_TWO
          CFI CFA_XSP16 add(XSP16, 47)
        MOV       R2,#`?<Constant "EBINDRSP:%02X">` & 0xff
        MOV       R3,#(`?<Constant "EBINDRSP:%02X">` >> 8) & 0xff
        LCALL     ??Subroutine31_0 & 0xFFFF
??CrossCallReturnLabel_67:
        LCALL     ?DEALLOC_XSTACK8
          CFI CFA_XSP16 add(XSP16, 45)
        ; Setup parameters for call to function AT_Uart0_Send
        MOV       R4,#0x2
        MOV       R5,#0x0
        MOV       R2,#`?<Constant "\\r\\n">` & 0xff
        MOV       R3,#(`?<Constant "\\r\\n">` >> 8) & 0xff
        LCALL     ?Subroutine27 & 0xFFFF
??CrossCallReturnLabel_46:
        SJMP      ??AT_ZDO_ProcessMsgCBs_30
//  175       break;
//  176     case Mgmt_Leave_rsp:
//  177       AT_ZDO_ProcessMgmtLeaveRsp( inMsg );
??AT_ZDO_ProcessMsgCBs_12:
        LCALL     ?Subroutine10 & 0xFFFF
//  178       break;
//  179     default:
//  180       break;
//  181   }
??CrossCallReturnLabel_5:
        ; Setup parameters for call to function NLME_GetShortAddr
        LCALL     `??NLME_GetShortAddr::?relay`; Banked call to: NLME_GetShortAddr
        MOV       ?V4,R2
        MOV       ?V5,R3
        MOV       R0,?V4
        MOV       R1,?V5
        MOV       DPL,?V2
        MOV       DPH,?V3
        MOVX      A,@DPTR
        XRL       A,R0
        JNZ       ??AT_ZDO_ProcessMsgCBs_31
        INC       DPTR
        MOVX      A,@DPTR
        XRL       A,R1
??AT_ZDO_ProcessMsgCBs_31:
        JNZ       ??AT_ZDO_ProcessMsgCBs_13
        ; Setup parameters for call to function AT_Uart0_Send
        MOV       R4,#0x2
        MOV       R5,#0x0
        MOV       R2,#`?<Constant "\\r\\n">` & 0xff
        MOV       R3,#(`?<Constant "\\r\\n">` >> 8) & 0xff
        LCALL     `??AT_Uart0_Send::?relay`; Banked call to: AT_Uart0_Send
        MOV       A,?V0
        JNZ       ??AT_ZDO_ProcessMsgCBs_25
        ; Setup parameters for call to function printf
        MOV       R2,#`?<Constant "\\r\\nLEFTPAN\\r\\n">` & 0xff
        MOV       R3,#(`?<Constant "\\r\\nLEFTPAN\\r\\n">` >> 8) & 0xff
        LCALL     `??printf::?relay`; Banked call to: printf
??AT_ZDO_ProcessMsgCBs_25:
        ; Setup parameters for call to function AT_Uart0_Send
        MOV       R4,#0x2
        MOV       R5,#0x0
        MOV       R2,#`?<Constant "\\r\\n">` & 0xff
        MOV       R3,#(`?<Constant "\\r\\n">` >> 8) & 0xff
??AT_ZDO_ProcessMsgCBs_30:
        LCALL     `??AT_Uart0_Send::?relay`; Banked call to: AT_Uart0_Send
//  182 }
??AT_ZDO_ProcessMsgCBs_13:
        MOV       A,#0x1b
        LCALL     ?DEALLOC_XSTACK8
          CFI CFA_XSP16 add(XSP16, 18)
        MOV       R7,#0xa
        LJMP      ?BANKED_LEAVE_XDATA
          CFI EndBlock cfiBlock2

        RSEG BANKED_CODE:HUGECODE:NOROOT(0)
?Subroutine19:
          CFI Block cfiCond3 Using cfiCommon0
          CFI Function AT_ZDO_ProcessMsgCBs
          CFI Conditional ??CrossCallReturnLabel_48
          CFI R6 load(1, XDATA, add(CFA_XSP16, literal(-18)))
          CFI VB load(1, XDATA, add(CFA_XSP16, literal(-17)))
          CFI V0 load(1, XDATA, add(CFA_XSP16, literal(-16)))
          CFI V1 load(1, XDATA, add(CFA_XSP16, literal(-15)))
          CFI V2 load(1, XDATA, add(CFA_XSP16, literal(-14)))
          CFI V3 load(1, XDATA, add(CFA_XSP16, literal(-13)))
          CFI V4 load(1, XDATA, add(CFA_XSP16, literal(-12)))
          CFI V5 load(1, XDATA, add(CFA_XSP16, literal(-11)))
          CFI V6 load(1, XDATA, add(CFA_XSP16, literal(-10)))
          CFI V7 load(1, XDATA, add(CFA_XSP16, literal(-9)))
          CFI V8 load(1, XDATA, add(CFA_XSP16, literal(-8)))
          CFI V9 load(1, XDATA, add(CFA_XSP16, literal(-7)))
          CFI R7 load(1, XDATA, add(CFA_XSP16, literal(-6)))
          CFI ?RET_LOW load(1, XDATA, add(CFA_XSP16, literal(-5)))
          CFI ?RET_HIGH load(1, XDATA, add(CFA_XSP16, literal(-4)))
          CFI ?BRET_EXT load(1, XDATA, add(CFA_XSP16, literal(-3)))
          CFI DPL0 load(1, XDATA, add(CFA_XSP16, literal(-2)))
          CFI DPH0 load(1, XDATA, add(CFA_XSP16, literal(-1)))
          CFI CFA_SP SP+-2
          CFI CFA_XSP16 add(XSP16, 45)
          CFI Block cfiCond4 Using cfiCommon0
          CFI (cfiCond4) Function AT_ZDO_ProcessMsgCBs
          CFI (cfiCond4) Conditional ??CrossCallReturnLabel_49
          CFI (cfiCond4) R6 load(1, XDATA, add(CFA_XSP16, literal(-18)))
          CFI (cfiCond4) VB load(1, XDATA, add(CFA_XSP16, literal(-17)))
          CFI (cfiCond4) V0 load(1, XDATA, add(CFA_XSP16, literal(-16)))
          CFI (cfiCond4) V1 load(1, XDATA, add(CFA_XSP16, literal(-15)))
          CFI (cfiCond4) V2 load(1, XDATA, add(CFA_XSP16, literal(-14)))
          CFI (cfiCond4) V3 load(1, XDATA, add(CFA_XSP16, literal(-13)))
          CFI (cfiCond4) V4 load(1, XDATA, add(CFA_XSP16, literal(-12)))
          CFI (cfiCond4) V5 load(1, XDATA, add(CFA_XSP16, literal(-11)))
          CFI (cfiCond4) V6 load(1, XDATA, add(CFA_XSP16, literal(-10)))
          CFI (cfiCond4) V7 load(1, XDATA, add(CFA_XSP16, literal(-9)))
          CFI (cfiCond4) V8 load(1, XDATA, add(CFA_XSP16, literal(-8)))
          CFI (cfiCond4) V9 load(1, XDATA, add(CFA_XSP16, literal(-7)))
          CFI (cfiCond4) R7 load(1, XDATA, add(CFA_XSP16, literal(-6)))
          CFI (cfiCond4) ?RET_LOW load(1, XDATA, add(CFA_XSP16, literal(-5)))
          CFI (cfiCond4) ?RET_HIGH load(1, XDATA, add(CFA_XSP16, literal(-4)))
          CFI (cfiCond4) ?BRET_EXT load(1, XDATA, add(CFA_XSP16, literal(-3)))
          CFI (cfiCond4) DPL0 load(1, XDATA, add(CFA_XSP16, literal(-2)))
          CFI (cfiCond4) DPH0 load(1, XDATA, add(CFA_XSP16, literal(-1)))
          CFI (cfiCond4) CFA_SP SP+-2
          CFI (cfiCond4) CFA_XSP16 add(XSP16, 45)
          CFI Block cfiPicker5 Using cfiCommon1
          CFI (cfiPicker5) NoFunction
          CFI (cfiPicker5) Picker
        MOV       R4,#0x1
        MOV       R5,#0x0
        MOV       R2,?V2
        MOV       R3,?V3
          CFI EndBlock cfiCond3
          CFI EndBlock cfiCond4
          CFI EndBlock cfiPicker5
        REQUIRE ??Subroutine28_0
        ; // Fall through to label ??Subroutine28_0

        RSEG BANKED_CODE:HUGECODE:NOROOT(0)
??Subroutine28_0:
          CFI Block cfiCond6 Using cfiCommon0
          CFI Function AT_ZDO_ProcessMsgCBs
          CFI Conditional ??CrossCallReturnLabel_50
          CFI R6 load(1, XDATA, add(CFA_XSP16, literal(-18)))
          CFI VB load(1, XDATA, add(CFA_XSP16, literal(-17)))
          CFI V0 load(1, XDATA, add(CFA_XSP16, literal(-16)))
          CFI V1 load(1, XDATA, add(CFA_XSP16, literal(-15)))
          CFI V2 load(1, XDATA, add(CFA_XSP16, literal(-14)))
          CFI V3 load(1, XDATA, add(CFA_XSP16, literal(-13)))
          CFI V4 load(1, XDATA, add(CFA_XSP16, literal(-12)))
          CFI V5 load(1, XDATA, add(CFA_XSP16, literal(-11)))
          CFI V6 load(1, XDATA, add(CFA_XSP16, literal(-10)))
          CFI V7 load(1, XDATA, add(CFA_XSP16, literal(-9)))
          CFI V8 load(1, XDATA, add(CFA_XSP16, literal(-8)))
          CFI V9 load(1, XDATA, add(CFA_XSP16, literal(-7)))
          CFI R7 load(1, XDATA, add(CFA_XSP16, literal(-6)))
          CFI ?RET_LOW load(1, XDATA, add(CFA_XSP16, literal(-5)))
          CFI ?RET_HIGH load(1, XDATA, add(CFA_XSP16, literal(-4)))
          CFI ?BRET_EXT load(1, XDATA, add(CFA_XSP16, literal(-3)))
          CFI DPL0 load(1, XDATA, add(CFA_XSP16, literal(-2)))
          CFI DPH0 load(1, XDATA, add(CFA_XSP16, literal(-1)))
          CFI CFA_SP SP+-2
          CFI CFA_XSP16 add(XSP16, 45)
          CFI Block cfiCond7 Using cfiCommon0
          CFI (cfiCond7) Function AT_ZDO_ProcessMsgCBs
          CFI (cfiCond7) Conditional ??CrossCallReturnLabel_51
          CFI (cfiCond7) R6 load(1, XDATA, add(CFA_XSP16, literal(-18)))
          CFI (cfiCond7) VB load(1, XDATA, add(CFA_XSP16, literal(-17)))
          CFI (cfiCond7) V0 load(1, XDATA, add(CFA_XSP16, literal(-16)))
          CFI (cfiCond7) V1 load(1, XDATA, add(CFA_XSP16, literal(-15)))
          CFI (cfiCond7) V2 load(1, XDATA, add(CFA_XSP16, literal(-14)))
          CFI (cfiCond7) V3 load(1, XDATA, add(CFA_XSP16, literal(-13)))
          CFI (cfiCond7) V4 load(1, XDATA, add(CFA_XSP16, literal(-12)))
          CFI (cfiCond7) V5 load(1, XDATA, add(CFA_XSP16, literal(-11)))
          CFI (cfiCond7) V6 load(1, XDATA, add(CFA_XSP16, literal(-10)))
          CFI (cfiCond7) V7 load(1, XDATA, add(CFA_XSP16, literal(-9)))
          CFI (cfiCond7) V8 load(1, XDATA, add(CFA_XSP16, literal(-8)))
          CFI (cfiCond7) V9 load(1, XDATA, add(CFA_XSP16, literal(-7)))
          CFI (cfiCond7) R7 load(1, XDATA, add(CFA_XSP16, literal(-6)))
          CFI (cfiCond7) ?RET_LOW load(1, XDATA, add(CFA_XSP16, literal(-5)))
          CFI (cfiCond7) ?RET_HIGH load(1, XDATA, add(CFA_XSP16, literal(-4)))
          CFI (cfiCond7) ?BRET_EXT load(1, XDATA, add(CFA_XSP16, literal(-3)))
          CFI (cfiCond7) DPL0 load(1, XDATA, add(CFA_XSP16, literal(-2)))
          CFI (cfiCond7) DPH0 load(1, XDATA, add(CFA_XSP16, literal(-1)))
          CFI (cfiCond7) CFA_SP SP+-2
          CFI (cfiCond7) CFA_XSP16 add(XSP16, 45)
          CFI Block cfiCond8 Using cfiCommon0
          CFI (cfiCond8) Function AT_ZDO_ProcessMsgCBs
          CFI (cfiCond8) Conditional ??CrossCallReturnLabel_48
          CFI (cfiCond8) R6 load(1, XDATA, add(CFA_XSP16, literal(-18)))
          CFI (cfiCond8) VB load(1, XDATA, add(CFA_XSP16, literal(-17)))
          CFI (cfiCond8) V0 load(1, XDATA, add(CFA_XSP16, literal(-16)))
          CFI (cfiCond8) V1 load(1, XDATA, add(CFA_XSP16, literal(-15)))
          CFI (cfiCond8) V2 load(1, XDATA, add(CFA_XSP16, literal(-14)))
          CFI (cfiCond8) V3 load(1, XDATA, add(CFA_XSP16, literal(-13)))
          CFI (cfiCond8) V4 load(1, XDATA, add(CFA_XSP16, literal(-12)))
          CFI (cfiCond8) V5 load(1, XDATA, add(CFA_XSP16, literal(-11)))
          CFI (cfiCond8) V6 load(1, XDATA, add(CFA_XSP16, literal(-10)))
          CFI (cfiCond8) V7 load(1, XDATA, add(CFA_XSP16, literal(-9)))
          CFI (cfiCond8) V8 load(1, XDATA, add(CFA_XSP16, literal(-8)))
          CFI (cfiCond8) V9 load(1, XDATA, add(CFA_XSP16, literal(-7)))
          CFI (cfiCond8) R7 load(1, XDATA, add(CFA_XSP16, literal(-6)))
          CFI (cfiCond8) ?RET_LOW load(1, XDATA, add(CFA_XSP16, literal(-5)))
          CFI (cfiCond8) ?RET_HIGH load(1, XDATA, add(CFA_XSP16, literal(-4)))
          CFI (cfiCond8) ?BRET_EXT load(1, XDATA, add(CFA_XSP16, literal(-3)))
          CFI (cfiCond8) DPL0 load(1, XDATA, add(CFA_XSP16, literal(-2)))
          CFI (cfiCond8) DPH0 load(1, XDATA, add(CFA_XSP16, literal(-1)))
          CFI (cfiCond8) CFA_SP SP+-2
          CFI (cfiCond8) CFA_XSP16 add(XSP16, 45)
          CFI Block cfiCond9 Using cfiCommon0
          CFI (cfiCond9) Function AT_ZDO_ProcessMsgCBs
          CFI (cfiCond9) Conditional ??CrossCallReturnLabel_49
          CFI (cfiCond9) R6 load(1, XDATA, add(CFA_XSP16, literal(-18)))
          CFI (cfiCond9) VB load(1, XDATA, add(CFA_XSP16, literal(-17)))
          CFI (cfiCond9) V0 load(1, XDATA, add(CFA_XSP16, literal(-16)))
          CFI (cfiCond9) V1 load(1, XDATA, add(CFA_XSP16, literal(-15)))
          CFI (cfiCond9) V2 load(1, XDATA, add(CFA_XSP16, literal(-14)))
          CFI (cfiCond9) V3 load(1, XDATA, add(CFA_XSP16, literal(-13)))
          CFI (cfiCond9) V4 load(1, XDATA, add(CFA_XSP16, literal(-12)))
          CFI (cfiCond9) V5 load(1, XDATA, add(CFA_XSP16, literal(-11)))
          CFI (cfiCond9) V6 load(1, XDATA, add(CFA_XSP16, literal(-10)))
          CFI (cfiCond9) V7 load(1, XDATA, add(CFA_XSP16, literal(-9)))
          CFI (cfiCond9) V8 load(1, XDATA, add(CFA_XSP16, literal(-8)))
          CFI (cfiCond9) V9 load(1, XDATA, add(CFA_XSP16, literal(-7)))
          CFI (cfiCond9) R7 load(1, XDATA, add(CFA_XSP16, literal(-6)))
          CFI (cfiCond9) ?RET_LOW load(1, XDATA, add(CFA_XSP16, literal(-5)))
          CFI (cfiCond9) ?RET_HIGH load(1, XDATA, add(CFA_XSP16, literal(-4)))
          CFI (cfiCond9) ?BRET_EXT load(1, XDATA, add(CFA_XSP16, literal(-3)))
          CFI (cfiCond9) DPL0 load(1, XDATA, add(CFA_XSP16, literal(-2)))
          CFI (cfiCond9) DPH0 load(1, XDATA, add(CFA_XSP16, literal(-1)))
          CFI (cfiCond9) CFA_SP SP+-2
          CFI (cfiCond9) CFA_XSP16 add(XSP16, 45)
          CFI Block cfiPicker10 Using cfiCommon1
          CFI (cfiPicker10) NoFunction
          CFI (cfiPicker10) Picker
        LCALL     `??AT_Uart0_Send::?relay`; Banked call to: AT_Uart0_Send
        ; Setup parameters for call to function AT_Int16toChar
        ; Setup parameters for call to function AT_GetIEEEAddrStr
        ; Setup parameters for call to function AT_Int8toChar
        ; Setup parameters for call to function AT_Int16toChar
        MOV       A,#0xb
        RET
          CFI EndBlock cfiCond6
          CFI EndBlock cfiCond7
          CFI EndBlock cfiCond8
          CFI EndBlock cfiCond9
          CFI EndBlock cfiPicker10

        RSEG BANKED_CODE:HUGECODE:NOROOT(0)
?Subroutine10:
          CFI Block cfiCond11 Using cfiCommon0
          CFI Function AT_ZDO_ProcessMsgCBs
          CFI Conditional ??CrossCallReturnLabel_4
          CFI R6 load(1, XDATA, add(CFA_XSP16, literal(-18)))
          CFI VB load(1, XDATA, add(CFA_XSP16, literal(-17)))
          CFI V0 load(1, XDATA, add(CFA_XSP16, literal(-16)))
          CFI V1 load(1, XDATA, add(CFA_XSP16, literal(-15)))
          CFI V2 load(1, XDATA, add(CFA_XSP16, literal(-14)))
          CFI V3 load(1, XDATA, add(CFA_XSP16, literal(-13)))
          CFI V4 load(1, XDATA, add(CFA_XSP16, literal(-12)))
          CFI V5 load(1, XDATA, add(CFA_XSP16, literal(-11)))
          CFI V6 load(1, XDATA, add(CFA_XSP16, literal(-10)))
          CFI V7 load(1, XDATA, add(CFA_XSP16, literal(-9)))
          CFI V8 load(1, XDATA, add(CFA_XSP16, literal(-8)))
          CFI V9 load(1, XDATA, add(CFA_XSP16, literal(-7)))
          CFI R7 load(1, XDATA, add(CFA_XSP16, literal(-6)))
          CFI ?RET_LOW load(1, XDATA, add(CFA_XSP16, literal(-5)))
          CFI ?RET_HIGH load(1, XDATA, add(CFA_XSP16, literal(-4)))
          CFI ?BRET_EXT load(1, XDATA, add(CFA_XSP16, literal(-3)))
          CFI DPL0 load(1, XDATA, add(CFA_XSP16, literal(-2)))
          CFI DPH0 load(1, XDATA, add(CFA_XSP16, literal(-1)))
          CFI CFA_SP SP+-2
          CFI CFA_XSP16 add(XSP16, 45)
          CFI Block cfiCond12 Using cfiCommon0
          CFI (cfiCond12) Function AT_ZDO_ProcessMsgCBs
          CFI (cfiCond12) Conditional ??CrossCallReturnLabel_5
          CFI (cfiCond12) R6 load(1, XDATA, add(CFA_XSP16, literal(-18)))
          CFI (cfiCond12) VB load(1, XDATA, add(CFA_XSP16, literal(-17)))
          CFI (cfiCond12) V0 load(1, XDATA, add(CFA_XSP16, literal(-16)))
          CFI (cfiCond12) V1 load(1, XDATA, add(CFA_XSP16, literal(-15)))
          CFI (cfiCond12) V2 load(1, XDATA, add(CFA_XSP16, literal(-14)))
          CFI (cfiCond12) V3 load(1, XDATA, add(CFA_XSP16, literal(-13)))
          CFI (cfiCond12) V4 load(1, XDATA, add(CFA_XSP16, literal(-12)))
          CFI (cfiCond12) V5 load(1, XDATA, add(CFA_XSP16, literal(-11)))
          CFI (cfiCond12) V6 load(1, XDATA, add(CFA_XSP16, literal(-10)))
          CFI (cfiCond12) V7 load(1, XDATA, add(CFA_XSP16, literal(-9)))
          CFI (cfiCond12) V8 load(1, XDATA, add(CFA_XSP16, literal(-8)))
          CFI (cfiCond12) V9 load(1, XDATA, add(CFA_XSP16, literal(-7)))
          CFI (cfiCond12) R7 load(1, XDATA, add(CFA_XSP16, literal(-6)))
          CFI (cfiCond12) ?RET_LOW load(1, XDATA, add(CFA_XSP16, literal(-5)))
          CFI (cfiCond12) ?RET_HIGH load(1, XDATA, add(CFA_XSP16, literal(-4)))
          CFI (cfiCond12) ?BRET_EXT load(1, XDATA, add(CFA_XSP16, literal(-3)))
          CFI (cfiCond12) DPL0 load(1, XDATA, add(CFA_XSP16, literal(-2)))
          CFI (cfiCond12) DPH0 load(1, XDATA, add(CFA_XSP16, literal(-1)))
          CFI (cfiCond12) CFA_SP SP+-2
          CFI (cfiCond12) CFA_XSP16 add(XSP16, 45)
          CFI Block cfiPicker13 Using cfiCommon1
          CFI (cfiPicker13) NoFunction
          CFI (cfiPicker13) Picker
        LCALL     ?Subroutine25 & 0xFFFF
??CrossCallReturnLabel_43:
        RET
          CFI EndBlock cfiCond11
          CFI EndBlock cfiCond12
          CFI EndBlock cfiPicker13

        RSEG BANKED_CODE:HUGECODE:NOROOT(0)
?Subroutine25:
          CFI Block cfiCond14 Using cfiCommon0
          CFI Function AT_ZDO_ProcessMsgCBs
          CFI Conditional ??CrossCallReturnLabel_43, ??CrossCallReturnLabel_4
          CFI R6 load(1, XDATA, add(CFA_XSP16, literal(-18)))
          CFI VB load(1, XDATA, add(CFA_XSP16, literal(-17)))
          CFI V0 load(1, XDATA, add(CFA_XSP16, literal(-16)))
          CFI V1 load(1, XDATA, add(CFA_XSP16, literal(-15)))
          CFI V2 load(1, XDATA, add(CFA_XSP16, literal(-14)))
          CFI V3 load(1, XDATA, add(CFA_XSP16, literal(-13)))
          CFI V4 load(1, XDATA, add(CFA_XSP16, literal(-12)))
          CFI V5 load(1, XDATA, add(CFA_XSP16, literal(-11)))
          CFI V6 load(1, XDATA, add(CFA_XSP16, literal(-10)))
          CFI V7 load(1, XDATA, add(CFA_XSP16, literal(-9)))
          CFI V8 load(1, XDATA, add(CFA_XSP16, literal(-8)))
          CFI V9 load(1, XDATA, add(CFA_XSP16, literal(-7)))
          CFI R7 load(1, XDATA, add(CFA_XSP16, literal(-6)))
          CFI ?RET_LOW load(1, XDATA, add(CFA_XSP16, literal(-5)))
          CFI ?RET_HIGH load(1, XDATA, add(CFA_XSP16, literal(-4)))
          CFI ?BRET_EXT load(1, XDATA, add(CFA_XSP16, literal(-3)))
          CFI DPL0 load(1, XDATA, add(CFA_XSP16, literal(-2)))
          CFI DPH0 load(1, XDATA, add(CFA_XSP16, literal(-1)))
          CFI CFA_SP SP+-4
          CFI CFA_XSP16 add(XSP16, 45)
          CFI Block cfiCond15 Using cfiCommon0
          CFI (cfiCond15) Function AT_ZDO_ProcessMsgCBs
          CFI (cfiCond15) Conditional ??CrossCallReturnLabel_43, ??CrossCallReturnLabel_5
          CFI (cfiCond15) R6 load(1, XDATA, add(CFA_XSP16, literal(-18)))
          CFI (cfiCond15) VB load(1, XDATA, add(CFA_XSP16, literal(-17)))
          CFI (cfiCond15) V0 load(1, XDATA, add(CFA_XSP16, literal(-16)))
          CFI (cfiCond15) V1 load(1, XDATA, add(CFA_XSP16, literal(-15)))
          CFI (cfiCond15) V2 load(1, XDATA, add(CFA_XSP16, literal(-14)))
          CFI (cfiCond15) V3 load(1, XDATA, add(CFA_XSP16, literal(-13)))
          CFI (cfiCond15) V4 load(1, XDATA, add(CFA_XSP16, literal(-12)))
          CFI (cfiCond15) V5 load(1, XDATA, add(CFA_XSP16, literal(-11)))
          CFI (cfiCond15) V6 load(1, XDATA, add(CFA_XSP16, literal(-10)))
          CFI (cfiCond15) V7 load(1, XDATA, add(CFA_XSP16, literal(-9)))
          CFI (cfiCond15) V8 load(1, XDATA, add(CFA_XSP16, literal(-8)))
          CFI (cfiCond15) V9 load(1, XDATA, add(CFA_XSP16, literal(-7)))
          CFI (cfiCond15) R7 load(1, XDATA, add(CFA_XSP16, literal(-6)))
          CFI (cfiCond15) ?RET_LOW load(1, XDATA, add(CFA_XSP16, literal(-5)))
          CFI (cfiCond15) ?RET_HIGH load(1, XDATA, add(CFA_XSP16, literal(-4)))
          CFI (cfiCond15) ?BRET_EXT load(1, XDATA, add(CFA_XSP16, literal(-3)))
          CFI (cfiCond15) DPL0 load(1, XDATA, add(CFA_XSP16, literal(-2)))
          CFI (cfiCond15) DPH0 load(1, XDATA, add(CFA_XSP16, literal(-1)))
          CFI (cfiCond15) CFA_SP SP+-4
          CFI (cfiCond15) CFA_XSP16 add(XSP16, 45)
          CFI Block cfiCond16 Using cfiCommon0
          CFI (cfiCond16) Function AT_ZDO_ProcessMsgCBs
          CFI (cfiCond16) Conditional ??CrossCallReturnLabel_42, ??CrossCallReturnLabel_0
          CFI (cfiCond16) R6 load(1, XDATA, add(CFA_XSP16, literal(-18)))
          CFI (cfiCond16) VB load(1, XDATA, add(CFA_XSP16, literal(-17)))
          CFI (cfiCond16) V0 load(1, XDATA, add(CFA_XSP16, literal(-16)))
          CFI (cfiCond16) V1 load(1, XDATA, add(CFA_XSP16, literal(-15)))
          CFI (cfiCond16) V2 load(1, XDATA, add(CFA_XSP16, literal(-14)))
          CFI (cfiCond16) V3 load(1, XDATA, add(CFA_XSP16, literal(-13)))
          CFI (cfiCond16) V4 load(1, XDATA, add(CFA_XSP16, literal(-12)))
          CFI (cfiCond16) V5 load(1, XDATA, add(CFA_XSP16, literal(-11)))
          CFI (cfiCond16) V6 load(1, XDATA, add(CFA_XSP16, literal(-10)))
          CFI (cfiCond16) V7 load(1, XDATA, add(CFA_XSP16, literal(-9)))
          CFI (cfiCond16) V8 load(1, XDATA, add(CFA_XSP16, literal(-8)))
          CFI (cfiCond16) V9 load(1, XDATA, add(CFA_XSP16, literal(-7)))
          CFI (cfiCond16) R7 load(1, XDATA, add(CFA_XSP16, literal(-6)))
          CFI (cfiCond16) ?RET_LOW load(1, XDATA, add(CFA_XSP16, literal(-5)))
          CFI (cfiCond16) ?RET_HIGH load(1, XDATA, add(CFA_XSP16, literal(-4)))
          CFI (cfiCond16) ?BRET_EXT load(1, XDATA, add(CFA_XSP16, literal(-3)))
          CFI (cfiCond16) DPL0 load(1, XDATA, add(CFA_XSP16, literal(-2)))
          CFI (cfiCond16) DPH0 load(1, XDATA, add(CFA_XSP16, literal(-1)))
          CFI (cfiCond16) CFA_SP SP+-4
          CFI (cfiCond16) CFA_XSP16 add(XSP16, 45)
          CFI Block cfiCond17 Using cfiCommon0
          CFI (cfiCond17) Function AT_ZDO_ProcessMsgCBs
          CFI (cfiCond17) Conditional ??CrossCallReturnLabel_42, ??CrossCallReturnLabel_1
          CFI (cfiCond17) R6 load(1, XDATA, add(CFA_XSP16, literal(-18)))
          CFI (cfiCond17) VB load(1, XDATA, add(CFA_XSP16, literal(-17)))
          CFI (cfiCond17) V0 load(1, XDATA, add(CFA_XSP16, literal(-16)))
          CFI (cfiCond17) V1 load(1, XDATA, add(CFA_XSP16, literal(-15)))
          CFI (cfiCond17) V2 load(1, XDATA, add(CFA_XSP16, literal(-14)))
          CFI (cfiCond17) V3 load(1, XDATA, add(CFA_XSP16, literal(-13)))
          CFI (cfiCond17) V4 load(1, XDATA, add(CFA_XSP16, literal(-12)))
          CFI (cfiCond17) V5 load(1, XDATA, add(CFA_XSP16, literal(-11)))
          CFI (cfiCond17) V6 load(1, XDATA, add(CFA_XSP16, literal(-10)))
          CFI (cfiCond17) V7 load(1, XDATA, add(CFA_XSP16, literal(-9)))
          CFI (cfiCond17) V8 load(1, XDATA, add(CFA_XSP16, literal(-8)))
          CFI (cfiCond17) V9 load(1, XDATA, add(CFA_XSP16, literal(-7)))
          CFI (cfiCond17) R7 load(1, XDATA, add(CFA_XSP16, literal(-6)))
          CFI (cfiCond17) ?RET_LOW load(1, XDATA, add(CFA_XSP16, literal(-5)))
          CFI (cfiCond17) ?RET_HIGH load(1, XDATA, add(CFA_XSP16, literal(-4)))
          CFI (cfiCond17) ?BRET_EXT load(1, XDATA, add(CFA_XSP16, literal(-3)))
          CFI (cfiCond17) DPL0 load(1, XDATA, add(CFA_XSP16, literal(-2)))
          CFI (cfiCond17) DPH0 load(1, XDATA, add(CFA_XSP16, literal(-1)))
          CFI (cfiCond17) CFA_SP SP+-4
          CFI (cfiCond17) CFA_XSP16 add(XSP16, 45)
          CFI Block cfiPicker18 Using cfiCommon1
          CFI (cfiPicker18) NoFunction
          CFI (cfiPicker18) Picker
        MOV       A,R2
        ADD       A,#0x13
        MOV       DPL,A
        CLR       A
        ADDC      A,?V1
        MOV       DPH,A
        MOVX      A,@DPTR
        MOV       R0,A
        INC       DPTR
        MOVX      A,@DPTR
        MOV       DPH,A
        MOV       DPL,R0
        MOVX      A,@DPTR
        MOV       ?V0,A
        RET
          CFI EndBlock cfiCond14
          CFI EndBlock cfiCond15
          CFI EndBlock cfiCond16
          CFI EndBlock cfiCond17
          CFI EndBlock cfiPicker18

        RSEG BANKED_CODE:HUGECODE:NOROOT(0)
?Subroutine7:
          CFI Block cfiCond19 Using cfiCommon0
          CFI Function AT_ZDO_ProcessMsgCBs
          CFI Conditional ??CrossCallReturnLabel_2
          CFI R6 load(1, XDATA, add(CFA_XSP16, literal(-18)))
          CFI VB load(1, XDATA, add(CFA_XSP16, literal(-17)))
          CFI V0 load(1, XDATA, add(CFA_XSP16, literal(-16)))
          CFI V1 load(1, XDATA, add(CFA_XSP16, literal(-15)))
          CFI V2 load(1, XDATA, add(CFA_XSP16, literal(-14)))
          CFI V3 load(1, XDATA, add(CFA_XSP16, literal(-13)))
          CFI V4 load(1, XDATA, add(CFA_XSP16, literal(-12)))
          CFI V5 load(1, XDATA, add(CFA_XSP16, literal(-11)))
          CFI V6 load(1, XDATA, add(CFA_XSP16, literal(-10)))
          CFI V7 load(1, XDATA, add(CFA_XSP16, literal(-9)))
          CFI V8 load(1, XDATA, add(CFA_XSP16, literal(-8)))
          CFI V9 load(1, XDATA, add(CFA_XSP16, literal(-7)))
          CFI R7 load(1, XDATA, add(CFA_XSP16, literal(-6)))
          CFI ?RET_LOW load(1, XDATA, add(CFA_XSP16, literal(-5)))
          CFI ?RET_HIGH load(1, XDATA, add(CFA_XSP16, literal(-4)))
          CFI ?BRET_EXT load(1, XDATA, add(CFA_XSP16, literal(-3)))
          CFI DPL0 load(1, XDATA, add(CFA_XSP16, literal(-2)))
          CFI DPH0 load(1, XDATA, add(CFA_XSP16, literal(-1)))
          CFI CFA_SP SP+-2
          CFI CFA_XSP16 add(XSP16, 45)
          CFI Block cfiCond20 Using cfiCommon0
          CFI (cfiCond20) Function AT_ZDO_ProcessMsgCBs
          CFI (cfiCond20) Conditional ??CrossCallReturnLabel_3
          CFI (cfiCond20) R6 load(1, XDATA, add(CFA_XSP16, literal(-18)))
          CFI (cfiCond20) VB load(1, XDATA, add(CFA_XSP16, literal(-17)))
          CFI (cfiCond20) V0 load(1, XDATA, add(CFA_XSP16, literal(-16)))
          CFI (cfiCond20) V1 load(1, XDATA, add(CFA_XSP16, literal(-15)))
          CFI (cfiCond20) V2 load(1, XDATA, add(CFA_XSP16, literal(-14)))
          CFI (cfiCond20) V3 load(1, XDATA, add(CFA_XSP16, literal(-13)))
          CFI (cfiCond20) V4 load(1, XDATA, add(CFA_XSP16, literal(-12)))
          CFI (cfiCond20) V5 load(1, XDATA, add(CFA_XSP16, literal(-11)))
          CFI (cfiCond20) V6 load(1, XDATA, add(CFA_XSP16, literal(-10)))
          CFI (cfiCond20) V7 load(1, XDATA, add(CFA_XSP16, literal(-9)))
          CFI (cfiCond20) V8 load(1, XDATA, add(CFA_XSP16, literal(-8)))
          CFI (cfiCond20) V9 load(1, XDATA, add(CFA_XSP16, literal(-7)))
          CFI (cfiCond20) R7 load(1, XDATA, add(CFA_XSP16, literal(-6)))
          CFI (cfiCond20) ?RET_LOW load(1, XDATA, add(CFA_XSP16, literal(-5)))
          CFI (cfiCond20) ?RET_HIGH load(1, XDATA, add(CFA_XSP16, literal(-4)))
          CFI (cfiCond20) ?BRET_EXT load(1, XDATA, add(CFA_XSP16, literal(-3)))
          CFI (cfiCond20) DPL0 load(1, XDATA, add(CFA_XSP16, literal(-2)))
          CFI (cfiCond20) DPH0 load(1, XDATA, add(CFA_XSP16, literal(-1)))
          CFI (cfiCond20) CFA_SP SP+-2
          CFI (cfiCond20) CFA_XSP16 add(XSP16, 45)
          CFI Block cfiPicker21 Using cfiCommon1
          CFI (cfiPicker21) NoFunction
          CFI (cfiPicker21) Picker
        MOVX      A,@DPTR
        MOV       R2,A
        INC       DPTR
        MOVX      A,@DPTR
        MOV       R3,A
        LCALL     `??AT_Int16toChar::?relay`; Banked call to: AT_Int16toChar
        ; Setup parameters for call to function AT_Uart0_Send
        ; Setup parameters for call to function AT_Uart0_Send
        MOV       R4,#0x4
        MOV       R5,#0x0
        MOV       A,#0xb
        RET
          CFI EndBlock cfiCond19
          CFI EndBlock cfiCond20
          CFI EndBlock cfiPicker21

        RSEG BANKED_CODE:HUGECODE:NOROOT(0)
?Subroutine3:
          CFI Block cfiCond22 Using cfiCommon0
          CFI Function AT_ZDO_ProcessMsgCBs
          CFI Conditional ??CrossCallReturnLabel_0
          CFI R6 load(1, XDATA, add(CFA_XSP16, literal(-18)))
          CFI VB load(1, XDATA, add(CFA_XSP16, literal(-17)))
          CFI V0 load(1, XDATA, add(CFA_XSP16, literal(-16)))
          CFI V1 load(1, XDATA, add(CFA_XSP16, literal(-15)))
          CFI V2 load(1, XDATA, add(CFA_XSP16, literal(-14)))
          CFI V3 load(1, XDATA, add(CFA_XSP16, literal(-13)))
          CFI V4 load(1, XDATA, add(CFA_XSP16, literal(-12)))
          CFI V5 load(1, XDATA, add(CFA_XSP16, literal(-11)))
          CFI V6 load(1, XDATA, add(CFA_XSP16, literal(-10)))
          CFI V7 load(1, XDATA, add(CFA_XSP16, literal(-9)))
          CFI V8 load(1, XDATA, add(CFA_XSP16, literal(-8)))
          CFI V9 load(1, XDATA, add(CFA_XSP16, literal(-7)))
          CFI R7 load(1, XDATA, add(CFA_XSP16, literal(-6)))
          CFI ?RET_LOW load(1, XDATA, add(CFA_XSP16, literal(-5)))
          CFI ?RET_HIGH load(1, XDATA, add(CFA_XSP16, literal(-4)))
          CFI ?BRET_EXT load(1, XDATA, add(CFA_XSP16, literal(-3)))
          CFI DPL0 load(1, XDATA, add(CFA_XSP16, literal(-2)))
          CFI DPH0 load(1, XDATA, add(CFA_XSP16, literal(-1)))
          CFI CFA_SP SP+-2
          CFI CFA_XSP16 add(XSP16, 45)
          CFI Block cfiCond23 Using cfiCommon0
          CFI (cfiCond23) Function AT_ZDO_ProcessMsgCBs
          CFI (cfiCond23) Conditional ??CrossCallReturnLabel_1
          CFI (cfiCond23) R6 load(1, XDATA, add(CFA_XSP16, literal(-18)))
          CFI (cfiCond23) VB load(1, XDATA, add(CFA_XSP16, literal(-17)))
          CFI (cfiCond23) V0 load(1, XDATA, add(CFA_XSP16, literal(-16)))
          CFI (cfiCond23) V1 load(1, XDATA, add(CFA_XSP16, literal(-15)))
          CFI (cfiCond23) V2 load(1, XDATA, add(CFA_XSP16, literal(-14)))
          CFI (cfiCond23) V3 load(1, XDATA, add(CFA_XSP16, literal(-13)))
          CFI (cfiCond23) V4 load(1, XDATA, add(CFA_XSP16, literal(-12)))
          CFI (cfiCond23) V5 load(1, XDATA, add(CFA_XSP16, literal(-11)))
          CFI (cfiCond23) V6 load(1, XDATA, add(CFA_XSP16, literal(-10)))
          CFI (cfiCond23) V7 load(1, XDATA, add(CFA_XSP16, literal(-9)))
          CFI (cfiCond23) V8 load(1, XDATA, add(CFA_XSP16, literal(-8)))
          CFI (cfiCond23) V9 load(1, XDATA, add(CFA_XSP16, literal(-7)))
          CFI (cfiCond23) R7 load(1, XDATA, add(CFA_XSP16, literal(-6)))
          CFI (cfiCond23) ?RET_LOW load(1, XDATA, add(CFA_XSP16, literal(-5)))
          CFI (cfiCond23) ?RET_HIGH load(1, XDATA, add(CFA_XSP16, literal(-4)))
          CFI (cfiCond23) ?BRET_EXT load(1, XDATA, add(CFA_XSP16, literal(-3)))
          CFI (cfiCond23) DPL0 load(1, XDATA, add(CFA_XSP16, literal(-2)))
          CFI (cfiCond23) DPH0 load(1, XDATA, add(CFA_XSP16, literal(-1)))
          CFI (cfiCond23) CFA_SP SP+-2
          CFI (cfiCond23) CFA_XSP16 add(XSP16, 45)
          CFI Block cfiPicker24 Using cfiCommon1
          CFI (cfiPicker24) NoFunction
          CFI (cfiPicker24) Picker
        LCALL     ?Subroutine25 & 0xFFFF
??CrossCallReturnLabel_42:
        ; Setup parameters for call to function AT_Uart0_Send
        ; Setup parameters for call to function AT_Uart0_Send
        MOV       R4,#0x2
        MOV       R5,#0x0
        MOV       R2,#`?<Constant "\\r\\n">` & 0xff
        MOV       R3,#(`?<Constant "\\r\\n">` >> 8) & 0xff
        LCALL     `??AT_Uart0_Send::?relay`; Banked call to: AT_Uart0_Send
        MOV       ?V1,#0x0
        MOV       DPL,?V4
        MOV       DPH,?V5
        MOVX      A,@DPTR
        XRL       A,#0x2
        MOV       R0,#?V0
        RET
          CFI EndBlock cfiCond22
          CFI EndBlock cfiCond23
          CFI EndBlock cfiPicker24
//  183 
//  184 /**
//  185  * @brief display ACK or NACK prompt
//  186  */

        RSEG BANKED_CODE:HUGECODE:NOROOT(0)
//  187 void AT_Cmd_ProcessDataConfirm( afDataConfirm_t *afDataConfirm )
AT_Cmd_ProcessDataConfirm:
          CFI Block cfiBlock25 Using cfiCommon0
          CFI Function AT_Cmd_ProcessDataConfirm
        CODE
//  188 {
        FUNCALL AT_Cmd_ProcessDataConfirm, GetSeqNumIndexInBuffer
        LOCFRAME ISTACK, 0, STACK
        LOCFRAME PSTACK, 0, STACK
        LOCFRAME XSTACK, 10, STACK
        LOCFRAME IOVERLAY, 0, STATIC
        LOCFRAME DOVERLAY, 0, STATIC
        ARGFRAME ISTACK, 0, STACK
        ARGFRAME PSTACK, 0, STACK
        ARGFRAME XSTACK, 10, STACK
        ARGFRAME IOVERLAY, 0, STATIC
        ARGFRAME DOVERLAY, 0, STATIC
        FUNCALL AT_Cmd_ProcessDataConfirm, printf
        LOCFRAME ISTACK, 0, STACK
        LOCFRAME PSTACK, 0, STACK
        LOCFRAME XSTACK, 12, STACK
        LOCFRAME IOVERLAY, 0, STATIC
        LOCFRAME DOVERLAY, 0, STATIC
        ARGFRAME ISTACK, 0, STACK
        ARGFRAME PSTACK, 0, STACK
        ARGFRAME XSTACK, 12, STACK
        ARGFRAME IOVERLAY, 0, STATIC
        ARGFRAME DOVERLAY, 0, STATIC
        FUNCALL AT_Cmd_ProcessDataConfirm, printf
        LOCFRAME ISTACK, 0, STACK
        LOCFRAME PSTACK, 0, STACK
        LOCFRAME XSTACK, 12, STACK
        LOCFRAME IOVERLAY, 0, STATIC
        LOCFRAME DOVERLAY, 0, STATIC
        ARGFRAME ISTACK, 0, STACK
        ARGFRAME PSTACK, 0, STACK
        ARGFRAME XSTACK, 12, STACK
        ARGFRAME IOVERLAY, 0, STATIC
        ARGFRAME DOVERLAY, 0, STATIC
        FUNCALL AT_Cmd_ProcessDataConfirm, printf
        LOCFRAME ISTACK, 0, STACK
        LOCFRAME PSTACK, 0, STACK
        LOCFRAME XSTACK, 10, STACK
        LOCFRAME IOVERLAY, 0, STATIC
        LOCFRAME DOVERLAY, 0, STATIC
        ARGFRAME ISTACK, 0, STACK
        ARGFRAME PSTACK, 0, STACK
        ARGFRAME XSTACK, 10, STACK
        ARGFRAME IOVERLAY, 0, STATIC
        ARGFRAME DOVERLAY, 0, STATIC
        REQUIRE ?V0
        REQUIRE ?V1
        MOV       A,#-0xa
        LCALL     ?BANKED_ENTER_XDATA
          CFI DPH0 load(1, XDATA, add(CFA_XSP16, literal(-1)))
          CFI DPL0 load(1, XDATA, add(CFA_XSP16, literal(-2)))
          CFI ?BRET_EXT load(1, XDATA, add(CFA_XSP16, literal(-3)))
          CFI ?RET_HIGH load(1, XDATA, add(CFA_XSP16, literal(-4)))
          CFI ?RET_LOW load(1, XDATA, add(CFA_XSP16, literal(-5)))
          CFI R7 load(1, XDATA, add(CFA_XSP16, literal(-6)))
          CFI V1 load(1, XDATA, add(CFA_XSP16, literal(-7)))
          CFI V0 load(1, XDATA, add(CFA_XSP16, literal(-8)))
          CFI VB load(1, XDATA, add(CFA_XSP16, literal(-9)))
          CFI R6 load(1, XDATA, add(CFA_XSP16, literal(-10)))
          CFI CFA_SP SP+0
          CFI CFA_XSP16 add(XSP16, 10)
        ; Saved register size: 10
        ; Auto size: 0
//  189   uint8 indexInSeqBuff;
//  190   uint8 sentEP = afDataConfirm->endpoint;
//  191   uint8 sentStatus = afDataConfirm->hdr.status;
        MOV       DPL,R2
        MOV       DPH,R3
        INC       DPTR
        MOVX      A,@DPTR
        MOV       R7,A
//  192   uint8 ZDOTransID = afDataConfirm->transID;
        MOV       DPL,R2
        MOV       DPH,R3
        INC       DPTR
        INC       DPTR
        INC       DPTR
        MOVX      A,@DPTR
        MOV       ?V0,A
//  193 
//  194   if (sentEP == 0) {
        MOV       DPL,R2
        MOV       DPH,R3
        INC       DPTR
        INC       DPTR
        MOVX      A,@DPTR
        JNZ       ??AT_Cmd_ProcessDataConfirm_0
//  195     indexInSeqBuff = GetSeqNumIndexInBuffer(ZDOTransID);
        ; Setup parameters for call to function GetSeqNumIndexInBuffer
        MOV       R1,?V0
        LCALL     `??GetSeqNumIndexInBuffer::?relay`; Banked call to: GetSeqNumIndexInBuffer
        MOV       A,R1
        MOV       R6,A
//  196     if (indexInSeqBuff != 0xFF) {
        MOV       A,#-0x1
        XRL       A,R6
        JZ        ??AT_Cmd_ProcessDataConfirm_1
//  197       if (sentStatus == 0) {
        MOV       ?V1,#0x0
        MOV       A,R7
        MOV       R0,#?V0
        JNZ       ??AT_Cmd_ProcessDataConfirm_2
//  198         printf("\r\nACK:%02X\r\n", ZDOTransID);
        ; Setup parameters for call to function printf
        LCALL     ?PUSH_XSTACK_I_TWO
          CFI CFA_XSP16 add(XSP16, 12)
        MOV       R2,#`?<Constant "\\r\\nACK:%02X\\r\\n">` & 0xff
        MOV       R3,#(`?<Constant "\\r\\nACK:%02X\\r\\n">` >> 8) & 0xff
        SJMP      ??AT_Cmd_ProcessDataConfirm_3
          CFI CFA_XSP16 add(XSP16, 10)
//  199       } else {
//  200         printf("\r\nNACK:%02X\r\n", ZDOTransID);
??AT_Cmd_ProcessDataConfirm_2:
        ; Setup parameters for call to function printf
        LCALL     ?PUSH_XSTACK_I_TWO
          CFI CFA_XSP16 add(XSP16, 12)
        MOV       R2,#`?<Constant "\\r\\nNACK:%02X\\r\\n">` & 0xff
        MOV       R3,#(`?<Constant "\\r\\nNACK:%02X\\r\\n">` >> 8) & 0xff
//  201       }
??AT_Cmd_ProcessDataConfirm_3:
        LCALL     ??Subroutine31_0 & 0xFFFF
??CrossCallReturnLabel_68:
        LCALL     ?DEALLOC_XSTACK8
          CFI CFA_XSP16 add(XSP16, 10)
//  202       ResetSeqNumInBuffer(indexInSeqBuff);
        MOV       A,#seqBuff & 0xff
        ADD       A,R6
        MOV       DPL,A
        CLR       A
        ADDC      A,#(seqBuff >> 8) & 0xff
        MOV       DPH,A
        MOV       A,#-0x1
        MOVX      @DPTR,A
//  203     } else if (EBindSeq == ZDOTransID) {
        SJMP      ??AT_Cmd_ProcessDataConfirm_0
??AT_Cmd_ProcessDataConfirm_1:
        MOV       DPTR,#EBindSeq
        MOVX      A,@DPTR
        XRL       A,?V0
        JNZ       ??AT_Cmd_ProcessDataConfirm_0
//  204       printf("\r\nEBINDACK\r\n");
        ; Setup parameters for call to function printf
        MOV       R2,#`?<Constant "\\r\\nEBINDACK\\r\\n">` & 0xff
        MOV       R3,#(`?<Constant "\\r\\nEBINDACK\\r\\n">` >> 8) & 0xff
        LCALL     `??printf::?relay`; Banked call to: printf
//  205     }
//  206   }
//  207 }
??AT_Cmd_ProcessDataConfirm_0:
          CFI EndBlock cfiBlock25
        REQUIRE ?Subroutine1
        ; // Fall through to label ?Subroutine1

        RSEG BANKED_CODE:HUGECODE:NOROOT(0)
?Subroutine1:
          CFI Block cfiBlock26 Using cfiCommon0
          CFI NoFunction
          CFI CFA_SP SP+0
          CFI CFA_XSP16 add(XSP16, 10)
          CFI VB load(1, XDATA, add(CFA_XSP16, literal(-9)))
          CFI DPL0 load(1, XDATA, add(CFA_XSP16, literal(-2)))
          CFI DPH0 load(1, XDATA, add(CFA_XSP16, literal(-1)))
          CFI R6 load(1, XDATA, add(CFA_XSP16, literal(-10)))
          CFI R7 load(1, XDATA, add(CFA_XSP16, literal(-6)))
          CFI V0 load(1, XDATA, add(CFA_XSP16, literal(-8)))
          CFI V1 load(1, XDATA, add(CFA_XSP16, literal(-7)))
          CFI ?BRET_EXT load(1, XDATA, add(CFA_XSP16, literal(-3)))
          CFI ?RET_HIGH load(1, XDATA, add(CFA_XSP16, literal(-4)))
          CFI ?RET_LOW load(1, XDATA, add(CFA_XSP16, literal(-5)))
        MOV       R7,#0x2
        LJMP      ?BANKED_LEAVE_XDATA
          CFI EndBlock cfiBlock26
//  208 
//  209 /**
//  210  * @brief  Store seqNum in the buffer
//  211  */

        RSEG BANKED_CODE:HUGECODE:NOROOT(0)
//  212 void StoreSeqNumInBuffer( uint8 seqNum )
StoreSeqNumInBuffer:
          CFI Block cfiBlock27 Using cfiCommon0
          CFI Function StoreSeqNumInBuffer
        CODE
//  213 {
        FUNCALL StoreSeqNumInBuffer, GetSeqNumIndexInBuffer
        LOCFRAME ISTACK, 0, STACK
        LOCFRAME PSTACK, 0, STACK
        LOCFRAME XSTACK, 9, STACK
        LOCFRAME IOVERLAY, 0, STATIC
        LOCFRAME DOVERLAY, 0, STATIC
        ARGFRAME ISTACK, 0, STACK
        ARGFRAME PSTACK, 0, STACK
        ARGFRAME XSTACK, 9, STACK
        ARGFRAME IOVERLAY, 0, STATIC
        ARGFRAME DOVERLAY, 0, STATIC
        MOV       A,#-0x9
        LCALL     ?BANKED_ENTER_XDATA
          CFI DPH0 load(1, XDATA, add(CFA_XSP16, literal(-1)))
          CFI DPL0 load(1, XDATA, add(CFA_XSP16, literal(-2)))
          CFI ?BRET_EXT load(1, XDATA, add(CFA_XSP16, literal(-3)))
          CFI ?RET_HIGH load(1, XDATA, add(CFA_XSP16, literal(-4)))
          CFI ?RET_LOW load(1, XDATA, add(CFA_XSP16, literal(-5)))
          CFI R7 load(1, XDATA, add(CFA_XSP16, literal(-6)))
          CFI V0 load(1, XDATA, add(CFA_XSP16, literal(-7)))
          CFI VB load(1, XDATA, add(CFA_XSP16, literal(-8)))
          CFI R6 load(1, XDATA, add(CFA_XSP16, literal(-9)))
          CFI CFA_SP SP+0
          CFI CFA_XSP16 add(XSP16, 9)
        ; Saved register size: 9
        ; Auto size: 0
        MOV       A,R1
        MOV       R6,A
//  214   uint8 indexInSeqBuff = GetSeqNumIndexInBuffer( 0xFF );
        ; Setup parameters for call to function GetSeqNumIndexInBuffer
        MOV       R1,#-0x1
        LCALL     `??GetSeqNumIndexInBuffer::?relay`; Banked call to: GetSeqNumIndexInBuffer
        MOV       A,R1
        MOV       R0,A
//  215   if (indexInSeqBuff != 0xFF) {
        MOV       A,#-0x1
        XRL       A,R0
        JZ        ??StoreSeqNumInBuffer_0
//  216     seqBuff[indexInSeqBuff] = seqNum;
        MOV       A,#seqBuff & 0xff
        ADD       A,R1
        MOV       DPL,A
        CLR       A
        ADDC      A,#(seqBuff >> 8) & 0xff
        MOV       DPH,A
        MOV       A,R6
        MOVX      @DPTR,A
//  217   }
//  218 }
??StoreSeqNumInBuffer_0:
        LJMP      ?Subroutine0 & 0xFFFF
          CFI EndBlock cfiBlock27
//  219 
//  220 /**
//  221  * @brief  Check if the seqNum is in the buffer
//  222  * @return index - seqNum index in the buffer    0xFF - Not found
//  223  */

        RSEG BANKED_CODE:HUGECODE:NOROOT(0)
//  224 static uint8 GetSeqNumIndexInBuffer( uint8 seqNum )
GetSeqNumIndexInBuffer:
          CFI Block cfiBlock28 Using cfiCommon0
          CFI Function GetSeqNumIndexInBuffer
        CODE
//  225 {
        PUSH      DPL
          CFI DPL0 Frame(CFA_SP, 4)
          CFI CFA_SP SP+-4
        PUSH      DPH
          CFI DPH0 Frame(CFA_SP, 5)
          CFI CFA_SP SP+-5
        ; Saved register size: 2
        ; Auto size: 0
        MOV       A,R1
        MOV       R4,A
//  226   uint8 rtnIndex = 0xFF;
        MOV       R1,#-0x1
//  227   uint8 index;
//  228   for ( index = 0; index < SEQ_BUFF_SIZE; index++) {
        MOV       R0,#0x0
//  229     if (seqBuff[index] == seqNum) {
??GetSeqNumIndexInBuffer_0:
        MOV       A,R0
        MOV       R2,A
        MOV       A,#seqBuff & 0xff
        ADD       A,R2
        MOV       DPL,A
        CLR       A
        ADDC      A,#(seqBuff >> 8) & 0xff
        MOV       DPH,A
        MOVX      A,@DPTR
        XRL       A,R4
        JNZ       ??GetSeqNumIndexInBuffer_1
//  230       rtnIndex = index;
        MOV       A,R0
        MOV       R1,A
//  231       break;
        SJMP      ??GetSeqNumIndexInBuffer_2
//  232     }
//  233   }
??GetSeqNumIndexInBuffer_1:
        INC       R0
        MOV       A,R0
        CLR       C
        SUBB      A,#0x5
        JC        ??GetSeqNumIndexInBuffer_0
//  234 
//  235   return rtnIndex;
??GetSeqNumIndexInBuffer_2:
        POP       DPH
          CFI DPH0 SameValue
          CFI CFA_SP SP+-4
        POP       DPL
          CFI DPL0 SameValue
          CFI CFA_SP SP+-3
        LJMP      ?BRET
//  236 }
          CFI EndBlock cfiBlock28
//  237 
//  238 /**
//  239  * @brief  Reset specific seqNum in the buffer
//  240  */
//  241 static void ResetSeqNumInBuffer ( uint8 index )
//  242 {
//  243   seqBuff[index] = 0xFF;
//  244 }
//  245 
//  246 /*******************************************************************************
//  247  * @fn      AT_Cmd_ESCAN_CB
//  248  *
//  249  * @brief   AT+SCAN callback function
//  250  *          Response: +ESCAN:  11:XX
//  251  *                              ...
//  252  *                             26:XX
//  253  *                             OK
//  254  *                             or ERROR:<errorcode> .
//  255  *                   XX represents the average energy on the respective channel
//  256  *
//  257  * @param       scannedChannels  - scanned channels
//  258  * @param       energyDetectList - measured energy for channels
//  259  *
//  260  * @return  None
//  261  ******************************************************************************/

        RSEG BANKED_CODE:HUGECODE:NOROOT(0)
//  262 void AT_Cmd_ESCAN_CB( NLME_EDScanConfirm_t *EDScanConfirm)
AT_Cmd_ESCAN_CB:
          CFI Block cfiBlock29 Using cfiCommon0
          CFI Function AT_Cmd_ESCAN_CB
        CODE
//  263 {
        FUNCALL AT_Cmd_ESCAN_CB, AT_Uart0_Send
        LOCFRAME ISTACK, 0, STACK
        LOCFRAME PSTACK, 0, STACK
        LOCFRAME XSTACK, 16, STACK
        LOCFRAME IOVERLAY, 0, STATIC
        LOCFRAME DOVERLAY, 0, STATIC
        ARGFRAME ISTACK, 0, STACK
        ARGFRAME PSTACK, 0, STACK
        ARGFRAME XSTACK, 16, STACK
        ARGFRAME IOVERLAY, 0, STATIC
        ARGFRAME DOVERLAY, 0, STATIC
        FUNCALL AT_Cmd_ESCAN_CB, AT_Uart0_Send
        LOCFRAME ISTACK, 0, STACK
        LOCFRAME PSTACK, 0, STACK
        LOCFRAME XSTACK, 16, STACK
        LOCFRAME IOVERLAY, 0, STATIC
        LOCFRAME DOVERLAY, 0, STATIC
        ARGFRAME ISTACK, 0, STACK
        ARGFRAME PSTACK, 0, STACK
        ARGFRAME XSTACK, 16, STACK
        ARGFRAME IOVERLAY, 0, STATIC
        ARGFRAME DOVERLAY, 0, STATIC
        FUNCALL AT_Cmd_ESCAN_CB, AT_Uart0_Send
        LOCFRAME ISTACK, 0, STACK
        LOCFRAME PSTACK, 0, STACK
        LOCFRAME XSTACK, 16, STACK
        LOCFRAME IOVERLAY, 0, STATIC
        LOCFRAME DOVERLAY, 0, STATIC
        ARGFRAME ISTACK, 0, STACK
        ARGFRAME PSTACK, 0, STACK
        ARGFRAME XSTACK, 16, STACK
        ARGFRAME IOVERLAY, 0, STATIC
        ARGFRAME DOVERLAY, 0, STATIC
        FUNCALL AT_Cmd_ESCAN_CB, printf
        LOCFRAME ISTACK, 0, STACK
        LOCFRAME PSTACK, 0, STACK
        LOCFRAME XSTACK, 20, STACK
        LOCFRAME IOVERLAY, 0, STATIC
        LOCFRAME DOVERLAY, 0, STATIC
        ARGFRAME ISTACK, 0, STACK
        ARGFRAME PSTACK, 0, STACK
        ARGFRAME XSTACK, 20, STACK
        ARGFRAME IOVERLAY, 0, STATIC
        ARGFRAME DOVERLAY, 0, STATIC
        FUNCALL AT_Cmd_ESCAN_CB, AT_Uart0_Send
        LOCFRAME ISTACK, 0, STACK
        LOCFRAME PSTACK, 0, STACK
        LOCFRAME XSTACK, 16, STACK
        LOCFRAME IOVERLAY, 0, STATIC
        LOCFRAME DOVERLAY, 0, STATIC
        ARGFRAME ISTACK, 0, STACK
        ARGFRAME PSTACK, 0, STACK
        ARGFRAME XSTACK, 16, STACK
        ARGFRAME IOVERLAY, 0, STATIC
        ARGFRAME DOVERLAY, 0, STATIC
        FUNCALL AT_Cmd_ESCAN_CB, AT_Uart0_Send
        LOCFRAME ISTACK, 0, STACK
        LOCFRAME PSTACK, 0, STACK
        LOCFRAME XSTACK, 16, STACK
        LOCFRAME IOVERLAY, 0, STATIC
        LOCFRAME DOVERLAY, 0, STATIC
        ARGFRAME ISTACK, 0, STACK
        ARGFRAME PSTACK, 0, STACK
        ARGFRAME XSTACK, 16, STACK
        ARGFRAME IOVERLAY, 0, STATIC
        ARGFRAME DOVERLAY, 0, STATIC
        FUNCALL AT_Cmd_ESCAN_CB, AT_Uart0_Send
        LOCFRAME ISTACK, 0, STACK
        LOCFRAME PSTACK, 0, STACK
        LOCFRAME XSTACK, 16, STACK
        LOCFRAME IOVERLAY, 0, STATIC
        LOCFRAME DOVERLAY, 0, STATIC
        ARGFRAME ISTACK, 0, STACK
        ARGFRAME PSTACK, 0, STACK
        ARGFRAME XSTACK, 16, STACK
        ARGFRAME IOVERLAY, 0, STATIC
        ARGFRAME DOVERLAY, 0, STATIC
        FUNCALL AT_Cmd_ESCAN_CB, NLME_NwkDiscTerm
        LOCFRAME ISTACK, 0, STACK
        LOCFRAME PSTACK, 0, STACK
        LOCFRAME XSTACK, 16, STACK
        LOCFRAME IOVERLAY, 0, STATIC
        LOCFRAME DOVERLAY, 0, STATIC
        ARGFRAME ISTACK, 0, STACK
        ARGFRAME PSTACK, 0, STACK
        ARGFRAME XSTACK, 16, STACK
        ARGFRAME IOVERLAY, 0, STATIC
        ARGFRAME DOVERLAY, 0, STATIC
        REQUIRE ?V0
        REQUIRE ?V1
        REQUIRE ?V2
        REQUIRE ?V4
        REQUIRE ?V5
        REQUIRE ?V6
        REQUIRE ?V7
        MOV       A,#-0x10
        LCALL     ?BANKED_ENTER_XDATA
          CFI DPH0 load(1, XDATA, add(CFA_XSP16, literal(-1)))
          CFI DPL0 load(1, XDATA, add(CFA_XSP16, literal(-2)))
          CFI ?BRET_EXT load(1, XDATA, add(CFA_XSP16, literal(-3)))
          CFI ?RET_HIGH load(1, XDATA, add(CFA_XSP16, literal(-4)))
          CFI ?RET_LOW load(1, XDATA, add(CFA_XSP16, literal(-5)))
          CFI R7 load(1, XDATA, add(CFA_XSP16, literal(-6)))
          CFI V7 load(1, XDATA, add(CFA_XSP16, literal(-7)))
          CFI V6 load(1, XDATA, add(CFA_XSP16, literal(-8)))
          CFI V5 load(1, XDATA, add(CFA_XSP16, literal(-9)))
          CFI V4 load(1, XDATA, add(CFA_XSP16, literal(-10)))
          CFI V3 load(1, XDATA, add(CFA_XSP16, literal(-11)))
          CFI V2 load(1, XDATA, add(CFA_XSP16, literal(-12)))
          CFI V1 load(1, XDATA, add(CFA_XSP16, literal(-13)))
          CFI V0 load(1, XDATA, add(CFA_XSP16, literal(-14)))
          CFI VB load(1, XDATA, add(CFA_XSP16, literal(-15)))
          CFI R6 load(1, XDATA, add(CFA_XSP16, literal(-16)))
          CFI CFA_SP SP+0
          CFI CFA_XSP16 add(XSP16, 16)
        ; Saved register size: 16
        ; Auto size: 0
        MOV       ?V0,R2
        MOV       ?V1,R3
//  264   AT_NEW_LINE();
        ; Setup parameters for call to function AT_Uart0_Send
        MOV       R4,#0x2
        MOV       R5,#0x0
        MOV       R2,#`?<Constant "\\r\\n">` & 0xff
        MOV       R3,#(`?<Constant "\\r\\n">` >> 8) & 0xff
        LCALL     `??AT_Uart0_Send::?relay`; Banked call to: AT_Uart0_Send
//  265   AT_RESP("+ESCAN:", 7);
        ; Setup parameters for call to function AT_Uart0_Send
        MOV       R4,#0x7
        MOV       R5,#0x0
        MOV       R2,#`?<Constant "+ESCAN:">` & 0xff
        MOV       R3,#(`?<Constant "+ESCAN:">` >> 8) & 0xff
        LCALL     ?Subroutine26 & 0xFFFF
//  266   AT_NEXT_LINE();
//  267   uint8 i;
//  268   for ( i = 0; i < ED_SCAN_MAXCHANNELS; i++ )
??CrossCallReturnLabel_44:
        MOV       ?V2,#0x0
//  269   {
//  270     if ( ( (uint32)1 << i ) & EDScanConfirm->scannedChannels )
??AT_Cmd_ESCAN_CB_0:
        MOV       DPL,?V0
        MOV       DPH,?V1
        INC       DPTR
        MOV       R0,#?V4
        LCALL     ?L_MOV_X
        MOV       A,?V2
        MOV       R0,#?V4
        LCALL     ?UL_SHR
        MOV       A,?V4
        MOV       C,0xE0 /* A   */.0
        JNC       ??AT_Cmd_ESCAN_CB_1
//  271     {
//  272       printf("%d:%02X", i, EDScanConfirm->energyDetectList[i]);
        MOV       A,?V2
        MOV       ?V4,A
        MOV       ?V5,#0x0
        ; Setup parameters for call to function printf
        MOV       DPL,?V0
        MOV       DPH,?V1
        INC       DPTR
        INC       DPTR
        INC       DPTR
        INC       DPTR
        INC       DPTR
        MOVX      A,@DPTR
        ADD       A,?V4
        MOV       R0,A
        INC       DPTR
        MOVX      A,@DPTR
        ADDC      A,#0x0
        MOV       DPL,R0
        LCALL     ??Subroutine38_0 & 0xFFFF
??CrossCallReturnLabel_98:
        LCALL     ?PUSH_XSTACK_I_TWO
          CFI CFA_XSP16 add(XSP16, 18)
        MOV       R0,#?V4
        LCALL     ?PUSH_XSTACK_I_TWO
          CFI CFA_XSP16 add(XSP16, 20)
        MOV       R2,#`?<Constant "%d:%02X">` & 0xff
        MOV       R3,#(`?<Constant "%d:%02X">` >> 8) & 0xff
        LCALL     ?Subroutine21 & 0xFFFF
??CrossCallReturnLabel_31:
        LCALL     ?DEALLOC_XSTACK8
          CFI CFA_XSP16 add(XSP16, 16)
//  273       if(i < ED_SCAN_MAXCHANNELS-1) AT_NEXT_LINE();
        MOV       A,?V2
        CLR       C
        SUBB      A,#0x1a
        JNC       ??AT_Cmd_ESCAN_CB_1
        ; Setup parameters for call to function AT_Uart0_Send
        MOV       R4,#0x2
        MOV       R5,#0x0
        MOV       R2,#`?<Constant "\\r\\n">` & 0xff
        MOV       R3,#(`?<Constant "\\r\\n">` >> 8) & 0xff
        LCALL     `??AT_Uart0_Send::?relay`; Banked call to: AT_Uart0_Send
//  274     }
//  275   }
??AT_Cmd_ESCAN_CB_1:
        INC       ?V2
        MOV       A,?V2
        CLR       C
        SUBB      A,#0x1b
        JC        ??AT_Cmd_ESCAN_CB_0
//  276   AT_NEW_LINE();
        ; Setup parameters for call to function AT_Uart0_Send
        MOV       R4,#0x2
        MOV       R5,#0x0
        MOV       R2,#`?<Constant "\\r\\n">` & 0xff
        MOV       R3,#(`?<Constant "\\r\\n">` >> 8) & 0xff
        LCALL     ?Subroutine16 & 0xFFFF
//  277   AT_OK();
//  278   NLME_NwkDiscTerm();
??CrossCallReturnLabel_18:
        ; Setup parameters for call to function NLME_NwkDiscTerm
        LCALL     `??NLME_NwkDiscTerm::?relay`; Banked call to: NLME_NwkDiscTerm
//  279 
//  280   // recover the Energy scan call back funtion to ZDO layer so that ZDO can
//  281   // get the energy scan result
//  282   pZDNwkMgr_EDScanConfirmCB = ZDNwkMgr_EDScanConfirmCB;
        MOV       DPTR,#pZDNwkMgr_EDScanConfirmCB
        MOV       A,#`??ZDNwkMgr_EDScanConfirmCB::?relay` & 0xff
        MOVX      @DPTR,A
        INC       DPTR
        MOV       A,#(`??ZDNwkMgr_EDScanConfirmCB::?relay` >> 8) & 0xff
        MOVX      @DPTR,A
//  283 }
        MOV       R7,#0x8
        LJMP      ?BANKED_LEAVE_XDATA
          CFI EndBlock cfiBlock29
//  284 
//  285 /*******************************************************************************
//  286  * @fn      AT_ZDO_ProcessMgmtNwkDiscRsp
//  287  *
//  288  * @brief   Response: +PANSCAN:<channel>,<PANID>,<EPANID>,XX,b
//  289  *                    OK or ERROR:<errorcode> .
//  290  *
//  291  *                    <channel> - represents the channel,
//  292  *                    <PANID>   - the PAN ID,
//  293  *                    <EPANID>  - the extended PAN ID,
//  294  *                                The node gives a list of all PANs found.
//  295  *                    XX - the ZigBee stack profile
//  296  *                         (00 = Custom, 01 = ZigBee, 02 = ZigBee PRO)
//  297  *                    b - indicates whether the network is allowing additional
//  298  *                        nodes to join (1 = joining permitted).
//  299  *
//  300  * @param   inMsg - incoming message (response)
//  301  *
//  302  * @return  None
//  303  ******************************************************************************/

        RSEG BANKED_CODE:HUGECODE:NOROOT(0)
//  304 void AT_ZDO_ProcessMgmtNwkDiscRsp( zdoIncomingMsg_t *inMsg )
AT_ZDO_ProcessMgmtNwkDiscRsp:
          CFI Block cfiBlock30 Using cfiCommon0
          CFI Function AT_ZDO_ProcessMgmtNwkDiscRsp
        CODE
//  305 {
        FUNCALL AT_ZDO_ProcessMgmtNwkDiscRsp, ZDO_ParseMgmNwkDiscRsp
        LOCFRAME ISTACK, 0, STACK
        LOCFRAME PSTACK, 0, STACK
        LOCFRAME XSTACK, 14, STACK
        LOCFRAME IOVERLAY, 0, STATIC
        LOCFRAME DOVERLAY, 0, STATIC
        ARGFRAME ISTACK, 0, STACK
        ARGFRAME PSTACK, 0, STACK
        ARGFRAME XSTACK, 14, STACK
        ARGFRAME IOVERLAY, 0, STATIC
        ARGFRAME DOVERLAY, 0, STATIC
        FUNCALL AT_ZDO_ProcessMgmtNwkDiscRsp, AT_Uart0_Send
        LOCFRAME ISTACK, 0, STACK
        LOCFRAME PSTACK, 0, STACK
        LOCFRAME XSTACK, 14, STACK
        LOCFRAME IOVERLAY, 0, STATIC
        LOCFRAME DOVERLAY, 0, STATIC
        ARGFRAME ISTACK, 0, STACK
        ARGFRAME PSTACK, 0, STACK
        ARGFRAME XSTACK, 14, STACK
        ARGFRAME IOVERLAY, 0, STATIC
        ARGFRAME DOVERLAY, 0, STATIC
        FUNCALL AT_ZDO_ProcessMgmtNwkDiscRsp, AT_Uart0_Send
        LOCFRAME ISTACK, 0, STACK
        LOCFRAME PSTACK, 0, STACK
        LOCFRAME XSTACK, 14, STACK
        LOCFRAME IOVERLAY, 0, STATIC
        LOCFRAME DOVERLAY, 0, STATIC
        ARGFRAME ISTACK, 0, STACK
        ARGFRAME PSTACK, 0, STACK
        ARGFRAME XSTACK, 14, STACK
        ARGFRAME IOVERLAY, 0, STATIC
        ARGFRAME DOVERLAY, 0, STATIC
        FUNCALL AT_ZDO_ProcessMgmtNwkDiscRsp, AT_Uart0_Send
        LOCFRAME ISTACK, 0, STACK
        LOCFRAME PSTACK, 0, STACK
        LOCFRAME XSTACK, 14, STACK
        LOCFRAME IOVERLAY, 0, STATIC
        LOCFRAME DOVERLAY, 0, STATIC
        ARGFRAME ISTACK, 0, STACK
        ARGFRAME PSTACK, 0, STACK
        ARGFRAME XSTACK, 14, STACK
        ARGFRAME IOVERLAY, 0, STATIC
        ARGFRAME DOVERLAY, 0, STATIC
        FUNCALL AT_ZDO_ProcessMgmtNwkDiscRsp, printf
        LOCFRAME ISTACK, 0, STACK
        LOCFRAME PSTACK, 0, STACK
        LOCFRAME XSTACK, 30, STACK
        LOCFRAME IOVERLAY, 0, STATIC
        LOCFRAME DOVERLAY, 0, STATIC
        ARGFRAME ISTACK, 0, STACK
        ARGFRAME PSTACK, 0, STACK
        ARGFRAME XSTACK, 30, STACK
        ARGFRAME IOVERLAY, 0, STATIC
        ARGFRAME DOVERLAY, 0, STATIC
        FUNCALL AT_ZDO_ProcessMgmtNwkDiscRsp, AT_Uart0_Send
        LOCFRAME ISTACK, 0, STACK
        LOCFRAME PSTACK, 0, STACK
        LOCFRAME XSTACK, 14, STACK
        LOCFRAME IOVERLAY, 0, STATIC
        LOCFRAME DOVERLAY, 0, STATIC
        ARGFRAME ISTACK, 0, STACK
        ARGFRAME PSTACK, 0, STACK
        ARGFRAME XSTACK, 14, STACK
        ARGFRAME IOVERLAY, 0, STATIC
        ARGFRAME DOVERLAY, 0, STATIC
        FUNCALL AT_ZDO_ProcessMgmtNwkDiscRsp, AT_Uart0_Send
        LOCFRAME ISTACK, 0, STACK
        LOCFRAME PSTACK, 0, STACK
        LOCFRAME XSTACK, 14, STACK
        LOCFRAME IOVERLAY, 0, STATIC
        LOCFRAME DOVERLAY, 0, STATIC
        ARGFRAME ISTACK, 0, STACK
        ARGFRAME PSTACK, 0, STACK
        ARGFRAME XSTACK, 14, STACK
        ARGFRAME IOVERLAY, 0, STATIC
        ARGFRAME DOVERLAY, 0, STATIC
        REQUIRE ?V0
        REQUIRE ?V1
        REQUIRE ?V2
        REQUIRE ?V3
        REQUIRE ?V4
        REQUIRE ?V5
        MOV       A,#-0xe
        LCALL     ?BANKED_ENTER_XDATA
          CFI DPH0 load(1, XDATA, add(CFA_XSP16, literal(-1)))
          CFI DPL0 load(1, XDATA, add(CFA_XSP16, literal(-2)))
          CFI ?BRET_EXT load(1, XDATA, add(CFA_XSP16, literal(-3)))
          CFI ?RET_HIGH load(1, XDATA, add(CFA_XSP16, literal(-4)))
          CFI ?RET_LOW load(1, XDATA, add(CFA_XSP16, literal(-5)))
          CFI R7 load(1, XDATA, add(CFA_XSP16, literal(-6)))
          CFI V5 load(1, XDATA, add(CFA_XSP16, literal(-7)))
          CFI V4 load(1, XDATA, add(CFA_XSP16, literal(-8)))
          CFI V3 load(1, XDATA, add(CFA_XSP16, literal(-9)))
          CFI V2 load(1, XDATA, add(CFA_XSP16, literal(-10)))
          CFI V1 load(1, XDATA, add(CFA_XSP16, literal(-11)))
          CFI V0 load(1, XDATA, add(CFA_XSP16, literal(-12)))
          CFI VB load(1, XDATA, add(CFA_XSP16, literal(-13)))
          CFI R6 load(1, XDATA, add(CFA_XSP16, literal(-14)))
          CFI CFA_SP SP+0
          CFI CFA_XSP16 add(XSP16, 14)
        ; Saved register size: 14
        ; Auto size: 0
//  306   ZDO_MgmNwkDiscRsp_t *MgmNwkDiscRsp;
//  307   uint8 i;
//  308   mgmtNwkDiscItem_t *NetworkList, *pNwkDesc;
//  309   // uint8 ResultCount = 0;
//  310   uint8 count = 0; //record the lik quality >0 networks
//  311 
//  312   MgmNwkDiscRsp = ZDO_ParseMgmNwkDiscRsp(inMsg);
        ; Setup parameters for call to function ZDO_ParseMgmNwkDiscRsp
        LCALL     `??ZDO_ParseMgmNwkDiscRsp::?relay`; Banked call to: ZDO_ParseMgmNwkDiscRsp
        MOV       ?V1,R3
        MOV       R1,?V1
//  313 
//  314   // ResultCount = MgmNwkDiscRsp->networkCount;
//  315   count = MgmNwkDiscRsp->networkListCount;
        MOV       DPL,R2
        MOV       DPH,R3
        INC       DPTR
        INC       DPTR
        INC       DPTR
        MOVX      A,@DPTR
        MOV       ?V2,A
//  316   NetworkList = MgmNwkDiscRsp->list;
//  317   pNwkDesc = NetworkList;
        MOV       A,R2
        ADD       A,#0x4
        MOV       ?V0,A
        CLR       A
        ADDC      A,R1
        MOV       ?V1,A
//  318 
//  319   AT_NEW_LINE();
        ; Setup parameters for call to function AT_Uart0_Send
        MOV       R4,#0x2
        MOV       R5,#0x0
        MOV       R2,#`?<Constant "\\r\\n">` & 0xff
        MOV       R3,#(`?<Constant "\\r\\n">` >> 8) & 0xff
        LCALL     `??AT_Uart0_Send::?relay`; Banked call to: AT_Uart0_Send
//  320   // printf("%d result(s)\n\r",count);
//  321   // if (count > 0) {
//  322   //   //print:Channel | PANID | EPANID | StackProfile | perimit
//  323   //   printf("Channel | PANID | EPANID | StackProfile | perimit");
//  324   // }
//  325   for ( i = 0; i < count; i++ ) {
        MOV       ?V3,#0x0
        LJMP      ??AT_ZDO_ProcessMgmtNwkDiscRsp_0 & 0xFFFF
//  326     uint16 *ext = (uint16*)pNwkDesc->extendedPANID;
//  327     AT_NEXT_LINE();
??AT_ZDO_ProcessMgmtNwkDiscRsp_1:
        ; Setup parameters for call to function AT_Uart0_Send
        LCALL     `??AT_Uart0_Send::?relay`; Banked call to: AT_Uart0_Send
//  328     AT_RESP("+PANSCAN:", 9);
        ; Setup parameters for call to function AT_Uart0_Send
        MOV       R4,#0x9
        MOV       R5,#0x0
        MOV       R2,#`?<Constant "+PANSCAN:">` & 0xff
        MOV       R3,#(`?<Constant "+PANSCAN:">` >> 8) & 0xff
        LCALL     `??AT_Uart0_Send::?relay`; Banked call to: AT_Uart0_Send
//  329     printf("%02d,%04X,%04X%04X%04X%04X,%02X,%X",
//  330     pNwkDesc->logicalChannel,
//  331     pNwkDesc->PANId,
//  332     ext[3],ext[2],ext[1],ext[0],
//  333     pNwkDesc->stackProfile,
//  334     pNwkDesc->permitJoining );
        ; Setup parameters for call to function printf
        MOV       A,?V0
        ADD       A,#0xf
        MOV       DPL,A
        CLR       A
        ADDC      A,?V1
        MOV       DPH,A
        LCALL     ??Subroutine36_0 & 0xFFFF
??CrossCallReturnLabel_88:
        LCALL     ?PUSH_XSTACK_I_TWO
          CFI CFA_XSP16 add(XSP16, 16)
        LCALL     ?Subroutine23 & 0xFFFF
??CrossCallReturnLabel_39:
        MOVX      A,@DPTR
        MOV       ?V4,A
        MOV       R0,#?V4
        LCALL     ?PUSH_XSTACK_I_TWO
          CFI CFA_XSP16 add(XSP16, 18)
        MOV       DPL,?V0
        MOV       DPH,?V1
        LCALL     ?PUSH_XSTACK8_X_TWO
          CFI CFA_XSP16 add(XSP16, 20)
        MOV       DPL,?V0
        MOV       DPH,?V1
        INC       DPTR
        INC       DPTR
        LCALL     ?PUSH_XSTACK8_X_TWO
          CFI CFA_XSP16 add(XSP16, 22)
        MOV       DPL,?V0
        MOV       DPH,?V1
        INC       DPTR
        INC       DPTR
        INC       DPTR
        INC       DPTR
        LCALL     ?PUSH_XSTACK8_X_TWO
          CFI CFA_XSP16 add(XSP16, 24)
        MOV       DPL,?V0
        MOV       DPH,?V1
        INC       DPTR
        INC       DPTR
        INC       DPTR
        INC       DPTR
        INC       DPTR
        INC       DPTR
        LCALL     ?PUSH_XSTACK8_X_TWO
          CFI CFA_XSP16 add(XSP16, 26)
        MOV       DPL,?V0
        MOV       DPH,?V1
        INC       DPTR
        INC       DPTR
        INC       DPTR
        INC       DPTR
        INC       DPTR
        INC       DPTR
        INC       DPTR
        INC       DPTR
        LCALL     ?PUSH_XSTACK8_X_TWO
          CFI CFA_XSP16 add(XSP16, 28)
        MOV       DPL,?V0
        MOV       DPH,?V1
        INC       DPTR
        INC       DPTR
        INC       DPTR
        INC       DPTR
        INC       DPTR
        INC       DPTR
        INC       DPTR
        INC       DPTR
        INC       DPTR
        INC       DPTR
        MOVX      A,@DPTR
        MOV       ?V4,A
        MOV       R0,#?V4
        LCALL     ?PUSH_XSTACK_I_TWO
          CFI CFA_XSP16 add(XSP16, 30)
        MOV       R2,#`?<Constant "%02d,%04X,%04X%04X%04...">` & 0xff
        MOV       R3,#(`?<Constant "%02d,%04X,%04X%04X%04...">` >> 8) & 0xff
        LCALL     `??printf::?relay`; Banked call to: printf
        MOV       A,#0x10
        LCALL     ?DEALLOC_XSTACK8
          CFI CFA_XSP16 add(XSP16, 14)
//  335 
//  336     pNwkDesc++;
        MOV       A,?V0
        ADD       A,#0x10
        MOV       ?V0,A
        JNC       ??AT_ZDO_ProcessMgmtNwkDiscRsp_2
        INC       ?V1
//  337   }
??AT_ZDO_ProcessMgmtNwkDiscRsp_2:
        INC       ?V3
??AT_ZDO_ProcessMgmtNwkDiscRsp_0:
        MOV       A,?V3
        CLR       C
        SUBB      A,?V2
        MOV       R4,#0x2
        MOV       R5,#0x0
        MOV       R2,#`?<Constant "\\r\\n">` & 0xff
        MOV       R3,#(`?<Constant "\\r\\n">` >> 8) & 0xff
        JNC       $+5
        LJMP      ??AT_ZDO_ProcessMgmtNwkDiscRsp_1 & 0xFFFF
//  338   AT_NEW_LINE();
        ; Setup parameters for call to function AT_Uart0_Send
        LCALL     ?Subroutine16 & 0xFFFF
//  339   AT_OK();
//  340   notdoSCANCmd = TRUE;
??CrossCallReturnLabel_19:
        MOV       DPTR,#notdoSCANCmd
        MOV       A,#0x1
        MOVX      @DPTR,A
//  341 }
          CFI EndBlock cfiBlock30
        REQUIRE ?Subroutine2
        ; // Fall through to label ?Subroutine2

        RSEG BANKED_CODE:HUGECODE:NOROOT(0)
?Subroutine2:
          CFI Block cfiBlock31 Using cfiCommon0
          CFI NoFunction
          CFI CFA_SP SP+0
          CFI CFA_XSP16 add(XSP16, 14)
          CFI VB load(1, XDATA, add(CFA_XSP16, literal(-13)))
          CFI DPL0 load(1, XDATA, add(CFA_XSP16, literal(-2)))
          CFI DPH0 load(1, XDATA, add(CFA_XSP16, literal(-1)))
          CFI R6 load(1, XDATA, add(CFA_XSP16, literal(-14)))
          CFI R7 load(1, XDATA, add(CFA_XSP16, literal(-6)))
          CFI V0 load(1, XDATA, add(CFA_XSP16, literal(-12)))
          CFI V1 load(1, XDATA, add(CFA_XSP16, literal(-11)))
          CFI V2 load(1, XDATA, add(CFA_XSP16, literal(-10)))
          CFI V3 load(1, XDATA, add(CFA_XSP16, literal(-9)))
          CFI V4 load(1, XDATA, add(CFA_XSP16, literal(-8)))
          CFI V5 load(1, XDATA, add(CFA_XSP16, literal(-7)))
          CFI ?BRET_EXT load(1, XDATA, add(CFA_XSP16, literal(-3)))
          CFI ?RET_HIGH load(1, XDATA, add(CFA_XSP16, literal(-4)))
          CFI ?RET_LOW load(1, XDATA, add(CFA_XSP16, literal(-5)))
        MOV       R7,#0x6
        LJMP      ?BANKED_LEAVE_XDATA
          CFI EndBlock cfiBlock31

        RSEG BANKED_CODE:HUGECODE:NOROOT(0)
?Subroutine23:
          CFI Block cfiCond32 Using cfiCommon0
          CFI Function AT_ZDO_ProcessMsgCBs
          CFI Conditional ??CrossCallReturnLabel_38
          CFI R6 load(1, XDATA, add(CFA_XSP16, literal(-18)))
          CFI VB load(1, XDATA, add(CFA_XSP16, literal(-17)))
          CFI V0 load(1, XDATA, add(CFA_XSP16, literal(-16)))
          CFI V1 load(1, XDATA, add(CFA_XSP16, literal(-15)))
          CFI V2 load(1, XDATA, add(CFA_XSP16, literal(-14)))
          CFI V3 load(1, XDATA, add(CFA_XSP16, literal(-13)))
          CFI V4 load(1, XDATA, add(CFA_XSP16, literal(-12)))
          CFI V5 load(1, XDATA, add(CFA_XSP16, literal(-11)))
          CFI V6 load(1, XDATA, add(CFA_XSP16, literal(-10)))
          CFI V7 load(1, XDATA, add(CFA_XSP16, literal(-9)))
          CFI V8 load(1, XDATA, add(CFA_XSP16, literal(-8)))
          CFI V9 load(1, XDATA, add(CFA_XSP16, literal(-7)))
          CFI R7 load(1, XDATA, add(CFA_XSP16, literal(-6)))
          CFI ?RET_LOW load(1, XDATA, add(CFA_XSP16, literal(-5)))
          CFI ?RET_HIGH load(1, XDATA, add(CFA_XSP16, literal(-4)))
          CFI ?BRET_EXT load(1, XDATA, add(CFA_XSP16, literal(-3)))
          CFI DPL0 load(1, XDATA, add(CFA_XSP16, literal(-2)))
          CFI DPH0 load(1, XDATA, add(CFA_XSP16, literal(-1)))
          CFI CFA_SP SP+-2
          CFI CFA_XSP16 add(XSP16, 45)
          CFI Block cfiCond33 Using cfiCommon0
          CFI (cfiCond33) Function AT_ZDO_ProcessMgmtNwkDiscRsp
          CFI (cfiCond33) Conditional ??CrossCallReturnLabel_39
          CFI (cfiCond33) R6 load(1, XDATA, add(CFA_XSP16, literal(-14)))
          CFI (cfiCond33) VB load(1, XDATA, add(CFA_XSP16, literal(-13)))
          CFI (cfiCond33) V0 load(1, XDATA, add(CFA_XSP16, literal(-12)))
          CFI (cfiCond33) V1 load(1, XDATA, add(CFA_XSP16, literal(-11)))
          CFI (cfiCond33) V2 load(1, XDATA, add(CFA_XSP16, literal(-10)))
          CFI (cfiCond33) V3 load(1, XDATA, add(CFA_XSP16, literal(-9)))
          CFI (cfiCond33) V4 load(1, XDATA, add(CFA_XSP16, literal(-8)))
          CFI (cfiCond33) V5 load(1, XDATA, add(CFA_XSP16, literal(-7)))
          CFI (cfiCond33) R7 load(1, XDATA, add(CFA_XSP16, literal(-6)))
          CFI (cfiCond33) ?RET_LOW load(1, XDATA, add(CFA_XSP16, literal(-5)))
          CFI (cfiCond33) ?RET_HIGH load(1, XDATA, add(CFA_XSP16, literal(-4)))
          CFI (cfiCond33) ?BRET_EXT load(1, XDATA, add(CFA_XSP16, literal(-3)))
          CFI (cfiCond33) DPL0 load(1, XDATA, add(CFA_XSP16, literal(-2)))
          CFI (cfiCond33) DPH0 load(1, XDATA, add(CFA_XSP16, literal(-1)))
          CFI (cfiCond33) CFA_SP SP+-2
          CFI (cfiCond33) CFA_XSP16 add(XSP16, 16)
          CFI Block cfiPicker34 Using cfiCommon1
          CFI (cfiPicker34) NoFunction
          CFI (cfiPicker34) Picker
        MOV       A,?V0
        ADD       A,#0xb
        MOV       DPL,A
        CLR       A
        ADDC      A,?V1
        MOV       DPH,A
        RET
          CFI EndBlock cfiCond32
          CFI EndBlock cfiCond33
          CFI EndBlock cfiPicker34

        RSEG BANKED_CODE:HUGECODE:NOROOT(0)
?Subroutine16:
          CFI Block cfiCond35 Using cfiCommon0
          CFI Function AT_Cmd_ESCAN_CB
          CFI Conditional ??CrossCallReturnLabel_18
          CFI R6 load(1, XDATA, add(CFA_XSP16, literal(-16)))
          CFI VB load(1, XDATA, add(CFA_XSP16, literal(-15)))
          CFI V0 load(1, XDATA, add(CFA_XSP16, literal(-14)))
          CFI V1 load(1, XDATA, add(CFA_XSP16, literal(-13)))
          CFI V2 load(1, XDATA, add(CFA_XSP16, literal(-12)))
          CFI V3 load(1, XDATA, add(CFA_XSP16, literal(-11)))
          CFI V4 load(1, XDATA, add(CFA_XSP16, literal(-10)))
          CFI V5 load(1, XDATA, add(CFA_XSP16, literal(-9)))
          CFI V6 load(1, XDATA, add(CFA_XSP16, literal(-8)))
          CFI V7 load(1, XDATA, add(CFA_XSP16, literal(-7)))
          CFI R7 load(1, XDATA, add(CFA_XSP16, literal(-6)))
          CFI ?RET_LOW load(1, XDATA, add(CFA_XSP16, literal(-5)))
          CFI ?RET_HIGH load(1, XDATA, add(CFA_XSP16, literal(-4)))
          CFI ?BRET_EXT load(1, XDATA, add(CFA_XSP16, literal(-3)))
          CFI DPL0 load(1, XDATA, add(CFA_XSP16, literal(-2)))
          CFI DPH0 load(1, XDATA, add(CFA_XSP16, literal(-1)))
          CFI CFA_SP SP+-2
          CFI CFA_XSP16 add(XSP16, 16)
          CFI Block cfiCond36 Using cfiCommon0
          CFI (cfiCond36) Function AT_ZDO_ProcessMgmtNwkDiscRsp
          CFI (cfiCond36) Conditional ??CrossCallReturnLabel_19
          CFI (cfiCond36) R6 load(1, XDATA, add(CFA_XSP16, literal(-14)))
          CFI (cfiCond36) VB load(1, XDATA, add(CFA_XSP16, literal(-13)))
          CFI (cfiCond36) V0 load(1, XDATA, add(CFA_XSP16, literal(-12)))
          CFI (cfiCond36) V1 load(1, XDATA, add(CFA_XSP16, literal(-11)))
          CFI (cfiCond36) V2 load(1, XDATA, add(CFA_XSP16, literal(-10)))
          CFI (cfiCond36) V3 load(1, XDATA, add(CFA_XSP16, literal(-9)))
          CFI (cfiCond36) V4 load(1, XDATA, add(CFA_XSP16, literal(-8)))
          CFI (cfiCond36) V5 load(1, XDATA, add(CFA_XSP16, literal(-7)))
          CFI (cfiCond36) R7 load(1, XDATA, add(CFA_XSP16, literal(-6)))
          CFI (cfiCond36) ?RET_LOW load(1, XDATA, add(CFA_XSP16, literal(-5)))
          CFI (cfiCond36) ?RET_HIGH load(1, XDATA, add(CFA_XSP16, literal(-4)))
          CFI (cfiCond36) ?BRET_EXT load(1, XDATA, add(CFA_XSP16, literal(-3)))
          CFI (cfiCond36) DPL0 load(1, XDATA, add(CFA_XSP16, literal(-2)))
          CFI (cfiCond36) DPH0 load(1, XDATA, add(CFA_XSP16, literal(-1)))
          CFI (cfiCond36) CFA_SP SP+-2
          CFI (cfiCond36) CFA_XSP16 add(XSP16, 14)
          CFI Block cfiPicker37 Using cfiCommon1
          CFI (cfiPicker37) NoFunction
          CFI (cfiPicker37) Picker
        LCALL     ?Subroutine27 & 0xFFFF
??CrossCallReturnLabel_47:
        LCALL     `??AT_Uart0_Send::?relay`; Banked call to: AT_Uart0_Send
        RET
          CFI EndBlock cfiCond35
          CFI EndBlock cfiCond36
          CFI EndBlock cfiPicker37

        RSEG BANKED_CODE:HUGECODE:NOROOT(0)
?Subroutine27:
          CFI Block cfiCond38 Using cfiCommon0
          CFI Function AT_ZDO_ProcessMsgCBs
          CFI Conditional ??CrossCallReturnLabel_46
          CFI R6 load(1, XDATA, add(CFA_XSP16, literal(-18)))
          CFI VB load(1, XDATA, add(CFA_XSP16, literal(-17)))
          CFI V0 load(1, XDATA, add(CFA_XSP16, literal(-16)))
          CFI V1 load(1, XDATA, add(CFA_XSP16, literal(-15)))
          CFI V2 load(1, XDATA, add(CFA_XSP16, literal(-14)))
          CFI V3 load(1, XDATA, add(CFA_XSP16, literal(-13)))
          CFI V4 load(1, XDATA, add(CFA_XSP16, literal(-12)))
          CFI V5 load(1, XDATA, add(CFA_XSP16, literal(-11)))
          CFI V6 load(1, XDATA, add(CFA_XSP16, literal(-10)))
          CFI V7 load(1, XDATA, add(CFA_XSP16, literal(-9)))
          CFI V8 load(1, XDATA, add(CFA_XSP16, literal(-8)))
          CFI V9 load(1, XDATA, add(CFA_XSP16, literal(-7)))
          CFI R7 load(1, XDATA, add(CFA_XSP16, literal(-6)))
          CFI ?RET_LOW load(1, XDATA, add(CFA_XSP16, literal(-5)))
          CFI ?RET_HIGH load(1, XDATA, add(CFA_XSP16, literal(-4)))
          CFI ?BRET_EXT load(1, XDATA, add(CFA_XSP16, literal(-3)))
          CFI DPL0 load(1, XDATA, add(CFA_XSP16, literal(-2)))
          CFI DPH0 load(1, XDATA, add(CFA_XSP16, literal(-1)))
          CFI CFA_SP SP+-2
          CFI CFA_XSP16 add(XSP16, 45)
          CFI Block cfiCond39 Using cfiCommon0
          CFI (cfiCond39) Function AT_Cmd_ESCAN_CB
          CFI (cfiCond39) Conditional ??CrossCallReturnLabel_47, ??CrossCallReturnLabel_18
          CFI (cfiCond39) R6 load(1, XDATA, add(CFA_XSP16, literal(-16)))
          CFI (cfiCond39) VB load(1, XDATA, add(CFA_XSP16, literal(-15)))
          CFI (cfiCond39) V0 load(1, XDATA, add(CFA_XSP16, literal(-14)))
          CFI (cfiCond39) V1 load(1, XDATA, add(CFA_XSP16, literal(-13)))
          CFI (cfiCond39) V2 load(1, XDATA, add(CFA_XSP16, literal(-12)))
          CFI (cfiCond39) V3 load(1, XDATA, add(CFA_XSP16, literal(-11)))
          CFI (cfiCond39) V4 load(1, XDATA, add(CFA_XSP16, literal(-10)))
          CFI (cfiCond39) V5 load(1, XDATA, add(CFA_XSP16, literal(-9)))
          CFI (cfiCond39) V6 load(1, XDATA, add(CFA_XSP16, literal(-8)))
          CFI (cfiCond39) V7 load(1, XDATA, add(CFA_XSP16, literal(-7)))
          CFI (cfiCond39) R7 load(1, XDATA, add(CFA_XSP16, literal(-6)))
          CFI (cfiCond39) ?RET_LOW load(1, XDATA, add(CFA_XSP16, literal(-5)))
          CFI (cfiCond39) ?RET_HIGH load(1, XDATA, add(CFA_XSP16, literal(-4)))
          CFI (cfiCond39) ?BRET_EXT load(1, XDATA, add(CFA_XSP16, literal(-3)))
          CFI (cfiCond39) DPL0 load(1, XDATA, add(CFA_XSP16, literal(-2)))
          CFI (cfiCond39) DPH0 load(1, XDATA, add(CFA_XSP16, literal(-1)))
          CFI (cfiCond39) CFA_SP SP+-4
          CFI (cfiCond39) CFA_XSP16 add(XSP16, 16)
          CFI Block cfiCond40 Using cfiCommon0
          CFI (cfiCond40) Function AT_ZDO_ProcessMgmtNwkDiscRsp
          CFI (cfiCond40) Conditional ??CrossCallReturnLabel_47, ??CrossCallReturnLabel_19
          CFI (cfiCond40) R6 load(1, XDATA, add(CFA_XSP16, literal(-14)))
          CFI (cfiCond40) VB load(1, XDATA, add(CFA_XSP16, literal(-13)))
          CFI (cfiCond40) V0 load(1, XDATA, add(CFA_XSP16, literal(-12)))
          CFI (cfiCond40) V1 load(1, XDATA, add(CFA_XSP16, literal(-11)))
          CFI (cfiCond40) V2 load(1, XDATA, add(CFA_XSP16, literal(-10)))
          CFI (cfiCond40) V3 load(1, XDATA, add(CFA_XSP16, literal(-9)))
          CFI (cfiCond40) V4 load(1, XDATA, add(CFA_XSP16, literal(-8)))
          CFI (cfiCond40) V5 load(1, XDATA, add(CFA_XSP16, literal(-7)))
          CFI (cfiCond40) R7 load(1, XDATA, add(CFA_XSP16, literal(-6)))
          CFI (cfiCond40) ?RET_LOW load(1, XDATA, add(CFA_XSP16, literal(-5)))
          CFI (cfiCond40) ?RET_HIGH load(1, XDATA, add(CFA_XSP16, literal(-4)))
          CFI (cfiCond40) ?BRET_EXT load(1, XDATA, add(CFA_XSP16, literal(-3)))
          CFI (cfiCond40) DPL0 load(1, XDATA, add(CFA_XSP16, literal(-2)))
          CFI (cfiCond40) DPH0 load(1, XDATA, add(CFA_XSP16, literal(-1)))
          CFI (cfiCond40) CFA_SP SP+-4
          CFI (cfiCond40) CFA_XSP16 add(XSP16, 14)
          CFI Block cfiPicker41 Using cfiCommon1
          CFI (cfiPicker41) NoFunction
          CFI (cfiPicker41) Picker
        LCALL     `??AT_Uart0_Send::?relay`; Banked call to: AT_Uart0_Send
        ; Setup parameters for call to function AT_Uart0_Send
        ; Setup parameters for call to function AT_Uart0_Send
        ; Setup parameters for call to function AT_Uart0_Send
        MOV       R4,#0x6
        MOV       R5,#0x0
        MOV       R2,#`?<Constant "\\r\\nOK\\r\\n">` & 0xff
        MOV       R3,#(`?<Constant "\\r\\nOK\\r\\n">` >> 8) & 0xff
        RET
          CFI EndBlock cfiCond38
          CFI EndBlock cfiCond39
          CFI EndBlock cfiCond40
          CFI EndBlock cfiPicker41
//  342 
//  343 /*******************************************************************************
//  344  * @fn      AT_Cmd_FN_CB
//  345  *
//  346  * @brief   Response: JPAN:<channel>,<PANID>,<EPANID>
//  347  *                    OK or ERROR:<errorcode> .
//  348  *
//  349  *                    <channel> - represents the channel,
//  350  *                    <PANID>   - the PAN ID,
//  351  *                    <EPANID>  - the extended PAN ID
//  352  *
//  353  * @param   Status - Result of NLME_NetworkFormationRequest()
//  354  *
//  355  * @return  None
//  356  ******************************************************************************/

        RSEG BANKED_CODE:HUGECODE:NOROOT(0)
//  357 void AT_Cmd_FN_CB( ZStatus_t Status )
AT_Cmd_FN_CB:
          CFI Block cfiBlock42 Using cfiCommon0
          CFI Function AT_Cmd_FN_CB
        CODE
//  358 {
        FUNCALL AT_Cmd_FN_CB, bdb_setChannelAttribute
        LOCFRAME ISTACK, 0, STACK
        LOCFRAME PSTACK, 0, STACK
        LOCFRAME XSTACK, 12, STACK
        LOCFRAME IOVERLAY, 0, STATIC
        LOCFRAME DOVERLAY, 0, STATIC
        ARGFRAME ISTACK, 0, STACK
        ARGFRAME PSTACK, 0, STACK
        ARGFRAME XSTACK, 12, STACK
        ARGFRAME IOVERLAY, 0, STATIC
        ARGFRAME DOVERLAY, 0, STATIC
        FUNCALL AT_Cmd_FN_CB, bdb_setChannelAttribute
        LOCFRAME ISTACK, 0, STACK
        LOCFRAME PSTACK, 0, STACK
        LOCFRAME XSTACK, 12, STACK
        LOCFRAME IOVERLAY, 0, STATIC
        LOCFRAME DOVERLAY, 0, STATIC
        ARGFRAME ISTACK, 0, STACK
        ARGFRAME PSTACK, 0, STACK
        ARGFRAME XSTACK, 12, STACK
        ARGFRAME IOVERLAY, 0, STATIC
        ARGFRAME DOVERLAY, 0, STATIC
        FUNCALL AT_Cmd_FN_CB, osal_nv_item_init
        LOCFRAME ISTACK, 0, STACK
        LOCFRAME PSTACK, 0, STACK
        LOCFRAME XSTACK, 14, STACK
        LOCFRAME IOVERLAY, 0, STATIC
        LOCFRAME DOVERLAY, 0, STATIC
        ARGFRAME ISTACK, 0, STACK
        ARGFRAME PSTACK, 0, STACK
        ARGFRAME XSTACK, 14, STACK
        ARGFRAME IOVERLAY, 0, STATIC
        ARGFRAME DOVERLAY, 0, STATIC
        FUNCALL AT_Cmd_FN_CB, osal_nv_write
        LOCFRAME ISTACK, 0, STACK
        LOCFRAME PSTACK, 0, STACK
        LOCFRAME XSTACK, 16, STACK
        LOCFRAME IOVERLAY, 0, STATIC
        LOCFRAME DOVERLAY, 0, STATIC
        ARGFRAME ISTACK, 0, STACK
        ARGFRAME PSTACK, 0, STACK
        ARGFRAME XSTACK, 16, STACK
        ARGFRAME IOVERLAY, 0, STATIC
        ARGFRAME DOVERLAY, 0, STATIC
        FUNCALL AT_Cmd_FN_CB, AT_Uart0_Send
        LOCFRAME ISTACK, 0, STACK
        LOCFRAME PSTACK, 0, STACK
        LOCFRAME XSTACK, 12, STACK
        LOCFRAME IOVERLAY, 0, STATIC
        LOCFRAME DOVERLAY, 0, STATIC
        ARGFRAME ISTACK, 0, STACK
        ARGFRAME PSTACK, 0, STACK
        ARGFRAME XSTACK, 12, STACK
        ARGFRAME IOVERLAY, 0, STATIC
        ARGFRAME DOVERLAY, 0, STATIC
        FUNCALL AT_Cmd_FN_CB, AT_Uart0_Send
        LOCFRAME ISTACK, 0, STACK
        LOCFRAME PSTACK, 0, STACK
        LOCFRAME XSTACK, 12, STACK
        LOCFRAME IOVERLAY, 0, STATIC
        LOCFRAME DOVERLAY, 0, STATIC
        ARGFRAME ISTACK, 0, STACK
        ARGFRAME PSTACK, 0, STACK
        ARGFRAME XSTACK, 12, STACK
        ARGFRAME IOVERLAY, 0, STATIC
        ARGFRAME DOVERLAY, 0, STATIC
        FUNCALL AT_Cmd_FN_CB, AT_Uart0_Send
        LOCFRAME ISTACK, 0, STACK
        LOCFRAME PSTACK, 0, STACK
        LOCFRAME XSTACK, 12, STACK
        LOCFRAME IOVERLAY, 0, STATIC
        LOCFRAME DOVERLAY, 0, STATIC
        ARGFRAME ISTACK, 0, STACK
        ARGFRAME PSTACK, 0, STACK
        ARGFRAME XSTACK, 12, STACK
        ARGFRAME IOVERLAY, 0, STATIC
        ARGFRAME DOVERLAY, 0, STATIC
        FUNCALL AT_Cmd_FN_CB, printf
        LOCFRAME ISTACK, 0, STACK
        LOCFRAME PSTACK, 0, STACK
        LOCFRAME XSTACK, 24, STACK
        LOCFRAME IOVERLAY, 0, STATIC
        LOCFRAME DOVERLAY, 0, STATIC
        ARGFRAME ISTACK, 0, STACK
        ARGFRAME PSTACK, 0, STACK
        ARGFRAME XSTACK, 24, STACK
        ARGFRAME IOVERLAY, 0, STATIC
        ARGFRAME DOVERLAY, 0, STATIC
        FUNCALL AT_Cmd_FN_CB, AT_UARTWriteErrMsg
        LOCFRAME ISTACK, 0, STACK
        LOCFRAME PSTACK, 0, STACK
        LOCFRAME XSTACK, 12, STACK
        LOCFRAME IOVERLAY, 0, STATIC
        LOCFRAME DOVERLAY, 0, STATIC
        ARGFRAME ISTACK, 0, STACK
        ARGFRAME PSTACK, 0, STACK
        ARGFRAME XSTACK, 12, STACK
        ARGFRAME IOVERLAY, 0, STATIC
        ARGFRAME DOVERLAY, 0, STATIC
        FUNCALL AT_Cmd_FN_CB, AT_Uart0_Send
        LOCFRAME ISTACK, 0, STACK
        LOCFRAME PSTACK, 0, STACK
        LOCFRAME XSTACK, 12, STACK
        LOCFRAME IOVERLAY, 0, STATIC
        LOCFRAME DOVERLAY, 0, STATIC
        ARGFRAME ISTACK, 0, STACK
        ARGFRAME PSTACK, 0, STACK
        ARGFRAME XSTACK, 12, STACK
        ARGFRAME IOVERLAY, 0, STATIC
        ARGFRAME DOVERLAY, 0, STATIC
        REQUIRE ?V0
        REQUIRE ?V2
        REQUIRE ?V3
        MOV       A,#-0xc
        LCALL     ?BANKED_ENTER_XDATA
          CFI DPH0 load(1, XDATA, add(CFA_XSP16, literal(-1)))
          CFI DPL0 load(1, XDATA, add(CFA_XSP16, literal(-2)))
          CFI ?BRET_EXT load(1, XDATA, add(CFA_XSP16, literal(-3)))
          CFI ?RET_HIGH load(1, XDATA, add(CFA_XSP16, literal(-4)))
          CFI ?RET_LOW load(1, XDATA, add(CFA_XSP16, literal(-5)))
          CFI R7 load(1, XDATA, add(CFA_XSP16, literal(-6)))
          CFI V3 load(1, XDATA, add(CFA_XSP16, literal(-7)))
          CFI V2 load(1, XDATA, add(CFA_XSP16, literal(-8)))
          CFI V1 load(1, XDATA, add(CFA_XSP16, literal(-9)))
          CFI V0 load(1, XDATA, add(CFA_XSP16, literal(-10)))
          CFI VB load(1, XDATA, add(CFA_XSP16, literal(-11)))
          CFI R6 load(1, XDATA, add(CFA_XSP16, literal(-12)))
          CFI CFA_SP SP+0
          CFI CFA_XSP16 add(XSP16, 12)
        ; Saved register size: 12
        ; Auto size: 0
        MOV       ?V0,R1
//  359   // recover the parameters
//  360   // set BDB channel attribute to default
//  361   bdb_setChannelAttribute( TRUE, BDB_DEFAULT_PRIMARY_CHANNEL_SET );
        ; Setup parameters for call to function bdb_setChannelAttribute
        MOV       DPTR,#__Constant_800
        LCALL     ?XLOAD_R2345
        MOV       R1,#0x1
        LCALL     `??bdb_setChannelAttribute::?relay`; Banked call to: bdb_setChannelAttribute
//  362   bdb_setChannelAttribute( FALSE, BDB_DEFAULT_SECONDARY_CHANNEL_SET );
        ; Setup parameters for call to function bdb_setChannelAttribute
        MOV       DPTR,#__Constant_7fff000
        LCALL     ?XLOAD_R2345
        LCALL     ?Subroutine13 & 0xFFFF
//  363 
//  364   zgConfigPANID = 0xFFFF;
//  365   uint8 status = osal_nv_item_init( ZCD_NV_PANID, sizeof(zgConfigPANID), &zgConfigPANID );
//  366   if ( status == ZSUCCESS ) { // TODO: if status != ZSUCCESS, should we do something??
??CrossCallReturnLabel_11:
        LCALL     ?PUSH_XSTACK_I_TWO
          CFI CFA_XSP16 add(XSP16, 14)
        MOV       R4,#0x2
        MOV       R5,#0x0
        MOV       R2,#-0x7d
        MOV       R3,#0x0
        LCALL     `??osal_nv_item_init::?relay`; Banked call to: osal_nv_item_init
        MOV       A,#0x2
        LCALL     ?DEALLOC_XSTACK8
          CFI CFA_XSP16 add(XSP16, 12)
        MOV       A,R1
        JNZ       ??AT_Cmd_FN_CB_0
//  367     osal_nv_write( ZCD_NV_PANID, 0, sizeof(zgConfigPANID), &zgConfigPANID );
        ; Setup parameters for call to function osal_nv_write
        MOV       R0,#?V2
        LCALL     ?PUSH_XSTACK_I_TWO
          CFI CFA_XSP16 add(XSP16, 14)
        MOV       ?V2,#0x2
        MOV       ?V3,#0x0
        MOV       R0,#?V2
        LCALL     ?PUSH_XSTACK_I_TWO
          CFI CFA_XSP16 add(XSP16, 16)
        MOV       R4,#0x0
        MOV       R5,#0x0
        MOV       R2,#-0x7d
        MOV       R3,#0x0
        LCALL     `??osal_nv_write::?relay`; Banked call to: osal_nv_write
        MOV       A,#0x4
        LCALL     ?DEALLOC_XSTACK8
          CFI CFA_XSP16 add(XSP16, 12)
//  368   }
//  369 
//  370   AT_NEW_LINE();
??AT_Cmd_FN_CB_0:
        ; Setup parameters for call to function AT_Uart0_Send
        MOV       R4,#0x2
        MOV       R5,#0x0
        MOV       R2,#`?<Constant "\\r\\n">` & 0xff
        MOV       R3,#(`?<Constant "\\r\\n">` >> 8) & 0xff
        LCALL     `??AT_Uart0_Send::?relay`; Banked call to: AT_Uart0_Send
//  371   if (Status == ZSUCCESS) {
        MOV       A,?V0
        JNZ       ??AT_Cmd_FN_CB_1
//  372     AT_OK();
        ; Setup parameters for call to function AT_Uart0_Send
        LCALL     ?Subroutine15 & 0xFFFF
//  373     AT_NEXT_LINE();
//  374     uint16* ext = (uint16*)_NIB.extendedPANID;
//  375     printf("JPAN:%02d,%04X,%04X%04X%04X%04X", _NIB.nwkLogicalChannel,
//  376             _NIB.nwkPanId,ext[3],ext[2],ext[1],ext[0]);
//  377   } else {
??CrossCallReturnLabel_16:
        LCALL     ?PUSH_XSTACK8_X_TWO
          CFI CFA_XSP16 add(XSP16, 14)
        MOV       DPTR,#_NIB + 55
        LCALL     ?PUSH_XSTACK8_X_TWO
          CFI CFA_XSP16 add(XSP16, 16)
        MOV       DPTR,#_NIB + 57
        LCALL     ?PUSH_XSTACK8_X_TWO
          CFI CFA_XSP16 add(XSP16, 18)
        MOV       DPTR,#_NIB + 59
        LCALL     ?PUSH_XSTACK8_X_TWO
          CFI CFA_XSP16 add(XSP16, 20)
        MOV       DPTR,#_NIB + 33
        LCALL     ?PUSH_XSTACK8_X_TWO
          CFI CFA_XSP16 add(XSP16, 22)
        MOV       DPTR,#_NIB + 22
        LCALL     ??Subroutine34_0 & 0xFFFF
??CrossCallReturnLabel_85:
        LCALL     ?PUSH_XSTACK_I_TWO
          CFI CFA_XSP16 add(XSP16, 24)
        LCALL     ?Subroutine22 & 0xFFFF
??CrossCallReturnLabel_52:
        LCALL     ?DEALLOC_XSTACK8
          CFI CFA_XSP16 add(XSP16, 12)
        SJMP      ??AT_Cmd_FN_CB_2
//  378     AT_ZDO_ERROR(Status);
??AT_Cmd_FN_CB_1:
        ; Setup parameters for call to function AT_UARTWriteErrMsg
        MOV       R2,#0x3
        MOV       R1,A
        LCALL     `??AT_UARTWriteErrMsg::?relay`; Banked call to: AT_UARTWriteErrMsg
//  379   }
//  380   AT_NEW_LINE();
??AT_Cmd_FN_CB_2:
        ; Setup parameters for call to function AT_Uart0_Send
        MOV       R4,#0x2
        MOV       R5,#0x0
        MOV       R2,#`?<Constant "\\r\\n">` & 0xff
        MOV       R3,#(`?<Constant "\\r\\n">` >> 8) & 0xff
        LCALL     `??AT_Uart0_Send::?relay`; Banked call to: AT_Uart0_Send
//  381 }
        MOV       R7,#0x4
        LJMP      ?BANKED_LEAVE_XDATA
          CFI EndBlock cfiBlock42

        RSEG BANKED_CODE:HUGECODE:NOROOT(0)
?Subroutine22:
          CFI Block cfiCond43 Using cfiCommon0
          CFI Function AT_Cmd_FN_CB
          CFI Conditional ??CrossCallReturnLabel_52
          CFI R6 load(1, XDATA, add(CFA_XSP16, literal(-12)))
          CFI VB load(1, XDATA, add(CFA_XSP16, literal(-11)))
          CFI V0 load(1, XDATA, add(CFA_XSP16, literal(-10)))
          CFI V1 load(1, XDATA, add(CFA_XSP16, literal(-9)))
          CFI V2 load(1, XDATA, add(CFA_XSP16, literal(-8)))
          CFI V3 load(1, XDATA, add(CFA_XSP16, literal(-7)))
          CFI R7 load(1, XDATA, add(CFA_XSP16, literal(-6)))
          CFI ?RET_LOW load(1, XDATA, add(CFA_XSP16, literal(-5)))
          CFI ?RET_HIGH load(1, XDATA, add(CFA_XSP16, literal(-4)))
          CFI ?BRET_EXT load(1, XDATA, add(CFA_XSP16, literal(-3)))
          CFI DPL0 load(1, XDATA, add(CFA_XSP16, literal(-2)))
          CFI DPH0 load(1, XDATA, add(CFA_XSP16, literal(-1)))
          CFI CFA_SP SP+-2
          CFI CFA_XSP16 add(XSP16, 24)
          CFI Block cfiCond44 Using cfiCommon0
          CFI (cfiCond44) Function AT_ZDO_ProcessJOIN_CNF_CB
          CFI (cfiCond44) Conditional ??CrossCallReturnLabel_53
          CFI (cfiCond44) R6 load(1, XDATA, add(CFA_XSP16, literal(-15)))
          CFI (cfiCond44) VB load(1, XDATA, add(CFA_XSP16, literal(-14)))
          CFI (cfiCond44) V0 load(1, XDATA, add(CFA_XSP16, literal(-13)))
          CFI (cfiCond44) V1 load(1, XDATA, add(CFA_XSP16, literal(-12)))
          CFI (cfiCond44) V2 load(1, XDATA, add(CFA_XSP16, literal(-11)))
          CFI (cfiCond44) V3 load(1, XDATA, add(CFA_XSP16, literal(-10)))
          CFI (cfiCond44) V4 load(1, XDATA, add(CFA_XSP16, literal(-9)))
          CFI (cfiCond44) V5 load(1, XDATA, add(CFA_XSP16, literal(-8)))
          CFI (cfiCond44) V6 load(1, XDATA, add(CFA_XSP16, literal(-7)))
          CFI (cfiCond44) R7 load(1, XDATA, add(CFA_XSP16, literal(-6)))
          CFI (cfiCond44) ?RET_LOW load(1, XDATA, add(CFA_XSP16, literal(-5)))
          CFI (cfiCond44) ?RET_HIGH load(1, XDATA, add(CFA_XSP16, literal(-4)))
          CFI (cfiCond44) ?BRET_EXT load(1, XDATA, add(CFA_XSP16, literal(-3)))
          CFI (cfiCond44) DPL0 load(1, XDATA, add(CFA_XSP16, literal(-2)))
          CFI (cfiCond44) DPH0 load(1, XDATA, add(CFA_XSP16, literal(-1)))
          CFI (cfiCond44) CFA_SP SP+-2
          CFI (cfiCond44) CFA_XSP16 add(XSP16, 27)
          CFI Block cfiPicker45 Using cfiCommon1
          CFI (cfiPicker45) NoFunction
          CFI (cfiPicker45) Picker
        MOV       R2,#`?<Constant "JPAN:%02d,%04X,%04X%0...">` & 0xff
        MOV       R3,#(`?<Constant "JPAN:%02d,%04X,%04X%0...">` >> 8) & 0xff
          CFI EndBlock cfiCond43
          CFI EndBlock cfiCond44
          CFI EndBlock cfiPicker45
        REQUIRE ??Subroutine29_0
        ; // Fall through to label ??Subroutine29_0

        RSEG BANKED_CODE:HUGECODE:NOROOT(0)
??Subroutine29_0:
          CFI Block cfiCond46 Using cfiCommon0
          CFI Function AT_ZDO_ProcessMsgCBs
          CFI Conditional ??CrossCallReturnLabel_54
          CFI R6 load(1, XDATA, add(CFA_XSP16, literal(-18)))
          CFI VB load(1, XDATA, add(CFA_XSP16, literal(-17)))
          CFI V0 load(1, XDATA, add(CFA_XSP16, literal(-16)))
          CFI V1 load(1, XDATA, add(CFA_XSP16, literal(-15)))
          CFI V2 load(1, XDATA, add(CFA_XSP16, literal(-14)))
          CFI V3 load(1, XDATA, add(CFA_XSP16, literal(-13)))
          CFI V4 load(1, XDATA, add(CFA_XSP16, literal(-12)))
          CFI V5 load(1, XDATA, add(CFA_XSP16, literal(-11)))
          CFI V6 load(1, XDATA, add(CFA_XSP16, literal(-10)))
          CFI V7 load(1, XDATA, add(CFA_XSP16, literal(-9)))
          CFI V8 load(1, XDATA, add(CFA_XSP16, literal(-8)))
          CFI V9 load(1, XDATA, add(CFA_XSP16, literal(-7)))
          CFI R7 load(1, XDATA, add(CFA_XSP16, literal(-6)))
          CFI ?RET_LOW load(1, XDATA, add(CFA_XSP16, literal(-5)))
          CFI ?RET_HIGH load(1, XDATA, add(CFA_XSP16, literal(-4)))
          CFI ?BRET_EXT load(1, XDATA, add(CFA_XSP16, literal(-3)))
          CFI DPL0 load(1, XDATA, add(CFA_XSP16, literal(-2)))
          CFI DPH0 load(1, XDATA, add(CFA_XSP16, literal(-1)))
          CFI CFA_SP SP+-2
          CFI CFA_XSP16 add(XSP16, 57)
          CFI Block cfiCond47 Using cfiCommon0
          CFI (cfiCond47) Function AT_ZDO_ProcessMgmtLqiRsp
          CFI (cfiCond47) Conditional ??CrossCallReturnLabel_55
          CFI (cfiCond47) R6 load(1, XDATA, add(CFA_XSP16, literal(-24)))
          CFI (cfiCond47) VB load(1, XDATA, add(CFA_XSP16, literal(-23)))
          CFI (cfiCond47) V0 load(1, XDATA, add(CFA_XSP16, literal(-22)))
          CFI (cfiCond47) V1 load(1, XDATA, add(CFA_XSP16, literal(-21)))
          CFI (cfiCond47) V2 load(1, XDATA, add(CFA_XSP16, literal(-20)))
          CFI (cfiCond47) V3 load(1, XDATA, add(CFA_XSP16, literal(-19)))
          CFI (cfiCond47) V4 load(1, XDATA, add(CFA_XSP16, literal(-18)))
          CFI (cfiCond47) V5 load(1, XDATA, add(CFA_XSP16, literal(-17)))
          CFI (cfiCond47) V6 load(1, XDATA, add(CFA_XSP16, literal(-16)))
          CFI (cfiCond47) V7 load(1, XDATA, add(CFA_XSP16, literal(-15)))
          CFI (cfiCond47) V8 load(1, XDATA, add(CFA_XSP16, literal(-14)))
          CFI (cfiCond47) V9 load(1, XDATA, add(CFA_XSP16, literal(-13)))
          CFI (cfiCond47) V10 load(1, XDATA, add(CFA_XSP16, literal(-12)))
          CFI (cfiCond47) V11 load(1, XDATA, add(CFA_XSP16, literal(-11)))
          CFI (cfiCond47) V12 load(1, XDATA, add(CFA_XSP16, literal(-10)))
          CFI (cfiCond47) V13 load(1, XDATA, add(CFA_XSP16, literal(-9)))
          CFI (cfiCond47) V14 load(1, XDATA, add(CFA_XSP16, literal(-8)))
          CFI (cfiCond47) V15 load(1, XDATA, add(CFA_XSP16, literal(-7)))
          CFI (cfiCond47) R7 load(1, XDATA, add(CFA_XSP16, literal(-6)))
          CFI (cfiCond47) ?RET_LOW load(1, XDATA, add(CFA_XSP16, literal(-5)))
          CFI (cfiCond47) ?RET_HIGH load(1, XDATA, add(CFA_XSP16, literal(-4)))
          CFI (cfiCond47) ?BRET_EXT load(1, XDATA, add(CFA_XSP16, literal(-3)))
          CFI (cfiCond47) DPL0 load(1, XDATA, add(CFA_XSP16, literal(-2)))
          CFI (cfiCond47) DPH0 load(1, XDATA, add(CFA_XSP16, literal(-1)))
          CFI (cfiCond47) CFA_SP SP+-2
          CFI (cfiCond47) CFA_XSP16 add(XSP16, 36)
          CFI Block cfiCond48 Using cfiCommon0
          CFI (cfiCond48) Function AT_Cmd_FN_CB
          CFI (cfiCond48) Conditional ??CrossCallReturnLabel_52
          CFI (cfiCond48) R6 load(1, XDATA, add(CFA_XSP16, literal(-12)))
          CFI (cfiCond48) VB load(1, XDATA, add(CFA_XSP16, literal(-11)))
          CFI (cfiCond48) V0 load(1, XDATA, add(CFA_XSP16, literal(-10)))
          CFI (cfiCond48) V1 load(1, XDATA, add(CFA_XSP16, literal(-9)))
          CFI (cfiCond48) V2 load(1, XDATA, add(CFA_XSP16, literal(-8)))
          CFI (cfiCond48) V3 load(1, XDATA, add(CFA_XSP16, literal(-7)))
          CFI (cfiCond48) R7 load(1, XDATA, add(CFA_XSP16, literal(-6)))
          CFI (cfiCond48) ?RET_LOW load(1, XDATA, add(CFA_XSP16, literal(-5)))
          CFI (cfiCond48) ?RET_HIGH load(1, XDATA, add(CFA_XSP16, literal(-4)))
          CFI (cfiCond48) ?BRET_EXT load(1, XDATA, add(CFA_XSP16, literal(-3)))
          CFI (cfiCond48) DPL0 load(1, XDATA, add(CFA_XSP16, literal(-2)))
          CFI (cfiCond48) DPH0 load(1, XDATA, add(CFA_XSP16, literal(-1)))
          CFI (cfiCond48) CFA_SP SP+-2
          CFI (cfiCond48) CFA_XSP16 add(XSP16, 24)
          CFI Block cfiCond49 Using cfiCommon0
          CFI (cfiCond49) Function AT_ZDO_ProcessJOIN_CNF_CB
          CFI (cfiCond49) Conditional ??CrossCallReturnLabel_53
          CFI (cfiCond49) R6 load(1, XDATA, add(CFA_XSP16, literal(-15)))
          CFI (cfiCond49) VB load(1, XDATA, add(CFA_XSP16, literal(-14)))
          CFI (cfiCond49) V0 load(1, XDATA, add(CFA_XSP16, literal(-13)))
          CFI (cfiCond49) V1 load(1, XDATA, add(CFA_XSP16, literal(-12)))
          CFI (cfiCond49) V2 load(1, XDATA, add(CFA_XSP16, literal(-11)))
          CFI (cfiCond49) V3 load(1, XDATA, add(CFA_XSP16, literal(-10)))
          CFI (cfiCond49) V4 load(1, XDATA, add(CFA_XSP16, literal(-9)))
          CFI (cfiCond49) V5 load(1, XDATA, add(CFA_XSP16, literal(-8)))
          CFI (cfiCond49) V6 load(1, XDATA, add(CFA_XSP16, literal(-7)))
          CFI (cfiCond49) R7 load(1, XDATA, add(CFA_XSP16, literal(-6)))
          CFI (cfiCond49) ?RET_LOW load(1, XDATA, add(CFA_XSP16, literal(-5)))
          CFI (cfiCond49) ?RET_HIGH load(1, XDATA, add(CFA_XSP16, literal(-4)))
          CFI (cfiCond49) ?BRET_EXT load(1, XDATA, add(CFA_XSP16, literal(-3)))
          CFI (cfiCond49) DPL0 load(1, XDATA, add(CFA_XSP16, literal(-2)))
          CFI (cfiCond49) DPH0 load(1, XDATA, add(CFA_XSP16, literal(-1)))
          CFI (cfiCond49) CFA_SP SP+-2
          CFI (cfiCond49) CFA_XSP16 add(XSP16, 27)
          CFI Block cfiPicker50 Using cfiCommon1
          CFI (cfiPicker50) NoFunction
          CFI (cfiPicker50) Picker
        LCALL     `??printf::?relay`; Banked call to: printf
        MOV       A,#0xc
        RET
          CFI EndBlock cfiCond46
          CFI EndBlock cfiCond47
          CFI EndBlock cfiCond48
          CFI EndBlock cfiCond49
          CFI EndBlock cfiPicker50
//  382 
//  383 /*******************************************************************************
//  384  * @fn      AT_ZDO_ProcessJOIN_CNF_CB
//  385  *
//  386  * @brief   Response: JPAN:<channel>,<PANID>,<EPANID>
//  387  *                    OK or ERROR:<errorcode> .
//  388  *
//  389  *                    <channel> - represents the channel,
//  390  *                    <PANID>   - the PAN ID,
//  391  *                    <EPANID>  - the extended PAN ID
//  392  *
//  393  * @param   param - Join confirm message
//  394  *
//  395  * @return  None
//  396  ******************************************************************************/

        RSEG BANKED_CODE:HUGECODE:NOROOT(0)
//  397 void* AT_ZDO_ProcessJOIN_CNF_CB(void *param)
AT_ZDO_ProcessJOIN_CNF_CB:
          CFI Block cfiBlock51 Using cfiCommon0
          CFI Function AT_ZDO_ProcessJOIN_CNF_CB
        CODE
//  398 {
        FUNCALL AT_ZDO_ProcessJOIN_CNF_CB, bdb_setChannelAttribute
        LOCFRAME ISTACK, 0, STACK
        LOCFRAME PSTACK, 0, STACK
        LOCFRAME XSTACK, 15, STACK
        LOCFRAME IOVERLAY, 0, STATIC
        LOCFRAME DOVERLAY, 0, STATIC
        ARGFRAME ISTACK, 0, STACK
        ARGFRAME PSTACK, 0, STACK
        ARGFRAME XSTACK, 15, STACK
        ARGFRAME IOVERLAY, 0, STATIC
        ARGFRAME DOVERLAY, 0, STATIC
        FUNCALL AT_ZDO_ProcessJOIN_CNF_CB, bdb_setChannelAttribute
        LOCFRAME ISTACK, 0, STACK
        LOCFRAME PSTACK, 0, STACK
        LOCFRAME XSTACK, 15, STACK
        LOCFRAME IOVERLAY, 0, STATIC
        LOCFRAME DOVERLAY, 0, STATIC
        ARGFRAME ISTACK, 0, STACK
        ARGFRAME PSTACK, 0, STACK
        ARGFRAME XSTACK, 15, STACK
        ARGFRAME IOVERLAY, 0, STATIC
        ARGFRAME DOVERLAY, 0, STATIC
        FUNCALL AT_ZDO_ProcessJOIN_CNF_CB, osal_nv_item_init
        LOCFRAME ISTACK, 0, STACK
        LOCFRAME PSTACK, 0, STACK
        LOCFRAME XSTACK, 17, STACK
        LOCFRAME IOVERLAY, 0, STATIC
        LOCFRAME DOVERLAY, 0, STATIC
        ARGFRAME ISTACK, 0, STACK
        ARGFRAME PSTACK, 0, STACK
        ARGFRAME XSTACK, 17, STACK
        ARGFRAME IOVERLAY, 0, STATIC
        ARGFRAME DOVERLAY, 0, STATIC
        FUNCALL AT_ZDO_ProcessJOIN_CNF_CB, osal_nv_write
        LOCFRAME ISTACK, 0, STACK
        LOCFRAME PSTACK, 0, STACK
        LOCFRAME XSTACK, 19, STACK
        LOCFRAME IOVERLAY, 0, STATIC
        LOCFRAME DOVERLAY, 0, STATIC
        ARGFRAME ISTACK, 0, STACK
        ARGFRAME PSTACK, 0, STACK
        ARGFRAME XSTACK, 19, STACK
        ARGFRAME IOVERLAY, 0, STATIC
        ARGFRAME DOVERLAY, 0, STATIC
        FUNCALL AT_ZDO_ProcessJOIN_CNF_CB, osal_memcpy
        LOCFRAME ISTACK, 0, STACK
        LOCFRAME PSTACK, 0, STACK
        LOCFRAME XSTACK, 18, STACK
        LOCFRAME IOVERLAY, 0, STATIC
        LOCFRAME DOVERLAY, 0, STATIC
        ARGFRAME ISTACK, 0, STACK
        ARGFRAME PSTACK, 0, STACK
        ARGFRAME XSTACK, 18, STACK
        ARGFRAME IOVERLAY, 0, STATIC
        ARGFRAME DOVERLAY, 0, STATIC
        FUNCALL AT_ZDO_ProcessJOIN_CNF_CB, ZDO_RegisterForZdoCB
        LOCFRAME ISTACK, 0, STACK
        LOCFRAME PSTACK, 0, STACK
        LOCFRAME XSTACK, 15, STACK
        LOCFRAME IOVERLAY, 0, STATIC
        LOCFRAME DOVERLAY, 0, STATIC
        ARGFRAME ISTACK, 0, STACK
        ARGFRAME PSTACK, 0, STACK
        ARGFRAME XSTACK, 15, STACK
        ARGFRAME IOVERLAY, 0, STATIC
        ARGFRAME DOVERLAY, 0, STATIC
        FUNCALL AT_ZDO_ProcessJOIN_CNF_CB, AT_Uart0_Send
        LOCFRAME ISTACK, 0, STACK
        LOCFRAME PSTACK, 0, STACK
        LOCFRAME XSTACK, 15, STACK
        LOCFRAME IOVERLAY, 0, STATIC
        LOCFRAME DOVERLAY, 0, STATIC
        ARGFRAME ISTACK, 0, STACK
        ARGFRAME PSTACK, 0, STACK
        ARGFRAME XSTACK, 15, STACK
        ARGFRAME IOVERLAY, 0, STATIC
        ARGFRAME DOVERLAY, 0, STATIC
        FUNCALL AT_ZDO_ProcessJOIN_CNF_CB, AT_Uart0_Send
        LOCFRAME ISTACK, 0, STACK
        LOCFRAME PSTACK, 0, STACK
        LOCFRAME XSTACK, 15, STACK
        LOCFRAME IOVERLAY, 0, STATIC
        LOCFRAME DOVERLAY, 0, STATIC
        ARGFRAME ISTACK, 0, STACK
        ARGFRAME PSTACK, 0, STACK
        ARGFRAME XSTACK, 15, STACK
        ARGFRAME IOVERLAY, 0, STATIC
        ARGFRAME DOVERLAY, 0, STATIC
        FUNCALL AT_ZDO_ProcessJOIN_CNF_CB, AT_Uart0_Send
        LOCFRAME ISTACK, 0, STACK
        LOCFRAME PSTACK, 0, STACK
        LOCFRAME XSTACK, 15, STACK
        LOCFRAME IOVERLAY, 0, STATIC
        LOCFRAME DOVERLAY, 0, STATIC
        ARGFRAME ISTACK, 0, STACK
        ARGFRAME PSTACK, 0, STACK
        ARGFRAME XSTACK, 15, STACK
        ARGFRAME IOVERLAY, 0, STATIC
        ARGFRAME DOVERLAY, 0, STATIC
        FUNCALL AT_ZDO_ProcessJOIN_CNF_CB, printf
        LOCFRAME ISTACK, 0, STACK
        LOCFRAME PSTACK, 0, STACK
        LOCFRAME XSTACK, 27, STACK
        LOCFRAME IOVERLAY, 0, STATIC
        LOCFRAME DOVERLAY, 0, STATIC
        ARGFRAME ISTACK, 0, STACK
        ARGFRAME PSTACK, 0, STACK
        ARGFRAME XSTACK, 27, STACK
        ARGFRAME IOVERLAY, 0, STATIC
        ARGFRAME DOVERLAY, 0, STATIC
        FUNCALL AT_ZDO_ProcessJOIN_CNF_CB, AT_UARTWriteErrMsg
        LOCFRAME ISTACK, 0, STACK
        LOCFRAME PSTACK, 0, STACK
        LOCFRAME XSTACK, 15, STACK
        LOCFRAME IOVERLAY, 0, STATIC
        LOCFRAME DOVERLAY, 0, STATIC
        ARGFRAME ISTACK, 0, STACK
        ARGFRAME PSTACK, 0, STACK
        ARGFRAME XSTACK, 15, STACK
        ARGFRAME IOVERLAY, 0, STATIC
        ARGFRAME DOVERLAY, 0, STATIC
        FUNCALL AT_ZDO_ProcessJOIN_CNF_CB, AT_Uart0_Send
        LOCFRAME ISTACK, 0, STACK
        LOCFRAME PSTACK, 0, STACK
        LOCFRAME XSTACK, 15, STACK
        LOCFRAME IOVERLAY, 0, STATIC
        LOCFRAME DOVERLAY, 0, STATIC
        ARGFRAME ISTACK, 0, STACK
        ARGFRAME PSTACK, 0, STACK
        ARGFRAME XSTACK, 15, STACK
        ARGFRAME IOVERLAY, 0, STATIC
        ARGFRAME DOVERLAY, 0, STATIC
        REQUIRE ?V0
        REQUIRE ?V1
        REQUIRE ?V2
        REQUIRE ?V3
        REQUIRE ?V4
        REQUIRE ?V5
        REQUIRE ?V6
        MOV       A,#-0xf
        LCALL     ?BANKED_ENTER_XDATA
          CFI DPH0 load(1, XDATA, add(CFA_XSP16, literal(-1)))
          CFI DPL0 load(1, XDATA, add(CFA_XSP16, literal(-2)))
          CFI ?BRET_EXT load(1, XDATA, add(CFA_XSP16, literal(-3)))
          CFI ?RET_HIGH load(1, XDATA, add(CFA_XSP16, literal(-4)))
          CFI ?RET_LOW load(1, XDATA, add(CFA_XSP16, literal(-5)))
          CFI R7 load(1, XDATA, add(CFA_XSP16, literal(-6)))
          CFI V6 load(1, XDATA, add(CFA_XSP16, literal(-7)))
          CFI V5 load(1, XDATA, add(CFA_XSP16, literal(-8)))
          CFI V4 load(1, XDATA, add(CFA_XSP16, literal(-9)))
          CFI V3 load(1, XDATA, add(CFA_XSP16, literal(-10)))
          CFI V2 load(1, XDATA, add(CFA_XSP16, literal(-11)))
          CFI V1 load(1, XDATA, add(CFA_XSP16, literal(-12)))
          CFI V0 load(1, XDATA, add(CFA_XSP16, literal(-13)))
          CFI VB load(1, XDATA, add(CFA_XSP16, literal(-14)))
          CFI R6 load(1, XDATA, add(CFA_XSP16, literal(-15)))
          CFI CFA_SP SP+0
          CFI CFA_XSP16 add(XSP16, 15)
        ; Saved register size: 15
        ; Auto size: 0
        MOV       ?V0,R2
        MOV       ?V1,R3
//  399     zdoJoinCnf_t *joinCnf = (zdoJoinCnf_t*) param;
//  400 
//  401     // recover the parameters
//  402     // set BDB channel attribute to default
//  403     bdb_setChannelAttribute( TRUE, BDB_DEFAULT_PRIMARY_CHANNEL_SET );
        ; Setup parameters for call to function bdb_setChannelAttribute
        MOV       DPTR,#__Constant_800
        LCALL     ?XLOAD_R2345
        MOV       R1,#0x1
        LCALL     `??bdb_setChannelAttribute::?relay`; Banked call to: bdb_setChannelAttribute
//  404     bdb_setChannelAttribute( FALSE, BDB_DEFAULT_SECONDARY_CHANNEL_SET );
        ; Setup parameters for call to function bdb_setChannelAttribute
        MOV       DPTR,#__Constant_7fff000
        LCALL     ?XLOAD_R2345
        LCALL     ?Subroutine13 & 0xFFFF
//  405 
//  406     zgConfigPANID = 0xFFFF;
//  407     uint8 status = osal_nv_item_init( ZCD_NV_PANID, sizeof(zgConfigPANID), &zgConfigPANID );
//  408     if ( status == ZSUCCESS ) { // TODO: if status != ZSUCCESS, should we do something??
??CrossCallReturnLabel_12:
        LCALL     ?PUSH_XSTACK_I_TWO
          CFI CFA_XSP16 add(XSP16, 17)
        MOV       R4,#0x2
        MOV       R5,#0x0
        MOV       R2,#-0x7d
        MOV       R3,#0x0
        LCALL     `??osal_nv_item_init::?relay`; Banked call to: osal_nv_item_init
        MOV       A,#0x2
        LCALL     ?DEALLOC_XSTACK8
          CFI CFA_XSP16 add(XSP16, 15)
        MOV       A,R1
        JNZ       ??AT_ZDO_ProcessJOIN_CNF_CB_0
//  409       osal_nv_write( ZCD_NV_PANID, 0, sizeof(zgConfigPANID), &zgConfigPANID );
        ; Setup parameters for call to function osal_nv_write
        MOV       R0,#?V2
        LCALL     ?PUSH_XSTACK_I_TWO
          CFI CFA_XSP16 add(XSP16, 17)
        MOV       ?V2,#0x2
        MOV       ?V3,#0x0
        MOV       R0,#?V2
        LCALL     ?PUSH_XSTACK_I_TWO
          CFI CFA_XSP16 add(XSP16, 19)
        MOV       R4,#0x0
        MOV       R5,#0x0
        MOV       R2,#-0x7d
        MOV       R3,#0x0
        LCALL     `??osal_nv_write::?relay`; Banked call to: osal_nv_write
        MOV       A,#0x4
        LCALL     ?DEALLOC_XSTACK8
          CFI CFA_XSP16 add(XSP16, 15)
//  410     }
//  411 
//  412     // invalid address enable the device allow all the ExtPANid
//  413     osal_memcpy( ZDO_UseExtendedPANID, "\0\0\0\0\0\0\0\0", 8);
??AT_ZDO_ProcessJOIN_CNF_CB_0:
        ; Setup parameters for call to function osal_memcpy
        MOV       ?V4,#`?<Constant "\\000\\000\\000\\000\\000\\000\\000\\000">` & 0xff
        MOV       ?V5,#(`?<Constant "\\000\\000\\000\\000\\000\\000\\000\\000">` >> 8) & 0xff
        MOV       ?V6,#0x0
        MOV       R0,#?V4
        LCALL     ?PUSH_XSTACK_I_THREE
          CFI CFA_XSP16 add(XSP16, 18)
        MOV       R4,#0x8
        MOV       R5,#0x0
        MOV       R2,#ZDO_UseExtendedPANID & 0xff
        MOV       R3,#(ZDO_UseExtendedPANID >> 8) & 0xff
        LCALL     `??osal_memcpy::?relay`; Banked call to: osal_memcpy
        MOV       A,#0x3
        LCALL     ?DEALLOC_XSTACK8
          CFI CFA_XSP16 add(XSP16, 15)
//  414 
//  415     //cancel the call, because the command will finished in this function
//  416     ZDO_RegisterForZdoCB(ZDO_JOIN_CNF_CBID, NULL);
        ; Setup parameters for call to function ZDO_RegisterForZdoCB
        MOV       R2,#0x0
        MOV       R3,#0x0
        MOV       R1,#0x4
        LCALL     `??ZDO_RegisterForZdoCB::?relay`; Banked call to: ZDO_RegisterForZdoCB
//  417 
//  418     AT_NEW_LINE();
        ; Setup parameters for call to function AT_Uart0_Send
        MOV       R4,#0x2
        MOV       R5,#0x0
        MOV       R2,#`?<Constant "\\r\\n">` & 0xff
        MOV       R3,#(`?<Constant "\\r\\n">` >> 8) & 0xff
        LCALL     `??AT_Uart0_Send::?relay`; Banked call to: AT_Uart0_Send
//  419     if (joinCnf->status == ZSUCCESS) {
        MOV       DPL,?V0
        MOV       DPH,?V1
        MOVX      A,@DPTR
        MOV       R1,A
        JNZ       ??AT_ZDO_ProcessJOIN_CNF_CB_1
//  420       AT_OK();
        ; Setup parameters for call to function AT_Uart0_Send
        LCALL     ?Subroutine15 & 0xFFFF
//  421       AT_NEXT_LINE();
//  422       uint16* ext = (uint16*)_NIB.extendedPANID;
//  423       printf("JPAN:%02d,%04X,%04X%04X%04X%04X", _NIB.nwkLogicalChannel,
//  424               _NIB.nwkPanId, ext[3], ext[2], ext[1], ext[0]);
//  425     } else {
??CrossCallReturnLabel_17:
        LCALL     ?PUSH_XSTACK8_X_TWO
          CFI CFA_XSP16 add(XSP16, 17)
        MOV       DPTR,#_NIB + 55
        LCALL     ?PUSH_XSTACK8_X_TWO
          CFI CFA_XSP16 add(XSP16, 19)
        MOV       DPTR,#_NIB + 57
        LCALL     ?PUSH_XSTACK8_X_TWO
          CFI CFA_XSP16 add(XSP16, 21)
        MOV       DPTR,#_NIB + 59
        LCALL     ?PUSH_XSTACK8_X_TWO
          CFI CFA_XSP16 add(XSP16, 23)
        MOV       DPTR,#_NIB + 33
        LCALL     ?PUSH_XSTACK8_X_TWO
          CFI CFA_XSP16 add(XSP16, 25)
        MOV       DPTR,#_NIB + 22
        LCALL     ??Subroutine30_0 & 0xFFFF
??CrossCallReturnLabel_58:
        LCALL     ?PUSH_XSTACK_I_TWO
          CFI CFA_XSP16 add(XSP16, 27)
        LCALL     ?Subroutine22 & 0xFFFF
??CrossCallReturnLabel_53:
        LCALL     ?DEALLOC_XSTACK8
          CFI CFA_XSP16 add(XSP16, 15)
        SJMP      ??AT_ZDO_ProcessJOIN_CNF_CB_2
//  426       // This function is called by ZDO_JoinConfirmCB
//  427       // only return join error status, so we can not catche errors
//  428       // from NLME_NetworkDiscoveryRequest and bdb_rejoinNwk
//  429       AT_ZDO_ERROR(joinCnf->status);
??AT_ZDO_ProcessJOIN_CNF_CB_1:
        ; Setup parameters for call to function AT_UARTWriteErrMsg
        MOV       R2,#0x3
        LCALL     `??AT_UARTWriteErrMsg::?relay`; Banked call to: AT_UARTWriteErrMsg
//  430     }
//  431     AT_NEW_LINE();
??AT_ZDO_ProcessJOIN_CNF_CB_2:
        ; Setup parameters for call to function AT_Uart0_Send
        MOV       R4,#0x2
        MOV       R5,#0x0
        MOV       R2,#`?<Constant "\\r\\n">` & 0xff
        MOV       R3,#(`?<Constant "\\r\\n">` >> 8) & 0xff
        LCALL     `??AT_Uart0_Send::?relay`; Banked call to: AT_Uart0_Send
//  432     return NULL;
        MOV       R2,#0x0
        MOV       R3,#0x0
        MOV       R7,#0x7
        LJMP      ?BANKED_LEAVE_XDATA
//  433 }
          CFI EndBlock cfiBlock51

        RSEG BANKED_CODE:HUGECODE:NOROOT(0)
?Subroutine15:
          CFI Block cfiCond52 Using cfiCommon0
          CFI Function AT_Cmd_FN_CB
          CFI Conditional ??CrossCallReturnLabel_16
          CFI R6 load(1, XDATA, add(CFA_XSP16, literal(-12)))
          CFI VB load(1, XDATA, add(CFA_XSP16, literal(-11)))
          CFI V0 load(1, XDATA, add(CFA_XSP16, literal(-10)))
          CFI V1 load(1, XDATA, add(CFA_XSP16, literal(-9)))
          CFI V2 load(1, XDATA, add(CFA_XSP16, literal(-8)))
          CFI V3 load(1, XDATA, add(CFA_XSP16, literal(-7)))
          CFI R7 load(1, XDATA, add(CFA_XSP16, literal(-6)))
          CFI ?RET_LOW load(1, XDATA, add(CFA_XSP16, literal(-5)))
          CFI ?RET_HIGH load(1, XDATA, add(CFA_XSP16, literal(-4)))
          CFI ?BRET_EXT load(1, XDATA, add(CFA_XSP16, literal(-3)))
          CFI DPL0 load(1, XDATA, add(CFA_XSP16, literal(-2)))
          CFI DPH0 load(1, XDATA, add(CFA_XSP16, literal(-1)))
          CFI CFA_SP SP+-2
          CFI CFA_XSP16 add(XSP16, 12)
          CFI Block cfiCond53 Using cfiCommon0
          CFI (cfiCond53) Function AT_ZDO_ProcessJOIN_CNF_CB
          CFI (cfiCond53) Conditional ??CrossCallReturnLabel_17
          CFI (cfiCond53) R6 load(1, XDATA, add(CFA_XSP16, literal(-15)))
          CFI (cfiCond53) VB load(1, XDATA, add(CFA_XSP16, literal(-14)))
          CFI (cfiCond53) V0 load(1, XDATA, add(CFA_XSP16, literal(-13)))
          CFI (cfiCond53) V1 load(1, XDATA, add(CFA_XSP16, literal(-12)))
          CFI (cfiCond53) V2 load(1, XDATA, add(CFA_XSP16, literal(-11)))
          CFI (cfiCond53) V3 load(1, XDATA, add(CFA_XSP16, literal(-10)))
          CFI (cfiCond53) V4 load(1, XDATA, add(CFA_XSP16, literal(-9)))
          CFI (cfiCond53) V5 load(1, XDATA, add(CFA_XSP16, literal(-8)))
          CFI (cfiCond53) V6 load(1, XDATA, add(CFA_XSP16, literal(-7)))
          CFI (cfiCond53) R7 load(1, XDATA, add(CFA_XSP16, literal(-6)))
          CFI (cfiCond53) ?RET_LOW load(1, XDATA, add(CFA_XSP16, literal(-5)))
          CFI (cfiCond53) ?RET_HIGH load(1, XDATA, add(CFA_XSP16, literal(-4)))
          CFI (cfiCond53) ?BRET_EXT load(1, XDATA, add(CFA_XSP16, literal(-3)))
          CFI (cfiCond53) DPL0 load(1, XDATA, add(CFA_XSP16, literal(-2)))
          CFI (cfiCond53) DPH0 load(1, XDATA, add(CFA_XSP16, literal(-1)))
          CFI (cfiCond53) CFA_SP SP+-2
          CFI (cfiCond53) CFA_XSP16 add(XSP16, 15)
          CFI Block cfiPicker54 Using cfiCommon1
          CFI (cfiPicker54) NoFunction
          CFI (cfiPicker54) Picker
        MOV       R4,#0x6
        MOV       R5,#0x0
        MOV       R2,#`?<Constant "\\r\\nOK\\r\\n">` & 0xff
        MOV       R3,#(`?<Constant "\\r\\nOK\\r\\n">` >> 8) & 0xff
        LCALL     ?Subroutine26 & 0xFFFF
??CrossCallReturnLabel_45:
        ; Setup parameters for call to function printf
        ; Setup parameters for call to function printf
        MOV       DPTR,#_NIB + 53
        RET
          CFI EndBlock cfiCond52
          CFI EndBlock cfiCond53
          CFI EndBlock cfiPicker54

        RSEG BANKED_CODE:HUGECODE:NOROOT(0)
?Subroutine26:
          CFI Block cfiCond55 Using cfiCommon0
          CFI Function AT_Cmd_ESCAN_CB
          CFI Conditional ??CrossCallReturnLabel_44
          CFI R6 load(1, XDATA, add(CFA_XSP16, literal(-16)))
          CFI VB load(1, XDATA, add(CFA_XSP16, literal(-15)))
          CFI V0 load(1, XDATA, add(CFA_XSP16, literal(-14)))
          CFI V1 load(1, XDATA, add(CFA_XSP16, literal(-13)))
          CFI V2 load(1, XDATA, add(CFA_XSP16, literal(-12)))
          CFI V3 load(1, XDATA, add(CFA_XSP16, literal(-11)))
          CFI V4 load(1, XDATA, add(CFA_XSP16, literal(-10)))
          CFI V5 load(1, XDATA, add(CFA_XSP16, literal(-9)))
          CFI V6 load(1, XDATA, add(CFA_XSP16, literal(-8)))
          CFI V7 load(1, XDATA, add(CFA_XSP16, literal(-7)))
          CFI R7 load(1, XDATA, add(CFA_XSP16, literal(-6)))
          CFI ?RET_LOW load(1, XDATA, add(CFA_XSP16, literal(-5)))
          CFI ?RET_HIGH load(1, XDATA, add(CFA_XSP16, literal(-4)))
          CFI ?BRET_EXT load(1, XDATA, add(CFA_XSP16, literal(-3)))
          CFI DPL0 load(1, XDATA, add(CFA_XSP16, literal(-2)))
          CFI DPH0 load(1, XDATA, add(CFA_XSP16, literal(-1)))
          CFI CFA_SP SP+-2
          CFI CFA_XSP16 add(XSP16, 16)
          CFI Block cfiCond56 Using cfiCommon0
          CFI (cfiCond56) Function AT_Cmd_FN_CB
          CFI (cfiCond56) Conditional ??CrossCallReturnLabel_45, ??CrossCallReturnLabel_16
          CFI (cfiCond56) R6 load(1, XDATA, add(CFA_XSP16, literal(-12)))
          CFI (cfiCond56) VB load(1, XDATA, add(CFA_XSP16, literal(-11)))
          CFI (cfiCond56) V0 load(1, XDATA, add(CFA_XSP16, literal(-10)))
          CFI (cfiCond56) V1 load(1, XDATA, add(CFA_XSP16, literal(-9)))
          CFI (cfiCond56) V2 load(1, XDATA, add(CFA_XSP16, literal(-8)))
          CFI (cfiCond56) V3 load(1, XDATA, add(CFA_XSP16, literal(-7)))
          CFI (cfiCond56) R7 load(1, XDATA, add(CFA_XSP16, literal(-6)))
          CFI (cfiCond56) ?RET_LOW load(1, XDATA, add(CFA_XSP16, literal(-5)))
          CFI (cfiCond56) ?RET_HIGH load(1, XDATA, add(CFA_XSP16, literal(-4)))
          CFI (cfiCond56) ?BRET_EXT load(1, XDATA, add(CFA_XSP16, literal(-3)))
          CFI (cfiCond56) DPL0 load(1, XDATA, add(CFA_XSP16, literal(-2)))
          CFI (cfiCond56) DPH0 load(1, XDATA, add(CFA_XSP16, literal(-1)))
          CFI (cfiCond56) CFA_SP SP+-4
          CFI (cfiCond56) CFA_XSP16 add(XSP16, 12)
          CFI Block cfiCond57 Using cfiCommon0
          CFI (cfiCond57) Function AT_ZDO_ProcessJOIN_CNF_CB
          CFI (cfiCond57) Conditional ??CrossCallReturnLabel_45, ??CrossCallReturnLabel_17
          CFI (cfiCond57) R6 load(1, XDATA, add(CFA_XSP16, literal(-15)))
          CFI (cfiCond57) VB load(1, XDATA, add(CFA_XSP16, literal(-14)))
          CFI (cfiCond57) V0 load(1, XDATA, add(CFA_XSP16, literal(-13)))
          CFI (cfiCond57) V1 load(1, XDATA, add(CFA_XSP16, literal(-12)))
          CFI (cfiCond57) V2 load(1, XDATA, add(CFA_XSP16, literal(-11)))
          CFI (cfiCond57) V3 load(1, XDATA, add(CFA_XSP16, literal(-10)))
          CFI (cfiCond57) V4 load(1, XDATA, add(CFA_XSP16, literal(-9)))
          CFI (cfiCond57) V5 load(1, XDATA, add(CFA_XSP16, literal(-8)))
          CFI (cfiCond57) V6 load(1, XDATA, add(CFA_XSP16, literal(-7)))
          CFI (cfiCond57) R7 load(1, XDATA, add(CFA_XSP16, literal(-6)))
          CFI (cfiCond57) ?RET_LOW load(1, XDATA, add(CFA_XSP16, literal(-5)))
          CFI (cfiCond57) ?RET_HIGH load(1, XDATA, add(CFA_XSP16, literal(-4)))
          CFI (cfiCond57) ?BRET_EXT load(1, XDATA, add(CFA_XSP16, literal(-3)))
          CFI (cfiCond57) DPL0 load(1, XDATA, add(CFA_XSP16, literal(-2)))
          CFI (cfiCond57) DPH0 load(1, XDATA, add(CFA_XSP16, literal(-1)))
          CFI (cfiCond57) CFA_SP SP+-4
          CFI (cfiCond57) CFA_XSP16 add(XSP16, 15)
          CFI Block cfiPicker58 Using cfiCommon1
          CFI (cfiPicker58) NoFunction
          CFI (cfiPicker58) Picker
        LCALL     `??AT_Uart0_Send::?relay`; Banked call to: AT_Uart0_Send
        ; Setup parameters for call to function AT_Uart0_Send
        ; Setup parameters for call to function AT_Uart0_Send
        ; Setup parameters for call to function AT_Uart0_Send
        MOV       R4,#0x2
        MOV       R5,#0x0
        MOV       R2,#`?<Constant "\\r\\n">` & 0xff
        MOV       R3,#(`?<Constant "\\r\\n">` >> 8) & 0xff
        LCALL     `??AT_Uart0_Send::?relay`; Banked call to: AT_Uart0_Send
        RET
          CFI EndBlock cfiCond55
          CFI EndBlock cfiCond56
          CFI EndBlock cfiCond57
          CFI EndBlock cfiPicker58

        RSEG BANKED_CODE:HUGECODE:NOROOT(0)
?Subroutine13:
          CFI Block cfiCond59 Using cfiCommon0
          CFI Function AT_Cmd_FN_CB
          CFI Conditional ??CrossCallReturnLabel_11
          CFI R6 load(1, XDATA, add(CFA_XSP16, literal(-12)))
          CFI VB load(1, XDATA, add(CFA_XSP16, literal(-11)))
          CFI V0 load(1, XDATA, add(CFA_XSP16, literal(-10)))
          CFI V1 load(1, XDATA, add(CFA_XSP16, literal(-9)))
          CFI V2 load(1, XDATA, add(CFA_XSP16, literal(-8)))
          CFI V3 load(1, XDATA, add(CFA_XSP16, literal(-7)))
          CFI R7 load(1, XDATA, add(CFA_XSP16, literal(-6)))
          CFI ?RET_LOW load(1, XDATA, add(CFA_XSP16, literal(-5)))
          CFI ?RET_HIGH load(1, XDATA, add(CFA_XSP16, literal(-4)))
          CFI ?BRET_EXT load(1, XDATA, add(CFA_XSP16, literal(-3)))
          CFI DPL0 load(1, XDATA, add(CFA_XSP16, literal(-2)))
          CFI DPH0 load(1, XDATA, add(CFA_XSP16, literal(-1)))
          CFI CFA_SP SP+-2
          CFI CFA_XSP16 add(XSP16, 12)
          CFI Block cfiCond60 Using cfiCommon0
          CFI (cfiCond60) Function AT_ZDO_ProcessJOIN_CNF_CB
          CFI (cfiCond60) Conditional ??CrossCallReturnLabel_12
          CFI (cfiCond60) R6 load(1, XDATA, add(CFA_XSP16, literal(-15)))
          CFI (cfiCond60) VB load(1, XDATA, add(CFA_XSP16, literal(-14)))
          CFI (cfiCond60) V0 load(1, XDATA, add(CFA_XSP16, literal(-13)))
          CFI (cfiCond60) V1 load(1, XDATA, add(CFA_XSP16, literal(-12)))
          CFI (cfiCond60) V2 load(1, XDATA, add(CFA_XSP16, literal(-11)))
          CFI (cfiCond60) V3 load(1, XDATA, add(CFA_XSP16, literal(-10)))
          CFI (cfiCond60) V4 load(1, XDATA, add(CFA_XSP16, literal(-9)))
          CFI (cfiCond60) V5 load(1, XDATA, add(CFA_XSP16, literal(-8)))
          CFI (cfiCond60) V6 load(1, XDATA, add(CFA_XSP16, literal(-7)))
          CFI (cfiCond60) R7 load(1, XDATA, add(CFA_XSP16, literal(-6)))
          CFI (cfiCond60) ?RET_LOW load(1, XDATA, add(CFA_XSP16, literal(-5)))
          CFI (cfiCond60) ?RET_HIGH load(1, XDATA, add(CFA_XSP16, literal(-4)))
          CFI (cfiCond60) ?BRET_EXT load(1, XDATA, add(CFA_XSP16, literal(-3)))
          CFI (cfiCond60) DPL0 load(1, XDATA, add(CFA_XSP16, literal(-2)))
          CFI (cfiCond60) DPH0 load(1, XDATA, add(CFA_XSP16, literal(-1)))
          CFI (cfiCond60) CFA_SP SP+-2
          CFI (cfiCond60) CFA_XSP16 add(XSP16, 15)
          CFI Block cfiPicker61 Using cfiCommon1
          CFI (cfiPicker61) NoFunction
          CFI (cfiPicker61) Picker
        MOV       R1,#0x0
        LCALL     `??bdb_setChannelAttribute::?relay`; Banked call to: bdb_setChannelAttribute
        MOV       DPTR,#zgConfigPANID
        MOV       A,#-0x1
        MOVX      @DPTR,A
        INC       DPTR
        MOVX      @DPTR,A
        ; Setup parameters for call to function osal_nv_item_init
        ; Setup parameters for call to function osal_nv_item_init
        MOV       ?V2,#zgConfigPANID & 0xff
        MOV       ?V3,#(zgConfigPANID >> 8) & 0xff
        MOV       R0,#?V2
        RET
          CFI EndBlock cfiCond59
          CFI EndBlock cfiCond60
          CFI EndBlock cfiPicker61
//  434 
//  435 /*******************************************************************************
//  436  * @fn      AT_ZDO_ProcessPowerDescRsp
//  437  *
//  438  * @brief   Prompt: PowerDesc:<NodeID>,<errorcode>[,<PowerDescriptor>]
//  439  *                  <NodeID> - the Remote nodes Node ID.
//  440  *                  <PowerDescriptor> - displayed as a 16 bit hexadecimal number
//  441  *                                      as described in section 2.3.2.4. of
//  442  *                                      ZigBee Pro Specification.
//  443  *          Note: In case of an error an errorcode other than 00 will be displayed
//  444  *                and the prompt will end after the errorcode
//  445  *
//  446  * @param   inMsg - incoming message (response)
//  447  *
//  448  * @return  None
//  449  ******************************************************************************/

        RSEG BANKED_CODE:HUGECODE:NOROOT(0)
//  450 void AT_ZDO_ProcessPowerDescRsp( zdoIncomingMsg_t *inMsg )
AT_ZDO_ProcessPowerDescRsp:
          CFI Block cfiBlock62 Using cfiCommon0
          CFI Function AT_ZDO_ProcessPowerDescRsp
        CODE
//  451 {
        FUNCALL AT_ZDO_ProcessPowerDescRsp, ZDO_ParsePowerDescRsp
        LOCFRAME ISTACK, 0, STACK
        LOCFRAME PSTACK, 0, STACK
        LOCFRAME XSTACK, 15, STACK
        LOCFRAME IOVERLAY, 0, STATIC
        LOCFRAME DOVERLAY, 0, STATIC
        ARGFRAME ISTACK, 0, STACK
        ARGFRAME PSTACK, 0, STACK
        ARGFRAME XSTACK, 15, STACK
        ARGFRAME IOVERLAY, 0, STATIC
        ARGFRAME DOVERLAY, 0, STATIC
        FUNCALL AT_ZDO_ProcessPowerDescRsp, AT_Uart0_Send
        LOCFRAME ISTACK, 0, STACK
        LOCFRAME PSTACK, 0, STACK
        LOCFRAME XSTACK, 15, STACK
        LOCFRAME IOVERLAY, 0, STATIC
        LOCFRAME DOVERLAY, 0, STATIC
        ARGFRAME ISTACK, 0, STACK
        ARGFRAME PSTACK, 0, STACK
        ARGFRAME XSTACK, 15, STACK
        ARGFRAME IOVERLAY, 0, STATIC
        ARGFRAME DOVERLAY, 0, STATIC
        FUNCALL AT_ZDO_ProcessPowerDescRsp, printf
        LOCFRAME ISTACK, 0, STACK
        LOCFRAME PSTACK, 0, STACK
        LOCFRAME XSTACK, 19, STACK
        LOCFRAME IOVERLAY, 0, STATIC
        LOCFRAME DOVERLAY, 0, STATIC
        ARGFRAME ISTACK, 0, STACK
        ARGFRAME PSTACK, 0, STACK
        ARGFRAME XSTACK, 19, STACK
        ARGFRAME IOVERLAY, 0, STATIC
        ARGFRAME DOVERLAY, 0, STATIC
        FUNCALL AT_ZDO_ProcessPowerDescRsp, AT_Uart0_Send
        LOCFRAME ISTACK, 0, STACK
        LOCFRAME PSTACK, 0, STACK
        LOCFRAME XSTACK, 15, STACK
        LOCFRAME IOVERLAY, 0, STATIC
        LOCFRAME DOVERLAY, 0, STATIC
        ARGFRAME ISTACK, 0, STACK
        ARGFRAME PSTACK, 0, STACK
        ARGFRAME XSTACK, 15, STACK
        ARGFRAME IOVERLAY, 0, STATIC
        ARGFRAME DOVERLAY, 0, STATIC
        FUNCALL AT_ZDO_ProcessPowerDescRsp, printf
        LOCFRAME ISTACK, 0, STACK
        LOCFRAME PSTACK, 0, STACK
        LOCFRAME XSTACK, 17, STACK
        LOCFRAME IOVERLAY, 0, STATIC
        LOCFRAME DOVERLAY, 0, STATIC
        ARGFRAME ISTACK, 0, STACK
        ARGFRAME PSTACK, 0, STACK
        ARGFRAME XSTACK, 17, STACK
        ARGFRAME IOVERLAY, 0, STATIC
        ARGFRAME DOVERLAY, 0, STATIC
        FUNCALL AT_ZDO_ProcessPowerDescRsp, AT_Uart0_Send
        LOCFRAME ISTACK, 0, STACK
        LOCFRAME PSTACK, 0, STACK
        LOCFRAME XSTACK, 15, STACK
        LOCFRAME IOVERLAY, 0, STATIC
        LOCFRAME DOVERLAY, 0, STATIC
        ARGFRAME ISTACK, 0, STACK
        ARGFRAME PSTACK, 0, STACK
        ARGFRAME XSTACK, 15, STACK
        ARGFRAME IOVERLAY, 0, STATIC
        ARGFRAME DOVERLAY, 0, STATIC
        FUNCALL AT_ZDO_ProcessPowerDescRsp, printf
        LOCFRAME ISTACK, 0, STACK
        LOCFRAME PSTACK, 0, STACK
        LOCFRAME XSTACK, 17, STACK
        LOCFRAME IOVERLAY, 0, STATIC
        LOCFRAME DOVERLAY, 0, STATIC
        ARGFRAME ISTACK, 0, STACK
        ARGFRAME PSTACK, 0, STACK
        ARGFRAME XSTACK, 17, STACK
        ARGFRAME IOVERLAY, 0, STATIC
        ARGFRAME DOVERLAY, 0, STATIC
        FUNCALL AT_ZDO_ProcessPowerDescRsp, AT_Uart0_Send
        LOCFRAME ISTACK, 0, STACK
        LOCFRAME PSTACK, 0, STACK
        LOCFRAME XSTACK, 15, STACK
        LOCFRAME IOVERLAY, 0, STATIC
        LOCFRAME DOVERLAY, 0, STATIC
        ARGFRAME ISTACK, 0, STACK
        ARGFRAME PSTACK, 0, STACK
        ARGFRAME XSTACK, 15, STACK
        ARGFRAME IOVERLAY, 0, STATIC
        ARGFRAME DOVERLAY, 0, STATIC
        FUNCALL AT_ZDO_ProcessPowerDescRsp, printf
        LOCFRAME ISTACK, 0, STACK
        LOCFRAME PSTACK, 0, STACK
        LOCFRAME XSTACK, 17, STACK
        LOCFRAME IOVERLAY, 0, STATIC
        LOCFRAME DOVERLAY, 0, STATIC
        ARGFRAME ISTACK, 0, STACK
        ARGFRAME PSTACK, 0, STACK
        ARGFRAME XSTACK, 17, STACK
        ARGFRAME IOVERLAY, 0, STATIC
        ARGFRAME DOVERLAY, 0, STATIC
        FUNCALL AT_ZDO_ProcessPowerDescRsp, AT_Uart0_Send
        LOCFRAME ISTACK, 0, STACK
        LOCFRAME PSTACK, 0, STACK
        LOCFRAME XSTACK, 15, STACK
        LOCFRAME IOVERLAY, 0, STATIC
        LOCFRAME DOVERLAY, 0, STATIC
        ARGFRAME ISTACK, 0, STACK
        ARGFRAME PSTACK, 0, STACK
        ARGFRAME XSTACK, 15, STACK
        ARGFRAME IOVERLAY, 0, STATIC
        ARGFRAME DOVERLAY, 0, STATIC
        FUNCALL AT_ZDO_ProcessPowerDescRsp, printf
        LOCFRAME ISTACK, 0, STACK
        LOCFRAME PSTACK, 0, STACK
        LOCFRAME XSTACK, 17, STACK
        LOCFRAME IOVERLAY, 0, STATIC
        LOCFRAME DOVERLAY, 0, STATIC
        ARGFRAME ISTACK, 0, STACK
        ARGFRAME PSTACK, 0, STACK
        ARGFRAME XSTACK, 17, STACK
        ARGFRAME IOVERLAY, 0, STATIC
        ARGFRAME DOVERLAY, 0, STATIC
        FUNCALL AT_ZDO_ProcessPowerDescRsp, AT_Uart0_Send
        LOCFRAME ISTACK, 0, STACK
        LOCFRAME PSTACK, 0, STACK
        LOCFRAME XSTACK, 15, STACK
        LOCFRAME IOVERLAY, 0, STATIC
        LOCFRAME DOVERLAY, 0, STATIC
        ARGFRAME ISTACK, 0, STACK
        ARGFRAME PSTACK, 0, STACK
        ARGFRAME XSTACK, 15, STACK
        ARGFRAME IOVERLAY, 0, STATIC
        ARGFRAME DOVERLAY, 0, STATIC
        REQUIRE ?V0
        REQUIRE ?V1
        MOV       A,#-0xa
        LCALL     ?BANKED_ENTER_XDATA
          CFI DPH0 load(1, XDATA, add(CFA_XSP16, literal(-1)))
          CFI DPL0 load(1, XDATA, add(CFA_XSP16, literal(-2)))
          CFI ?BRET_EXT load(1, XDATA, add(CFA_XSP16, literal(-3)))
          CFI ?RET_HIGH load(1, XDATA, add(CFA_XSP16, literal(-4)))
          CFI ?RET_LOW load(1, XDATA, add(CFA_XSP16, literal(-5)))
          CFI R7 load(1, XDATA, add(CFA_XSP16, literal(-6)))
          CFI V1 load(1, XDATA, add(CFA_XSP16, literal(-7)))
          CFI V0 load(1, XDATA, add(CFA_XSP16, literal(-8)))
          CFI VB load(1, XDATA, add(CFA_XSP16, literal(-9)))
          CFI R6 load(1, XDATA, add(CFA_XSP16, literal(-10)))
          CFI CFA_SP SP+0
          CFI CFA_XSP16 add(XSP16, 10)
        ; Saved register size: 10
        ; Auto size: 5
        MOV       A,#-0x5
        LCALL     ?ALLOC_XSTACK8
          CFI CFA_XSP16 add(XSP16, 15)
//  452   ZDO_PowerRsp_t pRsp;
//  453   ZDO_ParsePowerDescRsp( inMsg, &pRsp );
        ; Setup parameters for call to function ZDO_ParsePowerDescRsp
        MOV       R4,?XSP + 0
        MOV       R5,?XSP + 1
        LCALL     `??ZDO_ParsePowerDescRsp::?relay`; Banked call to: ZDO_ParsePowerDescRsp
//  454 
//  455   AT_NEW_LINE();
        ; Setup parameters for call to function AT_Uart0_Send
        LCALL     ?Subroutine6 & 0xFFFF
//  456   printf("PowerDesc:%04X,%02X", pRsp.nwkAddr, pRsp.status);
??CrossCallReturnLabel_56:
        LCALL     ?PUSH_XSTACK_I_TWO
          CFI CFA_XSP16 add(XSP16, 17)
        MOV       A,#0x3
        LCALL     ?XSTACK_DISP0_8
        LCALL     ?PUSH_XSTACK8_X_TWO
          CFI CFA_XSP16 add(XSP16, 19)
        MOV       R2,#`?<Constant "PowerDesc:%04X,%02X">` & 0xff
        MOV       R3,#(`?<Constant "PowerDesc:%04X,%02X">` >> 8) & 0xff
        LCALL     ?Subroutine21 & 0xFFFF
??CrossCallReturnLabel_32:
        LCALL     ?DEALLOC_XSTACK8
          CFI CFA_XSP16 add(XSP16, 15)
//  457   if (pRsp.status == ZDP_SUCCESS) {
        MOV       DPL,?XSP + 0
        MOV       DPH,?XSP + 1
        MOVX      A,@DPTR
        JNZ       ??AT_ZDO_ProcessPowerDescRsp_0
//  458     AT_NEXT_LINE();
        ; Setup parameters for call to function AT_Uart0_Send
        LCALL     ?Subroutine18 & 0xFFFF
//  459     printf("PowerMode:%02X", pRsp.pwrDesc.PowerMode);
??CrossCallReturnLabel_22:
        LCALL     ?XSTACK_DISP0_8
        LCALL     ?Subroutine11 & 0xFFFF
??CrossCallReturnLabel_6:
        LCALL     ?PUSH_XSTACK_I_TWO
          CFI CFA_XSP16 add(XSP16, 17)
        MOV       R2,#`?<Constant "PowerMode:%02X">` & 0xff
        MOV       R3,#(`?<Constant "PowerMode:%02X">` >> 8) & 0xff
        LCALL     ??Subroutine31_0 & 0xFFFF
??CrossCallReturnLabel_69:
        LCALL     ?DEALLOC_XSTACK8
          CFI CFA_XSP16 add(XSP16, 15)
//  460     AT_NEXT_LINE();
        ; Setup parameters for call to function AT_Uart0_Send
        LCALL     ?Subroutine18 & 0xFFFF
//  461     printf("AvailablePowerSources:%02X", pRsp.pwrDesc.AvailablePowerSources);
??CrossCallReturnLabel_23:
        LCALL     ?XSTACK_DISP0_8
        MOVX      A,@DPTR
        SWAP      A
        ANL       A,#0xf
        MOV       ?V0,A
        MOV       R0,#?V0
        LCALL     ?PUSH_XSTACK_I_TWO
          CFI CFA_XSP16 add(XSP16, 17)
        MOV       R2,#`?<Constant "AvailablePowerSources...">` & 0xff
        MOV       R3,#(`?<Constant "AvailablePowerSources...">` >> 8) & 0xff
        LCALL     ??Subroutine31_0 & 0xFFFF
??CrossCallReturnLabel_70:
        LCALL     ?DEALLOC_XSTACK8
          CFI CFA_XSP16 add(XSP16, 15)
//  462     AT_NEXT_LINE();
        ; Setup parameters for call to function AT_Uart0_Send
        LCALL     ?Subroutine18 & 0xFFFF
//  463     printf("CurrentPowerSource:%02X", pRsp.pwrDesc.CurrentPowerSource);
??CrossCallReturnLabel_24:
        LCALL     ?XSTACK_DISP0_8
        INC       DPTR
        LCALL     ?Subroutine11 & 0xFFFF
??CrossCallReturnLabel_7:
        LCALL     ?PUSH_XSTACK_I_TWO
          CFI CFA_XSP16 add(XSP16, 17)
        MOV       R2,#`?<Constant "CurrentPowerSource:%02X">` & 0xff
        MOV       R3,#(`?<Constant "CurrentPowerSource:%02X">` >> 8) & 0xff
        LCALL     ??Subroutine31_0 & 0xFFFF
??CrossCallReturnLabel_71:
        LCALL     ?DEALLOC_XSTACK8
          CFI CFA_XSP16 add(XSP16, 15)
//  464     AT_NEXT_LINE();
        ; Setup parameters for call to function AT_Uart0_Send
        LCALL     ?Subroutine18 & 0xFFFF
//  465     printf("CurrentPowerSourceLevel:%02X", pRsp.pwrDesc.CurrentPowerSourceLevel);
//  466   }
??CrossCallReturnLabel_25:
        LCALL     ?XSTACK_DISP0_8
        MOVX      A,@DPTR
        MOV       ?V0,A
        INC       DPTR
        MOVX      A,@DPTR
        MOV       ?V1,A
        MOV       A,#0xc
        MOV       R0,#?V0
        LCALL     ?US_SHR
        MOV       R0,#?V0
        LCALL     ?PUSH_XSTACK_I_TWO
          CFI CFA_XSP16 add(XSP16, 17)
        MOV       R2,#`?<Constant "CurrentPowerSourceLev...">` & 0xff
        MOV       R3,#(`?<Constant "CurrentPowerSourceLev...">` >> 8) & 0xff
        LCALL     ??Subroutine31_0 & 0xFFFF
??CrossCallReturnLabel_72:
        LCALL     ?DEALLOC_XSTACK8
          CFI CFA_XSP16 add(XSP16, 15)
//  467   AT_NEW_LINE();
??AT_ZDO_ProcessPowerDescRsp_0:
        ; Setup parameters for call to function AT_Uart0_Send
        MOV       R4,#0x2
        MOV       R5,#0x0
        MOV       R2,#`?<Constant "\\r\\n">` & 0xff
        MOV       R3,#(`?<Constant "\\r\\n">` >> 8) & 0xff
        LCALL     `??AT_Uart0_Send::?relay`; Banked call to: AT_Uart0_Send
//  468 }
        MOV       A,#0x5
        LCALL     ?DEALLOC_XSTACK8
          CFI CFA_XSP16 add(XSP16, 10)
        LJMP      ?Subroutine1 & 0xFFFF
          CFI EndBlock cfiBlock62

        RSEG BANKED_CODE:HUGECODE:NOROOT(0)
?Subroutine6:
          CFI Block cfiCond63 Using cfiCommon0
          CFI Function AT_ZDO_ProcessPowerDescRsp
          CFI Conditional ??CrossCallReturnLabel_56
          CFI R6 load(1, XDATA, add(CFA_XSP16, literal(-10)))
          CFI VB load(1, XDATA, add(CFA_XSP16, literal(-9)))
          CFI V0 load(1, XDATA, add(CFA_XSP16, literal(-8)))
          CFI V1 load(1, XDATA, add(CFA_XSP16, literal(-7)))
          CFI R7 load(1, XDATA, add(CFA_XSP16, literal(-6)))
          CFI ?RET_LOW load(1, XDATA, add(CFA_XSP16, literal(-5)))
          CFI ?RET_HIGH load(1, XDATA, add(CFA_XSP16, literal(-4)))
          CFI ?BRET_EXT load(1, XDATA, add(CFA_XSP16, literal(-3)))
          CFI DPL0 load(1, XDATA, add(CFA_XSP16, literal(-2)))
          CFI DPH0 load(1, XDATA, add(CFA_XSP16, literal(-1)))
          CFI CFA_SP SP+-2
          CFI CFA_XSP16 add(XSP16, 15)
          CFI Block cfiCond64 Using cfiCommon0
          CFI (cfiCond64) Function AT_ZDO_ProcessSimpleDescRsp
          CFI (cfiCond64) Conditional ??CrossCallReturnLabel_57
          CFI (cfiCond64) R6 load(1, XDATA, add(CFA_XSP16, literal(-13)))
          CFI (cfiCond64) VB load(1, XDATA, add(CFA_XSP16, literal(-12)))
          CFI (cfiCond64) V0 load(1, XDATA, add(CFA_XSP16, literal(-11)))
          CFI (cfiCond64) V1 load(1, XDATA, add(CFA_XSP16, literal(-10)))
          CFI (cfiCond64) V2 load(1, XDATA, add(CFA_XSP16, literal(-9)))
          CFI (cfiCond64) V3 load(1, XDATA, add(CFA_XSP16, literal(-8)))
          CFI (cfiCond64) V4 load(1, XDATA, add(CFA_XSP16, literal(-7)))
          CFI (cfiCond64) R7 load(1, XDATA, add(CFA_XSP16, literal(-6)))
          CFI (cfiCond64) ?RET_LOW load(1, XDATA, add(CFA_XSP16, literal(-5)))
          CFI (cfiCond64) ?RET_HIGH load(1, XDATA, add(CFA_XSP16, literal(-4)))
          CFI (cfiCond64) ?BRET_EXT load(1, XDATA, add(CFA_XSP16, literal(-3)))
          CFI (cfiCond64) DPL0 load(1, XDATA, add(CFA_XSP16, literal(-2)))
          CFI (cfiCond64) DPH0 load(1, XDATA, add(CFA_XSP16, literal(-1)))
          CFI (cfiCond64) CFA_SP SP+-2
          CFI (cfiCond64) CFA_XSP16 add(XSP16, 28)
          CFI Block cfiPicker65 Using cfiCommon1
          CFI (cfiPicker65) NoFunction
          CFI (cfiPicker65) Picker
        MOV       R4,#0x2
        MOV       R5,#0x0
        MOV       R2,#`?<Constant "\\r\\n">` & 0xff
        MOV       R3,#(`?<Constant "\\r\\n">` >> 8) & 0xff
        LCALL     `??AT_Uart0_Send::?relay`; Banked call to: AT_Uart0_Send
        ; Setup parameters for call to function printf
        ; Setup parameters for call to function printf
        MOV       DPL,?XSP + 0
        MOV       DPH,?XSP + 1
          CFI EndBlock cfiCond63
          CFI EndBlock cfiCond64
          CFI EndBlock cfiPicker65
        REQUIRE ??Subroutine30_0
        ; // Fall through to label ??Subroutine30_0

        RSEG BANKED_CODE:HUGECODE:NOROOT(0)
??Subroutine30_0:
          CFI Block cfiCond66 Using cfiCommon0
          CFI Function AT_ZDO_ProcessJOIN_CNF_CB
          CFI Conditional ??CrossCallReturnLabel_58
          CFI R6 load(1, XDATA, add(CFA_XSP16, literal(-15)))
          CFI VB load(1, XDATA, add(CFA_XSP16, literal(-14)))
          CFI V0 load(1, XDATA, add(CFA_XSP16, literal(-13)))
          CFI V1 load(1, XDATA, add(CFA_XSP16, literal(-12)))
          CFI V2 load(1, XDATA, add(CFA_XSP16, literal(-11)))
          CFI V3 load(1, XDATA, add(CFA_XSP16, literal(-10)))
          CFI V4 load(1, XDATA, add(CFA_XSP16, literal(-9)))
          CFI V5 load(1, XDATA, add(CFA_XSP16, literal(-8)))
          CFI V6 load(1, XDATA, add(CFA_XSP16, literal(-7)))
          CFI R7 load(1, XDATA, add(CFA_XSP16, literal(-6)))
          CFI ?RET_LOW load(1, XDATA, add(CFA_XSP16, literal(-5)))
          CFI ?RET_HIGH load(1, XDATA, add(CFA_XSP16, literal(-4)))
          CFI ?BRET_EXT load(1, XDATA, add(CFA_XSP16, literal(-3)))
          CFI DPL0 load(1, XDATA, add(CFA_XSP16, literal(-2)))
          CFI DPH0 load(1, XDATA, add(CFA_XSP16, literal(-1)))
          CFI CFA_SP SP+-2
          CFI CFA_XSP16 add(XSP16, 25)
          CFI Block cfiCond67 Using cfiCommon0
          CFI (cfiCond67) Function AT_ZDO_ProcessMgmtBindRsp
          CFI (cfiCond67) Conditional ??CrossCallReturnLabel_59
          CFI (cfiCond67) R6 load(1, XDATA, add(CFA_XSP16, literal(-20)))
          CFI (cfiCond67) VB load(1, XDATA, add(CFA_XSP16, literal(-19)))
          CFI (cfiCond67) V0 load(1, XDATA, add(CFA_XSP16, literal(-18)))
          CFI (cfiCond67) V1 load(1, XDATA, add(CFA_XSP16, literal(-17)))
          CFI (cfiCond67) V2 load(1, XDATA, add(CFA_XSP16, literal(-16)))
          CFI (cfiCond67) V3 load(1, XDATA, add(CFA_XSP16, literal(-15)))
          CFI (cfiCond67) V4 load(1, XDATA, add(CFA_XSP16, literal(-14)))
          CFI (cfiCond67) V5 load(1, XDATA, add(CFA_XSP16, literal(-13)))
          CFI (cfiCond67) V6 load(1, XDATA, add(CFA_XSP16, literal(-12)))
          CFI (cfiCond67) V7 load(1, XDATA, add(CFA_XSP16, literal(-11)))
          CFI (cfiCond67) V8 load(1, XDATA, add(CFA_XSP16, literal(-10)))
          CFI (cfiCond67) V9 load(1, XDATA, add(CFA_XSP16, literal(-9)))
          CFI (cfiCond67) V10 load(1, XDATA, add(CFA_XSP16, literal(-8)))
          CFI (cfiCond67) V11 load(1, XDATA, add(CFA_XSP16, literal(-7)))
          CFI (cfiCond67) R7 load(1, XDATA, add(CFA_XSP16, literal(-6)))
          CFI (cfiCond67) ?RET_LOW load(1, XDATA, add(CFA_XSP16, literal(-5)))
          CFI (cfiCond67) ?RET_HIGH load(1, XDATA, add(CFA_XSP16, literal(-4)))
          CFI (cfiCond67) ?BRET_EXT load(1, XDATA, add(CFA_XSP16, literal(-3)))
          CFI (cfiCond67) DPL0 load(1, XDATA, add(CFA_XSP16, literal(-2)))
          CFI (cfiCond67) DPH0 load(1, XDATA, add(CFA_XSP16, literal(-1)))
          CFI (cfiCond67) CFA_SP SP+-2
          CFI (cfiCond67) CFA_XSP16 add(XSP16, 42)
          CFI Block cfiCond68 Using cfiCommon0
          CFI (cfiCond68) Function AT_ZDO_ProcessMgmtBindRsp
          CFI (cfiCond68) Conditional ??CrossCallReturnLabel_60
          CFI (cfiCond68) R6 load(1, XDATA, add(CFA_XSP16, literal(-20)))
          CFI (cfiCond68) VB load(1, XDATA, add(CFA_XSP16, literal(-19)))
          CFI (cfiCond68) V0 load(1, XDATA, add(CFA_XSP16, literal(-18)))
          CFI (cfiCond68) V1 load(1, XDATA, add(CFA_XSP16, literal(-17)))
          CFI (cfiCond68) V2 load(1, XDATA, add(CFA_XSP16, literal(-16)))
          CFI (cfiCond68) V3 load(1, XDATA, add(CFA_XSP16, literal(-15)))
          CFI (cfiCond68) V4 load(1, XDATA, add(CFA_XSP16, literal(-14)))
          CFI (cfiCond68) V5 load(1, XDATA, add(CFA_XSP16, literal(-13)))
          CFI (cfiCond68) V6 load(1, XDATA, add(CFA_XSP16, literal(-12)))
          CFI (cfiCond68) V7 load(1, XDATA, add(CFA_XSP16, literal(-11)))
          CFI (cfiCond68) V8 load(1, XDATA, add(CFA_XSP16, literal(-10)))
          CFI (cfiCond68) V9 load(1, XDATA, add(CFA_XSP16, literal(-9)))
          CFI (cfiCond68) V10 load(1, XDATA, add(CFA_XSP16, literal(-8)))
          CFI (cfiCond68) V11 load(1, XDATA, add(CFA_XSP16, literal(-7)))
          CFI (cfiCond68) R7 load(1, XDATA, add(CFA_XSP16, literal(-6)))
          CFI (cfiCond68) ?RET_LOW load(1, XDATA, add(CFA_XSP16, literal(-5)))
          CFI (cfiCond68) ?RET_HIGH load(1, XDATA, add(CFA_XSP16, literal(-4)))
          CFI (cfiCond68) ?BRET_EXT load(1, XDATA, add(CFA_XSP16, literal(-3)))
          CFI (cfiCond68) DPL0 load(1, XDATA, add(CFA_XSP16, literal(-2)))
          CFI (cfiCond68) DPH0 load(1, XDATA, add(CFA_XSP16, literal(-1)))
          CFI (cfiCond68) CFA_SP SP+-2
          CFI (cfiCond68) CFA_XSP16 add(XSP16, 42)
          CFI Block cfiCond69 Using cfiCommon0
          CFI (cfiCond69) Function AT_ZDO_ProcessPowerDescRsp
          CFI (cfiCond69) Conditional ??CrossCallReturnLabel_56
          CFI (cfiCond69) R6 load(1, XDATA, add(CFA_XSP16, literal(-10)))
          CFI (cfiCond69) VB load(1, XDATA, add(CFA_XSP16, literal(-9)))
          CFI (cfiCond69) V0 load(1, XDATA, add(CFA_XSP16, literal(-8)))
          CFI (cfiCond69) V1 load(1, XDATA, add(CFA_XSP16, literal(-7)))
          CFI (cfiCond69) R7 load(1, XDATA, add(CFA_XSP16, literal(-6)))
          CFI (cfiCond69) ?RET_LOW load(1, XDATA, add(CFA_XSP16, literal(-5)))
          CFI (cfiCond69) ?RET_HIGH load(1, XDATA, add(CFA_XSP16, literal(-4)))
          CFI (cfiCond69) ?BRET_EXT load(1, XDATA, add(CFA_XSP16, literal(-3)))
          CFI (cfiCond69) DPL0 load(1, XDATA, add(CFA_XSP16, literal(-2)))
          CFI (cfiCond69) DPH0 load(1, XDATA, add(CFA_XSP16, literal(-1)))
          CFI (cfiCond69) CFA_SP SP+-2
          CFI (cfiCond69) CFA_XSP16 add(XSP16, 15)
          CFI Block cfiCond70 Using cfiCommon0
          CFI (cfiCond70) Function AT_ZDO_ProcessSimpleDescRsp
          CFI (cfiCond70) Conditional ??CrossCallReturnLabel_57
          CFI (cfiCond70) R6 load(1, XDATA, add(CFA_XSP16, literal(-13)))
          CFI (cfiCond70) VB load(1, XDATA, add(CFA_XSP16, literal(-12)))
          CFI (cfiCond70) V0 load(1, XDATA, add(CFA_XSP16, literal(-11)))
          CFI (cfiCond70) V1 load(1, XDATA, add(CFA_XSP16, literal(-10)))
          CFI (cfiCond70) V2 load(1, XDATA, add(CFA_XSP16, literal(-9)))
          CFI (cfiCond70) V3 load(1, XDATA, add(CFA_XSP16, literal(-8)))
          CFI (cfiCond70) V4 load(1, XDATA, add(CFA_XSP16, literal(-7)))
          CFI (cfiCond70) R7 load(1, XDATA, add(CFA_XSP16, literal(-6)))
          CFI (cfiCond70) ?RET_LOW load(1, XDATA, add(CFA_XSP16, literal(-5)))
          CFI (cfiCond70) ?RET_HIGH load(1, XDATA, add(CFA_XSP16, literal(-4)))
          CFI (cfiCond70) ?BRET_EXT load(1, XDATA, add(CFA_XSP16, literal(-3)))
          CFI (cfiCond70) DPL0 load(1, XDATA, add(CFA_XSP16, literal(-2)))
          CFI (cfiCond70) DPH0 load(1, XDATA, add(CFA_XSP16, literal(-1)))
          CFI (cfiCond70) CFA_SP SP+-2
          CFI (cfiCond70) CFA_XSP16 add(XSP16, 28)
          CFI Block cfiPicker71 Using cfiCommon1
          CFI (cfiPicker71) NoFunction
          CFI (cfiPicker71) Picker
        MOVX      A,@DPTR
        MOV       ?V0,A
        MOV       ?V1,#0x0
        MOV       R0,#?V0
        RET
          CFI EndBlock cfiCond66
          CFI EndBlock cfiCond67
          CFI EndBlock cfiCond68
          CFI EndBlock cfiCond69
          CFI EndBlock cfiCond70
          CFI EndBlock cfiPicker71
//  469 
//  470 /*******************************************************************************
//  471  * @fn      AT_ZDO_ProcessActEpRsp
//  472  *
//  473  * @brief   Prompt: ActEpDesc:<NodeID>,<errorcode>[,XX,]
//  474  *                  <NodeID> - the Remote nodes Node ID.
//  475  *                  [,XX,...] - active endpoint listed as 8-bit hexadecimal
//  476  *                              numbers seperated by commas
//  477  *          Note: In case of an error an errorcode other than 00 will be displayed
//  478  *                and the prompt will end after the errorcode
//  479  *
//  480  * @param   inMsg - incoming message (response)
//  481  *
//  482  * @return  None
//  483  ******************************************************************************/
//  484 void AT_ZDO_ProcessActEpRsp( zdoIncomingMsg_t *inMsg )
//  485 {
//  486   ZDO_ActiveEndpointRsp_t * pRsp = ZDO_ParseEPListRsp( inMsg );
//  487 
//  488   AT_NEW_LINE();
//  489   printf("ActEpDesc:%04X,%02X", pRsp->nwkAddr, pRsp->status);
//  490   if(pRsp->status == ZDP_SUCCESS){
//  491     uint8 i;
//  492     for (i = 0; i < pRsp->cnt; i++) {
//  493       printf(",%02X", pRsp->epList[i]);
//  494     }
//  495   }
//  496   AT_NEW_LINE();
//  497   osal_mem_free(pRsp);
//  498 }
//  499 
//  500 /*******************************************************************************
//  501  * @fn      AT_ZDO_ProcessSimpleDescRsp
//  502  *
//  503  * @brief   Prompt: SimpleDesc:<NodeID>,<errorcode>
//  504  *                  EP:XX
//  505  *                  ProfileID:XXXX
//  506  *                  DeviceID:XXXXvXX
//  507  *                  InCluster:<Cluster List>
//  508  *                  OutCluster:<Cluster List>
//  509  *          Note: In case of an error an errorcode other than 00 will be displayed
//  510  *                and the prompt will end after the errorcode
//  511  *
//  512  * @param   inMsg - incoming message (response)
//  513  *
//  514  * @return  None
//  515  ******************************************************************************/

        RSEG BANKED_CODE:HUGECODE:NOROOT(0)
//  516 void AT_ZDO_ProcessSimpleDescRsp( zdoIncomingMsg_t *inMsg )
AT_ZDO_ProcessSimpleDescRsp:
          CFI Block cfiBlock72 Using cfiCommon0
          CFI Function AT_ZDO_ProcessSimpleDescRsp
        CODE
//  517 {
        FUNCALL AT_ZDO_ProcessSimpleDescRsp, ZDO_ParseSimpleDescRsp
        LOCFRAME ISTACK, 0, STACK
        LOCFRAME PSTACK, 0, STACK
        LOCFRAME XSTACK, 28, STACK
        LOCFRAME IOVERLAY, 0, STATIC
        LOCFRAME DOVERLAY, 0, STATIC
        ARGFRAME ISTACK, 0, STACK
        ARGFRAME PSTACK, 0, STACK
        ARGFRAME XSTACK, 28, STACK
        ARGFRAME IOVERLAY, 0, STATIC
        ARGFRAME DOVERLAY, 0, STATIC
        FUNCALL AT_ZDO_ProcessSimpleDescRsp, AT_Uart0_Send
        LOCFRAME ISTACK, 0, STACK
        LOCFRAME PSTACK, 0, STACK
        LOCFRAME XSTACK, 28, STACK
        LOCFRAME IOVERLAY, 0, STATIC
        LOCFRAME DOVERLAY, 0, STATIC
        ARGFRAME ISTACK, 0, STACK
        ARGFRAME PSTACK, 0, STACK
        ARGFRAME XSTACK, 28, STACK
        ARGFRAME IOVERLAY, 0, STATIC
        ARGFRAME DOVERLAY, 0, STATIC
        FUNCALL AT_ZDO_ProcessSimpleDescRsp, printf
        LOCFRAME ISTACK, 0, STACK
        LOCFRAME PSTACK, 0, STACK
        LOCFRAME XSTACK, 32, STACK
        LOCFRAME IOVERLAY, 0, STATIC
        LOCFRAME DOVERLAY, 0, STATIC
        ARGFRAME ISTACK, 0, STACK
        ARGFRAME PSTACK, 0, STACK
        ARGFRAME XSTACK, 32, STACK
        ARGFRAME IOVERLAY, 0, STATIC
        ARGFRAME DOVERLAY, 0, STATIC
        FUNCALL AT_ZDO_ProcessSimpleDescRsp, AT_Uart0_Send
        LOCFRAME ISTACK, 0, STACK
        LOCFRAME PSTACK, 0, STACK
        LOCFRAME XSTACK, 28, STACK
        LOCFRAME IOVERLAY, 0, STATIC
        LOCFRAME DOVERLAY, 0, STATIC
        ARGFRAME ISTACK, 0, STACK
        ARGFRAME PSTACK, 0, STACK
        ARGFRAME XSTACK, 28, STACK
        ARGFRAME IOVERLAY, 0, STATIC
        ARGFRAME DOVERLAY, 0, STATIC
        FUNCALL AT_ZDO_ProcessSimpleDescRsp, printf
        LOCFRAME ISTACK, 0, STACK
        LOCFRAME PSTACK, 0, STACK
        LOCFRAME XSTACK, 30, STACK
        LOCFRAME IOVERLAY, 0, STATIC
        LOCFRAME DOVERLAY, 0, STATIC
        ARGFRAME ISTACK, 0, STACK
        ARGFRAME PSTACK, 0, STACK
        ARGFRAME XSTACK, 30, STACK
        ARGFRAME IOVERLAY, 0, STATIC
        ARGFRAME DOVERLAY, 0, STATIC
        FUNCALL AT_ZDO_ProcessSimpleDescRsp, AT_Uart0_Send
        LOCFRAME ISTACK, 0, STACK
        LOCFRAME PSTACK, 0, STACK
        LOCFRAME XSTACK, 28, STACK
        LOCFRAME IOVERLAY, 0, STATIC
        LOCFRAME DOVERLAY, 0, STATIC
        ARGFRAME ISTACK, 0, STACK
        ARGFRAME PSTACK, 0, STACK
        ARGFRAME XSTACK, 28, STACK
        ARGFRAME IOVERLAY, 0, STATIC
        ARGFRAME DOVERLAY, 0, STATIC
        FUNCALL AT_ZDO_ProcessSimpleDescRsp, printf
        LOCFRAME ISTACK, 0, STACK
        LOCFRAME PSTACK, 0, STACK
        LOCFRAME XSTACK, 30, STACK
        LOCFRAME IOVERLAY, 0, STATIC
        LOCFRAME DOVERLAY, 0, STATIC
        ARGFRAME ISTACK, 0, STACK
        ARGFRAME PSTACK, 0, STACK
        ARGFRAME XSTACK, 30, STACK
        ARGFRAME IOVERLAY, 0, STATIC
        ARGFRAME DOVERLAY, 0, STATIC
        FUNCALL AT_ZDO_ProcessSimpleDescRsp, AT_Uart0_Send
        LOCFRAME ISTACK, 0, STACK
        LOCFRAME PSTACK, 0, STACK
        LOCFRAME XSTACK, 28, STACK
        LOCFRAME IOVERLAY, 0, STATIC
        LOCFRAME DOVERLAY, 0, STATIC
        ARGFRAME ISTACK, 0, STACK
        ARGFRAME PSTACK, 0, STACK
        ARGFRAME XSTACK, 28, STACK
        ARGFRAME IOVERLAY, 0, STATIC
        ARGFRAME DOVERLAY, 0, STATIC
        FUNCALL AT_ZDO_ProcessSimpleDescRsp, printf
        LOCFRAME ISTACK, 0, STACK
        LOCFRAME PSTACK, 0, STACK
        LOCFRAME XSTACK, 32, STACK
        LOCFRAME IOVERLAY, 0, STATIC
        LOCFRAME DOVERLAY, 0, STATIC
        ARGFRAME ISTACK, 0, STACK
        ARGFRAME PSTACK, 0, STACK
        ARGFRAME XSTACK, 32, STACK
        ARGFRAME IOVERLAY, 0, STATIC
        ARGFRAME DOVERLAY, 0, STATIC
        FUNCALL AT_ZDO_ProcessSimpleDescRsp, AT_Uart0_Send
        LOCFRAME ISTACK, 0, STACK
        LOCFRAME PSTACK, 0, STACK
        LOCFRAME XSTACK, 28, STACK
        LOCFRAME IOVERLAY, 0, STATIC
        LOCFRAME DOVERLAY, 0, STATIC
        ARGFRAME ISTACK, 0, STACK
        ARGFRAME PSTACK, 0, STACK
        ARGFRAME XSTACK, 28, STACK
        ARGFRAME IOVERLAY, 0, STATIC
        ARGFRAME DOVERLAY, 0, STATIC
        FUNCALL AT_ZDO_ProcessSimpleDescRsp, printf
        LOCFRAME ISTACK, 0, STACK
        LOCFRAME PSTACK, 0, STACK
        LOCFRAME XSTACK, 28, STACK
        LOCFRAME IOVERLAY, 0, STATIC
        LOCFRAME DOVERLAY, 0, STATIC
        ARGFRAME ISTACK, 0, STACK
        ARGFRAME PSTACK, 0, STACK
        ARGFRAME XSTACK, 28, STACK
        ARGFRAME IOVERLAY, 0, STATIC
        ARGFRAME DOVERLAY, 0, STATIC
        FUNCALL AT_ZDO_ProcessSimpleDescRsp, printf
        LOCFRAME ISTACK, 0, STACK
        LOCFRAME PSTACK, 0, STACK
        LOCFRAME XSTACK, 30, STACK
        LOCFRAME IOVERLAY, 0, STATIC
        LOCFRAME DOVERLAY, 0, STATIC
        ARGFRAME ISTACK, 0, STACK
        ARGFRAME PSTACK, 0, STACK
        ARGFRAME XSTACK, 30, STACK
        ARGFRAME IOVERLAY, 0, STATIC
        ARGFRAME DOVERLAY, 0, STATIC
        FUNCALL AT_ZDO_ProcessSimpleDescRsp, AT_Uart0_Send
        LOCFRAME ISTACK, 0, STACK
        LOCFRAME PSTACK, 0, STACK
        LOCFRAME XSTACK, 28, STACK
        LOCFRAME IOVERLAY, 0, STATIC
        LOCFRAME DOVERLAY, 0, STATIC
        ARGFRAME ISTACK, 0, STACK
        ARGFRAME PSTACK, 0, STACK
        ARGFRAME XSTACK, 28, STACK
        ARGFRAME IOVERLAY, 0, STATIC
        ARGFRAME DOVERLAY, 0, STATIC
        FUNCALL AT_ZDO_ProcessSimpleDescRsp, printf
        LOCFRAME ISTACK, 0, STACK
        LOCFRAME PSTACK, 0, STACK
        LOCFRAME XSTACK, 30, STACK
        LOCFRAME IOVERLAY, 0, STATIC
        LOCFRAME DOVERLAY, 0, STATIC
        ARGFRAME ISTACK, 0, STACK
        ARGFRAME PSTACK, 0, STACK
        ARGFRAME XSTACK, 30, STACK
        ARGFRAME IOVERLAY, 0, STATIC
        ARGFRAME DOVERLAY, 0, STATIC
        FUNCALL AT_ZDO_ProcessSimpleDescRsp, printf
        LOCFRAME ISTACK, 0, STACK
        LOCFRAME PSTACK, 0, STACK
        LOCFRAME XSTACK, 28, STACK
        LOCFRAME IOVERLAY, 0, STATIC
        LOCFRAME DOVERLAY, 0, STATIC
        ARGFRAME ISTACK, 0, STACK
        ARGFRAME PSTACK, 0, STACK
        ARGFRAME XSTACK, 28, STACK
        ARGFRAME IOVERLAY, 0, STATIC
        ARGFRAME DOVERLAY, 0, STATIC
        FUNCALL AT_ZDO_ProcessSimpleDescRsp, printf
        LOCFRAME ISTACK, 0, STACK
        LOCFRAME PSTACK, 0, STACK
        LOCFRAME XSTACK, 30, STACK
        LOCFRAME IOVERLAY, 0, STATIC
        LOCFRAME DOVERLAY, 0, STATIC
        ARGFRAME ISTACK, 0, STACK
        ARGFRAME PSTACK, 0, STACK
        ARGFRAME XSTACK, 30, STACK
        ARGFRAME IOVERLAY, 0, STATIC
        ARGFRAME DOVERLAY, 0, STATIC
        FUNCALL AT_ZDO_ProcessSimpleDescRsp, AT_Uart0_Send
        LOCFRAME ISTACK, 0, STACK
        LOCFRAME PSTACK, 0, STACK
        LOCFRAME XSTACK, 28, STACK
        LOCFRAME IOVERLAY, 0, STATIC
        LOCFRAME DOVERLAY, 0, STATIC
        ARGFRAME ISTACK, 0, STACK
        ARGFRAME PSTACK, 0, STACK
        ARGFRAME XSTACK, 28, STACK
        ARGFRAME IOVERLAY, 0, STATIC
        ARGFRAME DOVERLAY, 0, STATIC
        FUNCALL AT_ZDO_ProcessSimpleDescRsp, printf
        LOCFRAME ISTACK, 0, STACK
        LOCFRAME PSTACK, 0, STACK
        LOCFRAME XSTACK, 30, STACK
        LOCFRAME IOVERLAY, 0, STATIC
        LOCFRAME DOVERLAY, 0, STATIC
        ARGFRAME ISTACK, 0, STACK
        ARGFRAME PSTACK, 0, STACK
        ARGFRAME XSTACK, 30, STACK
        ARGFRAME IOVERLAY, 0, STATIC
        ARGFRAME DOVERLAY, 0, STATIC
        FUNCALL AT_ZDO_ProcessSimpleDescRsp, AT_Uart0_Send
        LOCFRAME ISTACK, 0, STACK
        LOCFRAME PSTACK, 0, STACK
        LOCFRAME XSTACK, 28, STACK
        LOCFRAME IOVERLAY, 0, STATIC
        LOCFRAME DOVERLAY, 0, STATIC
        ARGFRAME ISTACK, 0, STACK
        ARGFRAME PSTACK, 0, STACK
        ARGFRAME XSTACK, 28, STACK
        ARGFRAME IOVERLAY, 0, STATIC
        ARGFRAME DOVERLAY, 0, STATIC
        REQUIRE ?V0
        REQUIRE ?V1
        REQUIRE ?V2
        REQUIRE ?V3
        REQUIRE ?V4
        MOV       A,#-0xd
        LCALL     ?BANKED_ENTER_XDATA
          CFI DPH0 load(1, XDATA, add(CFA_XSP16, literal(-1)))
          CFI DPL0 load(1, XDATA, add(CFA_XSP16, literal(-2)))
          CFI ?BRET_EXT load(1, XDATA, add(CFA_XSP16, literal(-3)))
          CFI ?RET_HIGH load(1, XDATA, add(CFA_XSP16, literal(-4)))
          CFI ?RET_LOW load(1, XDATA, add(CFA_XSP16, literal(-5)))
          CFI R7 load(1, XDATA, add(CFA_XSP16, literal(-6)))
          CFI V4 load(1, XDATA, add(CFA_XSP16, literal(-7)))
          CFI V3 load(1, XDATA, add(CFA_XSP16, literal(-8)))
          CFI V2 load(1, XDATA, add(CFA_XSP16, literal(-9)))
          CFI V1 load(1, XDATA, add(CFA_XSP16, literal(-10)))
          CFI V0 load(1, XDATA, add(CFA_XSP16, literal(-11)))
          CFI VB load(1, XDATA, add(CFA_XSP16, literal(-12)))
          CFI R6 load(1, XDATA, add(CFA_XSP16, literal(-13)))
          CFI CFA_SP SP+0
          CFI CFA_XSP16 add(XSP16, 13)
        ; Saved register size: 13
        ; Auto size: 15
        MOV       A,#-0xf
        LCALL     ?ALLOC_XSTACK8
          CFI CFA_XSP16 add(XSP16, 28)
//  518   notdoSIMPLEDESCcmd = TRUE;
        MOV       DPTR,#notdoSIMPLEDESCcmd
        MOV       A,#0x1
        MOVX      @DPTR,A
//  519   ZDO_SimpleDescRsp_t Rsp;
//  520   ZDO_ParseSimpleDescRsp( inMsg, &Rsp );
        ; Setup parameters for call to function ZDO_ParseSimpleDescRsp
        MOV       R4,?XSP + 0
        MOV       R5,?XSP + 1
        LCALL     `??ZDO_ParseSimpleDescRsp::?relay`; Banked call to: ZDO_ParseSimpleDescRsp
//  521 
//  522   AT_NEW_LINE();
        ; Setup parameters for call to function AT_Uart0_Send
        LCALL     ?Subroutine6 & 0xFFFF
//  523   printf("SimpleDesc:%04X,%02X", Rsp.nwkAddr, Rsp.status);
??CrossCallReturnLabel_57:
        LCALL     ?PUSH_XSTACK_I_TWO
          CFI CFA_XSP16 add(XSP16, 30)
        MOV       A,#0x3
        LCALL     ?XSTACK_DISP0_8
        LCALL     ?PUSH_XSTACK8_X_TWO
          CFI CFA_XSP16 add(XSP16, 32)
        MOV       R2,#`?<Constant "SimpleDesc:%04X,%02X">` & 0xff
        MOV       R3,#(`?<Constant "SimpleDesc:%04X,%02X">` >> 8) & 0xff
        LCALL     ?Subroutine21 & 0xFFFF
??CrossCallReturnLabel_33:
        LCALL     ?DEALLOC_XSTACK8
          CFI CFA_XSP16 add(XSP16, 28)
//  524   if (Rsp.status == ZDP_SUCCESS) {
        MOV       DPL,?XSP + 0
        MOV       DPH,?XSP + 1
        MOVX      A,@DPTR
        JZ        $+5
        LJMP      ??AT_ZDO_ProcessSimpleDescRsp_0 & 0xFFFF
//  525     AT_NEXT_LINE();
        ; Setup parameters for call to function AT_Uart0_Send
        LCALL     ?Subroutine18 & 0xFFFF
//  526     printf("EP:%02X", Rsp.simpleDesc.EndPoint);
??CrossCallReturnLabel_26:
        LCALL     ?XSTACK_DISP0_8
        MOVX      A,@DPTR
        MOV       ?V0,A
        MOV       R0,#?V0
        LCALL     ?PUSH_XSTACK_I_TWO
          CFI CFA_XSP16 add(XSP16, 30)
        MOV       R2,#`?<Constant "EP:%02X">` & 0xff
        MOV       R3,#(`?<Constant "EP:%02X">` >> 8) & 0xff
        LCALL     ??Subroutine31_0 & 0xFFFF
??CrossCallReturnLabel_73:
        LCALL     ?DEALLOC_XSTACK8
          CFI CFA_XSP16 add(XSP16, 28)
//  527     AT_NEXT_LINE();
        ; Setup parameters for call to function AT_Uart0_Send
        MOV       R4,#0x2
        MOV       R5,#0x0
        MOV       R2,#`?<Constant "\\r\\n">` & 0xff
        MOV       R3,#(`?<Constant "\\r\\n">` >> 8) & 0xff
        LCALL     `??AT_Uart0_Send::?relay`; Banked call to: AT_Uart0_Send
//  528     printf("ProfileID:%04X", Rsp.simpleDesc.AppProfId);
        ; Setup parameters for call to function printf
        MOV       A,#0x4
        LCALL     ?XSTACK_DISP0_8
        LCALL     ?PUSH_XSTACK8_X_TWO
          CFI CFA_XSP16 add(XSP16, 30)
        MOV       R2,#`?<Constant "ProfileID:%04X">` & 0xff
        MOV       R3,#(`?<Constant "ProfileID:%04X">` >> 8) & 0xff
        LCALL     ??Subroutine31_0 & 0xFFFF
??CrossCallReturnLabel_74:
        LCALL     ?DEALLOC_XSTACK8
          CFI CFA_XSP16 add(XSP16, 28)
//  529     AT_NEXT_LINE();
        ; Setup parameters for call to function AT_Uart0_Send
        MOV       R4,#0x2
        MOV       R5,#0x0
        MOV       R2,#`?<Constant "\\r\\n">` & 0xff
        MOV       R3,#(`?<Constant "\\r\\n">` >> 8) & 0xff
        LCALL     `??AT_Uart0_Send::?relay`; Banked call to: AT_Uart0_Send
//  530     printf("DeviceID:%04Xv%02X", Rsp.simpleDesc.AppDeviceId, Rsp.simpleDesc.AppDevVer);
        ; Setup parameters for call to function printf
        MOV       A,#0x8
        LCALL     ?XSTACK_DISP0_8
        LCALL     ?Subroutine11 & 0xFFFF
??CrossCallReturnLabel_8:
        LCALL     ?PUSH_XSTACK_I_TWO
          CFI CFA_XSP16 add(XSP16, 30)
        MOV       A,#0x8
        LCALL     ?XSTACK_DISP0_8
        LCALL     ?PUSH_XSTACK8_X_TWO
          CFI CFA_XSP16 add(XSP16, 32)
        MOV       R2,#`?<Constant "DeviceID:%04Xv%02X">` & 0xff
        MOV       R3,#(`?<Constant "DeviceID:%04Xv%02X">` >> 8) & 0xff
        LCALL     ?Subroutine21 & 0xFFFF
??CrossCallReturnLabel_34:
        LCALL     ?DEALLOC_XSTACK8
          CFI CFA_XSP16 add(XSP16, 28)
//  531     AT_NEXT_LINE();
        ; Setup parameters for call to function AT_Uart0_Send
        MOV       R4,#0x2
        MOV       R5,#0x0
        MOV       R2,#`?<Constant "\\r\\n">` & 0xff
        MOV       R3,#(`?<Constant "\\r\\n">` >> 8) & 0xff
        LCALL     `??AT_Uart0_Send::?relay`; Banked call to: AT_Uart0_Send
//  532     uint8 i;
//  533     printf("InCluster: ");
        ; Setup parameters for call to function printf
        MOV       R2,#`?<Constant "InCluster: ">` & 0xff
        MOV       R3,#(`?<Constant "InCluster: ">` >> 8) & 0xff
        LCALL     `??printf::?relay`; Banked call to: printf
//  534     for (i = 0; i < Rsp.simpleDesc.AppNumInClusters; i++) {
        MOV       ?V4,#0x0
        MOV       ?V0,#`?<Constant "%04X">` & 0xff
        MOV       ?V1,#(`?<Constant "%04X">` >> 8) & 0xff
        SJMP      ??AT_ZDO_ProcessSimpleDescRsp_1
//  535         if(i) printf("           %04X",Rsp.simpleDesc.pAppInClusterList[i]);
//  536         else printf("%04X",Rsp.simpleDesc.pAppInClusterList[i]);
??AT_ZDO_ProcessSimpleDescRsp_2:
        ; Setup parameters for call to function printf
        LCALL     ?PUSH_XSTACK8_X_TWO
          CFI CFA_XSP16 add(XSP16, 30)
        MOV       R2,?V0
        MOV       R3,?V1
??AT_ZDO_ProcessSimpleDescRsp_3:
        LCALL     ??Subroutine31_0 & 0xFFFF
??CrossCallReturnLabel_75:
        LCALL     ?DEALLOC_XSTACK8
          CFI CFA_XSP16 add(XSP16, 28)
//  537         AT_NEXT_LINE();
        ; Setup parameters for call to function AT_Uart0_Send
        MOV       R4,#0x2
        MOV       R5,#0x0
        MOV       R2,#`?<Constant "\\r\\n">` & 0xff
        MOV       R3,#(`?<Constant "\\r\\n">` >> 8) & 0xff
        LCALL     `??AT_Uart0_Send::?relay`; Banked call to: AT_Uart0_Send
        INC       ?V4
??AT_ZDO_ProcessSimpleDescRsp_1:
        MOV       A,#0x9
        LCALL     ?XSTACK_DISP0_8
        MOVX      A,@DPTR
        MOV       R0,A
        MOV       A,?V4
        CLR       C
        SUBB      A,R0
        JNC       ??AT_ZDO_ProcessSimpleDescRsp_4
        MOV       A,#0xa
        LCALL     ?XSTACK_DISP0_8
        LCALL     ?Subroutine12 & 0xFFFF
??CrossCallReturnLabel_9:
        JZ        ??AT_ZDO_ProcessSimpleDescRsp_2
        ; Setup parameters for call to function printf
        LCALL     ?Subroutine24 & 0xFFFF
//  538     }
??CrossCallReturnLabel_40:
        LCALL     ?PUSH_XSTACK8_X_TWO
          CFI CFA_XSP16 add(XSP16, 30)
        MOV       R2,#`?<Constant "           %04X">` & 0xff
        MOV       R3,#(`?<Constant "           %04X">` >> 8) & 0xff
        SJMP      ??AT_ZDO_ProcessSimpleDescRsp_3
          CFI CFA_XSP16 add(XSP16, 28)
//  539 
//  540     printf("OutCluster: ");
??AT_ZDO_ProcessSimpleDescRsp_4:
        ; Setup parameters for call to function printf
        MOV       R2,#`?<Constant "OutCluster: ">` & 0xff
        MOV       R3,#(`?<Constant "OutCluster: ">` >> 8) & 0xff
        LCALL     `??printf::?relay`; Banked call to: printf
//  541     for (i = 0; i < Rsp.simpleDesc.AppNumOutClusters; i++) {
        MOV       ?V4,#0x0
        SJMP      ??AT_ZDO_ProcessSimpleDescRsp_5
//  542         if(i) printf("            %04X", Rsp.simpleDesc.pAppOutClusterList[i]);
//  543         else printf("%04X",Rsp.simpleDesc.pAppOutClusterList[i]);
??AT_ZDO_ProcessSimpleDescRsp_6:
        ; Setup parameters for call to function printf
        LCALL     ?PUSH_XSTACK8_X_TWO
          CFI CFA_XSP16 add(XSP16, 30)
        MOV       R2,?V0
        MOV       R3,?V1
??AT_ZDO_ProcessSimpleDescRsp_7:
        LCALL     ??Subroutine31_0 & 0xFFFF
??CrossCallReturnLabel_76:
        LCALL     ?DEALLOC_XSTACK8
          CFI CFA_XSP16 add(XSP16, 28)
//  544         if(i < Rsp.simpleDesc.AppNumOutClusters-1) AT_NEXT_LINE();
        MOV       A,#0xc
        LCALL     ?XSTACK_DISP0_8
        MOVX      A,@DPTR
        ADD       A,#-0x1
        MOV       R0,A
        CLR       A
        ADDC      A,#-0x1
        MOV       R1,A
        CLR       C
        MOV       A,?V2
        SUBB      A,R0
        CLR       A
        SUBB      A,R1
        MOV       C,0xD0 /* PSW */.2
        XRL       A,PSW
        RLC       A
        JNC       ??AT_ZDO_ProcessSimpleDescRsp_8
        ; Setup parameters for call to function AT_Uart0_Send
        MOV       R4,#0x2
        MOV       R5,#0x0
        MOV       R2,#`?<Constant "\\r\\n">` & 0xff
        MOV       R3,#(`?<Constant "\\r\\n">` >> 8) & 0xff
        LCALL     `??AT_Uart0_Send::?relay`; Banked call to: AT_Uart0_Send
??AT_ZDO_ProcessSimpleDescRsp_8:
        INC       ?V4
??AT_ZDO_ProcessSimpleDescRsp_5:
        MOV       A,#0xc
        LCALL     ?XSTACK_DISP0_8
        MOVX      A,@DPTR
        MOV       R0,A
        MOV       A,?V4
        CLR       C
        SUBB      A,R0
        JNC       ??AT_ZDO_ProcessSimpleDescRsp_0
        MOV       A,#0xd
        LCALL     ?XSTACK_DISP0_8
        LCALL     ?Subroutine12 & 0xFFFF
??CrossCallReturnLabel_10:
        MOV       ?V2,A
        JZ        ??AT_ZDO_ProcessSimpleDescRsp_6
        ; Setup parameters for call to function printf
        LCALL     ?Subroutine24 & 0xFFFF
//  545     }
//  546   }
??CrossCallReturnLabel_41:
        LCALL     ?PUSH_XSTACK8_X_TWO
          CFI CFA_XSP16 add(XSP16, 30)
        MOV       R2,#`?<Constant "            %04X">` & 0xff
        MOV       R3,#(`?<Constant "            %04X">` >> 8) & 0xff
        SJMP      ??AT_ZDO_ProcessSimpleDescRsp_7
          CFI CFA_XSP16 add(XSP16, 28)
//  547   AT_NEW_LINE();
??AT_ZDO_ProcessSimpleDescRsp_0:
        ; Setup parameters for call to function AT_Uart0_Send
        MOV       R4,#0x2
        MOV       R5,#0x0
        MOV       R2,#`?<Constant "\\r\\n">` & 0xff
        MOV       R3,#(`?<Constant "\\r\\n">` >> 8) & 0xff
        LCALL     `??AT_Uart0_Send::?relay`; Banked call to: AT_Uart0_Send
//  548 }
        MOV       A,#0xf
        LCALL     ?DEALLOC_XSTACK8
          CFI CFA_XSP16 add(XSP16, 13)
        MOV       R7,#0x5
        LJMP      ?BANKED_LEAVE_XDATA
          CFI EndBlock cfiBlock72

        RSEG BANKED_CODE:HUGECODE:NOROOT(0)
?Subroutine24:
          CFI Block cfiCond73 Using cfiCommon0
          CFI Function AT_ZDO_ProcessSimpleDescRsp
          CFI Conditional ??CrossCallReturnLabel_40
          CFI R6 load(1, XDATA, add(CFA_XSP16, literal(-13)))
          CFI VB load(1, XDATA, add(CFA_XSP16, literal(-12)))
          CFI V0 load(1, XDATA, add(CFA_XSP16, literal(-11)))
          CFI V1 load(1, XDATA, add(CFA_XSP16, literal(-10)))
          CFI V2 load(1, XDATA, add(CFA_XSP16, literal(-9)))
          CFI V3 load(1, XDATA, add(CFA_XSP16, literal(-8)))
          CFI V4 load(1, XDATA, add(CFA_XSP16, literal(-7)))
          CFI R7 load(1, XDATA, add(CFA_XSP16, literal(-6)))
          CFI ?RET_LOW load(1, XDATA, add(CFA_XSP16, literal(-5)))
          CFI ?RET_HIGH load(1, XDATA, add(CFA_XSP16, literal(-4)))
          CFI ?BRET_EXT load(1, XDATA, add(CFA_XSP16, literal(-3)))
          CFI DPL0 load(1, XDATA, add(CFA_XSP16, literal(-2)))
          CFI DPH0 load(1, XDATA, add(CFA_XSP16, literal(-1)))
          CFI CFA_SP SP+-2
          CFI CFA_XSP16 add(XSP16, 28)
          CFI Block cfiCond74 Using cfiCommon0
          CFI (cfiCond74) Function AT_ZDO_ProcessSimpleDescRsp
          CFI (cfiCond74) Conditional ??CrossCallReturnLabel_41
          CFI (cfiCond74) R6 load(1, XDATA, add(CFA_XSP16, literal(-13)))
          CFI (cfiCond74) VB load(1, XDATA, add(CFA_XSP16, literal(-12)))
          CFI (cfiCond74) V0 load(1, XDATA, add(CFA_XSP16, literal(-11)))
          CFI (cfiCond74) V1 load(1, XDATA, add(CFA_XSP16, literal(-10)))
          CFI (cfiCond74) V2 load(1, XDATA, add(CFA_XSP16, literal(-9)))
          CFI (cfiCond74) V3 load(1, XDATA, add(CFA_XSP16, literal(-8)))
          CFI (cfiCond74) V4 load(1, XDATA, add(CFA_XSP16, literal(-7)))
          CFI (cfiCond74) R7 load(1, XDATA, add(CFA_XSP16, literal(-6)))
          CFI (cfiCond74) ?RET_LOW load(1, XDATA, add(CFA_XSP16, literal(-5)))
          CFI (cfiCond74) ?RET_HIGH load(1, XDATA, add(CFA_XSP16, literal(-4)))
          CFI (cfiCond74) ?BRET_EXT load(1, XDATA, add(CFA_XSP16, literal(-3)))
          CFI (cfiCond74) DPL0 load(1, XDATA, add(CFA_XSP16, literal(-2)))
          CFI (cfiCond74) DPH0 load(1, XDATA, add(CFA_XSP16, literal(-1)))
          CFI (cfiCond74) CFA_SP SP+-2
          CFI (cfiCond74) CFA_XSP16 add(XSP16, 28)
          CFI Block cfiPicker75 Using cfiCommon1
          CFI (cfiPicker75) NoFunction
          CFI (cfiPicker75) Picker
        ADD       A,0xE0 /* A   */
        MOV       R0,A
        CLR       A
        RLC       A
        MOV       R1,A
        MOV       A,DPL
        ADD       A,R0
        MOV       DPL,A
        MOV       A,DPH
        ADDC      A,R1
        MOV       DPH,A
        RET
          CFI EndBlock cfiCond73
          CFI EndBlock cfiCond74
          CFI EndBlock cfiPicker75

        RSEG BANKED_CODE:HUGECODE:NOROOT(0)
?Subroutine21:
          CFI Block cfiCond76 Using cfiCommon0
          CFI Function AT_ZDO_ProcessMsgCBs
          CFI Conditional ??CrossCallReturnLabel_27
          CFI R6 load(1, XDATA, add(CFA_XSP16, literal(-18)))
          CFI VB load(1, XDATA, add(CFA_XSP16, literal(-17)))
          CFI V0 load(1, XDATA, add(CFA_XSP16, literal(-16)))
          CFI V1 load(1, XDATA, add(CFA_XSP16, literal(-15)))
          CFI V2 load(1, XDATA, add(CFA_XSP16, literal(-14)))
          CFI V3 load(1, XDATA, add(CFA_XSP16, literal(-13)))
          CFI V4 load(1, XDATA, add(CFA_XSP16, literal(-12)))
          CFI V5 load(1, XDATA, add(CFA_XSP16, literal(-11)))
          CFI V6 load(1, XDATA, add(CFA_XSP16, literal(-10)))
          CFI V7 load(1, XDATA, add(CFA_XSP16, literal(-9)))
          CFI V8 load(1, XDATA, add(CFA_XSP16, literal(-8)))
          CFI V9 load(1, XDATA, add(CFA_XSP16, literal(-7)))
          CFI R7 load(1, XDATA, add(CFA_XSP16, literal(-6)))
          CFI ?RET_LOW load(1, XDATA, add(CFA_XSP16, literal(-5)))
          CFI ?RET_HIGH load(1, XDATA, add(CFA_XSP16, literal(-4)))
          CFI ?BRET_EXT load(1, XDATA, add(CFA_XSP16, literal(-3)))
          CFI DPL0 load(1, XDATA, add(CFA_XSP16, literal(-2)))
          CFI DPH0 load(1, XDATA, add(CFA_XSP16, literal(-1)))
          CFI CFA_SP SP+-2
          CFI CFA_XSP16 add(XSP16, 49)
          CFI Block cfiCond77 Using cfiCommon0
          CFI (cfiCond77) Function AT_ZDO_ProcessMsgCBs
          CFI (cfiCond77) Conditional ??CrossCallReturnLabel_28
          CFI (cfiCond77) R6 load(1, XDATA, add(CFA_XSP16, literal(-18)))
          CFI (cfiCond77) VB load(1, XDATA, add(CFA_XSP16, literal(-17)))
          CFI (cfiCond77) V0 load(1, XDATA, add(CFA_XSP16, literal(-16)))
          CFI (cfiCond77) V1 load(1, XDATA, add(CFA_XSP16, literal(-15)))
          CFI (cfiCond77) V2 load(1, XDATA, add(CFA_XSP16, literal(-14)))
          CFI (cfiCond77) V3 load(1, XDATA, add(CFA_XSP16, literal(-13)))
          CFI (cfiCond77) V4 load(1, XDATA, add(CFA_XSP16, literal(-12)))
          CFI (cfiCond77) V5 load(1, XDATA, add(CFA_XSP16, literal(-11)))
          CFI (cfiCond77) V6 load(1, XDATA, add(CFA_XSP16, literal(-10)))
          CFI (cfiCond77) V7 load(1, XDATA, add(CFA_XSP16, literal(-9)))
          CFI (cfiCond77) V8 load(1, XDATA, add(CFA_XSP16, literal(-8)))
          CFI (cfiCond77) V9 load(1, XDATA, add(CFA_XSP16, literal(-7)))
          CFI (cfiCond77) R7 load(1, XDATA, add(CFA_XSP16, literal(-6)))
          CFI (cfiCond77) ?RET_LOW load(1, XDATA, add(CFA_XSP16, literal(-5)))
          CFI (cfiCond77) ?RET_HIGH load(1, XDATA, add(CFA_XSP16, literal(-4)))
          CFI (cfiCond77) ?BRET_EXT load(1, XDATA, add(CFA_XSP16, literal(-3)))
          CFI (cfiCond77) DPL0 load(1, XDATA, add(CFA_XSP16, literal(-2)))
          CFI (cfiCond77) DPH0 load(1, XDATA, add(CFA_XSP16, literal(-1)))
          CFI (cfiCond77) CFA_SP SP+-2
          CFI (cfiCond77) CFA_XSP16 add(XSP16, 49)
          CFI Block cfiCond78 Using cfiCommon0
          CFI (cfiCond78) Function AT_ZDO_ProcessMsgCBs
          CFI (cfiCond78) Conditional ??CrossCallReturnLabel_29
          CFI (cfiCond78) R6 load(1, XDATA, add(CFA_XSP16, literal(-18)))
          CFI (cfiCond78) VB load(1, XDATA, add(CFA_XSP16, literal(-17)))
          CFI (cfiCond78) V0 load(1, XDATA, add(CFA_XSP16, literal(-16)))
          CFI (cfiCond78) V1 load(1, XDATA, add(CFA_XSP16, literal(-15)))
          CFI (cfiCond78) V2 load(1, XDATA, add(CFA_XSP16, literal(-14)))
          CFI (cfiCond78) V3 load(1, XDATA, add(CFA_XSP16, literal(-13)))
          CFI (cfiCond78) V4 load(1, XDATA, add(CFA_XSP16, literal(-12)))
          CFI (cfiCond78) V5 load(1, XDATA, add(CFA_XSP16, literal(-11)))
          CFI (cfiCond78) V6 load(1, XDATA, add(CFA_XSP16, literal(-10)))
          CFI (cfiCond78) V7 load(1, XDATA, add(CFA_XSP16, literal(-9)))
          CFI (cfiCond78) V8 load(1, XDATA, add(CFA_XSP16, literal(-8)))
          CFI (cfiCond78) V9 load(1, XDATA, add(CFA_XSP16, literal(-7)))
          CFI (cfiCond78) R7 load(1, XDATA, add(CFA_XSP16, literal(-6)))
          CFI (cfiCond78) ?RET_LOW load(1, XDATA, add(CFA_XSP16, literal(-5)))
          CFI (cfiCond78) ?RET_HIGH load(1, XDATA, add(CFA_XSP16, literal(-4)))
          CFI (cfiCond78) ?BRET_EXT load(1, XDATA, add(CFA_XSP16, literal(-3)))
          CFI (cfiCond78) DPL0 load(1, XDATA, add(CFA_XSP16, literal(-2)))
          CFI (cfiCond78) DPH0 load(1, XDATA, add(CFA_XSP16, literal(-1)))
          CFI (cfiCond78) CFA_SP SP+-2
          CFI (cfiCond78) CFA_XSP16 add(XSP16, 49)
          CFI Block cfiCond79 Using cfiCommon0
          CFI (cfiCond79) Function AT_ZDO_ProcessMsgCBs
          CFI (cfiCond79) Conditional ??CrossCallReturnLabel_30
          CFI (cfiCond79) R6 load(1, XDATA, add(CFA_XSP16, literal(-18)))
          CFI (cfiCond79) VB load(1, XDATA, add(CFA_XSP16, literal(-17)))
          CFI (cfiCond79) V0 load(1, XDATA, add(CFA_XSP16, literal(-16)))
          CFI (cfiCond79) V1 load(1, XDATA, add(CFA_XSP16, literal(-15)))
          CFI (cfiCond79) V2 load(1, XDATA, add(CFA_XSP16, literal(-14)))
          CFI (cfiCond79) V3 load(1, XDATA, add(CFA_XSP16, literal(-13)))
          CFI (cfiCond79) V4 load(1, XDATA, add(CFA_XSP16, literal(-12)))
          CFI (cfiCond79) V5 load(1, XDATA, add(CFA_XSP16, literal(-11)))
          CFI (cfiCond79) V6 load(1, XDATA, add(CFA_XSP16, literal(-10)))
          CFI (cfiCond79) V7 load(1, XDATA, add(CFA_XSP16, literal(-9)))
          CFI (cfiCond79) V8 load(1, XDATA, add(CFA_XSP16, literal(-8)))
          CFI (cfiCond79) V9 load(1, XDATA, add(CFA_XSP16, literal(-7)))
          CFI (cfiCond79) R7 load(1, XDATA, add(CFA_XSP16, literal(-6)))
          CFI (cfiCond79) ?RET_LOW load(1, XDATA, add(CFA_XSP16, literal(-5)))
          CFI (cfiCond79) ?RET_HIGH load(1, XDATA, add(CFA_XSP16, literal(-4)))
          CFI (cfiCond79) ?BRET_EXT load(1, XDATA, add(CFA_XSP16, literal(-3)))
          CFI (cfiCond79) DPL0 load(1, XDATA, add(CFA_XSP16, literal(-2)))
          CFI (cfiCond79) DPH0 load(1, XDATA, add(CFA_XSP16, literal(-1)))
          CFI (cfiCond79) CFA_SP SP+-2
          CFI (cfiCond79) CFA_XSP16 add(XSP16, 49)
          CFI Block cfiCond80 Using cfiCommon0
          CFI (cfiCond80) Function AT_Cmd_ESCAN_CB
          CFI (cfiCond80) Conditional ??CrossCallReturnLabel_31
          CFI (cfiCond80) R6 load(1, XDATA, add(CFA_XSP16, literal(-16)))
          CFI (cfiCond80) VB load(1, XDATA, add(CFA_XSP16, literal(-15)))
          CFI (cfiCond80) V0 load(1, XDATA, add(CFA_XSP16, literal(-14)))
          CFI (cfiCond80) V1 load(1, XDATA, add(CFA_XSP16, literal(-13)))
          CFI (cfiCond80) V2 load(1, XDATA, add(CFA_XSP16, literal(-12)))
          CFI (cfiCond80) V3 load(1, XDATA, add(CFA_XSP16, literal(-11)))
          CFI (cfiCond80) V4 load(1, XDATA, add(CFA_XSP16, literal(-10)))
          CFI (cfiCond80) V5 load(1, XDATA, add(CFA_XSP16, literal(-9)))
          CFI (cfiCond80) V6 load(1, XDATA, add(CFA_XSP16, literal(-8)))
          CFI (cfiCond80) V7 load(1, XDATA, add(CFA_XSP16, literal(-7)))
          CFI (cfiCond80) R7 load(1, XDATA, add(CFA_XSP16, literal(-6)))
          CFI (cfiCond80) ?RET_LOW load(1, XDATA, add(CFA_XSP16, literal(-5)))
          CFI (cfiCond80) ?RET_HIGH load(1, XDATA, add(CFA_XSP16, literal(-4)))
          CFI (cfiCond80) ?BRET_EXT load(1, XDATA, add(CFA_XSP16, literal(-3)))
          CFI (cfiCond80) DPL0 load(1, XDATA, add(CFA_XSP16, literal(-2)))
          CFI (cfiCond80) DPH0 load(1, XDATA, add(CFA_XSP16, literal(-1)))
          CFI (cfiCond80) CFA_SP SP+-2
          CFI (cfiCond80) CFA_XSP16 add(XSP16, 20)
          CFI Block cfiCond81 Using cfiCommon0
          CFI (cfiCond81) Function AT_ZDO_ProcessPowerDescRsp
          CFI (cfiCond81) Conditional ??CrossCallReturnLabel_32
          CFI (cfiCond81) R6 load(1, XDATA, add(CFA_XSP16, literal(-10)))
          CFI (cfiCond81) VB load(1, XDATA, add(CFA_XSP16, literal(-9)))
          CFI (cfiCond81) V0 load(1, XDATA, add(CFA_XSP16, literal(-8)))
          CFI (cfiCond81) V1 load(1, XDATA, add(CFA_XSP16, literal(-7)))
          CFI (cfiCond81) R7 load(1, XDATA, add(CFA_XSP16, literal(-6)))
          CFI (cfiCond81) ?RET_LOW load(1, XDATA, add(CFA_XSP16, literal(-5)))
          CFI (cfiCond81) ?RET_HIGH load(1, XDATA, add(CFA_XSP16, literal(-4)))
          CFI (cfiCond81) ?BRET_EXT load(1, XDATA, add(CFA_XSP16, literal(-3)))
          CFI (cfiCond81) DPL0 load(1, XDATA, add(CFA_XSP16, literal(-2)))
          CFI (cfiCond81) DPH0 load(1, XDATA, add(CFA_XSP16, literal(-1)))
          CFI (cfiCond81) CFA_SP SP+-2
          CFI (cfiCond81) CFA_XSP16 add(XSP16, 19)
          CFI Block cfiCond82 Using cfiCommon0
          CFI (cfiCond82) Function AT_ZDO_ProcessSimpleDescRsp
          CFI (cfiCond82) Conditional ??CrossCallReturnLabel_33
          CFI (cfiCond82) R6 load(1, XDATA, add(CFA_XSP16, literal(-13)))
          CFI (cfiCond82) VB load(1, XDATA, add(CFA_XSP16, literal(-12)))
          CFI (cfiCond82) V0 load(1, XDATA, add(CFA_XSP16, literal(-11)))
          CFI (cfiCond82) V1 load(1, XDATA, add(CFA_XSP16, literal(-10)))
          CFI (cfiCond82) V2 load(1, XDATA, add(CFA_XSP16, literal(-9)))
          CFI (cfiCond82) V3 load(1, XDATA, add(CFA_XSP16, literal(-8)))
          CFI (cfiCond82) V4 load(1, XDATA, add(CFA_XSP16, literal(-7)))
          CFI (cfiCond82) R7 load(1, XDATA, add(CFA_XSP16, literal(-6)))
          CFI (cfiCond82) ?RET_LOW load(1, XDATA, add(CFA_XSP16, literal(-5)))
          CFI (cfiCond82) ?RET_HIGH load(1, XDATA, add(CFA_XSP16, literal(-4)))
          CFI (cfiCond82) ?BRET_EXT load(1, XDATA, add(CFA_XSP16, literal(-3)))
          CFI (cfiCond82) DPL0 load(1, XDATA, add(CFA_XSP16, literal(-2)))
          CFI (cfiCond82) DPH0 load(1, XDATA, add(CFA_XSP16, literal(-1)))
          CFI (cfiCond82) CFA_SP SP+-2
          CFI (cfiCond82) CFA_XSP16 add(XSP16, 32)
          CFI Block cfiCond83 Using cfiCommon0
          CFI (cfiCond83) Function AT_ZDO_ProcessSimpleDescRsp
          CFI (cfiCond83) Conditional ??CrossCallReturnLabel_34
          CFI (cfiCond83) R6 load(1, XDATA, add(CFA_XSP16, literal(-13)))
          CFI (cfiCond83) VB load(1, XDATA, add(CFA_XSP16, literal(-12)))
          CFI (cfiCond83) V0 load(1, XDATA, add(CFA_XSP16, literal(-11)))
          CFI (cfiCond83) V1 load(1, XDATA, add(CFA_XSP16, literal(-10)))
          CFI (cfiCond83) V2 load(1, XDATA, add(CFA_XSP16, literal(-9)))
          CFI (cfiCond83) V3 load(1, XDATA, add(CFA_XSP16, literal(-8)))
          CFI (cfiCond83) V4 load(1, XDATA, add(CFA_XSP16, literal(-7)))
          CFI (cfiCond83) R7 load(1, XDATA, add(CFA_XSP16, literal(-6)))
          CFI (cfiCond83) ?RET_LOW load(1, XDATA, add(CFA_XSP16, literal(-5)))
          CFI (cfiCond83) ?RET_HIGH load(1, XDATA, add(CFA_XSP16, literal(-4)))
          CFI (cfiCond83) ?BRET_EXT load(1, XDATA, add(CFA_XSP16, literal(-3)))
          CFI (cfiCond83) DPL0 load(1, XDATA, add(CFA_XSP16, literal(-2)))
          CFI (cfiCond83) DPH0 load(1, XDATA, add(CFA_XSP16, literal(-1)))
          CFI (cfiCond83) CFA_SP SP+-2
          CFI (cfiCond83) CFA_XSP16 add(XSP16, 32)
          CFI Block cfiCond84 Using cfiCommon0
          CFI (cfiCond84) Function AT_ZDO_ProcessMgmtLqiRsp
          CFI (cfiCond84) Conditional ??CrossCallReturnLabel_35
          CFI (cfiCond84) R6 load(1, XDATA, add(CFA_XSP16, literal(-24)))
          CFI (cfiCond84) VB load(1, XDATA, add(CFA_XSP16, literal(-23)))
          CFI (cfiCond84) V0 load(1, XDATA, add(CFA_XSP16, literal(-22)))
          CFI (cfiCond84) V1 load(1, XDATA, add(CFA_XSP16, literal(-21)))
          CFI (cfiCond84) V2 load(1, XDATA, add(CFA_XSP16, literal(-20)))
          CFI (cfiCond84) V3 load(1, XDATA, add(CFA_XSP16, literal(-19)))
          CFI (cfiCond84) V4 load(1, XDATA, add(CFA_XSP16, literal(-18)))
          CFI (cfiCond84) V5 load(1, XDATA, add(CFA_XSP16, literal(-17)))
          CFI (cfiCond84) V6 load(1, XDATA, add(CFA_XSP16, literal(-16)))
          CFI (cfiCond84) V7 load(1, XDATA, add(CFA_XSP16, literal(-15)))
          CFI (cfiCond84) V8 load(1, XDATA, add(CFA_XSP16, literal(-14)))
          CFI (cfiCond84) V9 load(1, XDATA, add(CFA_XSP16, literal(-13)))
          CFI (cfiCond84) V10 load(1, XDATA, add(CFA_XSP16, literal(-12)))
          CFI (cfiCond84) V11 load(1, XDATA, add(CFA_XSP16, literal(-11)))
          CFI (cfiCond84) V12 load(1, XDATA, add(CFA_XSP16, literal(-10)))
          CFI (cfiCond84) V13 load(1, XDATA, add(CFA_XSP16, literal(-9)))
          CFI (cfiCond84) V14 load(1, XDATA, add(CFA_XSP16, literal(-8)))
          CFI (cfiCond84) V15 load(1, XDATA, add(CFA_XSP16, literal(-7)))
          CFI (cfiCond84) R7 load(1, XDATA, add(CFA_XSP16, literal(-6)))
          CFI (cfiCond84) ?RET_LOW load(1, XDATA, add(CFA_XSP16, literal(-5)))
          CFI (cfiCond84) ?RET_HIGH load(1, XDATA, add(CFA_XSP16, literal(-4)))
          CFI (cfiCond84) ?BRET_EXT load(1, XDATA, add(CFA_XSP16, literal(-3)))
          CFI (cfiCond84) DPL0 load(1, XDATA, add(CFA_XSP16, literal(-2)))
          CFI (cfiCond84) DPH0 load(1, XDATA, add(CFA_XSP16, literal(-1)))
          CFI (cfiCond84) CFA_SP SP+-2
          CFI (cfiCond84) CFA_XSP16 add(XSP16, 28)
          CFI Block cfiCond85 Using cfiCommon0
          CFI (cfiCond85) Function AT_ZDO_ProcessMgmtRtgRsp
          CFI (cfiCond85) Conditional ??CrossCallReturnLabel_36
          CFI (cfiCond85) R6 load(1, XDATA, add(CFA_XSP16, literal(-14)))
          CFI (cfiCond85) VB load(1, XDATA, add(CFA_XSP16, literal(-13)))
          CFI (cfiCond85) V0 load(1, XDATA, add(CFA_XSP16, literal(-12)))
          CFI (cfiCond85) V1 load(1, XDATA, add(CFA_XSP16, literal(-11)))
          CFI (cfiCond85) V2 load(1, XDATA, add(CFA_XSP16, literal(-10)))
          CFI (cfiCond85) V3 load(1, XDATA, add(CFA_XSP16, literal(-9)))
          CFI (cfiCond85) V4 load(1, XDATA, add(CFA_XSP16, literal(-8)))
          CFI (cfiCond85) V5 load(1, XDATA, add(CFA_XSP16, literal(-7)))
          CFI (cfiCond85) R7 load(1, XDATA, add(CFA_XSP16, literal(-6)))
          CFI (cfiCond85) ?RET_LOW load(1, XDATA, add(CFA_XSP16, literal(-5)))
          CFI (cfiCond85) ?RET_HIGH load(1, XDATA, add(CFA_XSP16, literal(-4)))
          CFI (cfiCond85) ?BRET_EXT load(1, XDATA, add(CFA_XSP16, literal(-3)))
          CFI (cfiCond85) DPL0 load(1, XDATA, add(CFA_XSP16, literal(-2)))
          CFI (cfiCond85) DPH0 load(1, XDATA, add(CFA_XSP16, literal(-1)))
          CFI (cfiCond85) CFA_SP SP+-2
          CFI (cfiCond85) CFA_XSP16 add(XSP16, 18)
          CFI Block cfiCond86 Using cfiCommon0
          CFI (cfiCond86) Function AT_ZDO_ProcessMgmtBindRsp
          CFI (cfiCond86) Conditional ??CrossCallReturnLabel_37
          CFI (cfiCond86) R6 load(1, XDATA, add(CFA_XSP16, literal(-20)))
          CFI (cfiCond86) VB load(1, XDATA, add(CFA_XSP16, literal(-19)))
          CFI (cfiCond86) V0 load(1, XDATA, add(CFA_XSP16, literal(-18)))
          CFI (cfiCond86) V1 load(1, XDATA, add(CFA_XSP16, literal(-17)))
          CFI (cfiCond86) V2 load(1, XDATA, add(CFA_XSP16, literal(-16)))
          CFI (cfiCond86) V3 load(1, XDATA, add(CFA_XSP16, literal(-15)))
          CFI (cfiCond86) V4 load(1, XDATA, add(CFA_XSP16, literal(-14)))
          CFI (cfiCond86) V5 load(1, XDATA, add(CFA_XSP16, literal(-13)))
          CFI (cfiCond86) V6 load(1, XDATA, add(CFA_XSP16, literal(-12)))
          CFI (cfiCond86) V7 load(1, XDATA, add(CFA_XSP16, literal(-11)))
          CFI (cfiCond86) V8 load(1, XDATA, add(CFA_XSP16, literal(-10)))
          CFI (cfiCond86) V9 load(1, XDATA, add(CFA_XSP16, literal(-9)))
          CFI (cfiCond86) V10 load(1, XDATA, add(CFA_XSP16, literal(-8)))
          CFI (cfiCond86) V11 load(1, XDATA, add(CFA_XSP16, literal(-7)))
          CFI (cfiCond86) R7 load(1, XDATA, add(CFA_XSP16, literal(-6)))
          CFI (cfiCond86) ?RET_LOW load(1, XDATA, add(CFA_XSP16, literal(-5)))
          CFI (cfiCond86) ?RET_HIGH load(1, XDATA, add(CFA_XSP16, literal(-4)))
          CFI (cfiCond86) ?BRET_EXT load(1, XDATA, add(CFA_XSP16, literal(-3)))
          CFI (cfiCond86) DPL0 load(1, XDATA, add(CFA_XSP16, literal(-2)))
          CFI (cfiCond86) DPH0 load(1, XDATA, add(CFA_XSP16, literal(-1)))
          CFI (cfiCond86) CFA_SP SP+-2
          CFI (cfiCond86) CFA_XSP16 add(XSP16, 46)
          CFI Block cfiPicker87 Using cfiCommon1
          CFI (cfiPicker87) NoFunction
          CFI (cfiPicker87) Picker
        LCALL     `??printf::?relay`; Banked call to: printf
        MOV       A,#0x4
        RET
          CFI EndBlock cfiCond76
          CFI EndBlock cfiCond77
          CFI EndBlock cfiCond78
          CFI EndBlock cfiCond79
          CFI EndBlock cfiCond80
          CFI EndBlock cfiCond81
          CFI EndBlock cfiCond82
          CFI EndBlock cfiCond83
          CFI EndBlock cfiCond84
          CFI EndBlock cfiCond85
          CFI EndBlock cfiCond86
          CFI EndBlock cfiPicker87
//  549 
//  550 /*******************************************************************************
//  551  * @fn      AT_ZDO_ProcessMatchDescRsp
//  552  *
//  553  * @brief   Prompt: MatchDesc:<NodeID>,<errorcode>,<XX>
//  554  *                  Where <NodeID> is the Remote node's NodeID. In addition all
//  555  *                  endpoints of this node matching the search criterion are listed
//  556  *                  as 8 bit hexadecimal numbers separated by commas.
//  557  *          Note: In case of an error an errorcode other than 00 will be displayed
//  558  *                and the prompt will end after the errorcode
//  559  *
//  560  * @param   inMsg - incoming message (response)
//  561  *
//  562  * @return  None
//  563  ******************************************************************************/
//  564 void AT_ZDO_ProcessMatchDescRsp( zdoIncomingMsg_t *inMsg )
//  565 {
//  566   ZDO_ActiveEndpointRsp_t *pRsp = ZDO_ParseEPListRsp( inMsg );
//  567 
//  568   AT_NEW_LINE();
//  569   printf("MatchDesc:%04X,%02X", pRsp->nwkAddr, pRsp->status);
//  570   if (pRsp->status == ZDP_SUCCESS) {
//  571     uint8 i;
//  572     for (i = 0; i < pRsp->cnt; i++) {
//  573       printf(",%02X", pRsp->epList[i]);
//  574     }
//  575   }
//  576   AT_NEW_LINE();
//  577   osal_mem_free(pRsp);
//  578 }
//  579 
//  580 /*******************************************************************************
//  581  * @fn      AT_ZDO_ProcessAnnceRsp
//  582  *
//  583  * @brief   Prompt: FFD:<EUI64>,<NodeID>
//  584  *          Note: The prompt above will be displayed on all nodes which can
//  585  *                hear the announcement.
//  586  *
//  587  * @param   inMsg - incoming message (response)
//  588  *
//  589  * @return  None
//  590  ******************************************************************************/
//  591 void AT_ZDO_ProcessAnnceRsp( zdoIncomingMsg_t *inMsg )
//  592 {
//  593   ZDO_DeviceAnnce_t Rsp;
//  594   ZDO_ParseDeviceAnnce( inMsg,&Rsp );
//  595 
//  596   uint16* ext= (uint16*) Rsp.extAddr;
//  597   AT_NEW_LINE();
//  598   printf("%s:%04X%04X%04X%04X,%04X",
//  599          ((Rsp.capabilities&0x01) == CAPINFO_ALTPANCOORD) ? "COORD" :
//  600          (((Rsp.capabilities&0x02) == CAPINFO_DEVICETYPE_FFD) ? "FFD" : "RFD")
//  601          ,ext[3],ext[2],ext[1],ext[0],Rsp.nwkAddr);
//  602   AT_NEW_LINE();
//  603 }
//  604 
//  605 /*******************************************************************************
//  606  * @fn      AT_ZDO_ProcessMgmtLqiRsp
//  607  *
//  608  * @brief   Prompt(example)
//  609  *          NTable:<NodeID>,<errorcode>
//  610  *          Length:03
//  611  *          No.| Type | Relation |       EUI        |  ID  | LQI
//  612  *          0. |  FFD |  PARENT  | 000D6F000015896B | BC04 | FF
//  613  *          1. |  FFD |  CHILD   | 000D6F00000B3E77 | 739D | FF
//  614  *          2. |  FFD |  SIBLING | 000D6F00000AAD11 | 75E3 | FF
//  615  *
//  616  * @param   inMsg - incoming message (response)
//  617  *
//  618  * @return  None
//  619  ******************************************************************************/

        RSEG BANKED_CODE:HUGECODE:NOROOT(0)
?Subroutine20:
          CFI Block cfiCond88 Using cfiCommon0
          CFI Function AT_ZDO_ProcessMsgCBs
          CFI Conditional ??CrossCallReturnLabel_61
          CFI R6 load(1, XDATA, add(CFA_XSP16, literal(-18)))
          CFI VB load(1, XDATA, add(CFA_XSP16, literal(-17)))
          CFI V0 load(1, XDATA, add(CFA_XSP16, literal(-16)))
          CFI V1 load(1, XDATA, add(CFA_XSP16, literal(-15)))
          CFI V2 load(1, XDATA, add(CFA_XSP16, literal(-14)))
          CFI V3 load(1, XDATA, add(CFA_XSP16, literal(-13)))
          CFI V4 load(1, XDATA, add(CFA_XSP16, literal(-12)))
          CFI V5 load(1, XDATA, add(CFA_XSP16, literal(-11)))
          CFI V6 load(1, XDATA, add(CFA_XSP16, literal(-10)))
          CFI V7 load(1, XDATA, add(CFA_XSP16, literal(-9)))
          CFI V8 load(1, XDATA, add(CFA_XSP16, literal(-8)))
          CFI V9 load(1, XDATA, add(CFA_XSP16, literal(-7)))
          CFI R7 load(1, XDATA, add(CFA_XSP16, literal(-6)))
          CFI ?RET_LOW load(1, XDATA, add(CFA_XSP16, literal(-5)))
          CFI ?RET_HIGH load(1, XDATA, add(CFA_XSP16, literal(-4)))
          CFI ?BRET_EXT load(1, XDATA, add(CFA_XSP16, literal(-3)))
          CFI DPL0 load(1, XDATA, add(CFA_XSP16, literal(-2)))
          CFI DPH0 load(1, XDATA, add(CFA_XSP16, literal(-1)))
          CFI CFA_SP SP+-2
          CFI CFA_XSP16 add(XSP16, 47)
          CFI Block cfiCond89 Using cfiCommon0
          CFI (cfiCond89) Function AT_ZDO_ProcessMsgCBs
          CFI (cfiCond89) Conditional ??CrossCallReturnLabel_62
          CFI (cfiCond89) R6 load(1, XDATA, add(CFA_XSP16, literal(-18)))
          CFI (cfiCond89) VB load(1, XDATA, add(CFA_XSP16, literal(-17)))
          CFI (cfiCond89) V0 load(1, XDATA, add(CFA_XSP16, literal(-16)))
          CFI (cfiCond89) V1 load(1, XDATA, add(CFA_XSP16, literal(-15)))
          CFI (cfiCond89) V2 load(1, XDATA, add(CFA_XSP16, literal(-14)))
          CFI (cfiCond89) V3 load(1, XDATA, add(CFA_XSP16, literal(-13)))
          CFI (cfiCond89) V4 load(1, XDATA, add(CFA_XSP16, literal(-12)))
          CFI (cfiCond89) V5 load(1, XDATA, add(CFA_XSP16, literal(-11)))
          CFI (cfiCond89) V6 load(1, XDATA, add(CFA_XSP16, literal(-10)))
          CFI (cfiCond89) V7 load(1, XDATA, add(CFA_XSP16, literal(-9)))
          CFI (cfiCond89) V8 load(1, XDATA, add(CFA_XSP16, literal(-8)))
          CFI (cfiCond89) V9 load(1, XDATA, add(CFA_XSP16, literal(-7)))
          CFI (cfiCond89) R7 load(1, XDATA, add(CFA_XSP16, literal(-6)))
          CFI (cfiCond89) ?RET_LOW load(1, XDATA, add(CFA_XSP16, literal(-5)))
          CFI (cfiCond89) ?RET_HIGH load(1, XDATA, add(CFA_XSP16, literal(-4)))
          CFI (cfiCond89) ?BRET_EXT load(1, XDATA, add(CFA_XSP16, literal(-3)))
          CFI (cfiCond89) DPL0 load(1, XDATA, add(CFA_XSP16, literal(-2)))
          CFI (cfiCond89) DPH0 load(1, XDATA, add(CFA_XSP16, literal(-1)))
          CFI (cfiCond89) CFA_SP SP+-2
          CFI (cfiCond89) CFA_XSP16 add(XSP16, 47)
          CFI Block cfiCond90 Using cfiCommon0
          CFI (cfiCond90) Function AT_ZDO_ProcessMgmtLqiRsp
          CFI (cfiCond90) Conditional ??CrossCallReturnLabel_63
          CFI (cfiCond90) R6 load(1, XDATA, add(CFA_XSP16, literal(-24)))
          CFI (cfiCond90) VB load(1, XDATA, add(CFA_XSP16, literal(-23)))
          CFI (cfiCond90) V0 load(1, XDATA, add(CFA_XSP16, literal(-22)))
          CFI (cfiCond90) V1 load(1, XDATA, add(CFA_XSP16, literal(-21)))
          CFI (cfiCond90) V2 load(1, XDATA, add(CFA_XSP16, literal(-20)))
          CFI (cfiCond90) V3 load(1, XDATA, add(CFA_XSP16, literal(-19)))
          CFI (cfiCond90) V4 load(1, XDATA, add(CFA_XSP16, literal(-18)))
          CFI (cfiCond90) V5 load(1, XDATA, add(CFA_XSP16, literal(-17)))
          CFI (cfiCond90) V6 load(1, XDATA, add(CFA_XSP16, literal(-16)))
          CFI (cfiCond90) V7 load(1, XDATA, add(CFA_XSP16, literal(-15)))
          CFI (cfiCond90) V8 load(1, XDATA, add(CFA_XSP16, literal(-14)))
          CFI (cfiCond90) V9 load(1, XDATA, add(CFA_XSP16, literal(-13)))
          CFI (cfiCond90) V10 load(1, XDATA, add(CFA_XSP16, literal(-12)))
          CFI (cfiCond90) V11 load(1, XDATA, add(CFA_XSP16, literal(-11)))
          CFI (cfiCond90) V12 load(1, XDATA, add(CFA_XSP16, literal(-10)))
          CFI (cfiCond90) V13 load(1, XDATA, add(CFA_XSP16, literal(-9)))
          CFI (cfiCond90) V14 load(1, XDATA, add(CFA_XSP16, literal(-8)))
          CFI (cfiCond90) V15 load(1, XDATA, add(CFA_XSP16, literal(-7)))
          CFI (cfiCond90) R7 load(1, XDATA, add(CFA_XSP16, literal(-6)))
          CFI (cfiCond90) ?RET_LOW load(1, XDATA, add(CFA_XSP16, literal(-5)))
          CFI (cfiCond90) ?RET_HIGH load(1, XDATA, add(CFA_XSP16, literal(-4)))
          CFI (cfiCond90) ?BRET_EXT load(1, XDATA, add(CFA_XSP16, literal(-3)))
          CFI (cfiCond90) DPL0 load(1, XDATA, add(CFA_XSP16, literal(-2)))
          CFI (cfiCond90) DPH0 load(1, XDATA, add(CFA_XSP16, literal(-1)))
          CFI (cfiCond90) CFA_SP SP+-2
          CFI (cfiCond90) CFA_XSP16 add(XSP16, 26)
          CFI Block cfiPicker91 Using cfiCommon1
          CFI (cfiPicker91) NoFunction
          CFI (cfiPicker91) Picker
        MOV       R2,?V6
        MOV       R3,?V7
          CFI EndBlock cfiCond88
          CFI EndBlock cfiCond89
          CFI EndBlock cfiCond90
          CFI EndBlock cfiPicker91
        REQUIRE ??Subroutine31_0
        ; // Fall through to label ??Subroutine31_0

        RSEG BANKED_CODE:HUGECODE:NOROOT(0)
??Subroutine31_0:
          CFI Block cfiCond92 Using cfiCommon0
          CFI Function AT_ZDO_ProcessMsgCBs
          CFI Conditional ??CrossCallReturnLabel_64
          CFI R6 load(1, XDATA, add(CFA_XSP16, literal(-18)))
          CFI VB load(1, XDATA, add(CFA_XSP16, literal(-17)))
          CFI V0 load(1, XDATA, add(CFA_XSP16, literal(-16)))
          CFI V1 load(1, XDATA, add(CFA_XSP16, literal(-15)))
          CFI V2 load(1, XDATA, add(CFA_XSP16, literal(-14)))
          CFI V3 load(1, XDATA, add(CFA_XSP16, literal(-13)))
          CFI V4 load(1, XDATA, add(CFA_XSP16, literal(-12)))
          CFI V5 load(1, XDATA, add(CFA_XSP16, literal(-11)))
          CFI V6 load(1, XDATA, add(CFA_XSP16, literal(-10)))
          CFI V7 load(1, XDATA, add(CFA_XSP16, literal(-9)))
          CFI V8 load(1, XDATA, add(CFA_XSP16, literal(-8)))
          CFI V9 load(1, XDATA, add(CFA_XSP16, literal(-7)))
          CFI R7 load(1, XDATA, add(CFA_XSP16, literal(-6)))
          CFI ?RET_LOW load(1, XDATA, add(CFA_XSP16, literal(-5)))
          CFI ?RET_HIGH load(1, XDATA, add(CFA_XSP16, literal(-4)))
          CFI ?BRET_EXT load(1, XDATA, add(CFA_XSP16, literal(-3)))
          CFI DPL0 load(1, XDATA, add(CFA_XSP16, literal(-2)))
          CFI DPH0 load(1, XDATA, add(CFA_XSP16, literal(-1)))
          CFI CFA_SP SP+-2
          CFI CFA_XSP16 add(XSP16, 47)
          CFI Block cfiCond93 Using cfiCommon0
          CFI (cfiCond93) Function AT_ZDO_ProcessMsgCBs
          CFI (cfiCond93) Conditional ??CrossCallReturnLabel_65
          CFI (cfiCond93) R6 load(1, XDATA, add(CFA_XSP16, literal(-18)))
          CFI (cfiCond93) VB load(1, XDATA, add(CFA_XSP16, literal(-17)))
          CFI (cfiCond93) V0 load(1, XDATA, add(CFA_XSP16, literal(-16)))
          CFI (cfiCond93) V1 load(1, XDATA, add(CFA_XSP16, literal(-15)))
          CFI (cfiCond93) V2 load(1, XDATA, add(CFA_XSP16, literal(-14)))
          CFI (cfiCond93) V3 load(1, XDATA, add(CFA_XSP16, literal(-13)))
          CFI (cfiCond93) V4 load(1, XDATA, add(CFA_XSP16, literal(-12)))
          CFI (cfiCond93) V5 load(1, XDATA, add(CFA_XSP16, literal(-11)))
          CFI (cfiCond93) V6 load(1, XDATA, add(CFA_XSP16, literal(-10)))
          CFI (cfiCond93) V7 load(1, XDATA, add(CFA_XSP16, literal(-9)))
          CFI (cfiCond93) V8 load(1, XDATA, add(CFA_XSP16, literal(-8)))
          CFI (cfiCond93) V9 load(1, XDATA, add(CFA_XSP16, literal(-7)))
          CFI (cfiCond93) R7 load(1, XDATA, add(CFA_XSP16, literal(-6)))
          CFI (cfiCond93) ?RET_LOW load(1, XDATA, add(CFA_XSP16, literal(-5)))
          CFI (cfiCond93) ?RET_HIGH load(1, XDATA, add(CFA_XSP16, literal(-4)))
          CFI (cfiCond93) ?BRET_EXT load(1, XDATA, add(CFA_XSP16, literal(-3)))
          CFI (cfiCond93) DPL0 load(1, XDATA, add(CFA_XSP16, literal(-2)))
          CFI (cfiCond93) DPH0 load(1, XDATA, add(CFA_XSP16, literal(-1)))
          CFI (cfiCond93) CFA_SP SP+-2
          CFI (cfiCond93) CFA_XSP16 add(XSP16, 47)
          CFI Block cfiCond94 Using cfiCommon0
          CFI (cfiCond94) Function AT_ZDO_ProcessMsgCBs
          CFI (cfiCond94) Conditional ??CrossCallReturnLabel_66
          CFI (cfiCond94) R6 load(1, XDATA, add(CFA_XSP16, literal(-18)))
          CFI (cfiCond94) VB load(1, XDATA, add(CFA_XSP16, literal(-17)))
          CFI (cfiCond94) V0 load(1, XDATA, add(CFA_XSP16, literal(-16)))
          CFI (cfiCond94) V1 load(1, XDATA, add(CFA_XSP16, literal(-15)))
          CFI (cfiCond94) V2 load(1, XDATA, add(CFA_XSP16, literal(-14)))
          CFI (cfiCond94) V3 load(1, XDATA, add(CFA_XSP16, literal(-13)))
          CFI (cfiCond94) V4 load(1, XDATA, add(CFA_XSP16, literal(-12)))
          CFI (cfiCond94) V5 load(1, XDATA, add(CFA_XSP16, literal(-11)))
          CFI (cfiCond94) V6 load(1, XDATA, add(CFA_XSP16, literal(-10)))
          CFI (cfiCond94) V7 load(1, XDATA, add(CFA_XSP16, literal(-9)))
          CFI (cfiCond94) V8 load(1, XDATA, add(CFA_XSP16, literal(-8)))
          CFI (cfiCond94) V9 load(1, XDATA, add(CFA_XSP16, literal(-7)))
          CFI (cfiCond94) R7 load(1, XDATA, add(CFA_XSP16, literal(-6)))
          CFI (cfiCond94) ?RET_LOW load(1, XDATA, add(CFA_XSP16, literal(-5)))
          CFI (cfiCond94) ?RET_HIGH load(1, XDATA, add(CFA_XSP16, literal(-4)))
          CFI (cfiCond94) ?BRET_EXT load(1, XDATA, add(CFA_XSP16, literal(-3)))
          CFI (cfiCond94) DPL0 load(1, XDATA, add(CFA_XSP16, literal(-2)))
          CFI (cfiCond94) DPH0 load(1, XDATA, add(CFA_XSP16, literal(-1)))
          CFI (cfiCond94) CFA_SP SP+-2
          CFI (cfiCond94) CFA_XSP16 add(XSP16, 47)
          CFI Block cfiCond95 Using cfiCommon0
          CFI (cfiCond95) Function AT_ZDO_ProcessMsgCBs
          CFI (cfiCond95) Conditional ??CrossCallReturnLabel_67
          CFI (cfiCond95) R6 load(1, XDATA, add(CFA_XSP16, literal(-18)))
          CFI (cfiCond95) VB load(1, XDATA, add(CFA_XSP16, literal(-17)))
          CFI (cfiCond95) V0 load(1, XDATA, add(CFA_XSP16, literal(-16)))
          CFI (cfiCond95) V1 load(1, XDATA, add(CFA_XSP16, literal(-15)))
          CFI (cfiCond95) V2 load(1, XDATA, add(CFA_XSP16, literal(-14)))
          CFI (cfiCond95) V3 load(1, XDATA, add(CFA_XSP16, literal(-13)))
          CFI (cfiCond95) V4 load(1, XDATA, add(CFA_XSP16, literal(-12)))
          CFI (cfiCond95) V5 load(1, XDATA, add(CFA_XSP16, literal(-11)))
          CFI (cfiCond95) V6 load(1, XDATA, add(CFA_XSP16, literal(-10)))
          CFI (cfiCond95) V7 load(1, XDATA, add(CFA_XSP16, literal(-9)))
          CFI (cfiCond95) V8 load(1, XDATA, add(CFA_XSP16, literal(-8)))
          CFI (cfiCond95) V9 load(1, XDATA, add(CFA_XSP16, literal(-7)))
          CFI (cfiCond95) R7 load(1, XDATA, add(CFA_XSP16, literal(-6)))
          CFI (cfiCond95) ?RET_LOW load(1, XDATA, add(CFA_XSP16, literal(-5)))
          CFI (cfiCond95) ?RET_HIGH load(1, XDATA, add(CFA_XSP16, literal(-4)))
          CFI (cfiCond95) ?BRET_EXT load(1, XDATA, add(CFA_XSP16, literal(-3)))
          CFI (cfiCond95) DPL0 load(1, XDATA, add(CFA_XSP16, literal(-2)))
          CFI (cfiCond95) DPH0 load(1, XDATA, add(CFA_XSP16, literal(-1)))
          CFI (cfiCond95) CFA_SP SP+-2
          CFI (cfiCond95) CFA_XSP16 add(XSP16, 47)
          CFI Block cfiCond96 Using cfiCommon0
          CFI (cfiCond96) Function AT_Cmd_ProcessDataConfirm
          CFI (cfiCond96) Conditional ??CrossCallReturnLabel_68
          CFI (cfiCond96) R6 load(1, XDATA, add(CFA_XSP16, literal(-10)))
          CFI (cfiCond96) VB load(1, XDATA, add(CFA_XSP16, literal(-9)))
          CFI (cfiCond96) V0 load(1, XDATA, add(CFA_XSP16, literal(-8)))
          CFI (cfiCond96) V1 load(1, XDATA, add(CFA_XSP16, literal(-7)))
          CFI (cfiCond96) R7 load(1, XDATA, add(CFA_XSP16, literal(-6)))
          CFI (cfiCond96) ?RET_LOW load(1, XDATA, add(CFA_XSP16, literal(-5)))
          CFI (cfiCond96) ?RET_HIGH load(1, XDATA, add(CFA_XSP16, literal(-4)))
          CFI (cfiCond96) ?BRET_EXT load(1, XDATA, add(CFA_XSP16, literal(-3)))
          CFI (cfiCond96) DPL0 load(1, XDATA, add(CFA_XSP16, literal(-2)))
          CFI (cfiCond96) DPH0 load(1, XDATA, add(CFA_XSP16, literal(-1)))
          CFI (cfiCond96) CFA_SP SP+-2
          CFI (cfiCond96) CFA_XSP16 add(XSP16, 12)
          CFI Block cfiCond97 Using cfiCommon0
          CFI (cfiCond97) Function AT_ZDO_ProcessPowerDescRsp
          CFI (cfiCond97) Conditional ??CrossCallReturnLabel_69
          CFI (cfiCond97) R6 load(1, XDATA, add(CFA_XSP16, literal(-10)))
          CFI (cfiCond97) VB load(1, XDATA, add(CFA_XSP16, literal(-9)))
          CFI (cfiCond97) V0 load(1, XDATA, add(CFA_XSP16, literal(-8)))
          CFI (cfiCond97) V1 load(1, XDATA, add(CFA_XSP16, literal(-7)))
          CFI (cfiCond97) R7 load(1, XDATA, add(CFA_XSP16, literal(-6)))
          CFI (cfiCond97) ?RET_LOW load(1, XDATA, add(CFA_XSP16, literal(-5)))
          CFI (cfiCond97) ?RET_HIGH load(1, XDATA, add(CFA_XSP16, literal(-4)))
          CFI (cfiCond97) ?BRET_EXT load(1, XDATA, add(CFA_XSP16, literal(-3)))
          CFI (cfiCond97) DPL0 load(1, XDATA, add(CFA_XSP16, literal(-2)))
          CFI (cfiCond97) DPH0 load(1, XDATA, add(CFA_XSP16, literal(-1)))
          CFI (cfiCond97) CFA_SP SP+-2
          CFI (cfiCond97) CFA_XSP16 add(XSP16, 17)
          CFI Block cfiCond98 Using cfiCommon0
          CFI (cfiCond98) Function AT_ZDO_ProcessPowerDescRsp
          CFI (cfiCond98) Conditional ??CrossCallReturnLabel_70
          CFI (cfiCond98) R6 load(1, XDATA, add(CFA_XSP16, literal(-10)))
          CFI (cfiCond98) VB load(1, XDATA, add(CFA_XSP16, literal(-9)))
          CFI (cfiCond98) V0 load(1, XDATA, add(CFA_XSP16, literal(-8)))
          CFI (cfiCond98) V1 load(1, XDATA, add(CFA_XSP16, literal(-7)))
          CFI (cfiCond98) R7 load(1, XDATA, add(CFA_XSP16, literal(-6)))
          CFI (cfiCond98) ?RET_LOW load(1, XDATA, add(CFA_XSP16, literal(-5)))
          CFI (cfiCond98) ?RET_HIGH load(1, XDATA, add(CFA_XSP16, literal(-4)))
          CFI (cfiCond98) ?BRET_EXT load(1, XDATA, add(CFA_XSP16, literal(-3)))
          CFI (cfiCond98) DPL0 load(1, XDATA, add(CFA_XSP16, literal(-2)))
          CFI (cfiCond98) DPH0 load(1, XDATA, add(CFA_XSP16, literal(-1)))
          CFI (cfiCond98) CFA_SP SP+-2
          CFI (cfiCond98) CFA_XSP16 add(XSP16, 17)
          CFI Block cfiCond99 Using cfiCommon0
          CFI (cfiCond99) Function AT_ZDO_ProcessPowerDescRsp
          CFI (cfiCond99) Conditional ??CrossCallReturnLabel_71
          CFI (cfiCond99) R6 load(1, XDATA, add(CFA_XSP16, literal(-10)))
          CFI (cfiCond99) VB load(1, XDATA, add(CFA_XSP16, literal(-9)))
          CFI (cfiCond99) V0 load(1, XDATA, add(CFA_XSP16, literal(-8)))
          CFI (cfiCond99) V1 load(1, XDATA, add(CFA_XSP16, literal(-7)))
          CFI (cfiCond99) R7 load(1, XDATA, add(CFA_XSP16, literal(-6)))
          CFI (cfiCond99) ?RET_LOW load(1, XDATA, add(CFA_XSP16, literal(-5)))
          CFI (cfiCond99) ?RET_HIGH load(1, XDATA, add(CFA_XSP16, literal(-4)))
          CFI (cfiCond99) ?BRET_EXT load(1, XDATA, add(CFA_XSP16, literal(-3)))
          CFI (cfiCond99) DPL0 load(1, XDATA, add(CFA_XSP16, literal(-2)))
          CFI (cfiCond99) DPH0 load(1, XDATA, add(CFA_XSP16, literal(-1)))
          CFI (cfiCond99) CFA_SP SP+-2
          CFI (cfiCond99) CFA_XSP16 add(XSP16, 17)
          CFI Block cfiCond100 Using cfiCommon0
          CFI (cfiCond100) Function AT_ZDO_ProcessPowerDescRsp
          CFI (cfiCond100) Conditional ??CrossCallReturnLabel_72
          CFI (cfiCond100) R6 load(1, XDATA, add(CFA_XSP16, literal(-10)))
          CFI (cfiCond100) VB load(1, XDATA, add(CFA_XSP16, literal(-9)))
          CFI (cfiCond100) V0 load(1, XDATA, add(CFA_XSP16, literal(-8)))
          CFI (cfiCond100) V1 load(1, XDATA, add(CFA_XSP16, literal(-7)))
          CFI (cfiCond100) R7 load(1, XDATA, add(CFA_XSP16, literal(-6)))
          CFI (cfiCond100) ?RET_LOW load(1, XDATA, add(CFA_XSP16, literal(-5)))
          CFI (cfiCond100) ?RET_HIGH load(1, XDATA, add(CFA_XSP16, literal(-4)))
          CFI (cfiCond100) ?BRET_EXT load(1, XDATA, add(CFA_XSP16, literal(-3)))
          CFI (cfiCond100) DPL0 load(1, XDATA, add(CFA_XSP16, literal(-2)))
          CFI (cfiCond100) DPH0 load(1, XDATA, add(CFA_XSP16, literal(-1)))
          CFI (cfiCond100) CFA_SP SP+-2
          CFI (cfiCond100) CFA_XSP16 add(XSP16, 17)
          CFI Block cfiCond101 Using cfiCommon0
          CFI (cfiCond101) Function AT_ZDO_ProcessSimpleDescRsp
          CFI (cfiCond101) Conditional ??CrossCallReturnLabel_73
          CFI (cfiCond101) R6 load(1, XDATA, add(CFA_XSP16, literal(-13)))
          CFI (cfiCond101) VB load(1, XDATA, add(CFA_XSP16, literal(-12)))
          CFI (cfiCond101) V0 load(1, XDATA, add(CFA_XSP16, literal(-11)))
          CFI (cfiCond101) V1 load(1, XDATA, add(CFA_XSP16, literal(-10)))
          CFI (cfiCond101) V2 load(1, XDATA, add(CFA_XSP16, literal(-9)))
          CFI (cfiCond101) V3 load(1, XDATA, add(CFA_XSP16, literal(-8)))
          CFI (cfiCond101) V4 load(1, XDATA, add(CFA_XSP16, literal(-7)))
          CFI (cfiCond101) R7 load(1, XDATA, add(CFA_XSP16, literal(-6)))
          CFI (cfiCond101) ?RET_LOW load(1, XDATA, add(CFA_XSP16, literal(-5)))
          CFI (cfiCond101) ?RET_HIGH load(1, XDATA, add(CFA_XSP16, literal(-4)))
          CFI (cfiCond101) ?BRET_EXT load(1, XDATA, add(CFA_XSP16, literal(-3)))
          CFI (cfiCond101) DPL0 load(1, XDATA, add(CFA_XSP16, literal(-2)))
          CFI (cfiCond101) DPH0 load(1, XDATA, add(CFA_XSP16, literal(-1)))
          CFI (cfiCond101) CFA_SP SP+-2
          CFI (cfiCond101) CFA_XSP16 add(XSP16, 30)
          CFI Block cfiCond102 Using cfiCommon0
          CFI (cfiCond102) Function AT_ZDO_ProcessSimpleDescRsp
          CFI (cfiCond102) Conditional ??CrossCallReturnLabel_74
          CFI (cfiCond102) R6 load(1, XDATA, add(CFA_XSP16, literal(-13)))
          CFI (cfiCond102) VB load(1, XDATA, add(CFA_XSP16, literal(-12)))
          CFI (cfiCond102) V0 load(1, XDATA, add(CFA_XSP16, literal(-11)))
          CFI (cfiCond102) V1 load(1, XDATA, add(CFA_XSP16, literal(-10)))
          CFI (cfiCond102) V2 load(1, XDATA, add(CFA_XSP16, literal(-9)))
          CFI (cfiCond102) V3 load(1, XDATA, add(CFA_XSP16, literal(-8)))
          CFI (cfiCond102) V4 load(1, XDATA, add(CFA_XSP16, literal(-7)))
          CFI (cfiCond102) R7 load(1, XDATA, add(CFA_XSP16, literal(-6)))
          CFI (cfiCond102) ?RET_LOW load(1, XDATA, add(CFA_XSP16, literal(-5)))
          CFI (cfiCond102) ?RET_HIGH load(1, XDATA, add(CFA_XSP16, literal(-4)))
          CFI (cfiCond102) ?BRET_EXT load(1, XDATA, add(CFA_XSP16, literal(-3)))
          CFI (cfiCond102) DPL0 load(1, XDATA, add(CFA_XSP16, literal(-2)))
          CFI (cfiCond102) DPH0 load(1, XDATA, add(CFA_XSP16, literal(-1)))
          CFI (cfiCond102) CFA_SP SP+-2
          CFI (cfiCond102) CFA_XSP16 add(XSP16, 30)
          CFI Block cfiCond103 Using cfiCommon0
          CFI (cfiCond103) Function AT_ZDO_ProcessSimpleDescRsp
          CFI (cfiCond103) Conditional ??CrossCallReturnLabel_75
          CFI (cfiCond103) R6 load(1, XDATA, add(CFA_XSP16, literal(-13)))
          CFI (cfiCond103) VB load(1, XDATA, add(CFA_XSP16, literal(-12)))
          CFI (cfiCond103) V0 load(1, XDATA, add(CFA_XSP16, literal(-11)))
          CFI (cfiCond103) V1 load(1, XDATA, add(CFA_XSP16, literal(-10)))
          CFI (cfiCond103) V2 load(1, XDATA, add(CFA_XSP16, literal(-9)))
          CFI (cfiCond103) V3 load(1, XDATA, add(CFA_XSP16, literal(-8)))
          CFI (cfiCond103) V4 load(1, XDATA, add(CFA_XSP16, literal(-7)))
          CFI (cfiCond103) R7 load(1, XDATA, add(CFA_XSP16, literal(-6)))
          CFI (cfiCond103) ?RET_LOW load(1, XDATA, add(CFA_XSP16, literal(-5)))
          CFI (cfiCond103) ?RET_HIGH load(1, XDATA, add(CFA_XSP16, literal(-4)))
          CFI (cfiCond103) ?BRET_EXT load(1, XDATA, add(CFA_XSP16, literal(-3)))
          CFI (cfiCond103) DPL0 load(1, XDATA, add(CFA_XSP16, literal(-2)))
          CFI (cfiCond103) DPH0 load(1, XDATA, add(CFA_XSP16, literal(-1)))
          CFI (cfiCond103) CFA_SP SP+-2
          CFI (cfiCond103) CFA_XSP16 add(XSP16, 30)
          CFI Block cfiCond104 Using cfiCommon0
          CFI (cfiCond104) Function AT_ZDO_ProcessSimpleDescRsp
          CFI (cfiCond104) Conditional ??CrossCallReturnLabel_76
          CFI (cfiCond104) R6 load(1, XDATA, add(CFA_XSP16, literal(-13)))
          CFI (cfiCond104) VB load(1, XDATA, add(CFA_XSP16, literal(-12)))
          CFI (cfiCond104) V0 load(1, XDATA, add(CFA_XSP16, literal(-11)))
          CFI (cfiCond104) V1 load(1, XDATA, add(CFA_XSP16, literal(-10)))
          CFI (cfiCond104) V2 load(1, XDATA, add(CFA_XSP16, literal(-9)))
          CFI (cfiCond104) V3 load(1, XDATA, add(CFA_XSP16, literal(-8)))
          CFI (cfiCond104) V4 load(1, XDATA, add(CFA_XSP16, literal(-7)))
          CFI (cfiCond104) R7 load(1, XDATA, add(CFA_XSP16, literal(-6)))
          CFI (cfiCond104) ?RET_LOW load(1, XDATA, add(CFA_XSP16, literal(-5)))
          CFI (cfiCond104) ?RET_HIGH load(1, XDATA, add(CFA_XSP16, literal(-4)))
          CFI (cfiCond104) ?BRET_EXT load(1, XDATA, add(CFA_XSP16, literal(-3)))
          CFI (cfiCond104) DPL0 load(1, XDATA, add(CFA_XSP16, literal(-2)))
          CFI (cfiCond104) DPH0 load(1, XDATA, add(CFA_XSP16, literal(-1)))
          CFI (cfiCond104) CFA_SP SP+-2
          CFI (cfiCond104) CFA_XSP16 add(XSP16, 30)
          CFI Block cfiCond105 Using cfiCommon0
          CFI (cfiCond105) Function AT_ZDO_ProcessMgmtLqiRsp
          CFI (cfiCond105) Conditional ??CrossCallReturnLabel_77
          CFI (cfiCond105) R6 load(1, XDATA, add(CFA_XSP16, literal(-24)))
          CFI (cfiCond105) VB load(1, XDATA, add(CFA_XSP16, literal(-23)))
          CFI (cfiCond105) V0 load(1, XDATA, add(CFA_XSP16, literal(-22)))
          CFI (cfiCond105) V1 load(1, XDATA, add(CFA_XSP16, literal(-21)))
          CFI (cfiCond105) V2 load(1, XDATA, add(CFA_XSP16, literal(-20)))
          CFI (cfiCond105) V3 load(1, XDATA, add(CFA_XSP16, literal(-19)))
          CFI (cfiCond105) V4 load(1, XDATA, add(CFA_XSP16, literal(-18)))
          CFI (cfiCond105) V5 load(1, XDATA, add(CFA_XSP16, literal(-17)))
          CFI (cfiCond105) V6 load(1, XDATA, add(CFA_XSP16, literal(-16)))
          CFI (cfiCond105) V7 load(1, XDATA, add(CFA_XSP16, literal(-15)))
          CFI (cfiCond105) V8 load(1, XDATA, add(CFA_XSP16, literal(-14)))
          CFI (cfiCond105) V9 load(1, XDATA, add(CFA_XSP16, literal(-13)))
          CFI (cfiCond105) V10 load(1, XDATA, add(CFA_XSP16, literal(-12)))
          CFI (cfiCond105) V11 load(1, XDATA, add(CFA_XSP16, literal(-11)))
          CFI (cfiCond105) V12 load(1, XDATA, add(CFA_XSP16, literal(-10)))
          CFI (cfiCond105) V13 load(1, XDATA, add(CFA_XSP16, literal(-9)))
          CFI (cfiCond105) V14 load(1, XDATA, add(CFA_XSP16, literal(-8)))
          CFI (cfiCond105) V15 load(1, XDATA, add(CFA_XSP16, literal(-7)))
          CFI (cfiCond105) R7 load(1, XDATA, add(CFA_XSP16, literal(-6)))
          CFI (cfiCond105) ?RET_LOW load(1, XDATA, add(CFA_XSP16, literal(-5)))
          CFI (cfiCond105) ?RET_HIGH load(1, XDATA, add(CFA_XSP16, literal(-4)))
          CFI (cfiCond105) ?BRET_EXT load(1, XDATA, add(CFA_XSP16, literal(-3)))
          CFI (cfiCond105) DPL0 load(1, XDATA, add(CFA_XSP16, literal(-2)))
          CFI (cfiCond105) DPH0 load(1, XDATA, add(CFA_XSP16, literal(-1)))
          CFI (cfiCond105) CFA_SP SP+-2
          CFI (cfiCond105) CFA_XSP16 add(XSP16, 26)
          CFI Block cfiCond106 Using cfiCommon0
          CFI (cfiCond106) Function AT_ZDO_ProcessMgmtLqiRsp
          CFI (cfiCond106) Conditional ??CrossCallReturnLabel_78
          CFI (cfiCond106) R6 load(1, XDATA, add(CFA_XSP16, literal(-24)))
          CFI (cfiCond106) VB load(1, XDATA, add(CFA_XSP16, literal(-23)))
          CFI (cfiCond106) V0 load(1, XDATA, add(CFA_XSP16, literal(-22)))
          CFI (cfiCond106) V1 load(1, XDATA, add(CFA_XSP16, literal(-21)))
          CFI (cfiCond106) V2 load(1, XDATA, add(CFA_XSP16, literal(-20)))
          CFI (cfiCond106) V3 load(1, XDATA, add(CFA_XSP16, literal(-19)))
          CFI (cfiCond106) V4 load(1, XDATA, add(CFA_XSP16, literal(-18)))
          CFI (cfiCond106) V5 load(1, XDATA, add(CFA_XSP16, literal(-17)))
          CFI (cfiCond106) V6 load(1, XDATA, add(CFA_XSP16, literal(-16)))
          CFI (cfiCond106) V7 load(1, XDATA, add(CFA_XSP16, literal(-15)))
          CFI (cfiCond106) V8 load(1, XDATA, add(CFA_XSP16, literal(-14)))
          CFI (cfiCond106) V9 load(1, XDATA, add(CFA_XSP16, literal(-13)))
          CFI (cfiCond106) V10 load(1, XDATA, add(CFA_XSP16, literal(-12)))
          CFI (cfiCond106) V11 load(1, XDATA, add(CFA_XSP16, literal(-11)))
          CFI (cfiCond106) V12 load(1, XDATA, add(CFA_XSP16, literal(-10)))
          CFI (cfiCond106) V13 load(1, XDATA, add(CFA_XSP16, literal(-9)))
          CFI (cfiCond106) V14 load(1, XDATA, add(CFA_XSP16, literal(-8)))
          CFI (cfiCond106) V15 load(1, XDATA, add(CFA_XSP16, literal(-7)))
          CFI (cfiCond106) R7 load(1, XDATA, add(CFA_XSP16, literal(-6)))
          CFI (cfiCond106) ?RET_LOW load(1, XDATA, add(CFA_XSP16, literal(-5)))
          CFI (cfiCond106) ?RET_HIGH load(1, XDATA, add(CFA_XSP16, literal(-4)))
          CFI (cfiCond106) ?BRET_EXT load(1, XDATA, add(CFA_XSP16, literal(-3)))
          CFI (cfiCond106) DPL0 load(1, XDATA, add(CFA_XSP16, literal(-2)))
          CFI (cfiCond106) DPH0 load(1, XDATA, add(CFA_XSP16, literal(-1)))
          CFI (cfiCond106) CFA_SP SP+-2
          CFI (cfiCond106) CFA_XSP16 add(XSP16, 26)
          CFI Block cfiCond107 Using cfiCommon0
          CFI (cfiCond107) Function AT_ZDO_ProcessMgmtLqiRsp
          CFI (cfiCond107) Conditional ??CrossCallReturnLabel_79
          CFI (cfiCond107) R6 load(1, XDATA, add(CFA_XSP16, literal(-24)))
          CFI (cfiCond107) VB load(1, XDATA, add(CFA_XSP16, literal(-23)))
          CFI (cfiCond107) V0 load(1, XDATA, add(CFA_XSP16, literal(-22)))
          CFI (cfiCond107) V1 load(1, XDATA, add(CFA_XSP16, literal(-21)))
          CFI (cfiCond107) V2 load(1, XDATA, add(CFA_XSP16, literal(-20)))
          CFI (cfiCond107) V3 load(1, XDATA, add(CFA_XSP16, literal(-19)))
          CFI (cfiCond107) V4 load(1, XDATA, add(CFA_XSP16, literal(-18)))
          CFI (cfiCond107) V5 load(1, XDATA, add(CFA_XSP16, literal(-17)))
          CFI (cfiCond107) V6 load(1, XDATA, add(CFA_XSP16, literal(-16)))
          CFI (cfiCond107) V7 load(1, XDATA, add(CFA_XSP16, literal(-15)))
          CFI (cfiCond107) V8 load(1, XDATA, add(CFA_XSP16, literal(-14)))
          CFI (cfiCond107) V9 load(1, XDATA, add(CFA_XSP16, literal(-13)))
          CFI (cfiCond107) V10 load(1, XDATA, add(CFA_XSP16, literal(-12)))
          CFI (cfiCond107) V11 load(1, XDATA, add(CFA_XSP16, literal(-11)))
          CFI (cfiCond107) V12 load(1, XDATA, add(CFA_XSP16, literal(-10)))
          CFI (cfiCond107) V13 load(1, XDATA, add(CFA_XSP16, literal(-9)))
          CFI (cfiCond107) V14 load(1, XDATA, add(CFA_XSP16, literal(-8)))
          CFI (cfiCond107) V15 load(1, XDATA, add(CFA_XSP16, literal(-7)))
          CFI (cfiCond107) R7 load(1, XDATA, add(CFA_XSP16, literal(-6)))
          CFI (cfiCond107) ?RET_LOW load(1, XDATA, add(CFA_XSP16, literal(-5)))
          CFI (cfiCond107) ?RET_HIGH load(1, XDATA, add(CFA_XSP16, literal(-4)))
          CFI (cfiCond107) ?BRET_EXT load(1, XDATA, add(CFA_XSP16, literal(-3)))
          CFI (cfiCond107) DPL0 load(1, XDATA, add(CFA_XSP16, literal(-2)))
          CFI (cfiCond107) DPH0 load(1, XDATA, add(CFA_XSP16, literal(-1)))
          CFI (cfiCond107) CFA_SP SP+-2
          CFI (cfiCond107) CFA_XSP16 add(XSP16, 26)
          CFI Block cfiCond108 Using cfiCommon0
          CFI (cfiCond108) Function AT_ZDO_ProcessMgmtRtgRsp
          CFI (cfiCond108) Conditional ??CrossCallReturnLabel_80
          CFI (cfiCond108) R6 load(1, XDATA, add(CFA_XSP16, literal(-14)))
          CFI (cfiCond108) VB load(1, XDATA, add(CFA_XSP16, literal(-13)))
          CFI (cfiCond108) V0 load(1, XDATA, add(CFA_XSP16, literal(-12)))
          CFI (cfiCond108) V1 load(1, XDATA, add(CFA_XSP16, literal(-11)))
          CFI (cfiCond108) V2 load(1, XDATA, add(CFA_XSP16, literal(-10)))
          CFI (cfiCond108) V3 load(1, XDATA, add(CFA_XSP16, literal(-9)))
          CFI (cfiCond108) V4 load(1, XDATA, add(CFA_XSP16, literal(-8)))
          CFI (cfiCond108) V5 load(1, XDATA, add(CFA_XSP16, literal(-7)))
          CFI (cfiCond108) R7 load(1, XDATA, add(CFA_XSP16, literal(-6)))
          CFI (cfiCond108) ?RET_LOW load(1, XDATA, add(CFA_XSP16, literal(-5)))
          CFI (cfiCond108) ?RET_HIGH load(1, XDATA, add(CFA_XSP16, literal(-4)))
          CFI (cfiCond108) ?BRET_EXT load(1, XDATA, add(CFA_XSP16, literal(-3)))
          CFI (cfiCond108) DPL0 load(1, XDATA, add(CFA_XSP16, literal(-2)))
          CFI (cfiCond108) DPH0 load(1, XDATA, add(CFA_XSP16, literal(-1)))
          CFI (cfiCond108) CFA_SP SP+-2
          CFI (cfiCond108) CFA_XSP16 add(XSP16, 16)
          CFI Block cfiCond109 Using cfiCommon0
          CFI (cfiCond109) Function AT_ZDO_ProcessMgmtBindRsp
          CFI (cfiCond109) Conditional ??CrossCallReturnLabel_81
          CFI (cfiCond109) R6 load(1, XDATA, add(CFA_XSP16, literal(-20)))
          CFI (cfiCond109) VB load(1, XDATA, add(CFA_XSP16, literal(-19)))
          CFI (cfiCond109) V0 load(1, XDATA, add(CFA_XSP16, literal(-18)))
          CFI (cfiCond109) V1 load(1, XDATA, add(CFA_XSP16, literal(-17)))
          CFI (cfiCond109) V2 load(1, XDATA, add(CFA_XSP16, literal(-16)))
          CFI (cfiCond109) V3 load(1, XDATA, add(CFA_XSP16, literal(-15)))
          CFI (cfiCond109) V4 load(1, XDATA, add(CFA_XSP16, literal(-14)))
          CFI (cfiCond109) V5 load(1, XDATA, add(CFA_XSP16, literal(-13)))
          CFI (cfiCond109) V6 load(1, XDATA, add(CFA_XSP16, literal(-12)))
          CFI (cfiCond109) V7 load(1, XDATA, add(CFA_XSP16, literal(-11)))
          CFI (cfiCond109) V8 load(1, XDATA, add(CFA_XSP16, literal(-10)))
          CFI (cfiCond109) V9 load(1, XDATA, add(CFA_XSP16, literal(-9)))
          CFI (cfiCond109) V10 load(1, XDATA, add(CFA_XSP16, literal(-8)))
          CFI (cfiCond109) V11 load(1, XDATA, add(CFA_XSP16, literal(-7)))
          CFI (cfiCond109) R7 load(1, XDATA, add(CFA_XSP16, literal(-6)))
          CFI (cfiCond109) ?RET_LOW load(1, XDATA, add(CFA_XSP16, literal(-5)))
          CFI (cfiCond109) ?RET_HIGH load(1, XDATA, add(CFA_XSP16, literal(-4)))
          CFI (cfiCond109) ?BRET_EXT load(1, XDATA, add(CFA_XSP16, literal(-3)))
          CFI (cfiCond109) DPL0 load(1, XDATA, add(CFA_XSP16, literal(-2)))
          CFI (cfiCond109) DPH0 load(1, XDATA, add(CFA_XSP16, literal(-1)))
          CFI (cfiCond109) CFA_SP SP+-2
          CFI (cfiCond109) CFA_XSP16 add(XSP16, 44)
          CFI Block cfiCond110 Using cfiCommon0
          CFI (cfiCond110) Function AT_ZDO_ProcessMsgCBs
          CFI (cfiCond110) Conditional ??CrossCallReturnLabel_61
          CFI (cfiCond110) R6 load(1, XDATA, add(CFA_XSP16, literal(-18)))
          CFI (cfiCond110) VB load(1, XDATA, add(CFA_XSP16, literal(-17)))
          CFI (cfiCond110) V0 load(1, XDATA, add(CFA_XSP16, literal(-16)))
          CFI (cfiCond110) V1 load(1, XDATA, add(CFA_XSP16, literal(-15)))
          CFI (cfiCond110) V2 load(1, XDATA, add(CFA_XSP16, literal(-14)))
          CFI (cfiCond110) V3 load(1, XDATA, add(CFA_XSP16, literal(-13)))
          CFI (cfiCond110) V4 load(1, XDATA, add(CFA_XSP16, literal(-12)))
          CFI (cfiCond110) V5 load(1, XDATA, add(CFA_XSP16, literal(-11)))
          CFI (cfiCond110) V6 load(1, XDATA, add(CFA_XSP16, literal(-10)))
          CFI (cfiCond110) V7 load(1, XDATA, add(CFA_XSP16, literal(-9)))
          CFI (cfiCond110) V8 load(1, XDATA, add(CFA_XSP16, literal(-8)))
          CFI (cfiCond110) V9 load(1, XDATA, add(CFA_XSP16, literal(-7)))
          CFI (cfiCond110) R7 load(1, XDATA, add(CFA_XSP16, literal(-6)))
          CFI (cfiCond110) ?RET_LOW load(1, XDATA, add(CFA_XSP16, literal(-5)))
          CFI (cfiCond110) ?RET_HIGH load(1, XDATA, add(CFA_XSP16, literal(-4)))
          CFI (cfiCond110) ?BRET_EXT load(1, XDATA, add(CFA_XSP16, literal(-3)))
          CFI (cfiCond110) DPL0 load(1, XDATA, add(CFA_XSP16, literal(-2)))
          CFI (cfiCond110) DPH0 load(1, XDATA, add(CFA_XSP16, literal(-1)))
          CFI (cfiCond110) CFA_SP SP+-2
          CFI (cfiCond110) CFA_XSP16 add(XSP16, 47)
          CFI Block cfiCond111 Using cfiCommon0
          CFI (cfiCond111) Function AT_ZDO_ProcessMsgCBs
          CFI (cfiCond111) Conditional ??CrossCallReturnLabel_62
          CFI (cfiCond111) R6 load(1, XDATA, add(CFA_XSP16, literal(-18)))
          CFI (cfiCond111) VB load(1, XDATA, add(CFA_XSP16, literal(-17)))
          CFI (cfiCond111) V0 load(1, XDATA, add(CFA_XSP16, literal(-16)))
          CFI (cfiCond111) V1 load(1, XDATA, add(CFA_XSP16, literal(-15)))
          CFI (cfiCond111) V2 load(1, XDATA, add(CFA_XSP16, literal(-14)))
          CFI (cfiCond111) V3 load(1, XDATA, add(CFA_XSP16, literal(-13)))
          CFI (cfiCond111) V4 load(1, XDATA, add(CFA_XSP16, literal(-12)))
          CFI (cfiCond111) V5 load(1, XDATA, add(CFA_XSP16, literal(-11)))
          CFI (cfiCond111) V6 load(1, XDATA, add(CFA_XSP16, literal(-10)))
          CFI (cfiCond111) V7 load(1, XDATA, add(CFA_XSP16, literal(-9)))
          CFI (cfiCond111) V8 load(1, XDATA, add(CFA_XSP16, literal(-8)))
          CFI (cfiCond111) V9 load(1, XDATA, add(CFA_XSP16, literal(-7)))
          CFI (cfiCond111) R7 load(1, XDATA, add(CFA_XSP16, literal(-6)))
          CFI (cfiCond111) ?RET_LOW load(1, XDATA, add(CFA_XSP16, literal(-5)))
          CFI (cfiCond111) ?RET_HIGH load(1, XDATA, add(CFA_XSP16, literal(-4)))
          CFI (cfiCond111) ?BRET_EXT load(1, XDATA, add(CFA_XSP16, literal(-3)))
          CFI (cfiCond111) DPL0 load(1, XDATA, add(CFA_XSP16, literal(-2)))
          CFI (cfiCond111) DPH0 load(1, XDATA, add(CFA_XSP16, literal(-1)))
          CFI (cfiCond111) CFA_SP SP+-2
          CFI (cfiCond111) CFA_XSP16 add(XSP16, 47)
          CFI Block cfiCond112 Using cfiCommon0
          CFI (cfiCond112) Function AT_ZDO_ProcessMgmtLqiRsp
          CFI (cfiCond112) Conditional ??CrossCallReturnLabel_63
          CFI (cfiCond112) R6 load(1, XDATA, add(CFA_XSP16, literal(-24)))
          CFI (cfiCond112) VB load(1, XDATA, add(CFA_XSP16, literal(-23)))
          CFI (cfiCond112) V0 load(1, XDATA, add(CFA_XSP16, literal(-22)))
          CFI (cfiCond112) V1 load(1, XDATA, add(CFA_XSP16, literal(-21)))
          CFI (cfiCond112) V2 load(1, XDATA, add(CFA_XSP16, literal(-20)))
          CFI (cfiCond112) V3 load(1, XDATA, add(CFA_XSP16, literal(-19)))
          CFI (cfiCond112) V4 load(1, XDATA, add(CFA_XSP16, literal(-18)))
          CFI (cfiCond112) V5 load(1, XDATA, add(CFA_XSP16, literal(-17)))
          CFI (cfiCond112) V6 load(1, XDATA, add(CFA_XSP16, literal(-16)))
          CFI (cfiCond112) V7 load(1, XDATA, add(CFA_XSP16, literal(-15)))
          CFI (cfiCond112) V8 load(1, XDATA, add(CFA_XSP16, literal(-14)))
          CFI (cfiCond112) V9 load(1, XDATA, add(CFA_XSP16, literal(-13)))
          CFI (cfiCond112) V10 load(1, XDATA, add(CFA_XSP16, literal(-12)))
          CFI (cfiCond112) V11 load(1, XDATA, add(CFA_XSP16, literal(-11)))
          CFI (cfiCond112) V12 load(1, XDATA, add(CFA_XSP16, literal(-10)))
          CFI (cfiCond112) V13 load(1, XDATA, add(CFA_XSP16, literal(-9)))
          CFI (cfiCond112) V14 load(1, XDATA, add(CFA_XSP16, literal(-8)))
          CFI (cfiCond112) V15 load(1, XDATA, add(CFA_XSP16, literal(-7)))
          CFI (cfiCond112) R7 load(1, XDATA, add(CFA_XSP16, literal(-6)))
          CFI (cfiCond112) ?RET_LOW load(1, XDATA, add(CFA_XSP16, literal(-5)))
          CFI (cfiCond112) ?RET_HIGH load(1, XDATA, add(CFA_XSP16, literal(-4)))
          CFI (cfiCond112) ?BRET_EXT load(1, XDATA, add(CFA_XSP16, literal(-3)))
          CFI (cfiCond112) DPL0 load(1, XDATA, add(CFA_XSP16, literal(-2)))
          CFI (cfiCond112) DPH0 load(1, XDATA, add(CFA_XSP16, literal(-1)))
          CFI (cfiCond112) CFA_SP SP+-2
          CFI (cfiCond112) CFA_XSP16 add(XSP16, 26)
          CFI Block cfiPicker113 Using cfiCommon1
          CFI (cfiPicker113) NoFunction
          CFI (cfiPicker113) Picker
        LCALL     `??printf::?relay`; Banked call to: printf
        MOV       A,#0x2
        RET
          CFI EndBlock cfiCond92
          CFI EndBlock cfiCond93
          CFI EndBlock cfiCond94
          CFI EndBlock cfiCond95
          CFI EndBlock cfiCond96
          CFI EndBlock cfiCond97
          CFI EndBlock cfiCond98
          CFI EndBlock cfiCond99
          CFI EndBlock cfiCond100
          CFI EndBlock cfiCond101
          CFI EndBlock cfiCond102
          CFI EndBlock cfiCond103
          CFI EndBlock cfiCond104
          CFI EndBlock cfiCond105
          CFI EndBlock cfiCond106
          CFI EndBlock cfiCond107
          CFI EndBlock cfiCond108
          CFI EndBlock cfiCond109
          CFI EndBlock cfiCond110
          CFI EndBlock cfiCond111
          CFI EndBlock cfiCond112
          CFI EndBlock cfiPicker113

        RSEG BANKED_CODE:HUGECODE:NOROOT(0)
?Subroutine18:
          CFI Block cfiCond114 Using cfiCommon0
          CFI Function AT_ZDO_ProcessPowerDescRsp
          CFI Conditional ??CrossCallReturnLabel_22
          CFI R6 load(1, XDATA, add(CFA_XSP16, literal(-10)))
          CFI VB load(1, XDATA, add(CFA_XSP16, literal(-9)))
          CFI V0 load(1, XDATA, add(CFA_XSP16, literal(-8)))
          CFI V1 load(1, XDATA, add(CFA_XSP16, literal(-7)))
          CFI R7 load(1, XDATA, add(CFA_XSP16, literal(-6)))
          CFI ?RET_LOW load(1, XDATA, add(CFA_XSP16, literal(-5)))
          CFI ?RET_HIGH load(1, XDATA, add(CFA_XSP16, literal(-4)))
          CFI ?BRET_EXT load(1, XDATA, add(CFA_XSP16, literal(-3)))
          CFI DPL0 load(1, XDATA, add(CFA_XSP16, literal(-2)))
          CFI DPH0 load(1, XDATA, add(CFA_XSP16, literal(-1)))
          CFI CFA_SP SP+-2
          CFI CFA_XSP16 add(XSP16, 15)
          CFI Block cfiCond115 Using cfiCommon0
          CFI (cfiCond115) Function AT_ZDO_ProcessPowerDescRsp
          CFI (cfiCond115) Conditional ??CrossCallReturnLabel_23
          CFI (cfiCond115) R6 load(1, XDATA, add(CFA_XSP16, literal(-10)))
          CFI (cfiCond115) VB load(1, XDATA, add(CFA_XSP16, literal(-9)))
          CFI (cfiCond115) V0 load(1, XDATA, add(CFA_XSP16, literal(-8)))
          CFI (cfiCond115) V1 load(1, XDATA, add(CFA_XSP16, literal(-7)))
          CFI (cfiCond115) R7 load(1, XDATA, add(CFA_XSP16, literal(-6)))
          CFI (cfiCond115) ?RET_LOW load(1, XDATA, add(CFA_XSP16, literal(-5)))
          CFI (cfiCond115) ?RET_HIGH load(1, XDATA, add(CFA_XSP16, literal(-4)))
          CFI (cfiCond115) ?BRET_EXT load(1, XDATA, add(CFA_XSP16, literal(-3)))
          CFI (cfiCond115) DPL0 load(1, XDATA, add(CFA_XSP16, literal(-2)))
          CFI (cfiCond115) DPH0 load(1, XDATA, add(CFA_XSP16, literal(-1)))
          CFI (cfiCond115) CFA_SP SP+-2
          CFI (cfiCond115) CFA_XSP16 add(XSP16, 15)
          CFI Block cfiCond116 Using cfiCommon0
          CFI (cfiCond116) Function AT_ZDO_ProcessPowerDescRsp
          CFI (cfiCond116) Conditional ??CrossCallReturnLabel_24
          CFI (cfiCond116) R6 load(1, XDATA, add(CFA_XSP16, literal(-10)))
          CFI (cfiCond116) VB load(1, XDATA, add(CFA_XSP16, literal(-9)))
          CFI (cfiCond116) V0 load(1, XDATA, add(CFA_XSP16, literal(-8)))
          CFI (cfiCond116) V1 load(1, XDATA, add(CFA_XSP16, literal(-7)))
          CFI (cfiCond116) R7 load(1, XDATA, add(CFA_XSP16, literal(-6)))
          CFI (cfiCond116) ?RET_LOW load(1, XDATA, add(CFA_XSP16, literal(-5)))
          CFI (cfiCond116) ?RET_HIGH load(1, XDATA, add(CFA_XSP16, literal(-4)))
          CFI (cfiCond116) ?BRET_EXT load(1, XDATA, add(CFA_XSP16, literal(-3)))
          CFI (cfiCond116) DPL0 load(1, XDATA, add(CFA_XSP16, literal(-2)))
          CFI (cfiCond116) DPH0 load(1, XDATA, add(CFA_XSP16, literal(-1)))
          CFI (cfiCond116) CFA_SP SP+-2
          CFI (cfiCond116) CFA_XSP16 add(XSP16, 15)
          CFI Block cfiCond117 Using cfiCommon0
          CFI (cfiCond117) Function AT_ZDO_ProcessPowerDescRsp
          CFI (cfiCond117) Conditional ??CrossCallReturnLabel_25
          CFI (cfiCond117) R6 load(1, XDATA, add(CFA_XSP16, literal(-10)))
          CFI (cfiCond117) VB load(1, XDATA, add(CFA_XSP16, literal(-9)))
          CFI (cfiCond117) V0 load(1, XDATA, add(CFA_XSP16, literal(-8)))
          CFI (cfiCond117) V1 load(1, XDATA, add(CFA_XSP16, literal(-7)))
          CFI (cfiCond117) R7 load(1, XDATA, add(CFA_XSP16, literal(-6)))
          CFI (cfiCond117) ?RET_LOW load(1, XDATA, add(CFA_XSP16, literal(-5)))
          CFI (cfiCond117) ?RET_HIGH load(1, XDATA, add(CFA_XSP16, literal(-4)))
          CFI (cfiCond117) ?BRET_EXT load(1, XDATA, add(CFA_XSP16, literal(-3)))
          CFI (cfiCond117) DPL0 load(1, XDATA, add(CFA_XSP16, literal(-2)))
          CFI (cfiCond117) DPH0 load(1, XDATA, add(CFA_XSP16, literal(-1)))
          CFI (cfiCond117) CFA_SP SP+-2
          CFI (cfiCond117) CFA_XSP16 add(XSP16, 15)
          CFI Block cfiCond118 Using cfiCommon0
          CFI (cfiCond118) Function AT_ZDO_ProcessSimpleDescRsp
          CFI (cfiCond118) Conditional ??CrossCallReturnLabel_26
          CFI (cfiCond118) R6 load(1, XDATA, add(CFA_XSP16, literal(-13)))
          CFI (cfiCond118) VB load(1, XDATA, add(CFA_XSP16, literal(-12)))
          CFI (cfiCond118) V0 load(1, XDATA, add(CFA_XSP16, literal(-11)))
          CFI (cfiCond118) V1 load(1, XDATA, add(CFA_XSP16, literal(-10)))
          CFI (cfiCond118) V2 load(1, XDATA, add(CFA_XSP16, literal(-9)))
          CFI (cfiCond118) V3 load(1, XDATA, add(CFA_XSP16, literal(-8)))
          CFI (cfiCond118) V4 load(1, XDATA, add(CFA_XSP16, literal(-7)))
          CFI (cfiCond118) R7 load(1, XDATA, add(CFA_XSP16, literal(-6)))
          CFI (cfiCond118) ?RET_LOW load(1, XDATA, add(CFA_XSP16, literal(-5)))
          CFI (cfiCond118) ?RET_HIGH load(1, XDATA, add(CFA_XSP16, literal(-4)))
          CFI (cfiCond118) ?BRET_EXT load(1, XDATA, add(CFA_XSP16, literal(-3)))
          CFI (cfiCond118) DPL0 load(1, XDATA, add(CFA_XSP16, literal(-2)))
          CFI (cfiCond118) DPH0 load(1, XDATA, add(CFA_XSP16, literal(-1)))
          CFI (cfiCond118) CFA_SP SP+-2
          CFI (cfiCond118) CFA_XSP16 add(XSP16, 28)
          CFI Block cfiPicker119 Using cfiCommon1
          CFI (cfiPicker119) NoFunction
          CFI (cfiPicker119) Picker
        MOV       R4,#0x2
        MOV       R5,#0x0
        MOV       R2,#`?<Constant "\\r\\n">` & 0xff
        MOV       R3,#(`?<Constant "\\r\\n">` >> 8) & 0xff
        LCALL     `??AT_Uart0_Send::?relay`; Banked call to: AT_Uart0_Send
        ; Setup parameters for call to function printf
        ; Setup parameters for call to function printf
        ; Setup parameters for call to function printf
        ; Setup parameters for call to function printf
        ; Setup parameters for call to function printf
        MOV       A,#0x3
        RET
          CFI EndBlock cfiCond114
          CFI EndBlock cfiCond115
          CFI EndBlock cfiCond116
          CFI EndBlock cfiCond117
          CFI EndBlock cfiCond118
          CFI EndBlock cfiPicker119

        RSEG BANKED_CODE:HUGECODE:NOROOT(0)
?Subroutine12:
          CFI Block cfiCond120 Using cfiCommon0
          CFI Function AT_ZDO_ProcessSimpleDescRsp
          CFI Conditional ??CrossCallReturnLabel_9
          CFI R6 load(1, XDATA, add(CFA_XSP16, literal(-13)))
          CFI VB load(1, XDATA, add(CFA_XSP16, literal(-12)))
          CFI V0 load(1, XDATA, add(CFA_XSP16, literal(-11)))
          CFI V1 load(1, XDATA, add(CFA_XSP16, literal(-10)))
          CFI V2 load(1, XDATA, add(CFA_XSP16, literal(-9)))
          CFI V3 load(1, XDATA, add(CFA_XSP16, literal(-8)))
          CFI V4 load(1, XDATA, add(CFA_XSP16, literal(-7)))
          CFI R7 load(1, XDATA, add(CFA_XSP16, literal(-6)))
          CFI ?RET_LOW load(1, XDATA, add(CFA_XSP16, literal(-5)))
          CFI ?RET_HIGH load(1, XDATA, add(CFA_XSP16, literal(-4)))
          CFI ?BRET_EXT load(1, XDATA, add(CFA_XSP16, literal(-3)))
          CFI DPL0 load(1, XDATA, add(CFA_XSP16, literal(-2)))
          CFI DPH0 load(1, XDATA, add(CFA_XSP16, literal(-1)))
          CFI CFA_SP SP+-2
          CFI CFA_XSP16 add(XSP16, 28)
          CFI Block cfiCond121 Using cfiCommon0
          CFI (cfiCond121) Function AT_ZDO_ProcessSimpleDescRsp
          CFI (cfiCond121) Conditional ??CrossCallReturnLabel_10
          CFI (cfiCond121) R6 load(1, XDATA, add(CFA_XSP16, literal(-13)))
          CFI (cfiCond121) VB load(1, XDATA, add(CFA_XSP16, literal(-12)))
          CFI (cfiCond121) V0 load(1, XDATA, add(CFA_XSP16, literal(-11)))
          CFI (cfiCond121) V1 load(1, XDATA, add(CFA_XSP16, literal(-10)))
          CFI (cfiCond121) V2 load(1, XDATA, add(CFA_XSP16, literal(-9)))
          CFI (cfiCond121) V3 load(1, XDATA, add(CFA_XSP16, literal(-8)))
          CFI (cfiCond121) V4 load(1, XDATA, add(CFA_XSP16, literal(-7)))
          CFI (cfiCond121) R7 load(1, XDATA, add(CFA_XSP16, literal(-6)))
          CFI (cfiCond121) ?RET_LOW load(1, XDATA, add(CFA_XSP16, literal(-5)))
          CFI (cfiCond121) ?RET_HIGH load(1, XDATA, add(CFA_XSP16, literal(-4)))
          CFI (cfiCond121) ?BRET_EXT load(1, XDATA, add(CFA_XSP16, literal(-3)))
          CFI (cfiCond121) DPL0 load(1, XDATA, add(CFA_XSP16, literal(-2)))
          CFI (cfiCond121) DPH0 load(1, XDATA, add(CFA_XSP16, literal(-1)))
          CFI (cfiCond121) CFA_SP SP+-2
          CFI (cfiCond121) CFA_XSP16 add(XSP16, 28)
          CFI Block cfiPicker122 Using cfiCommon1
          CFI (cfiPicker122) NoFunction
          CFI (cfiPicker122) Picker
        MOVX      A,@DPTR
        MOV       R0,A
        INC       DPTR
        MOVX      A,@DPTR
        MOV       DPL,R0
        MOV       DPH,A
        MOV       A,?V4
        RET
          CFI EndBlock cfiCond120
          CFI EndBlock cfiCond121
          CFI EndBlock cfiPicker122

        RSEG BANKED_CODE:HUGECODE:NOROOT(0)
?Subroutine11:
          CFI Block cfiCond123 Using cfiCommon0
          CFI Function AT_ZDO_ProcessPowerDescRsp
          CFI Conditional ??CrossCallReturnLabel_6
          CFI R6 load(1, XDATA, add(CFA_XSP16, literal(-10)))
          CFI VB load(1, XDATA, add(CFA_XSP16, literal(-9)))
          CFI V0 load(1, XDATA, add(CFA_XSP16, literal(-8)))
          CFI V1 load(1, XDATA, add(CFA_XSP16, literal(-7)))
          CFI R7 load(1, XDATA, add(CFA_XSP16, literal(-6)))
          CFI ?RET_LOW load(1, XDATA, add(CFA_XSP16, literal(-5)))
          CFI ?RET_HIGH load(1, XDATA, add(CFA_XSP16, literal(-4)))
          CFI ?BRET_EXT load(1, XDATA, add(CFA_XSP16, literal(-3)))
          CFI DPL0 load(1, XDATA, add(CFA_XSP16, literal(-2)))
          CFI DPH0 load(1, XDATA, add(CFA_XSP16, literal(-1)))
          CFI CFA_SP SP+-2
          CFI CFA_XSP16 add(XSP16, 15)
          CFI Block cfiCond124 Using cfiCommon0
          CFI (cfiCond124) Function AT_ZDO_ProcessPowerDescRsp
          CFI (cfiCond124) Conditional ??CrossCallReturnLabel_7
          CFI (cfiCond124) R6 load(1, XDATA, add(CFA_XSP16, literal(-10)))
          CFI (cfiCond124) VB load(1, XDATA, add(CFA_XSP16, literal(-9)))
          CFI (cfiCond124) V0 load(1, XDATA, add(CFA_XSP16, literal(-8)))
          CFI (cfiCond124) V1 load(1, XDATA, add(CFA_XSP16, literal(-7)))
          CFI (cfiCond124) R7 load(1, XDATA, add(CFA_XSP16, literal(-6)))
          CFI (cfiCond124) ?RET_LOW load(1, XDATA, add(CFA_XSP16, literal(-5)))
          CFI (cfiCond124) ?RET_HIGH load(1, XDATA, add(CFA_XSP16, literal(-4)))
          CFI (cfiCond124) ?BRET_EXT load(1, XDATA, add(CFA_XSP16, literal(-3)))
          CFI (cfiCond124) DPL0 load(1, XDATA, add(CFA_XSP16, literal(-2)))
          CFI (cfiCond124) DPH0 load(1, XDATA, add(CFA_XSP16, literal(-1)))
          CFI (cfiCond124) CFA_SP SP+-2
          CFI (cfiCond124) CFA_XSP16 add(XSP16, 15)
          CFI Block cfiCond125 Using cfiCommon0
          CFI (cfiCond125) Function AT_ZDO_ProcessSimpleDescRsp
          CFI (cfiCond125) Conditional ??CrossCallReturnLabel_8
          CFI (cfiCond125) R6 load(1, XDATA, add(CFA_XSP16, literal(-13)))
          CFI (cfiCond125) VB load(1, XDATA, add(CFA_XSP16, literal(-12)))
          CFI (cfiCond125) V0 load(1, XDATA, add(CFA_XSP16, literal(-11)))
          CFI (cfiCond125) V1 load(1, XDATA, add(CFA_XSP16, literal(-10)))
          CFI (cfiCond125) V2 load(1, XDATA, add(CFA_XSP16, literal(-9)))
          CFI (cfiCond125) V3 load(1, XDATA, add(CFA_XSP16, literal(-8)))
          CFI (cfiCond125) V4 load(1, XDATA, add(CFA_XSP16, literal(-7)))
          CFI (cfiCond125) R7 load(1, XDATA, add(CFA_XSP16, literal(-6)))
          CFI (cfiCond125) ?RET_LOW load(1, XDATA, add(CFA_XSP16, literal(-5)))
          CFI (cfiCond125) ?RET_HIGH load(1, XDATA, add(CFA_XSP16, literal(-4)))
          CFI (cfiCond125) ?BRET_EXT load(1, XDATA, add(CFA_XSP16, literal(-3)))
          CFI (cfiCond125) DPL0 load(1, XDATA, add(CFA_XSP16, literal(-2)))
          CFI (cfiCond125) DPH0 load(1, XDATA, add(CFA_XSP16, literal(-1)))
          CFI (cfiCond125) CFA_SP SP+-2
          CFI (cfiCond125) CFA_XSP16 add(XSP16, 28)
          CFI Block cfiPicker126 Using cfiCommon1
          CFI (cfiPicker126) NoFunction
          CFI (cfiPicker126) Picker
        MOVX      A,@DPTR
        ANL       A,#0xf
        MOV       ?V0,A
        MOV       R0,#?V0
        RET
          CFI EndBlock cfiCond123
          CFI EndBlock cfiCond124
          CFI EndBlock cfiCond125
          CFI EndBlock cfiPicker126

        RSEG BANKED_CODE:HUGECODE:NOROOT(0)
//  620 void AT_ZDO_ProcessMgmtLqiRsp( zdoIncomingMsg_t *inMsg )
AT_ZDO_ProcessMgmtLqiRsp:
          CFI Block cfiBlock127 Using cfiCommon0
          CFI Function AT_ZDO_ProcessMgmtLqiRsp
        CODE
//  621 {
        FUNCALL AT_ZDO_ProcessMgmtLqiRsp, ZDO_ParseMgmtLqiRsp
        LOCFRAME ISTACK, 0, STACK
        LOCFRAME PSTACK, 0, STACK
        LOCFRAME XSTACK, 24, STACK
        LOCFRAME IOVERLAY, 0, STATIC
        LOCFRAME DOVERLAY, 0, STATIC
        ARGFRAME ISTACK, 0, STACK
        ARGFRAME PSTACK, 0, STACK
        ARGFRAME XSTACK, 24, STACK
        ARGFRAME IOVERLAY, 0, STATIC
        ARGFRAME DOVERLAY, 0, STATIC
        FUNCALL AT_ZDO_ProcessMgmtLqiRsp, AT_Uart0_Send
        LOCFRAME ISTACK, 0, STACK
        LOCFRAME PSTACK, 0, STACK
        LOCFRAME XSTACK, 24, STACK
        LOCFRAME IOVERLAY, 0, STATIC
        LOCFRAME DOVERLAY, 0, STATIC
        ARGFRAME ISTACK, 0, STACK
        ARGFRAME PSTACK, 0, STACK
        ARGFRAME XSTACK, 24, STACK
        ARGFRAME IOVERLAY, 0, STATIC
        ARGFRAME DOVERLAY, 0, STATIC
        FUNCALL AT_ZDO_ProcessMgmtLqiRsp, printf
        LOCFRAME ISTACK, 0, STACK
        LOCFRAME PSTACK, 0, STACK
        LOCFRAME XSTACK, 28, STACK
        LOCFRAME IOVERLAY, 0, STATIC
        LOCFRAME DOVERLAY, 0, STATIC
        ARGFRAME ISTACK, 0, STACK
        ARGFRAME PSTACK, 0, STACK
        ARGFRAME XSTACK, 28, STACK
        ARGFRAME IOVERLAY, 0, STATIC
        ARGFRAME DOVERLAY, 0, STATIC
        FUNCALL AT_ZDO_ProcessMgmtLqiRsp, printf
        LOCFRAME ISTACK, 0, STACK
        LOCFRAME PSTACK, 0, STACK
        LOCFRAME XSTACK, 26, STACK
        LOCFRAME IOVERLAY, 0, STATIC
        LOCFRAME DOVERLAY, 0, STATIC
        ARGFRAME ISTACK, 0, STACK
        ARGFRAME PSTACK, 0, STACK
        ARGFRAME XSTACK, 26, STACK
        ARGFRAME IOVERLAY, 0, STATIC
        ARGFRAME DOVERLAY, 0, STATIC
        FUNCALL AT_ZDO_ProcessMgmtLqiRsp, printf
        LOCFRAME ISTACK, 0, STACK
        LOCFRAME PSTACK, 0, STACK
        LOCFRAME XSTACK, 24, STACK
        LOCFRAME IOVERLAY, 0, STATIC
        LOCFRAME DOVERLAY, 0, STATIC
        ARGFRAME ISTACK, 0, STACK
        ARGFRAME PSTACK, 0, STACK
        ARGFRAME XSTACK, 24, STACK
        ARGFRAME IOVERLAY, 0, STATIC
        ARGFRAME DOVERLAY, 0, STATIC
        FUNCALL AT_ZDO_ProcessMgmtLqiRsp, printf
        LOCFRAME ISTACK, 0, STACK
        LOCFRAME PSTACK, 0, STACK
        LOCFRAME XSTACK, 26, STACK
        LOCFRAME IOVERLAY, 0, STATIC
        LOCFRAME DOVERLAY, 0, STATIC
        ARGFRAME ISTACK, 0, STACK
        ARGFRAME PSTACK, 0, STACK
        ARGFRAME XSTACK, 26, STACK
        ARGFRAME IOVERLAY, 0, STATIC
        ARGFRAME DOVERLAY, 0, STATIC
        FUNCALL AT_ZDO_ProcessMgmtLqiRsp, printf
        LOCFRAME ISTACK, 0, STACK
        LOCFRAME PSTACK, 0, STACK
        LOCFRAME XSTACK, 36, STACK
        LOCFRAME IOVERLAY, 0, STATIC
        LOCFRAME DOVERLAY, 0, STATIC
        ARGFRAME ISTACK, 0, STACK
        ARGFRAME PSTACK, 0, STACK
        ARGFRAME XSTACK, 36, STACK
        ARGFRAME IOVERLAY, 0, STATIC
        ARGFRAME DOVERLAY, 0, STATIC
        FUNCALL AT_ZDO_ProcessMgmtLqiRsp, printf
        LOCFRAME ISTACK, 0, STACK
        LOCFRAME PSTACK, 0, STACK
        LOCFRAME XSTACK, 26, STACK
        LOCFRAME IOVERLAY, 0, STATIC
        LOCFRAME DOVERLAY, 0, STATIC
        ARGFRAME ISTACK, 0, STACK
        ARGFRAME PSTACK, 0, STACK
        ARGFRAME XSTACK, 26, STACK
        ARGFRAME IOVERLAY, 0, STATIC
        ARGFRAME DOVERLAY, 0, STATIC
        FUNCALL AT_ZDO_ProcessMgmtLqiRsp, printf
        LOCFRAME ISTACK, 0, STACK
        LOCFRAME PSTACK, 0, STACK
        LOCFRAME XSTACK, 26, STACK
        LOCFRAME IOVERLAY, 0, STATIC
        LOCFRAME DOVERLAY, 0, STATIC
        ARGFRAME ISTACK, 0, STACK
        ARGFRAME PSTACK, 0, STACK
        ARGFRAME XSTACK, 26, STACK
        ARGFRAME IOVERLAY, 0, STATIC
        ARGFRAME DOVERLAY, 0, STATIC
        FUNCALL AT_ZDO_ProcessMgmtLqiRsp, printf
        LOCFRAME ISTACK, 0, STACK
        LOCFRAME PSTACK, 0, STACK
        LOCFRAME XSTACK, 26, STACK
        LOCFRAME IOVERLAY, 0, STATIC
        LOCFRAME DOVERLAY, 0, STATIC
        ARGFRAME ISTACK, 0, STACK
        ARGFRAME PSTACK, 0, STACK
        ARGFRAME XSTACK, 26, STACK
        ARGFRAME IOVERLAY, 0, STATIC
        ARGFRAME DOVERLAY, 0, STATIC
        FUNCALL AT_ZDO_ProcessMgmtLqiRsp, printf
        LOCFRAME ISTACK, 0, STACK
        LOCFRAME PSTACK, 0, STACK
        LOCFRAME XSTACK, 26, STACK
        LOCFRAME IOVERLAY, 0, STATIC
        LOCFRAME DOVERLAY, 0, STATIC
        ARGFRAME ISTACK, 0, STACK
        ARGFRAME PSTACK, 0, STACK
        ARGFRAME XSTACK, 26, STACK
        ARGFRAME IOVERLAY, 0, STATIC
        ARGFRAME DOVERLAY, 0, STATIC
        FUNCALL AT_ZDO_ProcessMgmtLqiRsp, printf
        LOCFRAME ISTACK, 0, STACK
        LOCFRAME PSTACK, 0, STACK
        LOCFRAME XSTACK, 26, STACK
        LOCFRAME IOVERLAY, 0, STATIC
        LOCFRAME DOVERLAY, 0, STATIC
        ARGFRAME ISTACK, 0, STACK
        ARGFRAME PSTACK, 0, STACK
        ARGFRAME XSTACK, 26, STACK
        ARGFRAME IOVERLAY, 0, STATIC
        ARGFRAME DOVERLAY, 0, STATIC
        FUNCALL AT_ZDO_ProcessMgmtLqiRsp, printf
        LOCFRAME ISTACK, 0, STACK
        LOCFRAME PSTACK, 0, STACK
        LOCFRAME XSTACK, 26, STACK
        LOCFRAME IOVERLAY, 0, STATIC
        LOCFRAME DOVERLAY, 0, STATIC
        ARGFRAME ISTACK, 0, STACK
        ARGFRAME PSTACK, 0, STACK
        ARGFRAME XSTACK, 26, STACK
        ARGFRAME IOVERLAY, 0, STATIC
        ARGFRAME DOVERLAY, 0, STATIC
        FUNCALL AT_ZDO_ProcessMgmtLqiRsp, printf
        LOCFRAME ISTACK, 0, STACK
        LOCFRAME PSTACK, 0, STACK
        LOCFRAME XSTACK, 26, STACK
        LOCFRAME IOVERLAY, 0, STATIC
        LOCFRAME DOVERLAY, 0, STATIC
        ARGFRAME ISTACK, 0, STACK
        ARGFRAME PSTACK, 0, STACK
        ARGFRAME XSTACK, 26, STACK
        ARGFRAME IOVERLAY, 0, STATIC
        ARGFRAME DOVERLAY, 0, STATIC
        FUNCALL AT_ZDO_ProcessMgmtLqiRsp, printf
        LOCFRAME ISTACK, 0, STACK
        LOCFRAME PSTACK, 0, STACK
        LOCFRAME XSTACK, 26, STACK
        LOCFRAME IOVERLAY, 0, STATIC
        LOCFRAME DOVERLAY, 0, STATIC
        ARGFRAME ISTACK, 0, STACK
        ARGFRAME PSTACK, 0, STACK
        ARGFRAME XSTACK, 26, STACK
        ARGFRAME IOVERLAY, 0, STATIC
        ARGFRAME DOVERLAY, 0, STATIC
        FUNCALL AT_ZDO_ProcessMgmtLqiRsp, AT_Uart0_Send
        LOCFRAME ISTACK, 0, STACK
        LOCFRAME PSTACK, 0, STACK
        LOCFRAME XSTACK, 24, STACK
        LOCFRAME IOVERLAY, 0, STATIC
        LOCFRAME DOVERLAY, 0, STATIC
        ARGFRAME ISTACK, 0, STACK
        ARGFRAME PSTACK, 0, STACK
        ARGFRAME XSTACK, 24, STACK
        ARGFRAME IOVERLAY, 0, STATIC
        ARGFRAME DOVERLAY, 0, STATIC
        FUNCALL AT_ZDO_ProcessMgmtLqiRsp, osal_mem_free
        LOCFRAME ISTACK, 0, STACK
        LOCFRAME PSTACK, 0, STACK
        LOCFRAME XSTACK, 24, STACK
        LOCFRAME IOVERLAY, 0, STATIC
        LOCFRAME DOVERLAY, 0, STATIC
        ARGFRAME ISTACK, 0, STACK
        ARGFRAME PSTACK, 0, STACK
        ARGFRAME XSTACK, 24, STACK
        ARGFRAME IOVERLAY, 0, STATIC
        ARGFRAME DOVERLAY, 0, STATIC
        REQUIRE ?V0
        REQUIRE ?V1
        REQUIRE ?V2
        REQUIRE ?V3
        REQUIRE ?V4
        REQUIRE ?V5
        REQUIRE ?V6
        REQUIRE ?V7
        REQUIRE ?V8
        REQUIRE ?V9
        REQUIRE ?V10
        REQUIRE ?V12
        REQUIRE ?V13
        REQUIRE ?V14
        REQUIRE ?V15
        MOV       A,#-0x18
        LCALL     ?BANKED_ENTER_XDATA
          CFI DPH0 load(1, XDATA, add(CFA_XSP16, literal(-1)))
          CFI DPL0 load(1, XDATA, add(CFA_XSP16, literal(-2)))
          CFI ?BRET_EXT load(1, XDATA, add(CFA_XSP16, literal(-3)))
          CFI ?RET_HIGH load(1, XDATA, add(CFA_XSP16, literal(-4)))
          CFI ?RET_LOW load(1, XDATA, add(CFA_XSP16, literal(-5)))
          CFI R7 load(1, XDATA, add(CFA_XSP16, literal(-6)))
          CFI V15 load(1, XDATA, add(CFA_XSP16, literal(-7)))
          CFI V14 load(1, XDATA, add(CFA_XSP16, literal(-8)))
          CFI V13 load(1, XDATA, add(CFA_XSP16, literal(-9)))
          CFI V12 load(1, XDATA, add(CFA_XSP16, literal(-10)))
          CFI V11 load(1, XDATA, add(CFA_XSP16, literal(-11)))
          CFI V10 load(1, XDATA, add(CFA_XSP16, literal(-12)))
          CFI V9 load(1, XDATA, add(CFA_XSP16, literal(-13)))
          CFI V8 load(1, XDATA, add(CFA_XSP16, literal(-14)))
          CFI V7 load(1, XDATA, add(CFA_XSP16, literal(-15)))
          CFI V6 load(1, XDATA, add(CFA_XSP16, literal(-16)))
          CFI V5 load(1, XDATA, add(CFA_XSP16, literal(-17)))
          CFI V4 load(1, XDATA, add(CFA_XSP16, literal(-18)))
          CFI V3 load(1, XDATA, add(CFA_XSP16, literal(-19)))
          CFI V2 load(1, XDATA, add(CFA_XSP16, literal(-20)))
          CFI V1 load(1, XDATA, add(CFA_XSP16, literal(-21)))
          CFI V0 load(1, XDATA, add(CFA_XSP16, literal(-22)))
          CFI VB load(1, XDATA, add(CFA_XSP16, literal(-23)))
          CFI R6 load(1, XDATA, add(CFA_XSP16, literal(-24)))
          CFI CFA_SP SP+0
          CFI CFA_XSP16 add(XSP16, 24)
        ; Saved register size: 24
        ; Auto size: 0
        MOV       A,R2
        MOV       R6,A
        MOV       A,R3
        MOV       R7,A
//  622   uint8 i;
//  623   ZDO_MgmtLqiRsp_t *pRsp = ZDO_ParseMgmtLqiRsp( inMsg );
        ; Setup parameters for call to function ZDO_ParseMgmtLqiRsp
        LCALL     `??ZDO_ParseMgmtLqiRsp::?relay`; Banked call to: ZDO_ParseMgmtLqiRsp
        MOV       ?V0,R2
        MOV       ?V1,R3
//  624 
//  625   AT_NEW_LINE();
        MOV       ?V14,#`?<Constant "\\r\\n">` & 0xff
        MOV       ?V15,#(`?<Constant "\\r\\n">` >> 8) & 0xff
        ; Setup parameters for call to function AT_Uart0_Send
        MOV       R4,#0x2
        MOV       R5,#0x0
        MOV       R2,?V14
        MOV       R3,?V15
        LCALL     ?Subroutine14 & 0xFFFF
//  626   // NTable:<NodeID>,<errorcode>
//  627   if (inMsg->srcAddr.addrMode == (afAddrMode_t)Addr16Bit) {
??CrossCallReturnLabel_13:
        JNZ       ??AT_ZDO_ProcessMgmtLqiRsp_0
//  628     printf("NTable:%04X,%02X\r\n",(uint16)inMsg->srcAddr.addr.shortAddr,
//  629            pRsp->status);
        ; Setup parameters for call to function printf
        LCALL     ??Subroutine33_0 & 0xFFFF
//  630   }
??CrossCallReturnLabel_87:
        LCALL     ?PUSH_XSTACK_I_TWO
          CFI CFA_XSP16 add(XSP16, 26)
        MOV       DPL,R6
        MOV       DPH,R7
        INC       DPTR
        INC       DPTR
        LCALL     ?PUSH_XSTACK8_X_TWO
          CFI CFA_XSP16 add(XSP16, 28)
        MOV       R2,#`?<Constant "NTable:%04X,%02X\\r\\n">` & 0xff
        MOV       R3,#(`?<Constant "NTable:%04X,%02X\\r\\n">` >> 8) & 0xff
        LCALL     ?Subroutine21 & 0xFFFF
??CrossCallReturnLabel_35:
        LCALL     ?DEALLOC_XSTACK8
          CFI CFA_XSP16 add(XSP16, 24)
//  631 
//  632   // Length:XX
//  633   printf("Length:%02X\r\n", pRsp->neighborLqiCount);
??AT_ZDO_ProcessMgmtLqiRsp_0:
        MOV       A,?V0
        ADD       A,#0x3
        MOV       ?V8,A
        CLR       A
        ADDC      A,?V1
        MOV       ?V9,A
        ; Setup parameters for call to function printf
        MOV       DPL,?V8
        MOV       DPH,A
        LCALL     ??Subroutine34_0 & 0xFFFF
??CrossCallReturnLabel_86:
        LCALL     ?PUSH_XSTACK_I_TWO
          CFI CFA_XSP16 add(XSP16, 26)
        MOV       R2,#`?<Constant "Length:%02X\\r\\n">` & 0xff
        MOV       R3,#(`?<Constant "Length:%02X\\r\\n">` >> 8) & 0xff
        LCALL     ??Subroutine31_0 & 0xFFFF
??CrossCallReturnLabel_77:
        LCALL     ?DEALLOC_XSTACK8
          CFI CFA_XSP16 add(XSP16, 24)
//  634 
//  635   // No.| Type | Relation | EUI | ID | LQI
//  636   if(pRsp->neighborLqiCount != 0)
        MOV       DPL,?V8
        MOV       DPH,?V9
        MOVX      A,@DPTR
        JZ        ??AT_ZDO_ProcessMgmtLqiRsp_1
//  637     printf("No.| Type | Relation |       EUI        |  ID  | LQI\n\r");
        ; Setup parameters for call to function printf
        MOV       R2,#`?<Constant "No.| Type | Relation ...">` & 0xff
        MOV       R3,#(`?<Constant "No.| Type | Relation ...">` >> 8) & 0xff
        LCALL     `??printf::?relay`; Banked call to: printf
//  638   for (i = 0; i < pRsp->neighborLqiCount; i++) {
??AT_ZDO_ProcessMgmtLqiRsp_1:
        MOV       ?V10,#0x0
        MOV       ?V6,#`?<Constant " %-8s| ">` & 0xff
        MOV       ?V7,#(`?<Constant " %-8s| ">` >> 8) & 0xff
        SJMP      ??AT_ZDO_ProcessMgmtLqiRsp_2
//  639     uint16 *ext = (uint16*) pRsp->list[i].extAddr;
//  640     // print No.
//  641     printf("\r\n%02X.| ",i+pRsp->startIndex);
//  642     // print type
//  643     if (pRsp->list[i].devType == ZDP_MGMT_DT_COORD)
//  644       printf(" %-3s | ", "COO");
//  645     else if (pRsp->list[i].devType == ZDP_MGMT_DT_ROUTER)
//  646       printf(" %-3s | ", "RTR");
//  647     else if (pRsp->list[i].devType == ZDP_MGMT_DT_ENDDEV)
//  648       printf(" %-3s | ", "ZED");
//  649     else
//  650       printf(" %-3s | ", "UKN");  // for the unknown devices
//  651     // print relation
//  652     if (pRsp->list[i].relation == ZDP_MGMT_REL_PARENT)
//  653       printf(" %-8s| ","PARENT");
//  654     else if (pRsp->list[i].relation == ZDP_MGMT_REL_CHILD)
//  655       printf(" %-8s| ","CHILD");
//  656     else if (pRsp->list[i].relation == ZDP_MGMT_REL_SIBLING)
//  657       printf(" %-8s| ","SIBLING");
//  658     else
//  659       printf(" %-8s| ","UNKNOWN");
??AT_ZDO_ProcessMgmtLqiRsp_3:
        ; Setup parameters for call to function printf
        MOV       ?V12,#`?<Constant "UNKNOWN">` & 0xff
        MOV       ?V13,#(`?<Constant "UNKNOWN">` >> 8) & 0xff
??AT_ZDO_ProcessMgmtLqiRsp_4:
        MOV       R0,#?V12
        LCALL     ?PUSH_XSTACK_I_TWO
          CFI CFA_XSP16 add(XSP16, 26)
        LCALL     ?Subroutine20 & 0xFFFF
??CrossCallReturnLabel_63:
        LCALL     ?DEALLOC_XSTACK8
          CFI CFA_XSP16 add(XSP16, 24)
//  660     //print EUI ID LQI
//  661     printf("%04X%04X%04X%04X | %04X | %02X",
//  662            ext[3],ext[2],ext[1],ext[0],pRsp->list[i].nwkAddr,
//  663            pRsp->list[i].lqi);
        ; Setup parameters for call to function printf
        MOV       A,?V2
        ADD       A,#0x1d
        MOV       DPL,A
        CLR       A
        ADDC      A,?V3
        MOV       DPH,A
        MOVX      A,@DPTR
        MOV       ?V12,A
        MOV       ?V13,#0x0
        MOV       R0,#?V12
        LCALL     ?PUSH_XSTACK_I_TWO
          CFI CFA_XSP16 add(XSP16, 26)
        MOV       A,?V2
        ADD       A,#0x16
        MOV       DPL,A
        CLR       A
        ADDC      A,?V3
        MOV       DPH,A
        LCALL     ?PUSH_XSTACK8_X_TWO
          CFI CFA_XSP16 add(XSP16, 28)
        MOV       DPL,?V4
        MOV       DPH,?V5
        LCALL     ?PUSH_XSTACK8_X_TWO
          CFI CFA_XSP16 add(XSP16, 30)
        MOV       DPL,?V4
        MOV       DPH,?V5
        INC       DPTR
        INC       DPTR
        LCALL     ?PUSH_XSTACK8_X_TWO
          CFI CFA_XSP16 add(XSP16, 32)
        MOV       DPL,?V4
        MOV       DPH,?V5
        INC       DPTR
        INC       DPTR
        INC       DPTR
        INC       DPTR
        LCALL     ?PUSH_XSTACK8_X_TWO
          CFI CFA_XSP16 add(XSP16, 34)
        MOV       DPL,?V4
        MOV       DPH,?V5
        INC       DPTR
        INC       DPTR
        INC       DPTR
        INC       DPTR
        INC       DPTR
        INC       DPTR
        LCALL     ?PUSH_XSTACK8_X_TWO
          CFI CFA_XSP16 add(XSP16, 36)
        MOV       R2,#`?<Constant "%04X%04X%04X%04X | %0...">` & 0xff
        MOV       R3,#(`?<Constant "%04X%04X%04X%04X | %0...">` >> 8) & 0xff
        LCALL     ??Subroutine29_0 & 0xFFFF
??CrossCallReturnLabel_55:
        LCALL     ?DEALLOC_XSTACK8
          CFI CFA_XSP16 add(XSP16, 24)
        INC       ?V10
??AT_ZDO_ProcessMgmtLqiRsp_2:
        MOV       DPL,?V8
        MOV       DPH,?V9
        MOVX      A,@DPTR
        MOV       R0,A
        MOV       A,?V10
        CLR       C
        SUBB      A,R0
        JC        $+5
        LJMP      ??AT_ZDO_ProcessMgmtLqiRsp_5 & 0xFFFF
        MOV       R2,?V10
        MOV       A,R2
        MOV       B,#0x1a
        MUL       AB
        MOV       R0,A
        MOV       R1,B
        MOV       A,?V0
        ADD       A,R0
        MOV       ?V2,A
        MOV       A,?V1
        ADDC      A,R1
        MOV       ?V3,A
        MOV       A,?V2
        ADD       A,#0xe
        MOV       ?V4,A
        CLR       A
        ADDC      A,?V3
        MOV       ?V5,A
        ; Setup parameters for call to function printf
        MOV       DPL,?V0
        MOV       DPH,?V1
        INC       DPTR
        INC       DPTR
        MOVX      A,@DPTR
        MOV       R0,A
        MOV       A,R2
        ADD       A,R0
        MOV       ?V12,A
        CLR       A
        ADDC      A,#0x0
        MOV       ?V13,A
        MOV       R0,#?V12
        LCALL     ?PUSH_XSTACK_I_TWO
          CFI CFA_XSP16 add(XSP16, 26)
        MOV       R2,#`?<Constant "\\r\\n%02X.| ">` & 0xff
        MOV       R3,#(`?<Constant "\\r\\n%02X.| ">` >> 8) & 0xff
        LCALL     ??Subroutine31_0 & 0xFFFF
??CrossCallReturnLabel_78:
        LCALL     ?DEALLOC_XSTACK8
          CFI CFA_XSP16 add(XSP16, 24)
        MOV       A,?V2
        ADD       A,#0x18
        MOV       DPL,A
        CLR       A
        ADDC      A,?V3
        MOV       DPH,A
        MOVX      A,@DPTR
        MOV       R0,A
        JNZ       ??AT_ZDO_ProcessMgmtLqiRsp_6
        ; Setup parameters for call to function printf
        MOV       ?V12,#`?<Constant "COO">` & 0xff
        MOV       ?V13,#(`?<Constant "COO">` >> 8) & 0xff
        SJMP      ??AT_ZDO_ProcessMgmtLqiRsp_7
??AT_ZDO_ProcessMgmtLqiRsp_6:
        MOV       A,#0x1
        XRL       A,R0
        JNZ       ??AT_ZDO_ProcessMgmtLqiRsp_8
        ; Setup parameters for call to function printf
        MOV       ?V12,#`?<Constant "RTR">` & 0xff
        MOV       ?V13,#(`?<Constant "RTR">` >> 8) & 0xff
        SJMP      ??AT_ZDO_ProcessMgmtLqiRsp_7
??AT_ZDO_ProcessMgmtLqiRsp_8:
        MOV       A,#0x2
        XRL       A,R0
        JNZ       ??AT_ZDO_ProcessMgmtLqiRsp_9
        ; Setup parameters for call to function printf
        MOV       ?V12,#`?<Constant "ZED">` & 0xff
        MOV       ?V13,#(`?<Constant "ZED">` >> 8) & 0xff
        SJMP      ??AT_ZDO_ProcessMgmtLqiRsp_7
??AT_ZDO_ProcessMgmtLqiRsp_9:
        ; Setup parameters for call to function printf
        MOV       ?V12,#`?<Constant "UKN">` & 0xff
        MOV       ?V13,#(`?<Constant "UKN">` >> 8) & 0xff
??AT_ZDO_ProcessMgmtLqiRsp_7:
        MOV       R0,#?V12
        LCALL     ?PUSH_XSTACK_I_TWO
          CFI CFA_XSP16 add(XSP16, 26)
        MOV       R2,#`?<Constant " %-3s | ">` & 0xff
        MOV       R3,#(`?<Constant " %-3s | ">` >> 8) & 0xff
        LCALL     ??Subroutine31_0 & 0xFFFF
??CrossCallReturnLabel_79:
        LCALL     ?DEALLOC_XSTACK8
          CFI CFA_XSP16 add(XSP16, 24)
        MOV       A,?V2
        ADD       A,#0x1a
        MOV       DPL,A
        CLR       A
        ADDC      A,?V3
        MOV       DPH,A
        MOVX      A,@DPTR
        MOV       R0,A
        JNZ       ??AT_ZDO_ProcessMgmtLqiRsp_10
        ; Setup parameters for call to function printf
        MOV       ?V12,#`?<Constant "PARENT">` & 0xff
        MOV       ?V13,#(`?<Constant "PARENT">` >> 8) & 0xff
        LJMP      ??AT_ZDO_ProcessMgmtLqiRsp_4 & 0xFFFF
??AT_ZDO_ProcessMgmtLqiRsp_10:
        MOV       A,#0x1
        XRL       A,R0
        JNZ       ??AT_ZDO_ProcessMgmtLqiRsp_11
        ; Setup parameters for call to function printf
        MOV       ?V12,#`?<Constant "CHILD">` & 0xff
        MOV       ?V13,#(`?<Constant "CHILD">` >> 8) & 0xff
        LJMP      ??AT_ZDO_ProcessMgmtLqiRsp_4 & 0xFFFF
??AT_ZDO_ProcessMgmtLqiRsp_11:
        MOV       A,#0x2
        XRL       A,R0
        JZ        $+5
        LJMP      ??AT_ZDO_ProcessMgmtLqiRsp_3 & 0xFFFF
        ; Setup parameters for call to function printf
        MOV       ?V12,#`?<Constant "SIBLING">` & 0xff
        MOV       ?V13,#(`?<Constant "SIBLING">` >> 8) & 0xff
        LJMP      ??AT_ZDO_ProcessMgmtLqiRsp_4 & 0xFFFF
//  664   }
//  665   AT_NEW_LINE();
??AT_ZDO_ProcessMgmtLqiRsp_5:
        ; Setup parameters for call to function AT_Uart0_Send
        MOV       R4,#0x2
        MOV       R5,#0x0
        MOV       R2,?V14
        MOV       R3,?V15
        LCALL     ?Subroutine17 & 0xFFFF
//  666   osal_mem_free(pRsp);
//  667 }
??CrossCallReturnLabel_21:
        MOV       R7,#0x10
        LJMP      ?BANKED_LEAVE_XDATA
          CFI EndBlock cfiBlock127

        RSEG BANKED_CODE:HUGECODE:NOROOT(0)
?Subroutine17:
          CFI Block cfiCond128 Using cfiCommon0
          CFI Function AT_ZDO_ProcessMsgCBs
          CFI Conditional ??CrossCallReturnLabel_20
          CFI R6 load(1, XDATA, add(CFA_XSP16, literal(-18)))
          CFI VB load(1, XDATA, add(CFA_XSP16, literal(-17)))
          CFI V0 load(1, XDATA, add(CFA_XSP16, literal(-16)))
          CFI V1 load(1, XDATA, add(CFA_XSP16, literal(-15)))
          CFI V2 load(1, XDATA, add(CFA_XSP16, literal(-14)))
          CFI V3 load(1, XDATA, add(CFA_XSP16, literal(-13)))
          CFI V4 load(1, XDATA, add(CFA_XSP16, literal(-12)))
          CFI V5 load(1, XDATA, add(CFA_XSP16, literal(-11)))
          CFI V6 load(1, XDATA, add(CFA_XSP16, literal(-10)))
          CFI V7 load(1, XDATA, add(CFA_XSP16, literal(-9)))
          CFI V8 load(1, XDATA, add(CFA_XSP16, literal(-8)))
          CFI V9 load(1, XDATA, add(CFA_XSP16, literal(-7)))
          CFI R7 load(1, XDATA, add(CFA_XSP16, literal(-6)))
          CFI ?RET_LOW load(1, XDATA, add(CFA_XSP16, literal(-5)))
          CFI ?RET_HIGH load(1, XDATA, add(CFA_XSP16, literal(-4)))
          CFI ?BRET_EXT load(1, XDATA, add(CFA_XSP16, literal(-3)))
          CFI DPL0 load(1, XDATA, add(CFA_XSP16, literal(-2)))
          CFI DPH0 load(1, XDATA, add(CFA_XSP16, literal(-1)))
          CFI CFA_SP SP+-2
          CFI CFA_XSP16 add(XSP16, 45)
          CFI Block cfiCond129 Using cfiCommon0
          CFI (cfiCond129) Function AT_ZDO_ProcessMgmtLqiRsp
          CFI (cfiCond129) Conditional ??CrossCallReturnLabel_21
          CFI (cfiCond129) R6 load(1, XDATA, add(CFA_XSP16, literal(-24)))
          CFI (cfiCond129) VB load(1, XDATA, add(CFA_XSP16, literal(-23)))
          CFI (cfiCond129) V0 load(1, XDATA, add(CFA_XSP16, literal(-22)))
          CFI (cfiCond129) V1 load(1, XDATA, add(CFA_XSP16, literal(-21)))
          CFI (cfiCond129) V2 load(1, XDATA, add(CFA_XSP16, literal(-20)))
          CFI (cfiCond129) V3 load(1, XDATA, add(CFA_XSP16, literal(-19)))
          CFI (cfiCond129) V4 load(1, XDATA, add(CFA_XSP16, literal(-18)))
          CFI (cfiCond129) V5 load(1, XDATA, add(CFA_XSP16, literal(-17)))
          CFI (cfiCond129) V6 load(1, XDATA, add(CFA_XSP16, literal(-16)))
          CFI (cfiCond129) V7 load(1, XDATA, add(CFA_XSP16, literal(-15)))
          CFI (cfiCond129) V8 load(1, XDATA, add(CFA_XSP16, literal(-14)))
          CFI (cfiCond129) V9 load(1, XDATA, add(CFA_XSP16, literal(-13)))
          CFI (cfiCond129) V10 load(1, XDATA, add(CFA_XSP16, literal(-12)))
          CFI (cfiCond129) V11 load(1, XDATA, add(CFA_XSP16, literal(-11)))
          CFI (cfiCond129) V12 load(1, XDATA, add(CFA_XSP16, literal(-10)))
          CFI (cfiCond129) V13 load(1, XDATA, add(CFA_XSP16, literal(-9)))
          CFI (cfiCond129) V14 load(1, XDATA, add(CFA_XSP16, literal(-8)))
          CFI (cfiCond129) V15 load(1, XDATA, add(CFA_XSP16, literal(-7)))
          CFI (cfiCond129) R7 load(1, XDATA, add(CFA_XSP16, literal(-6)))
          CFI (cfiCond129) ?RET_LOW load(1, XDATA, add(CFA_XSP16, literal(-5)))
          CFI (cfiCond129) ?RET_HIGH load(1, XDATA, add(CFA_XSP16, literal(-4)))
          CFI (cfiCond129) ?BRET_EXT load(1, XDATA, add(CFA_XSP16, literal(-3)))
          CFI (cfiCond129) DPL0 load(1, XDATA, add(CFA_XSP16, literal(-2)))
          CFI (cfiCond129) DPH0 load(1, XDATA, add(CFA_XSP16, literal(-1)))
          CFI (cfiCond129) CFA_SP SP+-2
          CFI (cfiCond129) CFA_XSP16 add(XSP16, 24)
          CFI Block cfiPicker130 Using cfiCommon1
          CFI (cfiPicker130) NoFunction
          CFI (cfiPicker130) Picker
        LCALL     `??AT_Uart0_Send::?relay`; Banked call to: AT_Uart0_Send
        ; Setup parameters for call to function osal_mem_free
        ; Setup parameters for call to function osal_mem_free
        MOV       R2,?V0
        MOV       R3,?V1
        LCALL     `??osal_mem_free::?relay`; Banked call to: osal_mem_free
        RET
          CFI EndBlock cfiCond128
          CFI EndBlock cfiCond129
          CFI EndBlock cfiPicker130

        RSEG BANKED_CODE:HUGECODE:NOROOT(0)
?Subroutine4:
          CFI Block cfiCond131 Using cfiCommon0
          CFI Function AT_ZDO_ProcessMsgCBs
          CFI Conditional ??CrossCallReturnLabel_82
          CFI R6 load(1, XDATA, add(CFA_XSP16, literal(-18)))
          CFI VB load(1, XDATA, add(CFA_XSP16, literal(-17)))
          CFI V0 load(1, XDATA, add(CFA_XSP16, literal(-16)))
          CFI V1 load(1, XDATA, add(CFA_XSP16, literal(-15)))
          CFI V2 load(1, XDATA, add(CFA_XSP16, literal(-14)))
          CFI V3 load(1, XDATA, add(CFA_XSP16, literal(-13)))
          CFI V4 load(1, XDATA, add(CFA_XSP16, literal(-12)))
          CFI V5 load(1, XDATA, add(CFA_XSP16, literal(-11)))
          CFI V6 load(1, XDATA, add(CFA_XSP16, literal(-10)))
          CFI V7 load(1, XDATA, add(CFA_XSP16, literal(-9)))
          CFI V8 load(1, XDATA, add(CFA_XSP16, literal(-8)))
          CFI V9 load(1, XDATA, add(CFA_XSP16, literal(-7)))
          CFI R7 load(1, XDATA, add(CFA_XSP16, literal(-6)))
          CFI ?RET_LOW load(1, XDATA, add(CFA_XSP16, literal(-5)))
          CFI ?RET_HIGH load(1, XDATA, add(CFA_XSP16, literal(-4)))
          CFI ?BRET_EXT load(1, XDATA, add(CFA_XSP16, literal(-3)))
          CFI DPL0 load(1, XDATA, add(CFA_XSP16, literal(-2)))
          CFI DPH0 load(1, XDATA, add(CFA_XSP16, literal(-1)))
          CFI CFA_SP SP+-2
          CFI CFA_XSP16 add(XSP16, 45)
          CFI Block cfiCond132 Using cfiCommon0
          CFI (cfiCond132) Function AT_ZDO_ProcessMsgCBs
          CFI (cfiCond132) Conditional ??CrossCallReturnLabel_83
          CFI (cfiCond132) R6 load(1, XDATA, add(CFA_XSP16, literal(-18)))
          CFI (cfiCond132) VB load(1, XDATA, add(CFA_XSP16, literal(-17)))
          CFI (cfiCond132) V0 load(1, XDATA, add(CFA_XSP16, literal(-16)))
          CFI (cfiCond132) V1 load(1, XDATA, add(CFA_XSP16, literal(-15)))
          CFI (cfiCond132) V2 load(1, XDATA, add(CFA_XSP16, literal(-14)))
          CFI (cfiCond132) V3 load(1, XDATA, add(CFA_XSP16, literal(-13)))
          CFI (cfiCond132) V4 load(1, XDATA, add(CFA_XSP16, literal(-12)))
          CFI (cfiCond132) V5 load(1, XDATA, add(CFA_XSP16, literal(-11)))
          CFI (cfiCond132) V6 load(1, XDATA, add(CFA_XSP16, literal(-10)))
          CFI (cfiCond132) V7 load(1, XDATA, add(CFA_XSP16, literal(-9)))
          CFI (cfiCond132) V8 load(1, XDATA, add(CFA_XSP16, literal(-8)))
          CFI (cfiCond132) V9 load(1, XDATA, add(CFA_XSP16, literal(-7)))
          CFI (cfiCond132) R7 load(1, XDATA, add(CFA_XSP16, literal(-6)))
          CFI (cfiCond132) ?RET_LOW load(1, XDATA, add(CFA_XSP16, literal(-5)))
          CFI (cfiCond132) ?RET_HIGH load(1, XDATA, add(CFA_XSP16, literal(-4)))
          CFI (cfiCond132) ?BRET_EXT load(1, XDATA, add(CFA_XSP16, literal(-3)))
          CFI (cfiCond132) DPL0 load(1, XDATA, add(CFA_XSP16, literal(-2)))
          CFI (cfiCond132) DPH0 load(1, XDATA, add(CFA_XSP16, literal(-1)))
          CFI (cfiCond132) CFA_SP SP+-2
          CFI (cfiCond132) CFA_XSP16 add(XSP16, 45)
          CFI Block cfiPicker133 Using cfiCommon1
          CFI (cfiPicker133) NoFunction
          CFI (cfiPicker133) Picker
        LCALL     `??ZDO_ParseEPListRsp::?relay`; Banked call to: ZDO_ParseEPListRsp
        MOV       ?V0,R2
        MOV       ?V1,R3
          CFI EndBlock cfiCond131
          CFI EndBlock cfiCond132
          CFI EndBlock cfiPicker133
        ; Setup parameters for call to function AT_Uart0_Send
        ; Setup parameters for call to function AT_Uart0_Send
        REQUIRE ??Subroutine32_0
        ; // Fall through to label ??Subroutine32_0

        RSEG BANKED_CODE:HUGECODE:NOROOT(0)
??Subroutine32_0:
          CFI Block cfiCond134 Using cfiCommon0
          CFI Function AT_ZDO_ProcessMsgCBs
          CFI Conditional ??CrossCallReturnLabel_84
          CFI R6 load(1, XDATA, add(CFA_XSP16, literal(-18)))
          CFI VB load(1, XDATA, add(CFA_XSP16, literal(-17)))
          CFI V0 load(1, XDATA, add(CFA_XSP16, literal(-16)))
          CFI V1 load(1, XDATA, add(CFA_XSP16, literal(-15)))
          CFI V2 load(1, XDATA, add(CFA_XSP16, literal(-14)))
          CFI V3 load(1, XDATA, add(CFA_XSP16, literal(-13)))
          CFI V4 load(1, XDATA, add(CFA_XSP16, literal(-12)))
          CFI V5 load(1, XDATA, add(CFA_XSP16, literal(-11)))
          CFI V6 load(1, XDATA, add(CFA_XSP16, literal(-10)))
          CFI V7 load(1, XDATA, add(CFA_XSP16, literal(-9)))
          CFI V8 load(1, XDATA, add(CFA_XSP16, literal(-8)))
          CFI V9 load(1, XDATA, add(CFA_XSP16, literal(-7)))
          CFI R7 load(1, XDATA, add(CFA_XSP16, literal(-6)))
          CFI ?RET_LOW load(1, XDATA, add(CFA_XSP16, literal(-5)))
          CFI ?RET_HIGH load(1, XDATA, add(CFA_XSP16, literal(-4)))
          CFI ?BRET_EXT load(1, XDATA, add(CFA_XSP16, literal(-3)))
          CFI DPL0 load(1, XDATA, add(CFA_XSP16, literal(-2)))
          CFI DPH0 load(1, XDATA, add(CFA_XSP16, literal(-1)))
          CFI CFA_SP SP+-2
          CFI CFA_XSP16 add(XSP16, 45)
          CFI Block cfiCond135 Using cfiCommon0
          CFI (cfiCond135) Function AT_ZDO_ProcessMsgCBs
          CFI (cfiCond135) Conditional ??CrossCallReturnLabel_82
          CFI (cfiCond135) R6 load(1, XDATA, add(CFA_XSP16, literal(-18)))
          CFI (cfiCond135) VB load(1, XDATA, add(CFA_XSP16, literal(-17)))
          CFI (cfiCond135) V0 load(1, XDATA, add(CFA_XSP16, literal(-16)))
          CFI (cfiCond135) V1 load(1, XDATA, add(CFA_XSP16, literal(-15)))
          CFI (cfiCond135) V2 load(1, XDATA, add(CFA_XSP16, literal(-14)))
          CFI (cfiCond135) V3 load(1, XDATA, add(CFA_XSP16, literal(-13)))
          CFI (cfiCond135) V4 load(1, XDATA, add(CFA_XSP16, literal(-12)))
          CFI (cfiCond135) V5 load(1, XDATA, add(CFA_XSP16, literal(-11)))
          CFI (cfiCond135) V6 load(1, XDATA, add(CFA_XSP16, literal(-10)))
          CFI (cfiCond135) V7 load(1, XDATA, add(CFA_XSP16, literal(-9)))
          CFI (cfiCond135) V8 load(1, XDATA, add(CFA_XSP16, literal(-8)))
          CFI (cfiCond135) V9 load(1, XDATA, add(CFA_XSP16, literal(-7)))
          CFI (cfiCond135) R7 load(1, XDATA, add(CFA_XSP16, literal(-6)))
          CFI (cfiCond135) ?RET_LOW load(1, XDATA, add(CFA_XSP16, literal(-5)))
          CFI (cfiCond135) ?RET_HIGH load(1, XDATA, add(CFA_XSP16, literal(-4)))
          CFI (cfiCond135) ?BRET_EXT load(1, XDATA, add(CFA_XSP16, literal(-3)))
          CFI (cfiCond135) DPL0 load(1, XDATA, add(CFA_XSP16, literal(-2)))
          CFI (cfiCond135) DPH0 load(1, XDATA, add(CFA_XSP16, literal(-1)))
          CFI (cfiCond135) CFA_SP SP+-2
          CFI (cfiCond135) CFA_XSP16 add(XSP16, 45)
          CFI Block cfiCond136 Using cfiCommon0
          CFI (cfiCond136) Function AT_ZDO_ProcessMsgCBs
          CFI (cfiCond136) Conditional ??CrossCallReturnLabel_83
          CFI (cfiCond136) R6 load(1, XDATA, add(CFA_XSP16, literal(-18)))
          CFI (cfiCond136) VB load(1, XDATA, add(CFA_XSP16, literal(-17)))
          CFI (cfiCond136) V0 load(1, XDATA, add(CFA_XSP16, literal(-16)))
          CFI (cfiCond136) V1 load(1, XDATA, add(CFA_XSP16, literal(-15)))
          CFI (cfiCond136) V2 load(1, XDATA, add(CFA_XSP16, literal(-14)))
          CFI (cfiCond136) V3 load(1, XDATA, add(CFA_XSP16, literal(-13)))
          CFI (cfiCond136) V4 load(1, XDATA, add(CFA_XSP16, literal(-12)))
          CFI (cfiCond136) V5 load(1, XDATA, add(CFA_XSP16, literal(-11)))
          CFI (cfiCond136) V6 load(1, XDATA, add(CFA_XSP16, literal(-10)))
          CFI (cfiCond136) V7 load(1, XDATA, add(CFA_XSP16, literal(-9)))
          CFI (cfiCond136) V8 load(1, XDATA, add(CFA_XSP16, literal(-8)))
          CFI (cfiCond136) V9 load(1, XDATA, add(CFA_XSP16, literal(-7)))
          CFI (cfiCond136) R7 load(1, XDATA, add(CFA_XSP16, literal(-6)))
          CFI (cfiCond136) ?RET_LOW load(1, XDATA, add(CFA_XSP16, literal(-5)))
          CFI (cfiCond136) ?RET_HIGH load(1, XDATA, add(CFA_XSP16, literal(-4)))
          CFI (cfiCond136) ?BRET_EXT load(1, XDATA, add(CFA_XSP16, literal(-3)))
          CFI (cfiCond136) DPL0 load(1, XDATA, add(CFA_XSP16, literal(-2)))
          CFI (cfiCond136) DPH0 load(1, XDATA, add(CFA_XSP16, literal(-1)))
          CFI (cfiCond136) CFA_SP SP+-2
          CFI (cfiCond136) CFA_XSP16 add(XSP16, 45)
          CFI Block cfiPicker137 Using cfiCommon1
          CFI (cfiPicker137) NoFunction
          CFI (cfiPicker137) Picker
        MOV       R4,#0x2
        MOV       R5,#0x0
        MOV       R2,#`?<Constant "\\r\\n">` & 0xff
        MOV       R3,#(`?<Constant "\\r\\n">` >> 8) & 0xff
        LCALL     `??AT_Uart0_Send::?relay`; Banked call to: AT_Uart0_Send
          CFI EndBlock cfiCond134
          CFI EndBlock cfiCond135
          CFI EndBlock cfiCond136
          CFI EndBlock cfiPicker137
        ; Setup parameters for call to function printf
        ; Setup parameters for call to function printf
        ; Setup parameters for call to function printf
        REQUIRE ??Subroutine33_0
        ; // Fall through to label ??Subroutine33_0

        RSEG BANKED_CODE:HUGECODE:NOROOT(0)
??Subroutine33_0:
          CFI Block cfiCond138 Using cfiCommon0
          CFI Function AT_ZDO_ProcessMgmtLqiRsp
          CFI Conditional ??CrossCallReturnLabel_87
          CFI R6 load(1, XDATA, add(CFA_XSP16, literal(-24)))
          CFI VB load(1, XDATA, add(CFA_XSP16, literal(-23)))
          CFI V0 load(1, XDATA, add(CFA_XSP16, literal(-22)))
          CFI V1 load(1, XDATA, add(CFA_XSP16, literal(-21)))
          CFI V2 load(1, XDATA, add(CFA_XSP16, literal(-20)))
          CFI V3 load(1, XDATA, add(CFA_XSP16, literal(-19)))
          CFI V4 load(1, XDATA, add(CFA_XSP16, literal(-18)))
          CFI V5 load(1, XDATA, add(CFA_XSP16, literal(-17)))
          CFI V6 load(1, XDATA, add(CFA_XSP16, literal(-16)))
          CFI V7 load(1, XDATA, add(CFA_XSP16, literal(-15)))
          CFI V8 load(1, XDATA, add(CFA_XSP16, literal(-14)))
          CFI V9 load(1, XDATA, add(CFA_XSP16, literal(-13)))
          CFI V10 load(1, XDATA, add(CFA_XSP16, literal(-12)))
          CFI V11 load(1, XDATA, add(CFA_XSP16, literal(-11)))
          CFI V12 load(1, XDATA, add(CFA_XSP16, literal(-10)))
          CFI V13 load(1, XDATA, add(CFA_XSP16, literal(-9)))
          CFI V14 load(1, XDATA, add(CFA_XSP16, literal(-8)))
          CFI V15 load(1, XDATA, add(CFA_XSP16, literal(-7)))
          CFI R7 load(1, XDATA, add(CFA_XSP16, literal(-6)))
          CFI ?RET_LOW load(1, XDATA, add(CFA_XSP16, literal(-5)))
          CFI ?RET_HIGH load(1, XDATA, add(CFA_XSP16, literal(-4)))
          CFI ?BRET_EXT load(1, XDATA, add(CFA_XSP16, literal(-3)))
          CFI DPL0 load(1, XDATA, add(CFA_XSP16, literal(-2)))
          CFI DPH0 load(1, XDATA, add(CFA_XSP16, literal(-1)))
          CFI CFA_SP SP+-2
          CFI CFA_XSP16 add(XSP16, 24)
          CFI Block cfiCond139 Using cfiCommon0
          CFI (cfiCond139) Function AT_ZDO_ProcessMsgCBs
          CFI (cfiCond139) Conditional ??CrossCallReturnLabel_84
          CFI (cfiCond139) R6 load(1, XDATA, add(CFA_XSP16, literal(-18)))
          CFI (cfiCond139) VB load(1, XDATA, add(CFA_XSP16, literal(-17)))
          CFI (cfiCond139) V0 load(1, XDATA, add(CFA_XSP16, literal(-16)))
          CFI (cfiCond139) V1 load(1, XDATA, add(CFA_XSP16, literal(-15)))
          CFI (cfiCond139) V2 load(1, XDATA, add(CFA_XSP16, literal(-14)))
          CFI (cfiCond139) V3 load(1, XDATA, add(CFA_XSP16, literal(-13)))
          CFI (cfiCond139) V4 load(1, XDATA, add(CFA_XSP16, literal(-12)))
          CFI (cfiCond139) V5 load(1, XDATA, add(CFA_XSP16, literal(-11)))
          CFI (cfiCond139) V6 load(1, XDATA, add(CFA_XSP16, literal(-10)))
          CFI (cfiCond139) V7 load(1, XDATA, add(CFA_XSP16, literal(-9)))
          CFI (cfiCond139) V8 load(1, XDATA, add(CFA_XSP16, literal(-8)))
          CFI (cfiCond139) V9 load(1, XDATA, add(CFA_XSP16, literal(-7)))
          CFI (cfiCond139) R7 load(1, XDATA, add(CFA_XSP16, literal(-6)))
          CFI (cfiCond139) ?RET_LOW load(1, XDATA, add(CFA_XSP16, literal(-5)))
          CFI (cfiCond139) ?RET_HIGH load(1, XDATA, add(CFA_XSP16, literal(-4)))
          CFI (cfiCond139) ?BRET_EXT load(1, XDATA, add(CFA_XSP16, literal(-3)))
          CFI (cfiCond139) DPL0 load(1, XDATA, add(CFA_XSP16, literal(-2)))
          CFI (cfiCond139) DPH0 load(1, XDATA, add(CFA_XSP16, literal(-1)))
          CFI (cfiCond139) CFA_SP SP+-2
          CFI (cfiCond139) CFA_XSP16 add(XSP16, 45)
          CFI Block cfiCond140 Using cfiCommon0
          CFI (cfiCond140) Function AT_ZDO_ProcessMsgCBs
          CFI (cfiCond140) Conditional ??CrossCallReturnLabel_82
          CFI (cfiCond140) R6 load(1, XDATA, add(CFA_XSP16, literal(-18)))
          CFI (cfiCond140) VB load(1, XDATA, add(CFA_XSP16, literal(-17)))
          CFI (cfiCond140) V0 load(1, XDATA, add(CFA_XSP16, literal(-16)))
          CFI (cfiCond140) V1 load(1, XDATA, add(CFA_XSP16, literal(-15)))
          CFI (cfiCond140) V2 load(1, XDATA, add(CFA_XSP16, literal(-14)))
          CFI (cfiCond140) V3 load(1, XDATA, add(CFA_XSP16, literal(-13)))
          CFI (cfiCond140) V4 load(1, XDATA, add(CFA_XSP16, literal(-12)))
          CFI (cfiCond140) V5 load(1, XDATA, add(CFA_XSP16, literal(-11)))
          CFI (cfiCond140) V6 load(1, XDATA, add(CFA_XSP16, literal(-10)))
          CFI (cfiCond140) V7 load(1, XDATA, add(CFA_XSP16, literal(-9)))
          CFI (cfiCond140) V8 load(1, XDATA, add(CFA_XSP16, literal(-8)))
          CFI (cfiCond140) V9 load(1, XDATA, add(CFA_XSP16, literal(-7)))
          CFI (cfiCond140) R7 load(1, XDATA, add(CFA_XSP16, literal(-6)))
          CFI (cfiCond140) ?RET_LOW load(1, XDATA, add(CFA_XSP16, literal(-5)))
          CFI (cfiCond140) ?RET_HIGH load(1, XDATA, add(CFA_XSP16, literal(-4)))
          CFI (cfiCond140) ?BRET_EXT load(1, XDATA, add(CFA_XSP16, literal(-3)))
          CFI (cfiCond140) DPL0 load(1, XDATA, add(CFA_XSP16, literal(-2)))
          CFI (cfiCond140) DPH0 load(1, XDATA, add(CFA_XSP16, literal(-1)))
          CFI (cfiCond140) CFA_SP SP+-2
          CFI (cfiCond140) CFA_XSP16 add(XSP16, 45)
          CFI Block cfiCond141 Using cfiCommon0
          CFI (cfiCond141) Function AT_ZDO_ProcessMsgCBs
          CFI (cfiCond141) Conditional ??CrossCallReturnLabel_83
          CFI (cfiCond141) R6 load(1, XDATA, add(CFA_XSP16, literal(-18)))
          CFI (cfiCond141) VB load(1, XDATA, add(CFA_XSP16, literal(-17)))
          CFI (cfiCond141) V0 load(1, XDATA, add(CFA_XSP16, literal(-16)))
          CFI (cfiCond141) V1 load(1, XDATA, add(CFA_XSP16, literal(-15)))
          CFI (cfiCond141) V2 load(1, XDATA, add(CFA_XSP16, literal(-14)))
          CFI (cfiCond141) V3 load(1, XDATA, add(CFA_XSP16, literal(-13)))
          CFI (cfiCond141) V4 load(1, XDATA, add(CFA_XSP16, literal(-12)))
          CFI (cfiCond141) V5 load(1, XDATA, add(CFA_XSP16, literal(-11)))
          CFI (cfiCond141) V6 load(1, XDATA, add(CFA_XSP16, literal(-10)))
          CFI (cfiCond141) V7 load(1, XDATA, add(CFA_XSP16, literal(-9)))
          CFI (cfiCond141) V8 load(1, XDATA, add(CFA_XSP16, literal(-8)))
          CFI (cfiCond141) V9 load(1, XDATA, add(CFA_XSP16, literal(-7)))
          CFI (cfiCond141) R7 load(1, XDATA, add(CFA_XSP16, literal(-6)))
          CFI (cfiCond141) ?RET_LOW load(1, XDATA, add(CFA_XSP16, literal(-5)))
          CFI (cfiCond141) ?RET_HIGH load(1, XDATA, add(CFA_XSP16, literal(-4)))
          CFI (cfiCond141) ?BRET_EXT load(1, XDATA, add(CFA_XSP16, literal(-3)))
          CFI (cfiCond141) DPL0 load(1, XDATA, add(CFA_XSP16, literal(-2)))
          CFI (cfiCond141) DPH0 load(1, XDATA, add(CFA_XSP16, literal(-1)))
          CFI (cfiCond141) CFA_SP SP+-2
          CFI (cfiCond141) CFA_XSP16 add(XSP16, 45)
          CFI Block cfiPicker142 Using cfiCommon1
          CFI (cfiPicker142) NoFunction
          CFI (cfiPicker142) Picker
        MOV       DPL,?V0
        MOV       DPH,?V1
          CFI EndBlock cfiCond138
          CFI EndBlock cfiCond139
          CFI EndBlock cfiCond140
          CFI EndBlock cfiCond141
          CFI EndBlock cfiPicker142
        REQUIRE ??Subroutine34_0
        ; // Fall through to label ??Subroutine34_0

        RSEG BANKED_CODE:HUGECODE:NOROOT(0)
??Subroutine34_0:
          CFI Block cfiCond143 Using cfiCommon0
          CFI Function AT_Cmd_FN_CB
          CFI Conditional ??CrossCallReturnLabel_85
          CFI R6 load(1, XDATA, add(CFA_XSP16, literal(-12)))
          CFI VB load(1, XDATA, add(CFA_XSP16, literal(-11)))
          CFI V0 load(1, XDATA, add(CFA_XSP16, literal(-10)))
          CFI V1 load(1, XDATA, add(CFA_XSP16, literal(-9)))
          CFI V2 load(1, XDATA, add(CFA_XSP16, literal(-8)))
          CFI V3 load(1, XDATA, add(CFA_XSP16, literal(-7)))
          CFI R7 load(1, XDATA, add(CFA_XSP16, literal(-6)))
          CFI ?RET_LOW load(1, XDATA, add(CFA_XSP16, literal(-5)))
          CFI ?RET_HIGH load(1, XDATA, add(CFA_XSP16, literal(-4)))
          CFI ?BRET_EXT load(1, XDATA, add(CFA_XSP16, literal(-3)))
          CFI DPL0 load(1, XDATA, add(CFA_XSP16, literal(-2)))
          CFI DPH0 load(1, XDATA, add(CFA_XSP16, literal(-1)))
          CFI CFA_SP SP+-2
          CFI CFA_XSP16 add(XSP16, 22)
          CFI Block cfiCond144 Using cfiCommon0
          CFI (cfiCond144) Function AT_ZDO_ProcessMgmtLqiRsp
          CFI (cfiCond144) Conditional ??CrossCallReturnLabel_86
          CFI (cfiCond144) R6 load(1, XDATA, add(CFA_XSP16, literal(-24)))
          CFI (cfiCond144) VB load(1, XDATA, add(CFA_XSP16, literal(-23)))
          CFI (cfiCond144) V0 load(1, XDATA, add(CFA_XSP16, literal(-22)))
          CFI (cfiCond144) V1 load(1, XDATA, add(CFA_XSP16, literal(-21)))
          CFI (cfiCond144) V2 load(1, XDATA, add(CFA_XSP16, literal(-20)))
          CFI (cfiCond144) V3 load(1, XDATA, add(CFA_XSP16, literal(-19)))
          CFI (cfiCond144) V4 load(1, XDATA, add(CFA_XSP16, literal(-18)))
          CFI (cfiCond144) V5 load(1, XDATA, add(CFA_XSP16, literal(-17)))
          CFI (cfiCond144) V6 load(1, XDATA, add(CFA_XSP16, literal(-16)))
          CFI (cfiCond144) V7 load(1, XDATA, add(CFA_XSP16, literal(-15)))
          CFI (cfiCond144) V8 load(1, XDATA, add(CFA_XSP16, literal(-14)))
          CFI (cfiCond144) V9 load(1, XDATA, add(CFA_XSP16, literal(-13)))
          CFI (cfiCond144) V10 load(1, XDATA, add(CFA_XSP16, literal(-12)))
          CFI (cfiCond144) V11 load(1, XDATA, add(CFA_XSP16, literal(-11)))
          CFI (cfiCond144) V12 load(1, XDATA, add(CFA_XSP16, literal(-10)))
          CFI (cfiCond144) V13 load(1, XDATA, add(CFA_XSP16, literal(-9)))
          CFI (cfiCond144) V14 load(1, XDATA, add(CFA_XSP16, literal(-8)))
          CFI (cfiCond144) V15 load(1, XDATA, add(CFA_XSP16, literal(-7)))
          CFI (cfiCond144) R7 load(1, XDATA, add(CFA_XSP16, literal(-6)))
          CFI (cfiCond144) ?RET_LOW load(1, XDATA, add(CFA_XSP16, literal(-5)))
          CFI (cfiCond144) ?RET_HIGH load(1, XDATA, add(CFA_XSP16, literal(-4)))
          CFI (cfiCond144) ?BRET_EXT load(1, XDATA, add(CFA_XSP16, literal(-3)))
          CFI (cfiCond144) DPL0 load(1, XDATA, add(CFA_XSP16, literal(-2)))
          CFI (cfiCond144) DPH0 load(1, XDATA, add(CFA_XSP16, literal(-1)))
          CFI (cfiCond144) CFA_SP SP+-2
          CFI (cfiCond144) CFA_XSP16 add(XSP16, 24)
          CFI Block cfiCond145 Using cfiCommon0
          CFI (cfiCond145) Function AT_ZDO_ProcessMgmtLqiRsp
          CFI (cfiCond145) Conditional ??CrossCallReturnLabel_87
          CFI (cfiCond145) R6 load(1, XDATA, add(CFA_XSP16, literal(-24)))
          CFI (cfiCond145) VB load(1, XDATA, add(CFA_XSP16, literal(-23)))
          CFI (cfiCond145) V0 load(1, XDATA, add(CFA_XSP16, literal(-22)))
          CFI (cfiCond145) V1 load(1, XDATA, add(CFA_XSP16, literal(-21)))
          CFI (cfiCond145) V2 load(1, XDATA, add(CFA_XSP16, literal(-20)))
          CFI (cfiCond145) V3 load(1, XDATA, add(CFA_XSP16, literal(-19)))
          CFI (cfiCond145) V4 load(1, XDATA, add(CFA_XSP16, literal(-18)))
          CFI (cfiCond145) V5 load(1, XDATA, add(CFA_XSP16, literal(-17)))
          CFI (cfiCond145) V6 load(1, XDATA, add(CFA_XSP16, literal(-16)))
          CFI (cfiCond145) V7 load(1, XDATA, add(CFA_XSP16, literal(-15)))
          CFI (cfiCond145) V8 load(1, XDATA, add(CFA_XSP16, literal(-14)))
          CFI (cfiCond145) V9 load(1, XDATA, add(CFA_XSP16, literal(-13)))
          CFI (cfiCond145) V10 load(1, XDATA, add(CFA_XSP16, literal(-12)))
          CFI (cfiCond145) V11 load(1, XDATA, add(CFA_XSP16, literal(-11)))
          CFI (cfiCond145) V12 load(1, XDATA, add(CFA_XSP16, literal(-10)))
          CFI (cfiCond145) V13 load(1, XDATA, add(CFA_XSP16, literal(-9)))
          CFI (cfiCond145) V14 load(1, XDATA, add(CFA_XSP16, literal(-8)))
          CFI (cfiCond145) V15 load(1, XDATA, add(CFA_XSP16, literal(-7)))
          CFI (cfiCond145) R7 load(1, XDATA, add(CFA_XSP16, literal(-6)))
          CFI (cfiCond145) ?RET_LOW load(1, XDATA, add(CFA_XSP16, literal(-5)))
          CFI (cfiCond145) ?RET_HIGH load(1, XDATA, add(CFA_XSP16, literal(-4)))
          CFI (cfiCond145) ?BRET_EXT load(1, XDATA, add(CFA_XSP16, literal(-3)))
          CFI (cfiCond145) DPL0 load(1, XDATA, add(CFA_XSP16, literal(-2)))
          CFI (cfiCond145) DPH0 load(1, XDATA, add(CFA_XSP16, literal(-1)))
          CFI (cfiCond145) CFA_SP SP+-2
          CFI (cfiCond145) CFA_XSP16 add(XSP16, 24)
          CFI Block cfiCond146 Using cfiCommon0
          CFI (cfiCond146) Function AT_ZDO_ProcessMsgCBs
          CFI (cfiCond146) Conditional ??CrossCallReturnLabel_84
          CFI (cfiCond146) R6 load(1, XDATA, add(CFA_XSP16, literal(-18)))
          CFI (cfiCond146) VB load(1, XDATA, add(CFA_XSP16, literal(-17)))
          CFI (cfiCond146) V0 load(1, XDATA, add(CFA_XSP16, literal(-16)))
          CFI (cfiCond146) V1 load(1, XDATA, add(CFA_XSP16, literal(-15)))
          CFI (cfiCond146) V2 load(1, XDATA, add(CFA_XSP16, literal(-14)))
          CFI (cfiCond146) V3 load(1, XDATA, add(CFA_XSP16, literal(-13)))
          CFI (cfiCond146) V4 load(1, XDATA, add(CFA_XSP16, literal(-12)))
          CFI (cfiCond146) V5 load(1, XDATA, add(CFA_XSP16, literal(-11)))
          CFI (cfiCond146) V6 load(1, XDATA, add(CFA_XSP16, literal(-10)))
          CFI (cfiCond146) V7 load(1, XDATA, add(CFA_XSP16, literal(-9)))
          CFI (cfiCond146) V8 load(1, XDATA, add(CFA_XSP16, literal(-8)))
          CFI (cfiCond146) V9 load(1, XDATA, add(CFA_XSP16, literal(-7)))
          CFI (cfiCond146) R7 load(1, XDATA, add(CFA_XSP16, literal(-6)))
          CFI (cfiCond146) ?RET_LOW load(1, XDATA, add(CFA_XSP16, literal(-5)))
          CFI (cfiCond146) ?RET_HIGH load(1, XDATA, add(CFA_XSP16, literal(-4)))
          CFI (cfiCond146) ?BRET_EXT load(1, XDATA, add(CFA_XSP16, literal(-3)))
          CFI (cfiCond146) DPL0 load(1, XDATA, add(CFA_XSP16, literal(-2)))
          CFI (cfiCond146) DPH0 load(1, XDATA, add(CFA_XSP16, literal(-1)))
          CFI (cfiCond146) CFA_SP SP+-2
          CFI (cfiCond146) CFA_XSP16 add(XSP16, 45)
          CFI Block cfiCond147 Using cfiCommon0
          CFI (cfiCond147) Function AT_ZDO_ProcessMsgCBs
          CFI (cfiCond147) Conditional ??CrossCallReturnLabel_82
          CFI (cfiCond147) R6 load(1, XDATA, add(CFA_XSP16, literal(-18)))
          CFI (cfiCond147) VB load(1, XDATA, add(CFA_XSP16, literal(-17)))
          CFI (cfiCond147) V0 load(1, XDATA, add(CFA_XSP16, literal(-16)))
          CFI (cfiCond147) V1 load(1, XDATA, add(CFA_XSP16, literal(-15)))
          CFI (cfiCond147) V2 load(1, XDATA, add(CFA_XSP16, literal(-14)))
          CFI (cfiCond147) V3 load(1, XDATA, add(CFA_XSP16, literal(-13)))
          CFI (cfiCond147) V4 load(1, XDATA, add(CFA_XSP16, literal(-12)))
          CFI (cfiCond147) V5 load(1, XDATA, add(CFA_XSP16, literal(-11)))
          CFI (cfiCond147) V6 load(1, XDATA, add(CFA_XSP16, literal(-10)))
          CFI (cfiCond147) V7 load(1, XDATA, add(CFA_XSP16, literal(-9)))
          CFI (cfiCond147) V8 load(1, XDATA, add(CFA_XSP16, literal(-8)))
          CFI (cfiCond147) V9 load(1, XDATA, add(CFA_XSP16, literal(-7)))
          CFI (cfiCond147) R7 load(1, XDATA, add(CFA_XSP16, literal(-6)))
          CFI (cfiCond147) ?RET_LOW load(1, XDATA, add(CFA_XSP16, literal(-5)))
          CFI (cfiCond147) ?RET_HIGH load(1, XDATA, add(CFA_XSP16, literal(-4)))
          CFI (cfiCond147) ?BRET_EXT load(1, XDATA, add(CFA_XSP16, literal(-3)))
          CFI (cfiCond147) DPL0 load(1, XDATA, add(CFA_XSP16, literal(-2)))
          CFI (cfiCond147) DPH0 load(1, XDATA, add(CFA_XSP16, literal(-1)))
          CFI (cfiCond147) CFA_SP SP+-2
          CFI (cfiCond147) CFA_XSP16 add(XSP16, 45)
          CFI Block cfiCond148 Using cfiCommon0
          CFI (cfiCond148) Function AT_ZDO_ProcessMsgCBs
          CFI (cfiCond148) Conditional ??CrossCallReturnLabel_83
          CFI (cfiCond148) R6 load(1, XDATA, add(CFA_XSP16, literal(-18)))
          CFI (cfiCond148) VB load(1, XDATA, add(CFA_XSP16, literal(-17)))
          CFI (cfiCond148) V0 load(1, XDATA, add(CFA_XSP16, literal(-16)))
          CFI (cfiCond148) V1 load(1, XDATA, add(CFA_XSP16, literal(-15)))
          CFI (cfiCond148) V2 load(1, XDATA, add(CFA_XSP16, literal(-14)))
          CFI (cfiCond148) V3 load(1, XDATA, add(CFA_XSP16, literal(-13)))
          CFI (cfiCond148) V4 load(1, XDATA, add(CFA_XSP16, literal(-12)))
          CFI (cfiCond148) V5 load(1, XDATA, add(CFA_XSP16, literal(-11)))
          CFI (cfiCond148) V6 load(1, XDATA, add(CFA_XSP16, literal(-10)))
          CFI (cfiCond148) V7 load(1, XDATA, add(CFA_XSP16, literal(-9)))
          CFI (cfiCond148) V8 load(1, XDATA, add(CFA_XSP16, literal(-8)))
          CFI (cfiCond148) V9 load(1, XDATA, add(CFA_XSP16, literal(-7)))
          CFI (cfiCond148) R7 load(1, XDATA, add(CFA_XSP16, literal(-6)))
          CFI (cfiCond148) ?RET_LOW load(1, XDATA, add(CFA_XSP16, literal(-5)))
          CFI (cfiCond148) ?RET_HIGH load(1, XDATA, add(CFA_XSP16, literal(-4)))
          CFI (cfiCond148) ?BRET_EXT load(1, XDATA, add(CFA_XSP16, literal(-3)))
          CFI (cfiCond148) DPL0 load(1, XDATA, add(CFA_XSP16, literal(-2)))
          CFI (cfiCond148) DPH0 load(1, XDATA, add(CFA_XSP16, literal(-1)))
          CFI (cfiCond148) CFA_SP SP+-2
          CFI (cfiCond148) CFA_XSP16 add(XSP16, 45)
          CFI Block cfiPicker149 Using cfiCommon1
          CFI (cfiPicker149) NoFunction
          CFI (cfiPicker149) Picker
        MOVX      A,@DPTR
        MOV       ?V2,A
        MOV       ?V3,#0x0
        MOV       R0,#?V2
        RET
          CFI EndBlock cfiCond143
          CFI EndBlock cfiCond144
          CFI EndBlock cfiCond145
          CFI EndBlock cfiCond146
          CFI EndBlock cfiCond147
          CFI EndBlock cfiCond148
          CFI EndBlock cfiPicker149
//  668 
//  669 /*******************************************************************************
//  670  * @fn      AT_ZDO_ProcessMgmtRtgRsp
//  671  *
//  672  * @brief   Prompt (example)
//  673  *          RTable:<NodeID>,<errorcode>
//  674  *          Length:03
//  675  *          No.| Dest | Next | Status
//  676  *          0. | 1234 | ABCD | 00
//  677  *          1. | 4321 | 739D | 00
//  678  *          2. | 0000 | 0000 | 03
//  679  *
//  680  * @param   inMsg - incoming message (response)
//  681  *
//  682  * @return  None
//  683  ******************************************************************************/

        RSEG BANKED_CODE:HUGECODE:NOROOT(0)
//  684 void AT_ZDO_ProcessMgmtRtgRsp( zdoIncomingMsg_t *inMsg )
AT_ZDO_ProcessMgmtRtgRsp:
          CFI Block cfiBlock150 Using cfiCommon0
          CFI Function AT_ZDO_ProcessMgmtRtgRsp
        CODE
//  685 {
        FUNCALL AT_ZDO_ProcessMgmtRtgRsp, ZDO_ParseMgmtRtgRsp
        LOCFRAME ISTACK, 0, STACK
        LOCFRAME PSTACK, 0, STACK
        LOCFRAME XSTACK, 14, STACK
        LOCFRAME IOVERLAY, 0, STATIC
        LOCFRAME DOVERLAY, 0, STATIC
        ARGFRAME ISTACK, 0, STACK
        ARGFRAME PSTACK, 0, STACK
        ARGFRAME XSTACK, 14, STACK
        ARGFRAME IOVERLAY, 0, STATIC
        ARGFRAME DOVERLAY, 0, STATIC
        FUNCALL AT_ZDO_ProcessMgmtRtgRsp, AT_Uart0_Send
        LOCFRAME ISTACK, 0, STACK
        LOCFRAME PSTACK, 0, STACK
        LOCFRAME XSTACK, 14, STACK
        LOCFRAME IOVERLAY, 0, STATIC
        LOCFRAME DOVERLAY, 0, STATIC
        ARGFRAME ISTACK, 0, STACK
        ARGFRAME PSTACK, 0, STACK
        ARGFRAME XSTACK, 14, STACK
        ARGFRAME IOVERLAY, 0, STATIC
        ARGFRAME DOVERLAY, 0, STATIC
        FUNCALL AT_ZDO_ProcessMgmtRtgRsp, printf
        LOCFRAME ISTACK, 0, STACK
        LOCFRAME PSTACK, 0, STACK
        LOCFRAME XSTACK, 18, STACK
        LOCFRAME IOVERLAY, 0, STATIC
        LOCFRAME DOVERLAY, 0, STATIC
        ARGFRAME ISTACK, 0, STACK
        ARGFRAME PSTACK, 0, STACK
        ARGFRAME XSTACK, 18, STACK
        ARGFRAME IOVERLAY, 0, STATIC
        ARGFRAME DOVERLAY, 0, STATIC
        FUNCALL AT_ZDO_ProcessMgmtRtgRsp, printf
        LOCFRAME ISTACK, 0, STACK
        LOCFRAME PSTACK, 0, STACK
        LOCFRAME XSTACK, 16, STACK
        LOCFRAME IOVERLAY, 0, STATIC
        LOCFRAME DOVERLAY, 0, STATIC
        ARGFRAME ISTACK, 0, STACK
        ARGFRAME PSTACK, 0, STACK
        ARGFRAME XSTACK, 16, STACK
        ARGFRAME IOVERLAY, 0, STATIC
        ARGFRAME DOVERLAY, 0, STATIC
        FUNCALL AT_ZDO_ProcessMgmtRtgRsp, printf
        LOCFRAME ISTACK, 0, STACK
        LOCFRAME PSTACK, 0, STACK
        LOCFRAME XSTACK, 14, STACK
        LOCFRAME IOVERLAY, 0, STATIC
        LOCFRAME DOVERLAY, 0, STATIC
        ARGFRAME ISTACK, 0, STACK
        ARGFRAME PSTACK, 0, STACK
        ARGFRAME XSTACK, 14, STACK
        ARGFRAME IOVERLAY, 0, STATIC
        ARGFRAME DOVERLAY, 0, STATIC
        FUNCALL AT_ZDO_ProcessMgmtRtgRsp, printf
        LOCFRAME ISTACK, 0, STACK
        LOCFRAME PSTACK, 0, STACK
        LOCFRAME XSTACK, 22, STACK
        LOCFRAME IOVERLAY, 0, STATIC
        LOCFRAME DOVERLAY, 0, STATIC
        ARGFRAME ISTACK, 0, STACK
        ARGFRAME PSTACK, 0, STACK
        ARGFRAME XSTACK, 22, STACK
        ARGFRAME IOVERLAY, 0, STATIC
        ARGFRAME DOVERLAY, 0, STATIC
        FUNCALL AT_ZDO_ProcessMgmtRtgRsp, AT_Uart0_Send
        LOCFRAME ISTACK, 0, STACK
        LOCFRAME PSTACK, 0, STACK
        LOCFRAME XSTACK, 14, STACK
        LOCFRAME IOVERLAY, 0, STATIC
        LOCFRAME DOVERLAY, 0, STATIC
        ARGFRAME ISTACK, 0, STACK
        ARGFRAME PSTACK, 0, STACK
        ARGFRAME XSTACK, 14, STACK
        ARGFRAME IOVERLAY, 0, STATIC
        ARGFRAME DOVERLAY, 0, STATIC
        FUNCALL AT_ZDO_ProcessMgmtRtgRsp, osal_mem_free
        LOCFRAME ISTACK, 0, STACK
        LOCFRAME PSTACK, 0, STACK
        LOCFRAME XSTACK, 14, STACK
        LOCFRAME IOVERLAY, 0, STATIC
        LOCFRAME DOVERLAY, 0, STATIC
        ARGFRAME ISTACK, 0, STACK
        ARGFRAME PSTACK, 0, STACK
        ARGFRAME XSTACK, 14, STACK
        ARGFRAME IOVERLAY, 0, STATIC
        ARGFRAME DOVERLAY, 0, STATIC
        REQUIRE ?V0
        REQUIRE ?V1
        REQUIRE ?V2
        REQUIRE ?V3
        REQUIRE ?V4
        REQUIRE ?V5
        MOV       A,#-0xe
        LCALL     ?BANKED_ENTER_XDATA
          CFI DPH0 load(1, XDATA, add(CFA_XSP16, literal(-1)))
          CFI DPL0 load(1, XDATA, add(CFA_XSP16, literal(-2)))
          CFI ?BRET_EXT load(1, XDATA, add(CFA_XSP16, literal(-3)))
          CFI ?RET_HIGH load(1, XDATA, add(CFA_XSP16, literal(-4)))
          CFI ?RET_LOW load(1, XDATA, add(CFA_XSP16, literal(-5)))
          CFI R7 load(1, XDATA, add(CFA_XSP16, literal(-6)))
          CFI V5 load(1, XDATA, add(CFA_XSP16, literal(-7)))
          CFI V4 load(1, XDATA, add(CFA_XSP16, literal(-8)))
          CFI V3 load(1, XDATA, add(CFA_XSP16, literal(-9)))
          CFI V2 load(1, XDATA, add(CFA_XSP16, literal(-10)))
          CFI V1 load(1, XDATA, add(CFA_XSP16, literal(-11)))
          CFI V0 load(1, XDATA, add(CFA_XSP16, literal(-12)))
          CFI VB load(1, XDATA, add(CFA_XSP16, literal(-13)))
          CFI R6 load(1, XDATA, add(CFA_XSP16, literal(-14)))
          CFI CFA_SP SP+0
          CFI CFA_XSP16 add(XSP16, 14)
        ; Saved register size: 14
        ; Auto size: 0
        MOV       A,R2
        MOV       R6,A
        MOV       A,R3
        MOV       R7,A
//  686   ZDO_MgmtRtgRsp_t* pRsp = (ZDO_MgmtRtgRsp_t*)ZDO_ParseMgmtRtgRsp(inMsg );
        ; Setup parameters for call to function ZDO_ParseMgmtRtgRsp
        LCALL     `??ZDO_ParseMgmtRtgRsp::?relay`; Banked call to: ZDO_ParseMgmtRtgRsp
        MOV       ?V2,R2
        MOV       ?V3,R3
//  687 
//  688   AT_NEW_LINE();
        MOV       ?V0,#`?<Constant "\\r\\n">` & 0xff
        MOV       ?V1,#(`?<Constant "\\r\\n">` >> 8) & 0xff
        ; Setup parameters for call to function AT_Uart0_Send
        MOV       R4,#0x2
        MOV       R5,#0x0
        MOV       R2,?V0
        MOV       R3,?V1
        LCALL     ?Subroutine14 & 0xFFFF
//  689 
//  690   // RTable:<NodeID>,<errorcode>
//  691   if (inMsg->srcAddr.addrMode == (afAddrMode_t)Addr16Bit) {
??CrossCallReturnLabel_14:
        JNZ       ??AT_ZDO_ProcessMgmtRtgRsp_0
//  692     printf("RTable:%04X,%02X\r\n", (uint16)inMsg->srcAddr.addr.shortAddr,
//  693            pRsp->status);
        ; Setup parameters for call to function printf
        MOV       DPL,?V2
        MOV       DPH,?V3
        LCALL     ??Subroutine36_0 & 0xFFFF
//  694   }
??CrossCallReturnLabel_89:
        LCALL     ?PUSH_XSTACK_I_TWO
          CFI CFA_XSP16 add(XSP16, 16)
        MOV       DPL,R6
        MOV       DPH,R7
        INC       DPTR
        INC       DPTR
        LCALL     ?PUSH_XSTACK8_X_TWO
          CFI CFA_XSP16 add(XSP16, 18)
        MOV       R2,#`?<Constant "RTable:%04X,%02X\\r\\n">` & 0xff
        MOV       R3,#(`?<Constant "RTable:%04X,%02X\\r\\n">` >> 8) & 0xff
        LCALL     ?Subroutine21 & 0xFFFF
??CrossCallReturnLabel_36:
        LCALL     ?DEALLOC_XSTACK8
          CFI CFA_XSP16 add(XSP16, 14)
//  695   // Length:XX
//  696   printf("Length:%02X\r\n", pRsp->rtgCount);
??AT_ZDO_ProcessMgmtRtgRsp_0:
        MOV       DPL,?V2
        MOV       DPH,?V3
        INC       DPTR
        MOV       R6,DPL
        MOV       R7,DPH
        ; Setup parameters for call to function printf
        LCALL     ??Subroutine36_0 & 0xFFFF
??CrossCallReturnLabel_90:
        LCALL     ?PUSH_XSTACK_I_TWO
          CFI CFA_XSP16 add(XSP16, 16)
        MOV       R2,#`?<Constant "Length:%02X\\r\\n">` & 0xff
        MOV       R3,#(`?<Constant "Length:%02X\\r\\n">` >> 8) & 0xff
        LCALL     ??Subroutine31_0 & 0xFFFF
??CrossCallReturnLabel_80:
        LCALL     ?DEALLOC_XSTACK8
          CFI CFA_XSP16 add(XSP16, 14)
//  697 
//  698   // No.| Dest | Next | Status
//  699  if (pRsp->rtgCount != 0) printf("No.| Dest | Next | Status\n\r");
        MOV       DPL,R6
        MOV       DPH,R7
        MOVX      A,@DPTR
        JZ        ??AT_ZDO_ProcessMgmtRtgRsp_1
        ; Setup parameters for call to function printf
        MOV       R2,#`?<Constant "No.| Dest | Next | St...">` & 0xff
        MOV       R3,#(`?<Constant "No.| Dest | Next | St...">` >> 8) & 0xff
        LCALL     `??printf::?relay`; Banked call to: printf
//  700 
//  701   uint8 i;
//  702   for (i = 0; i < pRsp->rtgListCount; i++) {
??AT_ZDO_ProcessMgmtRtgRsp_1:
        MOV       R6,#0x0
        SJMP      ??AT_ZDO_ProcessMgmtRtgRsp_2
//  703     // print No.| Dest | Next | Status
//  704     printf("\r\n%02X.| %04X | %04X | %02X",
//  705            i+pRsp->startIndex,
//  706            pRsp->list[i].dstAddress,
//  707            pRsp->list[i].nextHopAddress,
//  708            pRsp->list[i].status);
??AT_ZDO_ProcessMgmtRtgRsp_3:
        MOV       A,R6
        MOV       R4,A
        MOV       B,#0x7
        MUL       AB
        MOV       R0,A
        MOV       R1,B
        MOV       A,?V2
        ADD       A,R0
        MOV       R0,A
        MOV       A,?V3
        ADDC      A,R1
        MOV       R1,A
        MOV       A,R0
        MOV       R2,A
        MOV       A,R1
        ; Setup parameters for call to function printf
        MOV       DPL,R0
        MOV       DPH,A
        INC       DPTR
        INC       DPTR
        INC       DPTR
        INC       DPTR
        INC       DPTR
        LCALL     ??Subroutine35_0 & 0xFFFF
//  709   }
??CrossCallReturnLabel_91:
        LCALL     ?PUSH_XSTACK_I_TWO
          CFI CFA_XSP16 add(XSP16, 16)
        MOV       DPL,R2
        MOV       DPH,R1
        INC       DPTR
        INC       DPTR
        INC       DPTR
        INC       DPTR
        INC       DPTR
        INC       DPTR
        LCALL     ?PUSH_XSTACK8_X_TWO
          CFI CFA_XSP16 add(XSP16, 18)
        MOV       DPL,R2
        MOV       DPH,R1
        INC       DPTR
        INC       DPTR
        INC       DPTR
        INC       DPTR
        LCALL     ?PUSH_XSTACK8_X_TWO
          CFI CFA_XSP16 add(XSP16, 20)
        MOV       DPL,?V2
        MOV       DPH,?V3
        INC       DPTR
        INC       DPTR
        MOVX      A,@DPTR
        MOV       R0,A
        MOV       A,R4
        ADD       A,R0
        MOV       ?V4,A
        CLR       A
        ADDC      A,#0x0
        MOV       ?V5,A
        MOV       R0,#?V4
        LCALL     ?PUSH_XSTACK_I_TWO
          CFI CFA_XSP16 add(XSP16, 22)
        MOV       R2,#`?<Constant "\\r\\n%02X.| %04X | %04X ...">` & 0xff
        MOV       R3,#(`?<Constant "\\r\\n%02X.| %04X | %04X ...">` >> 8) & 0xff
        LCALL     `??printf::?relay`; Banked call to: printf
        MOV       A,#0x8
        LCALL     ?DEALLOC_XSTACK8
          CFI CFA_XSP16 add(XSP16, 14)
        INC       R6
??AT_ZDO_ProcessMgmtRtgRsp_2:
        MOV       DPL,?V2
        MOV       DPH,?V3
        INC       DPTR
        INC       DPTR
        INC       DPTR
        MOVX      A,@DPTR
        MOV       R0,A
        MOV       A,R6
        CLR       C
        SUBB      A,R0
        JC        ??AT_ZDO_ProcessMgmtRtgRsp_3
//  710   AT_NEW_LINE();
        ; Setup parameters for call to function AT_Uart0_Send
        MOV       R4,#0x2
        MOV       R5,#0x0
        MOV       R2,?V0
        MOV       R3,?V1
        LCALL     `??AT_Uart0_Send::?relay`; Banked call to: AT_Uart0_Send
//  711   osal_mem_free( pRsp );
        ; Setup parameters for call to function osal_mem_free
        MOV       R2,?V2
        MOV       R3,?V3
        LCALL     `??osal_mem_free::?relay`; Banked call to: osal_mem_free
//  712 }
        LJMP      ?Subroutine2 & 0xFFFF
          CFI EndBlock cfiBlock150

        RSEG BANKED_CODE:HUGECODE:NOROOT(0)
?Subroutine14:
          CFI Block cfiCond151 Using cfiCommon0
          CFI Function AT_ZDO_ProcessMgmtLqiRsp
          CFI Conditional ??CrossCallReturnLabel_13
          CFI R6 load(1, XDATA, add(CFA_XSP16, literal(-24)))
          CFI VB load(1, XDATA, add(CFA_XSP16, literal(-23)))
          CFI V0 load(1, XDATA, add(CFA_XSP16, literal(-22)))
          CFI V1 load(1, XDATA, add(CFA_XSP16, literal(-21)))
          CFI V2 load(1, XDATA, add(CFA_XSP16, literal(-20)))
          CFI V3 load(1, XDATA, add(CFA_XSP16, literal(-19)))
          CFI V4 load(1, XDATA, add(CFA_XSP16, literal(-18)))
          CFI V5 load(1, XDATA, add(CFA_XSP16, literal(-17)))
          CFI V6 load(1, XDATA, add(CFA_XSP16, literal(-16)))
          CFI V7 load(1, XDATA, add(CFA_XSP16, literal(-15)))
          CFI V8 load(1, XDATA, add(CFA_XSP16, literal(-14)))
          CFI V9 load(1, XDATA, add(CFA_XSP16, literal(-13)))
          CFI V10 load(1, XDATA, add(CFA_XSP16, literal(-12)))
          CFI V11 load(1, XDATA, add(CFA_XSP16, literal(-11)))
          CFI V12 load(1, XDATA, add(CFA_XSP16, literal(-10)))
          CFI V13 load(1, XDATA, add(CFA_XSP16, literal(-9)))
          CFI V14 load(1, XDATA, add(CFA_XSP16, literal(-8)))
          CFI V15 load(1, XDATA, add(CFA_XSP16, literal(-7)))
          CFI R7 load(1, XDATA, add(CFA_XSP16, literal(-6)))
          CFI ?RET_LOW load(1, XDATA, add(CFA_XSP16, literal(-5)))
          CFI ?RET_HIGH load(1, XDATA, add(CFA_XSP16, literal(-4)))
          CFI ?BRET_EXT load(1, XDATA, add(CFA_XSP16, literal(-3)))
          CFI DPL0 load(1, XDATA, add(CFA_XSP16, literal(-2)))
          CFI DPH0 load(1, XDATA, add(CFA_XSP16, literal(-1)))
          CFI CFA_SP SP+-2
          CFI CFA_XSP16 add(XSP16, 24)
          CFI Block cfiCond152 Using cfiCommon0
          CFI (cfiCond152) Function AT_ZDO_ProcessMgmtRtgRsp
          CFI (cfiCond152) Conditional ??CrossCallReturnLabel_14
          CFI (cfiCond152) R6 load(1, XDATA, add(CFA_XSP16, literal(-14)))
          CFI (cfiCond152) VB load(1, XDATA, add(CFA_XSP16, literal(-13)))
          CFI (cfiCond152) V0 load(1, XDATA, add(CFA_XSP16, literal(-12)))
          CFI (cfiCond152) V1 load(1, XDATA, add(CFA_XSP16, literal(-11)))
          CFI (cfiCond152) V2 load(1, XDATA, add(CFA_XSP16, literal(-10)))
          CFI (cfiCond152) V3 load(1, XDATA, add(CFA_XSP16, literal(-9)))
          CFI (cfiCond152) V4 load(1, XDATA, add(CFA_XSP16, literal(-8)))
          CFI (cfiCond152) V5 load(1, XDATA, add(CFA_XSP16, literal(-7)))
          CFI (cfiCond152) R7 load(1, XDATA, add(CFA_XSP16, literal(-6)))
          CFI (cfiCond152) ?RET_LOW load(1, XDATA, add(CFA_XSP16, literal(-5)))
          CFI (cfiCond152) ?RET_HIGH load(1, XDATA, add(CFA_XSP16, literal(-4)))
          CFI (cfiCond152) ?BRET_EXT load(1, XDATA, add(CFA_XSP16, literal(-3)))
          CFI (cfiCond152) DPL0 load(1, XDATA, add(CFA_XSP16, literal(-2)))
          CFI (cfiCond152) DPH0 load(1, XDATA, add(CFA_XSP16, literal(-1)))
          CFI (cfiCond152) CFA_SP SP+-2
          CFI (cfiCond152) CFA_XSP16 add(XSP16, 14)
          CFI Block cfiCond153 Using cfiCommon0
          CFI (cfiCond153) Function AT_ZDO_ProcessMgmtBindRsp
          CFI (cfiCond153) Conditional ??CrossCallReturnLabel_15
          CFI (cfiCond153) R6 load(1, XDATA, add(CFA_XSP16, literal(-20)))
          CFI (cfiCond153) VB load(1, XDATA, add(CFA_XSP16, literal(-19)))
          CFI (cfiCond153) V0 load(1, XDATA, add(CFA_XSP16, literal(-18)))
          CFI (cfiCond153) V1 load(1, XDATA, add(CFA_XSP16, literal(-17)))
          CFI (cfiCond153) V2 load(1, XDATA, add(CFA_XSP16, literal(-16)))
          CFI (cfiCond153) V3 load(1, XDATA, add(CFA_XSP16, literal(-15)))
          CFI (cfiCond153) V4 load(1, XDATA, add(CFA_XSP16, literal(-14)))
          CFI (cfiCond153) V5 load(1, XDATA, add(CFA_XSP16, literal(-13)))
          CFI (cfiCond153) V6 load(1, XDATA, add(CFA_XSP16, literal(-12)))
          CFI (cfiCond153) V7 load(1, XDATA, add(CFA_XSP16, literal(-11)))
          CFI (cfiCond153) V8 load(1, XDATA, add(CFA_XSP16, literal(-10)))
          CFI (cfiCond153) V9 load(1, XDATA, add(CFA_XSP16, literal(-9)))
          CFI (cfiCond153) V10 load(1, XDATA, add(CFA_XSP16, literal(-8)))
          CFI (cfiCond153) V11 load(1, XDATA, add(CFA_XSP16, literal(-7)))
          CFI (cfiCond153) R7 load(1, XDATA, add(CFA_XSP16, literal(-6)))
          CFI (cfiCond153) ?RET_LOW load(1, XDATA, add(CFA_XSP16, literal(-5)))
          CFI (cfiCond153) ?RET_HIGH load(1, XDATA, add(CFA_XSP16, literal(-4)))
          CFI (cfiCond153) ?BRET_EXT load(1, XDATA, add(CFA_XSP16, literal(-3)))
          CFI (cfiCond153) DPL0 load(1, XDATA, add(CFA_XSP16, literal(-2)))
          CFI (cfiCond153) DPH0 load(1, XDATA, add(CFA_XSP16, literal(-1)))
          CFI (cfiCond153) CFA_SP SP+-2
          CFI (cfiCond153) CFA_XSP16 add(XSP16, 42)
          CFI Block cfiPicker154 Using cfiCommon1
          CFI (cfiPicker154) NoFunction
          CFI (cfiPicker154) Picker
        LCALL     `??AT_Uart0_Send::?relay`; Banked call to: AT_Uart0_Send
        MOV       DPL,R6
        MOV       DPH,R7
        INC       DPTR
        INC       DPTR
        INC       DPTR
        INC       DPTR
        INC       DPTR
        INC       DPTR
        INC       DPTR
        INC       DPTR
        INC       DPTR
        INC       DPTR
        MOVX      A,@DPTR
        XRL       A,#0x2
        RET
          CFI EndBlock cfiCond151
          CFI EndBlock cfiCond152
          CFI EndBlock cfiCond153
          CFI EndBlock cfiPicker154

        RSEG BANKED_CODE:HUGECODE:NOROOT(0)
?Subroutine5:
          CFI Block cfiCond155 Using cfiCommon0
          CFI Function AT_ZDO_ProcessMsgCBs
          CFI Conditional ??CrossCallReturnLabel_92
          CFI R6 load(1, XDATA, add(CFA_XSP16, literal(-18)))
          CFI VB load(1, XDATA, add(CFA_XSP16, literal(-17)))
          CFI V0 load(1, XDATA, add(CFA_XSP16, literal(-16)))
          CFI V1 load(1, XDATA, add(CFA_XSP16, literal(-15)))
          CFI V2 load(1, XDATA, add(CFA_XSP16, literal(-14)))
          CFI V3 load(1, XDATA, add(CFA_XSP16, literal(-13)))
          CFI V4 load(1, XDATA, add(CFA_XSP16, literal(-12)))
          CFI V5 load(1, XDATA, add(CFA_XSP16, literal(-11)))
          CFI V6 load(1, XDATA, add(CFA_XSP16, literal(-10)))
          CFI V7 load(1, XDATA, add(CFA_XSP16, literal(-9)))
          CFI V8 load(1, XDATA, add(CFA_XSP16, literal(-8)))
          CFI V9 load(1, XDATA, add(CFA_XSP16, literal(-7)))
          CFI R7 load(1, XDATA, add(CFA_XSP16, literal(-6)))
          CFI ?RET_LOW load(1, XDATA, add(CFA_XSP16, literal(-5)))
          CFI ?RET_HIGH load(1, XDATA, add(CFA_XSP16, literal(-4)))
          CFI ?BRET_EXT load(1, XDATA, add(CFA_XSP16, literal(-3)))
          CFI DPL0 load(1, XDATA, add(CFA_XSP16, literal(-2)))
          CFI DPH0 load(1, XDATA, add(CFA_XSP16, literal(-1)))
          CFI CFA_SP SP+-2
          CFI CFA_XSP16 add(XSP16, 45)
          CFI Block cfiCond156 Using cfiCommon0
          CFI (cfiCond156) Function AT_ZDO_ProcessMsgCBs
          CFI (cfiCond156) Conditional ??CrossCallReturnLabel_93
          CFI (cfiCond156) R6 load(1, XDATA, add(CFA_XSP16, literal(-18)))
          CFI (cfiCond156) VB load(1, XDATA, add(CFA_XSP16, literal(-17)))
          CFI (cfiCond156) V0 load(1, XDATA, add(CFA_XSP16, literal(-16)))
          CFI (cfiCond156) V1 load(1, XDATA, add(CFA_XSP16, literal(-15)))
          CFI (cfiCond156) V2 load(1, XDATA, add(CFA_XSP16, literal(-14)))
          CFI (cfiCond156) V3 load(1, XDATA, add(CFA_XSP16, literal(-13)))
          CFI (cfiCond156) V4 load(1, XDATA, add(CFA_XSP16, literal(-12)))
          CFI (cfiCond156) V5 load(1, XDATA, add(CFA_XSP16, literal(-11)))
          CFI (cfiCond156) V6 load(1, XDATA, add(CFA_XSP16, literal(-10)))
          CFI (cfiCond156) V7 load(1, XDATA, add(CFA_XSP16, literal(-9)))
          CFI (cfiCond156) V8 load(1, XDATA, add(CFA_XSP16, literal(-8)))
          CFI (cfiCond156) V9 load(1, XDATA, add(CFA_XSP16, literal(-7)))
          CFI (cfiCond156) R7 load(1, XDATA, add(CFA_XSP16, literal(-6)))
          CFI (cfiCond156) ?RET_LOW load(1, XDATA, add(CFA_XSP16, literal(-5)))
          CFI (cfiCond156) ?RET_HIGH load(1, XDATA, add(CFA_XSP16, literal(-4)))
          CFI (cfiCond156) ?BRET_EXT load(1, XDATA, add(CFA_XSP16, literal(-3)))
          CFI (cfiCond156) DPL0 load(1, XDATA, add(CFA_XSP16, literal(-2)))
          CFI (cfiCond156) DPH0 load(1, XDATA, add(CFA_XSP16, literal(-1)))
          CFI (cfiCond156) CFA_SP SP+-2
          CFI (cfiCond156) CFA_XSP16 add(XSP16, 45)
          CFI Block cfiPicker157 Using cfiCommon1
          CFI (cfiPicker157) NoFunction
          CFI (cfiPicker157) Picker
        MOV       R0,?V2
        MOV       A,?V0
        ADD       A,R0
        MOV       DPL,A
        CLR       A
        ADDC      A,?V1
        MOV       DPH,A
          CFI EndBlock cfiCond155
          CFI EndBlock cfiCond156
          CFI EndBlock cfiPicker157
        REQUIRE ??Subroutine35_0
        ; // Fall through to label ??Subroutine35_0

        RSEG BANKED_CODE:HUGECODE:NOROOT(0)
??Subroutine35_0:
          CFI Block cfiCond158 Using cfiCommon0
          CFI Function AT_ZDO_ProcessMgmtRtgRsp
          CFI Conditional ??CrossCallReturnLabel_91
          CFI R6 load(1, XDATA, add(CFA_XSP16, literal(-14)))
          CFI VB load(1, XDATA, add(CFA_XSP16, literal(-13)))
          CFI V0 load(1, XDATA, add(CFA_XSP16, literal(-12)))
          CFI V1 load(1, XDATA, add(CFA_XSP16, literal(-11)))
          CFI V2 load(1, XDATA, add(CFA_XSP16, literal(-10)))
          CFI V3 load(1, XDATA, add(CFA_XSP16, literal(-9)))
          CFI V4 load(1, XDATA, add(CFA_XSP16, literal(-8)))
          CFI V5 load(1, XDATA, add(CFA_XSP16, literal(-7)))
          CFI R7 load(1, XDATA, add(CFA_XSP16, literal(-6)))
          CFI ?RET_LOW load(1, XDATA, add(CFA_XSP16, literal(-5)))
          CFI ?RET_HIGH load(1, XDATA, add(CFA_XSP16, literal(-4)))
          CFI ?BRET_EXT load(1, XDATA, add(CFA_XSP16, literal(-3)))
          CFI DPL0 load(1, XDATA, add(CFA_XSP16, literal(-2)))
          CFI DPH0 load(1, XDATA, add(CFA_XSP16, literal(-1)))
          CFI CFA_SP SP+-2
          CFI CFA_XSP16 add(XSP16, 14)
          CFI Block cfiCond159 Using cfiCommon0
          CFI (cfiCond159) Function AT_ZDO_ProcessMsgCBs
          CFI (cfiCond159) Conditional ??CrossCallReturnLabel_92
          CFI (cfiCond159) R6 load(1, XDATA, add(CFA_XSP16, literal(-18)))
          CFI (cfiCond159) VB load(1, XDATA, add(CFA_XSP16, literal(-17)))
          CFI (cfiCond159) V0 load(1, XDATA, add(CFA_XSP16, literal(-16)))
          CFI (cfiCond159) V1 load(1, XDATA, add(CFA_XSP16, literal(-15)))
          CFI (cfiCond159) V2 load(1, XDATA, add(CFA_XSP16, literal(-14)))
          CFI (cfiCond159) V3 load(1, XDATA, add(CFA_XSP16, literal(-13)))
          CFI (cfiCond159) V4 load(1, XDATA, add(CFA_XSP16, literal(-12)))
          CFI (cfiCond159) V5 load(1, XDATA, add(CFA_XSP16, literal(-11)))
          CFI (cfiCond159) V6 load(1, XDATA, add(CFA_XSP16, literal(-10)))
          CFI (cfiCond159) V7 load(1, XDATA, add(CFA_XSP16, literal(-9)))
          CFI (cfiCond159) V8 load(1, XDATA, add(CFA_XSP16, literal(-8)))
          CFI (cfiCond159) V9 load(1, XDATA, add(CFA_XSP16, literal(-7)))
          CFI (cfiCond159) R7 load(1, XDATA, add(CFA_XSP16, literal(-6)))
          CFI (cfiCond159) ?RET_LOW load(1, XDATA, add(CFA_XSP16, literal(-5)))
          CFI (cfiCond159) ?RET_HIGH load(1, XDATA, add(CFA_XSP16, literal(-4)))
          CFI (cfiCond159) ?BRET_EXT load(1, XDATA, add(CFA_XSP16, literal(-3)))
          CFI (cfiCond159) DPL0 load(1, XDATA, add(CFA_XSP16, literal(-2)))
          CFI (cfiCond159) DPH0 load(1, XDATA, add(CFA_XSP16, literal(-1)))
          CFI (cfiCond159) CFA_SP SP+-2
          CFI (cfiCond159) CFA_XSP16 add(XSP16, 45)
          CFI Block cfiCond160 Using cfiCommon0
          CFI (cfiCond160) Function AT_ZDO_ProcessMsgCBs
          CFI (cfiCond160) Conditional ??CrossCallReturnLabel_93
          CFI (cfiCond160) R6 load(1, XDATA, add(CFA_XSP16, literal(-18)))
          CFI (cfiCond160) VB load(1, XDATA, add(CFA_XSP16, literal(-17)))
          CFI (cfiCond160) V0 load(1, XDATA, add(CFA_XSP16, literal(-16)))
          CFI (cfiCond160) V1 load(1, XDATA, add(CFA_XSP16, literal(-15)))
          CFI (cfiCond160) V2 load(1, XDATA, add(CFA_XSP16, literal(-14)))
          CFI (cfiCond160) V3 load(1, XDATA, add(CFA_XSP16, literal(-13)))
          CFI (cfiCond160) V4 load(1, XDATA, add(CFA_XSP16, literal(-12)))
          CFI (cfiCond160) V5 load(1, XDATA, add(CFA_XSP16, literal(-11)))
          CFI (cfiCond160) V6 load(1, XDATA, add(CFA_XSP16, literal(-10)))
          CFI (cfiCond160) V7 load(1, XDATA, add(CFA_XSP16, literal(-9)))
          CFI (cfiCond160) V8 load(1, XDATA, add(CFA_XSP16, literal(-8)))
          CFI (cfiCond160) V9 load(1, XDATA, add(CFA_XSP16, literal(-7)))
          CFI (cfiCond160) R7 load(1, XDATA, add(CFA_XSP16, literal(-6)))
          CFI (cfiCond160) ?RET_LOW load(1, XDATA, add(CFA_XSP16, literal(-5)))
          CFI (cfiCond160) ?RET_HIGH load(1, XDATA, add(CFA_XSP16, literal(-4)))
          CFI (cfiCond160) ?BRET_EXT load(1, XDATA, add(CFA_XSP16, literal(-3)))
          CFI (cfiCond160) DPL0 load(1, XDATA, add(CFA_XSP16, literal(-2)))
          CFI (cfiCond160) DPH0 load(1, XDATA, add(CFA_XSP16, literal(-1)))
          CFI (cfiCond160) CFA_SP SP+-2
          CFI (cfiCond160) CFA_XSP16 add(XSP16, 45)
          CFI Block cfiPicker161 Using cfiCommon1
          CFI (cfiPicker161) NoFunction
          CFI (cfiPicker161) Picker
        INC       DPTR
        INC       DPTR
        INC       DPTR
        INC       DPTR
          CFI EndBlock cfiCond158
          CFI EndBlock cfiCond159
          CFI EndBlock cfiCond160
          CFI EndBlock cfiPicker161
        REQUIRE ??Subroutine36_0
        ; // Fall through to label ??Subroutine36_0

        RSEG BANKED_CODE:HUGECODE:NOROOT(0)
??Subroutine36_0:
          CFI Block cfiCond162 Using cfiCommon0
          CFI Function AT_ZDO_ProcessMgmtNwkDiscRsp
          CFI Conditional ??CrossCallReturnLabel_88
          CFI R6 load(1, XDATA, add(CFA_XSP16, literal(-14)))
          CFI VB load(1, XDATA, add(CFA_XSP16, literal(-13)))
          CFI V0 load(1, XDATA, add(CFA_XSP16, literal(-12)))
          CFI V1 load(1, XDATA, add(CFA_XSP16, literal(-11)))
          CFI V2 load(1, XDATA, add(CFA_XSP16, literal(-10)))
          CFI V3 load(1, XDATA, add(CFA_XSP16, literal(-9)))
          CFI V4 load(1, XDATA, add(CFA_XSP16, literal(-8)))
          CFI V5 load(1, XDATA, add(CFA_XSP16, literal(-7)))
          CFI R7 load(1, XDATA, add(CFA_XSP16, literal(-6)))
          CFI ?RET_LOW load(1, XDATA, add(CFA_XSP16, literal(-5)))
          CFI ?RET_HIGH load(1, XDATA, add(CFA_XSP16, literal(-4)))
          CFI ?BRET_EXT load(1, XDATA, add(CFA_XSP16, literal(-3)))
          CFI DPL0 load(1, XDATA, add(CFA_XSP16, literal(-2)))
          CFI DPH0 load(1, XDATA, add(CFA_XSP16, literal(-1)))
          CFI CFA_SP SP+-2
          CFI CFA_XSP16 add(XSP16, 14)
          CFI Block cfiCond163 Using cfiCommon0
          CFI (cfiCond163) Function AT_ZDO_ProcessMgmtRtgRsp
          CFI (cfiCond163) Conditional ??CrossCallReturnLabel_89
          CFI (cfiCond163) R6 load(1, XDATA, add(CFA_XSP16, literal(-14)))
          CFI (cfiCond163) VB load(1, XDATA, add(CFA_XSP16, literal(-13)))
          CFI (cfiCond163) V0 load(1, XDATA, add(CFA_XSP16, literal(-12)))
          CFI (cfiCond163) V1 load(1, XDATA, add(CFA_XSP16, literal(-11)))
          CFI (cfiCond163) V2 load(1, XDATA, add(CFA_XSP16, literal(-10)))
          CFI (cfiCond163) V3 load(1, XDATA, add(CFA_XSP16, literal(-9)))
          CFI (cfiCond163) V4 load(1, XDATA, add(CFA_XSP16, literal(-8)))
          CFI (cfiCond163) V5 load(1, XDATA, add(CFA_XSP16, literal(-7)))
          CFI (cfiCond163) R7 load(1, XDATA, add(CFA_XSP16, literal(-6)))
          CFI (cfiCond163) ?RET_LOW load(1, XDATA, add(CFA_XSP16, literal(-5)))
          CFI (cfiCond163) ?RET_HIGH load(1, XDATA, add(CFA_XSP16, literal(-4)))
          CFI (cfiCond163) ?BRET_EXT load(1, XDATA, add(CFA_XSP16, literal(-3)))
          CFI (cfiCond163) DPL0 load(1, XDATA, add(CFA_XSP16, literal(-2)))
          CFI (cfiCond163) DPH0 load(1, XDATA, add(CFA_XSP16, literal(-1)))
          CFI (cfiCond163) CFA_SP SP+-2
          CFI (cfiCond163) CFA_XSP16 add(XSP16, 14)
          CFI Block cfiCond164 Using cfiCommon0
          CFI (cfiCond164) Function AT_ZDO_ProcessMgmtRtgRsp
          CFI (cfiCond164) Conditional ??CrossCallReturnLabel_90
          CFI (cfiCond164) R6 load(1, XDATA, add(CFA_XSP16, literal(-14)))
          CFI (cfiCond164) VB load(1, XDATA, add(CFA_XSP16, literal(-13)))
          CFI (cfiCond164) V0 load(1, XDATA, add(CFA_XSP16, literal(-12)))
          CFI (cfiCond164) V1 load(1, XDATA, add(CFA_XSP16, literal(-11)))
          CFI (cfiCond164) V2 load(1, XDATA, add(CFA_XSP16, literal(-10)))
          CFI (cfiCond164) V3 load(1, XDATA, add(CFA_XSP16, literal(-9)))
          CFI (cfiCond164) V4 load(1, XDATA, add(CFA_XSP16, literal(-8)))
          CFI (cfiCond164) V5 load(1, XDATA, add(CFA_XSP16, literal(-7)))
          CFI (cfiCond164) R7 load(1, XDATA, add(CFA_XSP16, literal(-6)))
          CFI (cfiCond164) ?RET_LOW load(1, XDATA, add(CFA_XSP16, literal(-5)))
          CFI (cfiCond164) ?RET_HIGH load(1, XDATA, add(CFA_XSP16, literal(-4)))
          CFI (cfiCond164) ?BRET_EXT load(1, XDATA, add(CFA_XSP16, literal(-3)))
          CFI (cfiCond164) DPL0 load(1, XDATA, add(CFA_XSP16, literal(-2)))
          CFI (cfiCond164) DPH0 load(1, XDATA, add(CFA_XSP16, literal(-1)))
          CFI (cfiCond164) CFA_SP SP+-2
          CFI (cfiCond164) CFA_XSP16 add(XSP16, 14)
          CFI Block cfiCond165 Using cfiCommon0
          CFI (cfiCond165) Function AT_ZDO_ProcessMgmtRtgRsp
          CFI (cfiCond165) Conditional ??CrossCallReturnLabel_91
          CFI (cfiCond165) R6 load(1, XDATA, add(CFA_XSP16, literal(-14)))
          CFI (cfiCond165) VB load(1, XDATA, add(CFA_XSP16, literal(-13)))
          CFI (cfiCond165) V0 load(1, XDATA, add(CFA_XSP16, literal(-12)))
          CFI (cfiCond165) V1 load(1, XDATA, add(CFA_XSP16, literal(-11)))
          CFI (cfiCond165) V2 load(1, XDATA, add(CFA_XSP16, literal(-10)))
          CFI (cfiCond165) V3 load(1, XDATA, add(CFA_XSP16, literal(-9)))
          CFI (cfiCond165) V4 load(1, XDATA, add(CFA_XSP16, literal(-8)))
          CFI (cfiCond165) V5 load(1, XDATA, add(CFA_XSP16, literal(-7)))
          CFI (cfiCond165) R7 load(1, XDATA, add(CFA_XSP16, literal(-6)))
          CFI (cfiCond165) ?RET_LOW load(1, XDATA, add(CFA_XSP16, literal(-5)))
          CFI (cfiCond165) ?RET_HIGH load(1, XDATA, add(CFA_XSP16, literal(-4)))
          CFI (cfiCond165) ?BRET_EXT load(1, XDATA, add(CFA_XSP16, literal(-3)))
          CFI (cfiCond165) DPL0 load(1, XDATA, add(CFA_XSP16, literal(-2)))
          CFI (cfiCond165) DPH0 load(1, XDATA, add(CFA_XSP16, literal(-1)))
          CFI (cfiCond165) CFA_SP SP+-2
          CFI (cfiCond165) CFA_XSP16 add(XSP16, 14)
          CFI Block cfiCond166 Using cfiCommon0
          CFI (cfiCond166) Function AT_ZDO_ProcessMsgCBs
          CFI (cfiCond166) Conditional ??CrossCallReturnLabel_92
          CFI (cfiCond166) R6 load(1, XDATA, add(CFA_XSP16, literal(-18)))
          CFI (cfiCond166) VB load(1, XDATA, add(CFA_XSP16, literal(-17)))
          CFI (cfiCond166) V0 load(1, XDATA, add(CFA_XSP16, literal(-16)))
          CFI (cfiCond166) V1 load(1, XDATA, add(CFA_XSP16, literal(-15)))
          CFI (cfiCond166) V2 load(1, XDATA, add(CFA_XSP16, literal(-14)))
          CFI (cfiCond166) V3 load(1, XDATA, add(CFA_XSP16, literal(-13)))
          CFI (cfiCond166) V4 load(1, XDATA, add(CFA_XSP16, literal(-12)))
          CFI (cfiCond166) V5 load(1, XDATA, add(CFA_XSP16, literal(-11)))
          CFI (cfiCond166) V6 load(1, XDATA, add(CFA_XSP16, literal(-10)))
          CFI (cfiCond166) V7 load(1, XDATA, add(CFA_XSP16, literal(-9)))
          CFI (cfiCond166) V8 load(1, XDATA, add(CFA_XSP16, literal(-8)))
          CFI (cfiCond166) V9 load(1, XDATA, add(CFA_XSP16, literal(-7)))
          CFI (cfiCond166) R7 load(1, XDATA, add(CFA_XSP16, literal(-6)))
          CFI (cfiCond166) ?RET_LOW load(1, XDATA, add(CFA_XSP16, literal(-5)))
          CFI (cfiCond166) ?RET_HIGH load(1, XDATA, add(CFA_XSP16, literal(-4)))
          CFI (cfiCond166) ?BRET_EXT load(1, XDATA, add(CFA_XSP16, literal(-3)))
          CFI (cfiCond166) DPL0 load(1, XDATA, add(CFA_XSP16, literal(-2)))
          CFI (cfiCond166) DPH0 load(1, XDATA, add(CFA_XSP16, literal(-1)))
          CFI (cfiCond166) CFA_SP SP+-2
          CFI (cfiCond166) CFA_XSP16 add(XSP16, 45)
          CFI Block cfiCond167 Using cfiCommon0
          CFI (cfiCond167) Function AT_ZDO_ProcessMsgCBs
          CFI (cfiCond167) Conditional ??CrossCallReturnLabel_93
          CFI (cfiCond167) R6 load(1, XDATA, add(CFA_XSP16, literal(-18)))
          CFI (cfiCond167) VB load(1, XDATA, add(CFA_XSP16, literal(-17)))
          CFI (cfiCond167) V0 load(1, XDATA, add(CFA_XSP16, literal(-16)))
          CFI (cfiCond167) V1 load(1, XDATA, add(CFA_XSP16, literal(-15)))
          CFI (cfiCond167) V2 load(1, XDATA, add(CFA_XSP16, literal(-14)))
          CFI (cfiCond167) V3 load(1, XDATA, add(CFA_XSP16, literal(-13)))
          CFI (cfiCond167) V4 load(1, XDATA, add(CFA_XSP16, literal(-12)))
          CFI (cfiCond167) V5 load(1, XDATA, add(CFA_XSP16, literal(-11)))
          CFI (cfiCond167) V6 load(1, XDATA, add(CFA_XSP16, literal(-10)))
          CFI (cfiCond167) V7 load(1, XDATA, add(CFA_XSP16, literal(-9)))
          CFI (cfiCond167) V8 load(1, XDATA, add(CFA_XSP16, literal(-8)))
          CFI (cfiCond167) V9 load(1, XDATA, add(CFA_XSP16, literal(-7)))
          CFI (cfiCond167) R7 load(1, XDATA, add(CFA_XSP16, literal(-6)))
          CFI (cfiCond167) ?RET_LOW load(1, XDATA, add(CFA_XSP16, literal(-5)))
          CFI (cfiCond167) ?RET_HIGH load(1, XDATA, add(CFA_XSP16, literal(-4)))
          CFI (cfiCond167) ?BRET_EXT load(1, XDATA, add(CFA_XSP16, literal(-3)))
          CFI (cfiCond167) DPL0 load(1, XDATA, add(CFA_XSP16, literal(-2)))
          CFI (cfiCond167) DPH0 load(1, XDATA, add(CFA_XSP16, literal(-1)))
          CFI (cfiCond167) CFA_SP SP+-2
          CFI (cfiCond167) CFA_XSP16 add(XSP16, 45)
          CFI Block cfiPicker168 Using cfiCommon1
          CFI (cfiPicker168) NoFunction
          CFI (cfiPicker168) Picker
        MOVX      A,@DPTR
        MOV       ?V4,A
        MOV       ?V5,#0x0
        MOV       R0,#?V4
        RET
          CFI EndBlock cfiCond162
          CFI EndBlock cfiCond163
          CFI EndBlock cfiCond164
          CFI EndBlock cfiCond165
          CFI EndBlock cfiCond166
          CFI EndBlock cfiCond167
          CFI EndBlock cfiPicker168
//  713 
//  714 /*******************************************************************************
//  715  * @fn      AT_ZDO_ProcessMgmtBindRsp
//  716  *
//  717  * @brief   Prompt (example)
//  718  *          AT+BTABLE:00,0000
//  719  *          SEQ:01
//  720  *          OK
//  721  *          BTable:0000,00
//  722  *          Length:03
//  723  *          No. | SrcAddr | SrcEP | ClusterID | DstAddr | DstEP
//  724  *          00. | 000D6F000059474E | 01 | DEAD |1234567887654321 | 12
//  725  *          01. | 000D6F000059474E | 01 | DEAD |E012345678876543 | E0
//  726  *          02. | 000D6F000059474E | 01 | DEAD | ABCD
//  727  *          ACK:01
//  728  *
//  729  * @param   inMsg - incoming message (response)
//  730  *
//  731  * @return  None
//  732  ******************************************************************************/

        RSEG BANKED_CODE:HUGECODE:NOROOT(0)
//  733 void AT_ZDO_ProcessMgmtBindRsp( zdoIncomingMsg_t *inMsg )
AT_ZDO_ProcessMgmtBindRsp:
          CFI Block cfiBlock169 Using cfiCommon0
          CFI Function AT_ZDO_ProcessMgmtBindRsp
        CODE
//  734 {
        FUNCALL AT_ZDO_ProcessMgmtBindRsp, ZDO_ParseMgmtBindRsp
        LOCFRAME ISTACK, 0, STACK
        LOCFRAME PSTACK, 0, STACK
        LOCFRAME XSTACK, 42, STACK
        LOCFRAME IOVERLAY, 0, STATIC
        LOCFRAME DOVERLAY, 0, STATIC
        ARGFRAME ISTACK, 0, STACK
        ARGFRAME PSTACK, 0, STACK
        ARGFRAME XSTACK, 42, STACK
        ARGFRAME IOVERLAY, 0, STATIC
        ARGFRAME DOVERLAY, 0, STATIC
        FUNCALL AT_ZDO_ProcessMgmtBindRsp, AT_Uart0_Send
        LOCFRAME ISTACK, 0, STACK
        LOCFRAME PSTACK, 0, STACK
        LOCFRAME XSTACK, 42, STACK
        LOCFRAME IOVERLAY, 0, STATIC
        LOCFRAME DOVERLAY, 0, STATIC
        ARGFRAME ISTACK, 0, STACK
        ARGFRAME PSTACK, 0, STACK
        ARGFRAME XSTACK, 42, STACK
        ARGFRAME IOVERLAY, 0, STATIC
        ARGFRAME DOVERLAY, 0, STATIC
        FUNCALL AT_ZDO_ProcessMgmtBindRsp, printf
        LOCFRAME ISTACK, 0, STACK
        LOCFRAME PSTACK, 0, STACK
        LOCFRAME XSTACK, 46, STACK
        LOCFRAME IOVERLAY, 0, STATIC
        LOCFRAME DOVERLAY, 0, STATIC
        ARGFRAME ISTACK, 0, STACK
        ARGFRAME PSTACK, 0, STACK
        ARGFRAME XSTACK, 46, STACK
        ARGFRAME IOVERLAY, 0, STATIC
        ARGFRAME DOVERLAY, 0, STATIC
        FUNCALL AT_ZDO_ProcessMgmtBindRsp, printf
        LOCFRAME ISTACK, 0, STACK
        LOCFRAME PSTACK, 0, STACK
        LOCFRAME XSTACK, 44, STACK
        LOCFRAME IOVERLAY, 0, STATIC
        LOCFRAME DOVERLAY, 0, STATIC
        ARGFRAME ISTACK, 0, STACK
        ARGFRAME PSTACK, 0, STACK
        ARGFRAME XSTACK, 44, STACK
        ARGFRAME IOVERLAY, 0, STATIC
        ARGFRAME DOVERLAY, 0, STATIC
        FUNCALL AT_ZDO_ProcessMgmtBindRsp, AT_Uart0_Send
        LOCFRAME ISTACK, 0, STACK
        LOCFRAME PSTACK, 0, STACK
        LOCFRAME XSTACK, 42, STACK
        LOCFRAME IOVERLAY, 0, STATIC
        LOCFRAME DOVERLAY, 0, STATIC
        ARGFRAME ISTACK, 0, STACK
        ARGFRAME PSTACK, 0, STACK
        ARGFRAME XSTACK, 42, STACK
        ARGFRAME IOVERLAY, 0, STATIC
        ARGFRAME DOVERLAY, 0, STATIC
        FUNCALL AT_ZDO_ProcessMgmtBindRsp, printf
        LOCFRAME ISTACK, 0, STACK
        LOCFRAME PSTACK, 0, STACK
        LOCFRAME XSTACK, 42, STACK
        LOCFRAME IOVERLAY, 0, STATIC
        LOCFRAME DOVERLAY, 0, STATIC
        ARGFRAME ISTACK, 0, STACK
        ARGFRAME PSTACK, 0, STACK
        ARGFRAME XSTACK, 42, STACK
        ARGFRAME IOVERLAY, 0, STATIC
        ARGFRAME DOVERLAY, 0, STATIC
        FUNCALL AT_ZDO_ProcessMgmtBindRsp, sprintf
        LOCFRAME ISTACK, 0, STACK
        LOCFRAME PSTACK, 0, STACK
        LOCFRAME XSTACK, 44, STACK
        LOCFRAME IOVERLAY, 0, STATIC
        LOCFRAME DOVERLAY, 0, STATIC
        ARGFRAME ISTACK, 0, STACK
        ARGFRAME PSTACK, 0, STACK
        ARGFRAME XSTACK, 44, STACK
        ARGFRAME IOVERLAY, 0, STATIC
        ARGFRAME DOVERLAY, 0, STATIC
        FUNCALL AT_ZDO_ProcessMgmtBindRsp, printf
        LOCFRAME ISTACK, 0, STACK
        LOCFRAME PSTACK, 0, STACK
        LOCFRAME XSTACK, 60, STACK
        LOCFRAME IOVERLAY, 0, STATIC
        LOCFRAME DOVERLAY, 0, STATIC
        ARGFRAME ISTACK, 0, STACK
        ARGFRAME PSTACK, 0, STACK
        ARGFRAME XSTACK, 60, STACK
        ARGFRAME IOVERLAY, 0, STATIC
        ARGFRAME DOVERLAY, 0, STATIC
        FUNCALL AT_ZDO_ProcessMgmtBindRsp, AT_Uart0_Send
        LOCFRAME ISTACK, 0, STACK
        LOCFRAME PSTACK, 0, STACK
        LOCFRAME XSTACK, 42, STACK
        LOCFRAME IOVERLAY, 0, STATIC
        LOCFRAME DOVERLAY, 0, STATIC
        ARGFRAME ISTACK, 0, STACK
        ARGFRAME PSTACK, 0, STACK
        ARGFRAME XSTACK, 42, STACK
        ARGFRAME IOVERLAY, 0, STATIC
        ARGFRAME DOVERLAY, 0, STATIC
        FUNCALL AT_ZDO_ProcessMgmtBindRsp, AT_GetIEEEAddrStr
        LOCFRAME ISTACK, 0, STACK
        LOCFRAME PSTACK, 0, STACK
        LOCFRAME XSTACK, 42, STACK
        LOCFRAME IOVERLAY, 0, STATIC
        LOCFRAME DOVERLAY, 0, STATIC
        ARGFRAME ISTACK, 0, STACK
        ARGFRAME PSTACK, 0, STACK
        ARGFRAME XSTACK, 42, STACK
        ARGFRAME IOVERLAY, 0, STATIC
        ARGFRAME DOVERLAY, 0, STATIC
        FUNCALL AT_ZDO_ProcessMgmtBindRsp, sprintf
        LOCFRAME ISTACK, 0, STACK
        LOCFRAME PSTACK, 0, STACK
        LOCFRAME XSTACK, 44, STACK
        LOCFRAME IOVERLAY, 0, STATIC
        LOCFRAME DOVERLAY, 0, STATIC
        ARGFRAME ISTACK, 0, STACK
        ARGFRAME PSTACK, 0, STACK
        ARGFRAME XSTACK, 44, STACK
        ARGFRAME IOVERLAY, 0, STATIC
        ARGFRAME DOVERLAY, 0, STATIC
        FUNCALL AT_ZDO_ProcessMgmtBindRsp, AT_Uart0_Send
        LOCFRAME ISTACK, 0, STACK
        LOCFRAME PSTACK, 0, STACK
        LOCFRAME XSTACK, 42, STACK
        LOCFRAME IOVERLAY, 0, STATIC
        LOCFRAME DOVERLAY, 0, STATIC
        ARGFRAME ISTACK, 0, STACK
        ARGFRAME PSTACK, 0, STACK
        ARGFRAME XSTACK, 42, STACK
        ARGFRAME IOVERLAY, 0, STATIC
        ARGFRAME DOVERLAY, 0, STATIC
        FUNCALL AT_ZDO_ProcessMgmtBindRsp, osal_mem_free
        LOCFRAME ISTACK, 0, STACK
        LOCFRAME PSTACK, 0, STACK
        LOCFRAME XSTACK, 42, STACK
        LOCFRAME IOVERLAY, 0, STATIC
        LOCFRAME DOVERLAY, 0, STATIC
        ARGFRAME ISTACK, 0, STACK
        ARGFRAME PSTACK, 0, STACK
        ARGFRAME XSTACK, 42, STACK
        ARGFRAME IOVERLAY, 0, STATIC
        ARGFRAME DOVERLAY, 0, STATIC
        REQUIRE ?V0
        REQUIRE ?V1
        REQUIRE ?V2
        REQUIRE ?V4
        REQUIRE ?V5
        REQUIRE ?V6
        REQUIRE ?V7
        REQUIRE ?V8
        REQUIRE ?V9
        REQUIRE ?V10
        REQUIRE ?V11
        MOV       A,#-0x14
        LCALL     ?BANKED_ENTER_XDATA
          CFI DPH0 load(1, XDATA, add(CFA_XSP16, literal(-1)))
          CFI DPL0 load(1, XDATA, add(CFA_XSP16, literal(-2)))
          CFI ?BRET_EXT load(1, XDATA, add(CFA_XSP16, literal(-3)))
          CFI ?RET_HIGH load(1, XDATA, add(CFA_XSP16, literal(-4)))
          CFI ?RET_LOW load(1, XDATA, add(CFA_XSP16, literal(-5)))
          CFI R7 load(1, XDATA, add(CFA_XSP16, literal(-6)))
          CFI V11 load(1, XDATA, add(CFA_XSP16, literal(-7)))
          CFI V10 load(1, XDATA, add(CFA_XSP16, literal(-8)))
          CFI V9 load(1, XDATA, add(CFA_XSP16, literal(-9)))
          CFI V8 load(1, XDATA, add(CFA_XSP16, literal(-10)))
          CFI V7 load(1, XDATA, add(CFA_XSP16, literal(-11)))
          CFI V6 load(1, XDATA, add(CFA_XSP16, literal(-12)))
          CFI V5 load(1, XDATA, add(CFA_XSP16, literal(-13)))
          CFI V4 load(1, XDATA, add(CFA_XSP16, literal(-14)))
          CFI V3 load(1, XDATA, add(CFA_XSP16, literal(-15)))
          CFI V2 load(1, XDATA, add(CFA_XSP16, literal(-16)))
          CFI V1 load(1, XDATA, add(CFA_XSP16, literal(-17)))
          CFI V0 load(1, XDATA, add(CFA_XSP16, literal(-18)))
          CFI VB load(1, XDATA, add(CFA_XSP16, literal(-19)))
          CFI R6 load(1, XDATA, add(CFA_XSP16, literal(-20)))
          CFI CFA_SP SP+0
          CFI CFA_XSP16 add(XSP16, 20)
        ; Saved register size: 20
        ; Auto size: 22
        MOV       A,#-0x16
        LCALL     ?ALLOC_XSTACK8
          CFI CFA_XSP16 add(XSP16, 42)
        MOV       A,R2
        MOV       R6,A
        MOV       A,R3
        MOV       R7,A
//  735   ZDO_MgmtBindRsp_t *pRsp = ZDO_ParseMgmtBindRsp( inMsg );
        ; Setup parameters for call to function ZDO_ParseMgmtBindRsp
        LCALL     `??ZDO_ParseMgmtBindRsp::?relay`; Banked call to: ZDO_ParseMgmtBindRsp
        MOV       ?V4,R2
        MOV       ?V5,R3
//  736 
//  737   uint8 i;
//  738   char dstAddr[17];
//  739   char dstEP[5];
//  740   zAddrType_t* addr;
//  741 
//  742   AT_NEW_LINE();
        MOV       ?V8,#`?<Constant "\\r\\n">` & 0xff
        MOV       ?V9,#(`?<Constant "\\r\\n">` >> 8) & 0xff
        ; Setup parameters for call to function AT_Uart0_Send
        MOV       R4,#0x2
        MOV       R5,#0x0
        MOV       R2,?V8
        MOV       R3,?V9
        LCALL     ?Subroutine14 & 0xFFFF
//  743 
//  744   // BTable:<NodeID>,<errorcode>
//  745   if (inMsg->srcAddr.addrMode == (afAddrMode_t)Addr16Bit) {
??CrossCallReturnLabel_15:
        JNZ       ??AT_ZDO_ProcessMgmtBindRsp_0
//  746     printf("BTable:%04X,%02X\r\n", (uint16)inMsg->srcAddr.addr.shortAddr,
//  747            pRsp->status);
        ; Setup parameters for call to function printf
        MOV       DPL,?V4
        MOV       DPH,?V5
        LCALL     ??Subroutine30_0 & 0xFFFF
//  748   }
??CrossCallReturnLabel_59:
        LCALL     ?PUSH_XSTACK_I_TWO
          CFI CFA_XSP16 add(XSP16, 44)
        MOV       DPL,R6
        MOV       DPH,R7
        INC       DPTR
        INC       DPTR
        LCALL     ?PUSH_XSTACK8_X_TWO
          CFI CFA_XSP16 add(XSP16, 46)
        MOV       R2,#`?<Constant "BTable:%04X,%02X\\r\\n">` & 0xff
        MOV       R3,#(`?<Constant "BTable:%04X,%02X\\r\\n">` >> 8) & 0xff
        LCALL     ?Subroutine21 & 0xFFFF
??CrossCallReturnLabel_37:
        LCALL     ?DEALLOC_XSTACK8
          CFI CFA_XSP16 add(XSP16, 42)
//  749   // Length:XX
//  750   printf("Length:%02X", pRsp->bindingListCount);
??AT_ZDO_ProcessMgmtBindRsp_0:
        MOV       A,?V4
        ADD       A,#0x3
        MOV       ?V10,A
        CLR       A
        ADDC      A,?V5
        MOV       ?V11,A
        ; Setup parameters for call to function printf
        MOV       DPL,?V10
        MOV       DPH,A
        LCALL     ??Subroutine30_0 & 0xFFFF
??CrossCallReturnLabel_60:
        LCALL     ?PUSH_XSTACK_I_TWO
          CFI CFA_XSP16 add(XSP16, 44)
        MOV       R2,#`?<Constant "Length:%02X">` & 0xff
        MOV       R3,#(`?<Constant "Length:%02X">` >> 8) & 0xff
        LCALL     ??Subroutine31_0 & 0xFFFF
??CrossCallReturnLabel_81:
        LCALL     ?DEALLOC_XSTACK8
          CFI CFA_XSP16 add(XSP16, 42)
//  751   AT_NEXT_LINE();
        ; Setup parameters for call to function AT_Uart0_Send
        MOV       R4,#0x2
        MOV       R5,#0x0
        MOV       R2,?V8
        MOV       R3,?V9
        LCALL     `??AT_Uart0_Send::?relay`; Banked call to: AT_Uart0_Send
//  752 
//  753   if(pRsp->bindingListCount)
        MOV       DPL,?V10
        MOV       DPH,?V11
        MOVX      A,@DPTR
        JZ        ??AT_ZDO_ProcessMgmtBindRsp_1
//  754     printf("No. |     SrcAddr      | SrcEP | ClusterID |     DstAddr      | DstEP");
        ; Setup parameters for call to function printf
        MOV       R2,#`?<Constant "No. |     SrcAddr    ...">` & 0xff
        MOV       R3,#(`?<Constant "No. |     SrcAddr    ...">` >> 8) & 0xff
        LCALL     `??printf::?relay`; Banked call to: printf
//  755   for (i = 0; i < pRsp->bindingListCount; i++) {
??AT_ZDO_ProcessMgmtBindRsp_1:
        MOV       ?V2,#0x0
        LJMP      ??AT_ZDO_ProcessMgmtBindRsp_2 & 0xFFFF
//  756     addr = &pRsp->list[i].dstAddr;
//  757     AT_NEXT_LINE();
//  758     if (addr->addrMode == (afAddrMode_t)Addr64Bit) {
//  759       AT_GetIEEEAddrStr(addr->addr.extAddr, (uint8*)dstAddr);
//  760       sprintf(dstEP, "| %02X", pRsp->list[i].dstEP);
//  761       dstAddr[16]='\0';
//  762     }else{
//  763       sprintf(dstAddr,"%04X",addr->addr.shortAddr);
??AT_ZDO_ProcessMgmtBindRsp_3:
        ; Setup parameters for call to function sprintf
        MOV       DPL,?V6
        MOV       DPH,?V7
        LCALL     ?PUSH_XSTACK8_X_TWO
          CFI CFA_XSP16 add(XSP16, 44)
        MOV       R4,#`?<Constant "%04X">` & 0xff
        MOV       R5,#(`?<Constant "%04X">` >> 8) & 0xff
        MOV       A,#0x7
        LCALL     ?XSTACK_DISP101_8
        LCALL     `??sprintf::?relay`; Banked call to: sprintf
        MOV       A,#0x2
        LCALL     ?DEALLOC_XSTACK8
          CFI CFA_XSP16 add(XSP16, 42)
//  764       dstEP[0]='\0';
        MOV       DPL,?XSP + 0
        MOV       DPH,?XSP + 1
??AT_ZDO_ProcessMgmtBindRsp_4:
        CLR       A
        MOVX      @DPTR,A
//  765     }
//  766     uint16 *srcAddr= (uint16*) pRsp->list[i].srcAddr;
        MOV       A,R6
        ADD       A,#0x4
        MOV       R0,A
        CLR       A
        ADDC      A,R7
        MOV       R1,A
        MOV       A,R0
        MOV       R2,A
        MOV       A,R1
        MOV       R3,A
//  767     printf("%02X. | %04X%04X%04X%04X |  %02X   |   %04X    | %s %s ",
//  768            i+pRsp->startIndex,srcAddr[3],srcAddr[2],srcAddr[1],srcAddr[0],
//  769            pRsp->list[i].srcEP, pRsp->list[i].clusterID, dstAddr, dstEP);
        ; Setup parameters for call to function printf
        MOV       R0,?XSP + 0
        MOV       R1,?XSP + 1
        MOV       ?V6,R0
        MOV       ?V7,R1
        MOV       R0,#?V6
        LCALL     ?PUSH_XSTACK_I_TWO
          CFI CFA_XSP16 add(XSP16, 44)
        MOV       A,#0x7
        LCALL     ?XSTACK_DISP100_8
        MOV       ?V6,R0
        MOV       ?V7,R1
        MOV       R0,#?V6
        LCALL     ?PUSH_XSTACK_I_TWO
          CFI CFA_XSP16 add(XSP16, 46)
        MOV       A,R6
        ADD       A,#0xd
        MOV       DPL,A
        CLR       A
        ADDC      A,R7
        MOV       DPH,A
        LCALL     ?PUSH_XSTACK8_X_TWO
          CFI CFA_XSP16 add(XSP16, 48)
        MOV       A,R6
        ADD       A,#0xc
        LCALL     ?Subroutine8 & 0xFFFF
??CrossCallReturnLabel_99:
        LCALL     ?PUSH_XSTACK_I_TWO
          CFI CFA_XSP16 add(XSP16, 50)
        MOV       DPL,R2
        MOV       DPH,R3
        LCALL     ?PUSH_XSTACK8_X_TWO
          CFI CFA_XSP16 add(XSP16, 52)
        MOV       DPL,R2
        MOV       DPH,R3
        INC       DPTR
        INC       DPTR
        LCALL     ?PUSH_XSTACK8_X_TWO
          CFI CFA_XSP16 add(XSP16, 54)
        MOV       DPL,R2
        MOV       DPH,R3
        INC       DPTR
        INC       DPTR
        INC       DPTR
        INC       DPTR
        LCALL     ?PUSH_XSTACK8_X_TWO
          CFI CFA_XSP16 add(XSP16, 56)
        MOV       DPL,R2
        MOV       DPH,R3
        INC       DPTR
        INC       DPTR
        INC       DPTR
        INC       DPTR
        INC       DPTR
        INC       DPTR
        LCALL     ?PUSH_XSTACK8_X_TWO
          CFI CFA_XSP16 add(XSP16, 58)
        MOV       DPL,?V4
        MOV       DPH,?V5
        INC       DPTR
        INC       DPTR
        MOVX      A,@DPTR
        MOV       R0,A
        MOV       A,?V0
        ADD       A,R0
        MOV       ?V0,A
        CLR       A
        ADDC      A,#0x0
        MOV       ?V1,A
        MOV       R0,#?V0
        LCALL     ?PUSH_XSTACK_I_TWO
          CFI CFA_XSP16 add(XSP16, 60)
        MOV       R2,#`?<Constant "%02X. | %04X%04X%04X%...">` & 0xff
        MOV       R3,#(`?<Constant "%02X. | %04X%04X%04X%...">` >> 8) & 0xff
        LCALL     `??printf::?relay`; Banked call to: printf
        MOV       A,#0x12
        LCALL     ?DEALLOC_XSTACK8
          CFI CFA_XSP16 add(XSP16, 42)
        INC       ?V2
??AT_ZDO_ProcessMgmtBindRsp_2:
        MOV       DPL,?V10
        MOV       DPH,?V11
        LCALL     ??Subroutine37_0 & 0xFFFF
??CrossCallReturnLabel_95:
        JNC       ??AT_ZDO_ProcessMgmtBindRsp_5
        MOV       A,?V2
        MOV       ?V0,A
        MOV       B,#0x15
        MUL       AB
        MOV       R0,A
        MOV       R1,B
        MOV       A,?V4
        ADD       A,R0
        MOV       R6,A
        MOV       A,?V5
        ADDC      A,R1
        MOV       R7,A
        MOV       A,R6
        ADD       A,#0xf
        MOV       ?V6,A
        CLR       A
        ADDC      A,R7
        MOV       ?V7,A
        ; Setup parameters for call to function AT_Uart0_Send
        MOV       R4,#0x2
        MOV       R5,#0x0
        MOV       R2,?V8
        MOV       R3,?V9
        LCALL     `??AT_Uart0_Send::?relay`; Banked call to: AT_Uart0_Send
        MOV       DPL,?V6
        MOV       DPH,?V7
        INC       DPTR
        INC       DPTR
        INC       DPTR
        INC       DPTR
        INC       DPTR
        INC       DPTR
        INC       DPTR
        INC       DPTR
        MOVX      A,@DPTR
        XRL       A,#0x3
        JZ        $+5
        LJMP      ??AT_ZDO_ProcessMgmtBindRsp_3 & 0xFFFF
        ; Setup parameters for call to function AT_GetIEEEAddrStr
        MOV       A,#0x5
        LCALL     ?XSTACK_DISP102_8
        MOV       R2,?V6
        MOV       R3,?V7
        LCALL     `??AT_GetIEEEAddrStr::?relay`; Banked call to: AT_GetIEEEAddrStr
        ; Setup parameters for call to function sprintf
        MOV       A,R6
        ADD       A,#0x18
        LCALL     ?Subroutine8 & 0xFFFF
??CrossCallReturnLabel_100:
        LCALL     ?PUSH_XSTACK_I_TWO
          CFI CFA_XSP16 add(XSP16, 44)
        MOV       R4,#`?<Constant "| %02X">` & 0xff
        MOV       R5,#(`?<Constant "| %02X">` >> 8) & 0xff
        MOV       A,#0x2
        LCALL     ?XSTACK_DISP101_8
        LCALL     `??sprintf::?relay`; Banked call to: sprintf
        MOV       A,#0x2
        LCALL     ?DEALLOC_XSTACK8
          CFI CFA_XSP16 add(XSP16, 42)
        MOV       A,#0x15
        LCALL     ?XSTACK_DISP0_8
        LJMP      ??AT_ZDO_ProcessMgmtBindRsp_4 & 0xFFFF
//  770 
//  771   }
//  772   AT_NEW_LINE();
??AT_ZDO_ProcessMgmtBindRsp_5:
        ; Setup parameters for call to function AT_Uart0_Send
        MOV       R4,#0x2
        MOV       R5,#0x0
        MOV       R2,?V8
        MOV       R3,?V9
        LCALL     `??AT_Uart0_Send::?relay`; Banked call to: AT_Uart0_Send
//  773 
//  774   osal_mem_free(pRsp);
        ; Setup parameters for call to function osal_mem_free
        MOV       R2,?V4
        MOV       R3,?V5
        LCALL     `??osal_mem_free::?relay`; Banked call to: osal_mem_free
//  775 }
        MOV       A,#0x16
        LCALL     ?DEALLOC_XSTACK8
          CFI CFA_XSP16 add(XSP16, 20)
        MOV       R7,#0xc
        LJMP      ?BANKED_LEAVE_XDATA
          CFI EndBlock cfiBlock169

        RSEG BANKED_CODE:HUGECODE:NOROOT(0)
?Subroutine9:
          CFI Block cfiCond170 Using cfiCommon0
          CFI Function AT_ZDO_ProcessMsgCBs
          CFI Conditional ??CrossCallReturnLabel_96
          CFI R6 load(1, XDATA, add(CFA_XSP16, literal(-18)))
          CFI VB load(1, XDATA, add(CFA_XSP16, literal(-17)))
          CFI V0 load(1, XDATA, add(CFA_XSP16, literal(-16)))
          CFI V1 load(1, XDATA, add(CFA_XSP16, literal(-15)))
          CFI V2 load(1, XDATA, add(CFA_XSP16, literal(-14)))
          CFI V3 load(1, XDATA, add(CFA_XSP16, literal(-13)))
          CFI V4 load(1, XDATA, add(CFA_XSP16, literal(-12)))
          CFI V5 load(1, XDATA, add(CFA_XSP16, literal(-11)))
          CFI V6 load(1, XDATA, add(CFA_XSP16, literal(-10)))
          CFI V7 load(1, XDATA, add(CFA_XSP16, literal(-9)))
          CFI V8 load(1, XDATA, add(CFA_XSP16, literal(-8)))
          CFI V9 load(1, XDATA, add(CFA_XSP16, literal(-7)))
          CFI R7 load(1, XDATA, add(CFA_XSP16, literal(-6)))
          CFI ?RET_LOW load(1, XDATA, add(CFA_XSP16, literal(-5)))
          CFI ?RET_HIGH load(1, XDATA, add(CFA_XSP16, literal(-4)))
          CFI ?BRET_EXT load(1, XDATA, add(CFA_XSP16, literal(-3)))
          CFI DPL0 load(1, XDATA, add(CFA_XSP16, literal(-2)))
          CFI DPH0 load(1, XDATA, add(CFA_XSP16, literal(-1)))
          CFI CFA_SP SP+-2
          CFI CFA_XSP16 add(XSP16, 45)
          CFI Block cfiCond171 Using cfiCommon0
          CFI (cfiCond171) Function AT_ZDO_ProcessMsgCBs
          CFI (cfiCond171) Conditional ??CrossCallReturnLabel_97
          CFI (cfiCond171) R6 load(1, XDATA, add(CFA_XSP16, literal(-18)))
          CFI (cfiCond171) VB load(1, XDATA, add(CFA_XSP16, literal(-17)))
          CFI (cfiCond171) V0 load(1, XDATA, add(CFA_XSP16, literal(-16)))
          CFI (cfiCond171) V1 load(1, XDATA, add(CFA_XSP16, literal(-15)))
          CFI (cfiCond171) V2 load(1, XDATA, add(CFA_XSP16, literal(-14)))
          CFI (cfiCond171) V3 load(1, XDATA, add(CFA_XSP16, literal(-13)))
          CFI (cfiCond171) V4 load(1, XDATA, add(CFA_XSP16, literal(-12)))
          CFI (cfiCond171) V5 load(1, XDATA, add(CFA_XSP16, literal(-11)))
          CFI (cfiCond171) V6 load(1, XDATA, add(CFA_XSP16, literal(-10)))
          CFI (cfiCond171) V7 load(1, XDATA, add(CFA_XSP16, literal(-9)))
          CFI (cfiCond171) V8 load(1, XDATA, add(CFA_XSP16, literal(-8)))
          CFI (cfiCond171) V9 load(1, XDATA, add(CFA_XSP16, literal(-7)))
          CFI (cfiCond171) R7 load(1, XDATA, add(CFA_XSP16, literal(-6)))
          CFI (cfiCond171) ?RET_LOW load(1, XDATA, add(CFA_XSP16, literal(-5)))
          CFI (cfiCond171) ?RET_HIGH load(1, XDATA, add(CFA_XSP16, literal(-4)))
          CFI (cfiCond171) ?BRET_EXT load(1, XDATA, add(CFA_XSP16, literal(-3)))
          CFI (cfiCond171) DPL0 load(1, XDATA, add(CFA_XSP16, literal(-2)))
          CFI (cfiCond171) DPH0 load(1, XDATA, add(CFA_XSP16, literal(-1)))
          CFI (cfiCond171) CFA_SP SP+-2
          CFI (cfiCond171) CFA_XSP16 add(XSP16, 45)
          CFI Block cfiPicker172 Using cfiCommon1
          CFI (cfiPicker172) NoFunction
          CFI (cfiPicker172) Picker
        MOV       DPL,?V0
        MOV       DPH,?V1
        INC       DPTR
        INC       DPTR
        INC       DPTR
          CFI EndBlock cfiCond170
          CFI EndBlock cfiCond171
          CFI EndBlock cfiPicker172
        REQUIRE ??Subroutine37_0
        ; // Fall through to label ??Subroutine37_0

        RSEG BANKED_CODE:HUGECODE:NOROOT(0)
??Subroutine37_0:
          CFI Block cfiCond173 Using cfiCommon0
          CFI Function AT_ZDO_ProcessMsgCBs
          CFI Conditional ??CrossCallReturnLabel_94
          CFI R6 load(1, XDATA, add(CFA_XSP16, literal(-18)))
          CFI VB load(1, XDATA, add(CFA_XSP16, literal(-17)))
          CFI V0 load(1, XDATA, add(CFA_XSP16, literal(-16)))
          CFI V1 load(1, XDATA, add(CFA_XSP16, literal(-15)))
          CFI V2 load(1, XDATA, add(CFA_XSP16, literal(-14)))
          CFI V3 load(1, XDATA, add(CFA_XSP16, literal(-13)))
          CFI V4 load(1, XDATA, add(CFA_XSP16, literal(-12)))
          CFI V5 load(1, XDATA, add(CFA_XSP16, literal(-11)))
          CFI V6 load(1, XDATA, add(CFA_XSP16, literal(-10)))
          CFI V7 load(1, XDATA, add(CFA_XSP16, literal(-9)))
          CFI V8 load(1, XDATA, add(CFA_XSP16, literal(-8)))
          CFI V9 load(1, XDATA, add(CFA_XSP16, literal(-7)))
          CFI R7 load(1, XDATA, add(CFA_XSP16, literal(-6)))
          CFI ?RET_LOW load(1, XDATA, add(CFA_XSP16, literal(-5)))
          CFI ?RET_HIGH load(1, XDATA, add(CFA_XSP16, literal(-4)))
          CFI ?BRET_EXT load(1, XDATA, add(CFA_XSP16, literal(-3)))
          CFI DPL0 load(1, XDATA, add(CFA_XSP16, literal(-2)))
          CFI DPH0 load(1, XDATA, add(CFA_XSP16, literal(-1)))
          CFI CFA_SP SP+-2
          CFI CFA_XSP16 add(XSP16, 45)
          CFI Block cfiCond174 Using cfiCommon0
          CFI (cfiCond174) Function AT_ZDO_ProcessMgmtBindRsp
          CFI (cfiCond174) Conditional ??CrossCallReturnLabel_95
          CFI (cfiCond174) R6 load(1, XDATA, add(CFA_XSP16, literal(-20)))
          CFI (cfiCond174) VB load(1, XDATA, add(CFA_XSP16, literal(-19)))
          CFI (cfiCond174) V0 load(1, XDATA, add(CFA_XSP16, literal(-18)))
          CFI (cfiCond174) V1 load(1, XDATA, add(CFA_XSP16, literal(-17)))
          CFI (cfiCond174) V2 load(1, XDATA, add(CFA_XSP16, literal(-16)))
          CFI (cfiCond174) V3 load(1, XDATA, add(CFA_XSP16, literal(-15)))
          CFI (cfiCond174) V4 load(1, XDATA, add(CFA_XSP16, literal(-14)))
          CFI (cfiCond174) V5 load(1, XDATA, add(CFA_XSP16, literal(-13)))
          CFI (cfiCond174) V6 load(1, XDATA, add(CFA_XSP16, literal(-12)))
          CFI (cfiCond174) V7 load(1, XDATA, add(CFA_XSP16, literal(-11)))
          CFI (cfiCond174) V8 load(1, XDATA, add(CFA_XSP16, literal(-10)))
          CFI (cfiCond174) V9 load(1, XDATA, add(CFA_XSP16, literal(-9)))
          CFI (cfiCond174) V10 load(1, XDATA, add(CFA_XSP16, literal(-8)))
          CFI (cfiCond174) V11 load(1, XDATA, add(CFA_XSP16, literal(-7)))
          CFI (cfiCond174) R7 load(1, XDATA, add(CFA_XSP16, literal(-6)))
          CFI (cfiCond174) ?RET_LOW load(1, XDATA, add(CFA_XSP16, literal(-5)))
          CFI (cfiCond174) ?RET_HIGH load(1, XDATA, add(CFA_XSP16, literal(-4)))
          CFI (cfiCond174) ?BRET_EXT load(1, XDATA, add(CFA_XSP16, literal(-3)))
          CFI (cfiCond174) DPL0 load(1, XDATA, add(CFA_XSP16, literal(-2)))
          CFI (cfiCond174) DPH0 load(1, XDATA, add(CFA_XSP16, literal(-1)))
          CFI (cfiCond174) CFA_SP SP+-2
          CFI (cfiCond174) CFA_XSP16 add(XSP16, 42)
          CFI Block cfiCond175 Using cfiCommon0
          CFI (cfiCond175) Function AT_ZDO_ProcessMsgCBs
          CFI (cfiCond175) Conditional ??CrossCallReturnLabel_96
          CFI (cfiCond175) R6 load(1, XDATA, add(CFA_XSP16, literal(-18)))
          CFI (cfiCond175) VB load(1, XDATA, add(CFA_XSP16, literal(-17)))
          CFI (cfiCond175) V0 load(1, XDATA, add(CFA_XSP16, literal(-16)))
          CFI (cfiCond175) V1 load(1, XDATA, add(CFA_XSP16, literal(-15)))
          CFI (cfiCond175) V2 load(1, XDATA, add(CFA_XSP16, literal(-14)))
          CFI (cfiCond175) V3 load(1, XDATA, add(CFA_XSP16, literal(-13)))
          CFI (cfiCond175) V4 load(1, XDATA, add(CFA_XSP16, literal(-12)))
          CFI (cfiCond175) V5 load(1, XDATA, add(CFA_XSP16, literal(-11)))
          CFI (cfiCond175) V6 load(1, XDATA, add(CFA_XSP16, literal(-10)))
          CFI (cfiCond175) V7 load(1, XDATA, add(CFA_XSP16, literal(-9)))
          CFI (cfiCond175) V8 load(1, XDATA, add(CFA_XSP16, literal(-8)))
          CFI (cfiCond175) V9 load(1, XDATA, add(CFA_XSP16, literal(-7)))
          CFI (cfiCond175) R7 load(1, XDATA, add(CFA_XSP16, literal(-6)))
          CFI (cfiCond175) ?RET_LOW load(1, XDATA, add(CFA_XSP16, literal(-5)))
          CFI (cfiCond175) ?RET_HIGH load(1, XDATA, add(CFA_XSP16, literal(-4)))
          CFI (cfiCond175) ?BRET_EXT load(1, XDATA, add(CFA_XSP16, literal(-3)))
          CFI (cfiCond175) DPL0 load(1, XDATA, add(CFA_XSP16, literal(-2)))
          CFI (cfiCond175) DPH0 load(1, XDATA, add(CFA_XSP16, literal(-1)))
          CFI (cfiCond175) CFA_SP SP+-2
          CFI (cfiCond175) CFA_XSP16 add(XSP16, 45)
          CFI Block cfiCond176 Using cfiCommon0
          CFI (cfiCond176) Function AT_ZDO_ProcessMsgCBs
          CFI (cfiCond176) Conditional ??CrossCallReturnLabel_97
          CFI (cfiCond176) R6 load(1, XDATA, add(CFA_XSP16, literal(-18)))
          CFI (cfiCond176) VB load(1, XDATA, add(CFA_XSP16, literal(-17)))
          CFI (cfiCond176) V0 load(1, XDATA, add(CFA_XSP16, literal(-16)))
          CFI (cfiCond176) V1 load(1, XDATA, add(CFA_XSP16, literal(-15)))
          CFI (cfiCond176) V2 load(1, XDATA, add(CFA_XSP16, literal(-14)))
          CFI (cfiCond176) V3 load(1, XDATA, add(CFA_XSP16, literal(-13)))
          CFI (cfiCond176) V4 load(1, XDATA, add(CFA_XSP16, literal(-12)))
          CFI (cfiCond176) V5 load(1, XDATA, add(CFA_XSP16, literal(-11)))
          CFI (cfiCond176) V6 load(1, XDATA, add(CFA_XSP16, literal(-10)))
          CFI (cfiCond176) V7 load(1, XDATA, add(CFA_XSP16, literal(-9)))
          CFI (cfiCond176) V8 load(1, XDATA, add(CFA_XSP16, literal(-8)))
          CFI (cfiCond176) V9 load(1, XDATA, add(CFA_XSP16, literal(-7)))
          CFI (cfiCond176) R7 load(1, XDATA, add(CFA_XSP16, literal(-6)))
          CFI (cfiCond176) ?RET_LOW load(1, XDATA, add(CFA_XSP16, literal(-5)))
          CFI (cfiCond176) ?RET_HIGH load(1, XDATA, add(CFA_XSP16, literal(-4)))
          CFI (cfiCond176) ?BRET_EXT load(1, XDATA, add(CFA_XSP16, literal(-3)))
          CFI (cfiCond176) DPL0 load(1, XDATA, add(CFA_XSP16, literal(-2)))
          CFI (cfiCond176) DPH0 load(1, XDATA, add(CFA_XSP16, literal(-1)))
          CFI (cfiCond176) CFA_SP SP+-2
          CFI (cfiCond176) CFA_XSP16 add(XSP16, 45)
          CFI Block cfiPicker177 Using cfiCommon1
          CFI (cfiPicker177) NoFunction
          CFI (cfiPicker177) Picker
        MOVX      A,@DPTR
        MOV       R0,A
        MOV       A,?V2
        CLR       C
        SUBB      A,R0
        RET
          CFI EndBlock cfiCond173
          CFI EndBlock cfiCond174
          CFI EndBlock cfiCond175
          CFI EndBlock cfiCond176
          CFI EndBlock cfiPicker177

        RSEG BANKED_CODE:HUGECODE:NOROOT(0)
?Subroutine8:
          CFI Block cfiCond178 Using cfiCommon0
          CFI Function AT_ZDO_ProcessMgmtBindRsp
          CFI Conditional ??CrossCallReturnLabel_99
          CFI R6 load(1, XDATA, add(CFA_XSP16, literal(-20)))
          CFI VB load(1, XDATA, add(CFA_XSP16, literal(-19)))
          CFI V0 load(1, XDATA, add(CFA_XSP16, literal(-18)))
          CFI V1 load(1, XDATA, add(CFA_XSP16, literal(-17)))
          CFI V2 load(1, XDATA, add(CFA_XSP16, literal(-16)))
          CFI V3 load(1, XDATA, add(CFA_XSP16, literal(-15)))
          CFI V4 load(1, XDATA, add(CFA_XSP16, literal(-14)))
          CFI V5 load(1, XDATA, add(CFA_XSP16, literal(-13)))
          CFI V6 load(1, XDATA, add(CFA_XSP16, literal(-12)))
          CFI V7 load(1, XDATA, add(CFA_XSP16, literal(-11)))
          CFI V8 load(1, XDATA, add(CFA_XSP16, literal(-10)))
          CFI V9 load(1, XDATA, add(CFA_XSP16, literal(-9)))
          CFI V10 load(1, XDATA, add(CFA_XSP16, literal(-8)))
          CFI V11 load(1, XDATA, add(CFA_XSP16, literal(-7)))
          CFI R7 load(1, XDATA, add(CFA_XSP16, literal(-6)))
          CFI ?RET_LOW load(1, XDATA, add(CFA_XSP16, literal(-5)))
          CFI ?RET_HIGH load(1, XDATA, add(CFA_XSP16, literal(-4)))
          CFI ?BRET_EXT load(1, XDATA, add(CFA_XSP16, literal(-3)))
          CFI DPL0 load(1, XDATA, add(CFA_XSP16, literal(-2)))
          CFI DPH0 load(1, XDATA, add(CFA_XSP16, literal(-1)))
          CFI CFA_SP SP+-2
          CFI CFA_XSP16 add(XSP16, 48)
          CFI Block cfiCond179 Using cfiCommon0
          CFI (cfiCond179) Function AT_ZDO_ProcessMgmtBindRsp
          CFI (cfiCond179) Conditional ??CrossCallReturnLabel_100
          CFI (cfiCond179) R6 load(1, XDATA, add(CFA_XSP16, literal(-20)))
          CFI (cfiCond179) VB load(1, XDATA, add(CFA_XSP16, literal(-19)))
          CFI (cfiCond179) V0 load(1, XDATA, add(CFA_XSP16, literal(-18)))
          CFI (cfiCond179) V1 load(1, XDATA, add(CFA_XSP16, literal(-17)))
          CFI (cfiCond179) V2 load(1, XDATA, add(CFA_XSP16, literal(-16)))
          CFI (cfiCond179) V3 load(1, XDATA, add(CFA_XSP16, literal(-15)))
          CFI (cfiCond179) V4 load(1, XDATA, add(CFA_XSP16, literal(-14)))
          CFI (cfiCond179) V5 load(1, XDATA, add(CFA_XSP16, literal(-13)))
          CFI (cfiCond179) V6 load(1, XDATA, add(CFA_XSP16, literal(-12)))
          CFI (cfiCond179) V7 load(1, XDATA, add(CFA_XSP16, literal(-11)))
          CFI (cfiCond179) V8 load(1, XDATA, add(CFA_XSP16, literal(-10)))
          CFI (cfiCond179) V9 load(1, XDATA, add(CFA_XSP16, literal(-9)))
          CFI (cfiCond179) V10 load(1, XDATA, add(CFA_XSP16, literal(-8)))
          CFI (cfiCond179) V11 load(1, XDATA, add(CFA_XSP16, literal(-7)))
          CFI (cfiCond179) R7 load(1, XDATA, add(CFA_XSP16, literal(-6)))
          CFI (cfiCond179) ?RET_LOW load(1, XDATA, add(CFA_XSP16, literal(-5)))
          CFI (cfiCond179) ?RET_HIGH load(1, XDATA, add(CFA_XSP16, literal(-4)))
          CFI (cfiCond179) ?BRET_EXT load(1, XDATA, add(CFA_XSP16, literal(-3)))
          CFI (cfiCond179) DPL0 load(1, XDATA, add(CFA_XSP16, literal(-2)))
          CFI (cfiCond179) DPH0 load(1, XDATA, add(CFA_XSP16, literal(-1)))
          CFI (cfiCond179) CFA_SP SP+-2
          CFI (cfiCond179) CFA_XSP16 add(XSP16, 42)
          CFI Block cfiPicker180 Using cfiCommon1
          CFI (cfiPicker180) NoFunction
          CFI (cfiPicker180) Picker
        MOV       DPL,A
        CLR       A
        ADDC      A,R7
          CFI EndBlock cfiCond178
          CFI EndBlock cfiCond179
          CFI EndBlock cfiPicker180
        REQUIRE ??Subroutine38_0
        ; // Fall through to label ??Subroutine38_0

        RSEG BANKED_CODE:HUGECODE:NOROOT(0)
??Subroutine38_0:
          CFI Block cfiCond181 Using cfiCommon0
          CFI Function AT_Cmd_ESCAN_CB
          CFI Conditional ??CrossCallReturnLabel_98
          CFI R6 load(1, XDATA, add(CFA_XSP16, literal(-16)))
          CFI VB load(1, XDATA, add(CFA_XSP16, literal(-15)))
          CFI V0 load(1, XDATA, add(CFA_XSP16, literal(-14)))
          CFI V1 load(1, XDATA, add(CFA_XSP16, literal(-13)))
          CFI V2 load(1, XDATA, add(CFA_XSP16, literal(-12)))
          CFI V3 load(1, XDATA, add(CFA_XSP16, literal(-11)))
          CFI V4 load(1, XDATA, add(CFA_XSP16, literal(-10)))
          CFI V5 load(1, XDATA, add(CFA_XSP16, literal(-9)))
          CFI V6 load(1, XDATA, add(CFA_XSP16, literal(-8)))
          CFI V7 load(1, XDATA, add(CFA_XSP16, literal(-7)))
          CFI R7 load(1, XDATA, add(CFA_XSP16, literal(-6)))
          CFI ?RET_LOW load(1, XDATA, add(CFA_XSP16, literal(-5)))
          CFI ?RET_HIGH load(1, XDATA, add(CFA_XSP16, literal(-4)))
          CFI ?BRET_EXT load(1, XDATA, add(CFA_XSP16, literal(-3)))
          CFI DPL0 load(1, XDATA, add(CFA_XSP16, literal(-2)))
          CFI DPH0 load(1, XDATA, add(CFA_XSP16, literal(-1)))
          CFI CFA_SP SP+-2
          CFI CFA_XSP16 add(XSP16, 16)
          CFI Block cfiCond182 Using cfiCommon0
          CFI (cfiCond182) Function AT_ZDO_ProcessMgmtBindRsp
          CFI (cfiCond182) Conditional ??CrossCallReturnLabel_99
          CFI (cfiCond182) R6 load(1, XDATA, add(CFA_XSP16, literal(-20)))
          CFI (cfiCond182) VB load(1, XDATA, add(CFA_XSP16, literal(-19)))
          CFI (cfiCond182) V0 load(1, XDATA, add(CFA_XSP16, literal(-18)))
          CFI (cfiCond182) V1 load(1, XDATA, add(CFA_XSP16, literal(-17)))
          CFI (cfiCond182) V2 load(1, XDATA, add(CFA_XSP16, literal(-16)))
          CFI (cfiCond182) V3 load(1, XDATA, add(CFA_XSP16, literal(-15)))
          CFI (cfiCond182) V4 load(1, XDATA, add(CFA_XSP16, literal(-14)))
          CFI (cfiCond182) V5 load(1, XDATA, add(CFA_XSP16, literal(-13)))
          CFI (cfiCond182) V6 load(1, XDATA, add(CFA_XSP16, literal(-12)))
          CFI (cfiCond182) V7 load(1, XDATA, add(CFA_XSP16, literal(-11)))
          CFI (cfiCond182) V8 load(1, XDATA, add(CFA_XSP16, literal(-10)))
          CFI (cfiCond182) V9 load(1, XDATA, add(CFA_XSP16, literal(-9)))
          CFI (cfiCond182) V10 load(1, XDATA, add(CFA_XSP16, literal(-8)))
          CFI (cfiCond182) V11 load(1, XDATA, add(CFA_XSP16, literal(-7)))
          CFI (cfiCond182) R7 load(1, XDATA, add(CFA_XSP16, literal(-6)))
          CFI (cfiCond182) ?RET_LOW load(1, XDATA, add(CFA_XSP16, literal(-5)))
          CFI (cfiCond182) ?RET_HIGH load(1, XDATA, add(CFA_XSP16, literal(-4)))
          CFI (cfiCond182) ?BRET_EXT load(1, XDATA, add(CFA_XSP16, literal(-3)))
          CFI (cfiCond182) DPL0 load(1, XDATA, add(CFA_XSP16, literal(-2)))
          CFI (cfiCond182) DPH0 load(1, XDATA, add(CFA_XSP16, literal(-1)))
          CFI (cfiCond182) CFA_SP SP+-2
          CFI (cfiCond182) CFA_XSP16 add(XSP16, 48)
          CFI Block cfiCond183 Using cfiCommon0
          CFI (cfiCond183) Function AT_ZDO_ProcessMgmtBindRsp
          CFI (cfiCond183) Conditional ??CrossCallReturnLabel_100
          CFI (cfiCond183) R6 load(1, XDATA, add(CFA_XSP16, literal(-20)))
          CFI (cfiCond183) VB load(1, XDATA, add(CFA_XSP16, literal(-19)))
          CFI (cfiCond183) V0 load(1, XDATA, add(CFA_XSP16, literal(-18)))
          CFI (cfiCond183) V1 load(1, XDATA, add(CFA_XSP16, literal(-17)))
          CFI (cfiCond183) V2 load(1, XDATA, add(CFA_XSP16, literal(-16)))
          CFI (cfiCond183) V3 load(1, XDATA, add(CFA_XSP16, literal(-15)))
          CFI (cfiCond183) V4 load(1, XDATA, add(CFA_XSP16, literal(-14)))
          CFI (cfiCond183) V5 load(1, XDATA, add(CFA_XSP16, literal(-13)))
          CFI (cfiCond183) V6 load(1, XDATA, add(CFA_XSP16, literal(-12)))
          CFI (cfiCond183) V7 load(1, XDATA, add(CFA_XSP16, literal(-11)))
          CFI (cfiCond183) V8 load(1, XDATA, add(CFA_XSP16, literal(-10)))
          CFI (cfiCond183) V9 load(1, XDATA, add(CFA_XSP16, literal(-9)))
          CFI (cfiCond183) V10 load(1, XDATA, add(CFA_XSP16, literal(-8)))
          CFI (cfiCond183) V11 load(1, XDATA, add(CFA_XSP16, literal(-7)))
          CFI (cfiCond183) R7 load(1, XDATA, add(CFA_XSP16, literal(-6)))
          CFI (cfiCond183) ?RET_LOW load(1, XDATA, add(CFA_XSP16, literal(-5)))
          CFI (cfiCond183) ?RET_HIGH load(1, XDATA, add(CFA_XSP16, literal(-4)))
          CFI (cfiCond183) ?BRET_EXT load(1, XDATA, add(CFA_XSP16, literal(-3)))
          CFI (cfiCond183) DPL0 load(1, XDATA, add(CFA_XSP16, literal(-2)))
          CFI (cfiCond183) DPH0 load(1, XDATA, add(CFA_XSP16, literal(-1)))
          CFI (cfiCond183) CFA_SP SP+-2
          CFI (cfiCond183) CFA_XSP16 add(XSP16, 42)
          CFI Block cfiPicker184 Using cfiCommon1
          CFI (cfiPicker184) NoFunction
          CFI (cfiPicker184) Picker
        MOV       DPH,A
        MOVX      A,@DPTR
        MOV       ?V6,A
        MOV       ?V7,#0x0
        MOV       R0,#?V6
        RET
          CFI EndBlock cfiCond181
          CFI EndBlock cfiCond182
          CFI EndBlock cfiCond183
          CFI EndBlock cfiPicker184

        RSEG XDATA_ID:CODE:NOROOT(0)
`?<Initializer for EBindSeq>`:
        DATA8
        DB 255

        RSEG XDATA_ID:CODE:NOROOT(0)
`?<Initializer for seqBuff>`:
        DATA8
        DB 255
        DB 255
        DB 255
        DB 255
        DB 255

        RSEG BANK_RELAYS:CODE:REORDER:NOROOT(0)
`??AT_ZDO_Register::?relay`:
        CODE
        LCALL   ?BDISPATCH
        DATA24
        DC24    AT_ZDO_Register

        RSEG BANK_RELAYS:CODE:REORDER:NOROOT(0)
`??AT_ZDO_ProcessMsgCBs::?relay`:
        CODE
        LCALL   ?BDISPATCH
        DATA24
        DC24    AT_ZDO_ProcessMsgCBs

        RSEG BANK_RELAYS:CODE:REORDER:NOROOT(0)
`??AT_Cmd_ProcessDataConfirm::?relay`:
        CODE
        LCALL   ?BDISPATCH
        DATA24
        DC24    AT_Cmd_ProcessDataConfirm

        RSEG BANK_RELAYS:CODE:REORDER:NOROOT(0)
`??StoreSeqNumInBuffer::?relay`:
        CODE
        LCALL   ?BDISPATCH
        DATA24
        DC24    StoreSeqNumInBuffer

        RSEG BANK_RELAYS:CODE:REORDER:NOROOT(0)
`??GetSeqNumIndexInBuffer::?relay`:
        CODE
        LCALL   ?BDISPATCH
        DATA24
        DC24    GetSeqNumIndexInBuffer

        RSEG BANK_RELAYS:CODE:REORDER:NOROOT(0)
`??AT_Cmd_ESCAN_CB::?relay`:
        CODE
        LCALL   ?BDISPATCH
        DATA24
        DC24    AT_Cmd_ESCAN_CB

        RSEG BANK_RELAYS:CODE:REORDER:NOROOT(0)
`??AT_ZDO_ProcessMgmtNwkDiscRsp::?relay`:
        CODE
        LCALL   ?BDISPATCH
        DATA24
        DC24    AT_ZDO_ProcessMgmtNwkDiscRsp

        RSEG BANK_RELAYS:CODE:REORDER:NOROOT(0)
`??AT_Cmd_FN_CB::?relay`:
        CODE
        LCALL   ?BDISPATCH
        DATA24
        DC24    AT_Cmd_FN_CB

        RSEG BANK_RELAYS:CODE:REORDER:NOROOT(0)
`??AT_ZDO_ProcessJOIN_CNF_CB::?relay`:
        CODE
        LCALL   ?BDISPATCH
        DATA24
        DC24    AT_ZDO_ProcessJOIN_CNF_CB

        RSEG BANK_RELAYS:CODE:REORDER:NOROOT(0)
`??AT_ZDO_ProcessPowerDescRsp::?relay`:
        CODE
        LCALL   ?BDISPATCH
        DATA24
        DC24    AT_ZDO_ProcessPowerDescRsp

        RSEG BANK_RELAYS:CODE:REORDER:NOROOT(0)
`??AT_ZDO_ProcessSimpleDescRsp::?relay`:
        CODE
        LCALL   ?BDISPATCH
        DATA24
        DC24    AT_ZDO_ProcessSimpleDescRsp

        RSEG BANK_RELAYS:CODE:REORDER:NOROOT(0)
`??AT_ZDO_ProcessMgmtLqiRsp::?relay`:
        CODE
        LCALL   ?BDISPATCH
        DATA24
        DC24    AT_ZDO_ProcessMgmtLqiRsp

        RSEG BANK_RELAYS:CODE:REORDER:NOROOT(0)
`??AT_ZDO_ProcessMgmtRtgRsp::?relay`:
        CODE
        LCALL   ?BDISPATCH
        DATA24
        DC24    AT_ZDO_ProcessMgmtRtgRsp

        RSEG BANK_RELAYS:CODE:REORDER:NOROOT(0)
`??AT_ZDO_ProcessMgmtBindRsp::?relay`:
        CODE
        LCALL   ?BDISPATCH
        DATA24
        DC24    AT_ZDO_ProcessMgmtBindRsp

        RSEG XDATA_ROM_C:CONST:REORDER:NOROOT(0)
        DATA8
`?<Constant "\\r\\n">`:
        DB "\015\012"

        RSEG XDATA_ROM_C:CONST:REORDER:NOROOT(0)
        DATA8
`?<Constant "AddrResp:%02X">`:
        DB "AddrResp:%02X"

        RSEG XDATA_ROM_C:CONST:REORDER:NOROOT(0)
        DATA16
`?<Constant ",">`:
        DB ","

        RSEG XDATA_ROM_C:CONST:REORDER:NOROOT(0)
        DATA8
`?<Constant ". ">`:
        DB ". "

        RSEG XDATA_ROM_C:CONST:REORDER:NOROOT(0)
        DATA8
`?<Constant "\\r\\nACK:%02X\\r\\n">`:
        DB "\015\012ACK:%02X\015\012"

        RSEG XDATA_ROM_C:CONST:REORDER:NOROOT(0)
        DATA8
`?<Constant "\\r\\nNACK:%02X\\r\\n">`:
        DB "\015\012NACK:%02X\015\012"

        RSEG XDATA_ROM_C:CONST:REORDER:NOROOT(0)
        DATA8
`?<Constant "\\r\\nEBINDACK\\r\\n">`:
        DB "\015\012EBINDACK\015\012"

        RSEG XDATA_ROM_C:CONST:REORDER:NOROOT(0)
        DATA8
`?<Constant "+ESCAN:">`:
        DB "+ESCAN:"

        RSEG XDATA_ROM_C:CONST:REORDER:NOROOT(0)
        DATA8
`?<Constant "%d:%02X">`:
        DB "%d:%02X"

        RSEG XDATA_ROM_C:CONST:REORDER:NOROOT(0)
        DATA8
`?<Constant "\\r\\nOK\\r\\n">`:
        DB "\015\012OK\015\012"

        RSEG XDATA_ROM_C:CONST:REORDER:NOROOT(0)
        DATA8
`?<Constant "+PANSCAN:">`:
        DB "+PANSCAN:"

        RSEG XDATA_ROM_C:CONST:REORDER:NOROOT(0)
        DATA8
`?<Constant "%02d,%04X,%04X%04X%04...">`:
        DB "%02d,%04X,%04X%04X%04X%04X,%02X,%X"

        RSEG XDATA_ROM_C:CONST:REORDER:NOROOT(0)
        DATA8
`?<Constant "JPAN:%02d,%04X,%04X%0...">`:
        DB "JPAN:%02d,%04X,%04X%04X%04X%04X"

        RSEG XDATA_ROM_C:CONST:REORDER:NOROOT(0)
        DATA8
`?<Constant "\\000\\000\\000\\000\\000\\000\\000\\000">`:
        DB 0, 0, 0, 0, 0, 0, 0, 0
        DB 0

        RSEG XDATA_ROM_C:CONST:REORDER:NOROOT(0)
        DATA8
`?<Constant "PowerDesc:%04X,%02X">`:
        DB "PowerDesc:%04X,%02X"

        RSEG XDATA_ROM_C:CONST:REORDER:NOROOT(0)
        DATA8
`?<Constant "PowerMode:%02X">`:
        DB "PowerMode:%02X"

        RSEG XDATA_ROM_C:CONST:REORDER:NOROOT(0)
        DATA8
`?<Constant "AvailablePowerSources...">`:
        DB "AvailablePowerSources:%02X"

        RSEG XDATA_ROM_C:CONST:REORDER:NOROOT(0)
        DATA8
`?<Constant "CurrentPowerSource:%02X">`:
        DB "CurrentPowerSource:%02X"

        RSEG XDATA_ROM_C:CONST:REORDER:NOROOT(0)
        DATA8
`?<Constant "CurrentPowerSourceLev...">`:
        DB "CurrentPowerSourceLevel:%02X"

        RSEG XDATA_ROM_C:CONST:REORDER:NOROOT(0)
        DATA8
`?<Constant "ActEpDesc:%04X,%02X">`:
        DB "ActEpDesc:%04X,%02X"

        RSEG XDATA_ROM_C:CONST:REORDER:NOROOT(0)
        DATA8
`?<Constant ",%02X">`:
        DB ",%02X"

        RSEG XDATA_ROM_C:CONST:REORDER:NOROOT(0)
        DATA8
`?<Constant "SimpleDesc:%04X,%02X">`:
        DB "SimpleDesc:%04X,%02X"

        RSEG XDATA_ROM_C:CONST:REORDER:NOROOT(0)
        DATA8
`?<Constant "EP:%02X">`:
        DB "EP:%02X"

        RSEG XDATA_ROM_C:CONST:REORDER:NOROOT(0)
        DATA8
`?<Constant "ProfileID:%04X">`:
        DB "ProfileID:%04X"

        RSEG XDATA_ROM_C:CONST:REORDER:NOROOT(0)
        DATA8
`?<Constant "DeviceID:%04Xv%02X">`:
        DB "DeviceID:%04Xv%02X"

        RSEG XDATA_ROM_C:CONST:REORDER:NOROOT(0)
        DATA8
`?<Constant "InCluster: ">`:
        DB "InCluster: "

        RSEG XDATA_ROM_C:CONST:REORDER:NOROOT(0)
        DATA8
`?<Constant "           %04X">`:
        DB "           %04X"

        RSEG XDATA_ROM_C:CONST:REORDER:NOROOT(0)
        DATA8
`?<Constant "%04X">`:
        DB "%04X"

        RSEG XDATA_ROM_C:CONST:REORDER:NOROOT(0)
        DATA8
`?<Constant "OutCluster: ">`:
        DB "OutCluster: "

        RSEG XDATA_ROM_C:CONST:REORDER:NOROOT(0)
        DATA8
`?<Constant "            %04X">`:
        DB "            %04X"

        RSEG XDATA_ROM_C:CONST:REORDER:NOROOT(0)
        DATA8
`?<Constant "MatchDesc:%04X,%02X">`:
        DB "MatchDesc:%04X,%02X"

        RSEG XDATA_ROM_C:CONST:REORDER:NOROOT(0)
        DATA8
`?<Constant "%s:%04X%04X%04X%04X,%04X">`:
        DB "%s:%04X%04X%04X%04X,%04X"

        RSEG XDATA_ROM_C:CONST:REORDER:NOROOT(0)
        DATA8
`?<Constant "COORD">`:
        DB "COORD"

        RSEG XDATA_ROM_C:CONST:REORDER:NOROOT(0)
        DATA32
`?<Constant "FFD">`:
        DB "FFD"

        RSEG XDATA_ROM_C:CONST:REORDER:NOROOT(0)
        DATA32
`?<Constant "RFD">`:
        DB "RFD"

        RSEG XDATA_ROM_C:CONST:REORDER:NOROOT(0)
        DATA8
`?<Constant "NTable:%04X,%02X\\r\\n">`:
        DB "NTable:%04X,%02X\015\012"

        RSEG XDATA_ROM_C:CONST:REORDER:NOROOT(0)
        DATA8
`?<Constant "Length:%02X\\r\\n">`:
        DB "Length:%02X\015\012"

        RSEG XDATA_ROM_C:CONST:REORDER:NOROOT(0)
        DATA8
`?<Constant "No.| Type | Relation ...">`:
        DB 4EH, 6FH, 2EH, 7CH, 20H, 54H, 79H, 70H
        DB 65H, 20H, 7CH, 20H, 52H, 65H, 6CH, 61H
        DB 74H, 69H, 6FH, 6EH, 20H, 7CH, 20H, 20H
        DB 20H, 20H, 20H, 20H, 20H, 45H, 55H, 49H
        DB 20H, 20H, 20H, 20H, 20H, 20H, 20H, 20H
        DB 7CH, 20H, 20H, 49H, 44H, 20H, 20H, 7CH
        DB 20H, 4CH, 51H, 49H, 0AH, 0DH, 0

        RSEG XDATA_ROM_C:CONST:REORDER:NOROOT(0)
        DATA8
`?<Constant "\\r\\n%02X.| ">`:
        DB "\015\012%02X.| "

        RSEG XDATA_ROM_C:CONST:REORDER:NOROOT(0)
        DATA8
`?<Constant " %-3s | ">`:
        DB " %-3s | "

        RSEG XDATA_ROM_C:CONST:REORDER:NOROOT(0)
        DATA32
`?<Constant "COO">`:
        DB "COO"

        RSEG XDATA_ROM_C:CONST:REORDER:NOROOT(0)
        DATA32
`?<Constant "RTR">`:
        DB "RTR"

        RSEG XDATA_ROM_C:CONST:REORDER:NOROOT(0)
        DATA32
`?<Constant "ZED">`:
        DB "ZED"

        RSEG XDATA_ROM_C:CONST:REORDER:NOROOT(0)
        DATA32
`?<Constant "UKN">`:
        DB "UKN"

        RSEG XDATA_ROM_C:CONST:REORDER:NOROOT(0)
        DATA8
`?<Constant " %-8s| ">`:
        DB " %-8s| "

        RSEG XDATA_ROM_C:CONST:REORDER:NOROOT(0)
        DATA8
`?<Constant "PARENT">`:
        DB "PARENT"

        RSEG XDATA_ROM_C:CONST:REORDER:NOROOT(0)
        DATA8
`?<Constant "CHILD">`:
        DB "CHILD"

        RSEG XDATA_ROM_C:CONST:REORDER:NOROOT(0)
        DATA8
`?<Constant "SIBLING">`:
        DB "SIBLING"

        RSEG XDATA_ROM_C:CONST:REORDER:NOROOT(0)
        DATA8
`?<Constant "UNKNOWN">`:
        DB "UNKNOWN"

        RSEG XDATA_ROM_C:CONST:REORDER:NOROOT(0)
        DATA8
`?<Constant "%04X%04X%04X%04X | %0...">`:
        DB "%04X%04X%04X%04X | %04X | %02X"

        RSEG XDATA_ROM_C:CONST:REORDER:NOROOT(0)
        DATA8
`?<Constant "RTable:%04X,%02X\\r\\n">`:
        DB "RTable:%04X,%02X\015\012"

        RSEG XDATA_ROM_C:CONST:REORDER:NOROOT(0)
        DATA8
`?<Constant "No.| Dest | Next | St...">`:
        DB "No.| Dest | Next | Status\012\015"

        RSEG XDATA_ROM_C:CONST:REORDER:NOROOT(0)
        DATA8
`?<Constant "\\r\\n%02X.| %04X | %04X ...">`:
        DB "\015\012%02X.| %04X | %04X | %02X"

        RSEG XDATA_ROM_C:CONST:REORDER:NOROOT(0)
        DATA8
`?<Constant "BTable:%04X,%02X\\r\\n">`:
        DB "BTable:%04X,%02X\015\012"

        RSEG XDATA_ROM_C:CONST:REORDER:NOROOT(0)
        DATA8
`?<Constant "Length:%02X">`:
        DB "Length:%02X"

        RSEG XDATA_ROM_C:CONST:REORDER:NOROOT(0)
        DATA8
`?<Constant "No. |     SrcAddr    ...">`:
        DB 4EH, 6FH, 2EH, 20H, 7CH, 20H, 20H, 20H
        DB 20H, 20H, 53H, 72H, 63H, 41H, 64H, 64H
        DB 72H, 20H, 20H, 20H, 20H, 20H, 20H, 7CH
        DB 20H, 53H, 72H, 63H, 45H, 50H, 20H, 7CH
        DB 20H, 43H, 6CH, 75H, 73H, 74H, 65H, 72H
        DB 49H, 44H, 20H, 7CH, 20H, 20H, 20H, 20H
        DB 20H, 44H, 73H, 74H, 41H, 64H, 64H, 72H
        DB 20H, 20H, 20H, 20H, 20H, 20H, 7CH, 20H
        DB 44H, 73H, 74H, 45H, 50H, 0

        RSEG XDATA_ROM_C:CONST:REORDER:NOROOT(0)
        DATA8
`?<Constant "| %02X">`:
        DB "| %02X"

        RSEG XDATA_ROM_C:CONST:REORDER:NOROOT(0)
        DATA8
`?<Constant "%02X. | %04X%04X%04X%...">`:
        DB 25H, 30H, 32H, 58H, 2EH, 20H, 7CH, 20H
        DB 25H, 30H, 34H, 58H, 25H, 30H, 34H, 58H
        DB 25H, 30H, 34H, 58H, 25H, 30H, 34H, 58H
        DB 20H, 7CH, 20H, 20H, 25H, 30H, 32H, 58H
        DB 20H, 20H, 20H, 7CH, 20H, 20H, 20H, 25H
        DB 30H, 34H, 58H, 20H, 20H, 20H, 20H, 7CH
        DB 20H, 25H, 73H, 20H, 25H, 73H, 20H, 0

        RSEG XDATA_ROM_C:CONST:REORDER:NOROOT(0)
        DATA8
`?<Constant "Bind:%04X,%02X">`:
        DB "Bind:%04X,%02X"

        RSEG XDATA_ROM_C:CONST:REORDER:NOROOT(0)
        DATA8
`?<Constant "Bind:UNKNOWN,%02X">`:
        DB "Bind:UNKNOWN,%02X"

        RSEG XDATA_ROM_C:CONST:REORDER:NOROOT(0)
        DATA8
`?<Constant "Unbind:%04X,%02X">`:
        DB "Unbind:%04X,%02X"

        RSEG XDATA_ROM_C:CONST:REORDER:NOROOT(0)
        DATA8
`?<Constant "Unbind:UNKNOWN,%02X">`:
        DB "Unbind:UNKNOWN,%02X"

        RSEG XDATA_ROM_C:CONST:REORDER:NOROOT(0)
        DATA8
`?<Constant "EBINDRSP:%02X">`:
        DB "EBINDRSP:%02X"

        RSEG XDATA_ROM_C:CONST:REORDER:NOROOT(0)
        DATA8
`?<Constant "\\r\\nLEFTPAN\\r\\n">`:
        DB "\015\012LEFTPAN\015\012"

        RSEG XDATA_ROM_C:CONST:REORDER:NOROOT(0)
        DATA32
__Constant_800:
        DD 2048

        RSEG XDATA_ROM_C:CONST:REORDER:NOROOT(0)
        DATA32
__Constant_7fff000:
        DD 134213632

        END
//  776 
//  777 /*******************************************************************************
//  778  * @fn      AT_ZDO_ProcessBindRsp
//  779  *
//  780  * @brief   +BIND - Create Binding on Remote Device (ZDO)
//  781  *          Prompt - Bind:<NodeID>,<status>
//  782  *
//  783  *                   ACK:XX
//  784  *          Note: In case of an error an status other than 00 will be displayed
//  785  *
//  786  * @param   inMsg - incoming message (response)
//  787  *
//  788  * @return  None
//  789  ******************************************************************************/
//  790 void AT_ZDO_ProcessBindRsp( zdoIncomingMsg_t *inMsg )
//  791 {
//  792   uint8 status = ZDO_ParseBindRsp(inMsg);
//  793 
//  794   AT_NEW_LINE();
//  795   if (inMsg->srcAddr.addrMode == (afAddrMode_t)Addr16Bit) {
//  796     printf("Bind:%04X,%02X", inMsg->srcAddr.addr.shortAddr, status);
//  797   }else{
//  798     printf("Bind:UNKNOWN,%02X", status);
//  799   }
//  800   AT_NEW_LINE();
//  801 }
//  802 
//  803 /*******************************************************************************
//  804  * @fn      AT_ZDO_ProcessUnbindRsp
//  805  *
//  806  * @brief   +UNBIND - Delete Binding on Remote Device (ZDO)
//  807  *          Prompt - Unbind:<NodeID>,<status>
//  808  *
//  809  *                   ACK:XX
//  810  *          Note: In case of an error an status other than 00 will be displayed
//  811  *
//  812  * @param   inMsg - incoming message (response)
//  813  *
//  814  * @return  None
//  815  ******************************************************************************/
//  816 void AT_ZDO_ProcessUnbindRsp( zdoIncomingMsg_t *inMsg )
//  817 {
//  818   uint8 status = ZDO_ParseBindRsp(inMsg);
//  819 
//  820   AT_NEW_LINE();
//  821   if (inMsg->srcAddr.addrMode == (afAddrMode_t)Addr16Bit) {
//  822     printf("Unbind:%04X,%02X", inMsg->srcAddr.addr.shortAddr, status);
//  823   }else{
//  824     printf("Unbind:UNKNOWN,%02X", status);
//  825   }
//  826   AT_NEW_LINE();
//  827 }
//  828 
//  829 /*******************************************************************************
//  830  * @fn      AT_ZDO_ProcessEDbindRsp
//  831  *
//  832  * @brief   +EBIND - End Device Bind
//  833  *          Prompt - EBINDACK
//  834  *                   EBINDRSP:<Status>
//  835  *                   OK
//  836  *          Note: In case of an error an status other than 00 will be displayed
//  837  *
//  838  * @param   inMsg - incoming message (response)
//  839  *
//  840  * @return  None
//  841  ******************************************************************************/
//  842 void AT_ZDO_ProcessEDbindRsp( zdoIncomingMsg_t *inMsg )
//  843 {
//  844   uint8 status = ZDO_ParseBindRsp(inMsg);
//  845 
//  846   AT_NEW_LINE();
//  847   // AT_RESP("EBINDACK", 8);
//  848   // AT_NEXT_LINE();
//  849   printf("EBINDRSP:%02X", status);
//  850   AT_NEW_LINE();
//  851   AT_OK();
//  852 }
//  853 
//  854 /*******************************************************************************
//  855  * @fn      AT_ZDO_ProcessMgmtLeaveRsp
//  856  *
//  857  * @brief   Prompt - LEFTPAN
//  858  *          Note: Instruct device to leave the PAN
//  859  *
//  860  * @param   inMsg - incoming message (response)
//  861  *
//  862  * @return  None
//  863  ******************************************************************************/
//  864 void AT_ZDO_ProcessMgmtLeaveRsp( zdoIncomingMsg_t *inMsg )
//  865 {
//  866   uint8 status = ZDO_ParseMgmtLeaveRsp( inMsg );
//  867 
//  868   if ( (uint16)inMsg->srcAddr.addr.shortAddr == NLME_GetShortAddr() ) {
//  869     AT_NEW_LINE();
//  870     if (status == ZSuccess) {
//  871       printf("\r\nLEFTPAN\r\n");
//  872     }
//  873     AT_NEW_LINE();
//  874   }
//  875 }
//  876 
//  877 /******************************************************************************
//  878  ******************************************************************************/
// 
// 4 008 bytes in segment BANKED_CODE
//    84 bytes in segment BANK_RELAYS
//     6 bytes in segment XDATA_I
//     6 bytes in segment XDATA_ID
// 1 031 bytes in segment XDATA_ROM_C
// 
//    90 bytes of CODE     memory
// 1 023 bytes of CONST    memory (+ 8 bytes shared)
// 4 008 bytes of HUGECODE memory
//     6 bytes of XDATA    memory
//
//Errors: none
//Warnings: none
