///////////////////////////////////////////////////////////////////////////////
//
// IAR C/C++ Compiler V10.30.1.6000 for 8051              23/Feb/2022  09:34:57
// Copyright 2004-2018 IAR Systems AB.
// PC-locked license - IAR Embedded Workbench for 8051
//
//    Core               =  plain
//    Code model         =  banked
//    Data model         =  large
//    Calling convention =  xdata reentrant
//    Constant location  =  data_rom
//    Dptr setup         =  1,16
//                          
//    Source file        =  
//        D:\A_proj\A_Cproj\Zigbee\ZigBee-DoorLock-2021.09.27\Projects\zstack\AT-command\ATApp\Source\UserAPI\AT_printf.c
//    Command line       =  
//        -f C:\Users\Administrator\AppData\Local\Temp\EW2D3F.tmp
//        (D:\A_proj\A_Cproj\Zigbee\ZigBee-DoorLock-2021.09.27\Projects\zstack\AT-command\ATApp\Source\UserAPI\AT_printf.c
//        -D WDT_IN_PM1 -D ZIGBEEPRO -D INTER_PAN -D ZIGBEE_FREQ_AGILITY -D
//        DISABLE_GREENPOWER_BASIC_PROXY -D REFLECTOR -D HAL_UART=FALSE -D
//        HAL_LED=FALSE -D HAL_KEY=FALSE -D SECURE=1 -D TC_LINKKEY_JOIN -D
//        NV_INIT -D NV_RESTORE -D POWER_SAVING -D NWK_AUTO_POLL -D xZTOOL_P1
//        -D xMT_TASK -D xMT_APP_FUNC -D xMT_SYS_FUNC -D xMT_ZDO_FUNC -D
//        xMT_ZDO_MGMT -D xMT_APP_CNF_FUNC -D xLEGACY_LCD_DEBUG -D
//        xLCD_SUPPORTED=DEBUG -D MULTICAST_ENABLED=FALSE -D ZCL_READ -D
//        ZCL_WRITE -D ZCL_DISCOVER -D ZCL_BASIC -D ZCL_IDENTIFY -D ZCL_SCENES
//        -D ZCL_GROUPS -D BDB_REPORTING -D ZCL_DOORLOCK -D ZCL_DOORLOCK_EXT -D
//        ISR_KEYINTERRUPT -lC
//        D:\A_proj\A_Cproj\Zigbee\ZigBee-DoorLock-2021.09.27\Projects\zstack\AT-command\ATApp\CC2530DB\EndDeviceEB\List
//        -lA
//        D:\A_proj\A_Cproj\Zigbee\ZigBee-DoorLock-2021.09.27\Projects\zstack\AT-command\ATApp\CC2530DB\EndDeviceEB\List
//        --diag_suppress Pe001,Pa010 -o
//        D:\A_proj\A_Cproj\Zigbee\ZigBee-DoorLock-2021.09.27\Projects\zstack\AT-command\ATApp\CC2530DB\EndDeviceEB\Obj
//        -e --debug --core=plain --dptr=16,1 --data_model=large
//        --code_model=banked --calling_convention=xdata_reentrant
//        --place_constants=data_rom --nr_virtual_regs 16 -f
//        D:\A_proj\A_Cproj\Zigbee\ZigBee-DoorLock-2021.09.27\Projects\zstack\AT-command\ATApp\CC2530DB\..\..\..\Tools\CC2530DB\f8wEndev.cfg
//        (-DCPU32MHZ -DROOT=__near_func -DMAC_CFG_TX_DATA_MAX=3
//        -DMAC_CFG_TX_MAX=6 -DMAC_CFG_RX_MAX=3) -f
//        D:\A_proj\A_Cproj\Zigbee\ZigBee-DoorLock-2021.09.27\Projects\zstack\AT-command\ATApp\CC2530DB\..\..\..\Tools\CC2530DB\f8wConfig.cfg
//        (-DZIGBEEPRO -DSECURE=1 -DZG_SECURE_DYNAMIC=0 -DREFLECTOR
//        -DDEFAULT_CHANLIST=0x00000800 -DZDAPP_CONFIG_PAN_ID=0xFFFF
//        -DNWK_START_DELAY=100 -DEXTENDED_JOINING_RANDOM_MASK=0x007F
//        -DBEACON_REQUEST_DELAY=100 -DBEACON_REQ_DELAY_MASK=0x00FF
//        -DLINK_STATUS_JITTER_MASK=0x007F -DROUTE_EXPIRY_TIME=30
//        -DAPSC_ACK_WAIT_DURATION_POLLED=3000 -DNWK_INDIRECT_MSG_TIMEOUT=7
//        -DMAX_RREQ_ENTRIES=8 -DAPSC_MAX_FRAME_RETRIES=3
//        -DNWK_MAX_DATA_RETRIES=2 -DMAX_POLL_FAILURE_RETRIES=2 -DMAX_BCAST=9
//        -DAPS_MAX_GROUPS=10 -DMAX_RTG_ENTRIES=15 -DNWK_MAX_BINDING_ENTRIES=4
//        -DMAX_BINDING_CLUSTER_IDS=4 -DDEFAULT_KEY={0}
//        -DMAC_MAX_FRAME_SIZE=116 -DZDNWKMGR_MIN_TRANSMISSIONS=20
//        "-DCONST=const __code" -DGENERIC=__generic -DRFD_RCVC_ALWAYS_ON=FALSE
//        -DPOLL_RATE=300 -DQUEUED_POLL_RATE=100 -DRESPONSE_POLL_RATE=100
//        -DREJOIN_POLL_RATE=440 -DREJOIN_BACKOFF=900000 -DREJOIN_SCAN=900000)
//        -f
//        D:\A_proj\A_Cproj\Zigbee\ZigBee-DoorLock-2021.09.27\Projects\zstack\AT-command\ATApp\CC2530DB\..\..\..\Tools\CC2530DB\f8wZCL.cfg
//        -I
//        D:\A_proj\A_Cproj\Zigbee\ZigBee-DoorLock-2021.09.27\Projects\zstack\AT-command\ATApp\CC2530DB\
//        -I
//        D:\A_proj\A_Cproj\Zigbee\ZigBee-DoorLock-2021.09.27\Projects\zstack\AT-command\ATApp\CC2530DB\..\Source\
//        -I
//        D:\A_proj\A_Cproj\Zigbee\ZigBee-DoorLock-2021.09.27\Projects\zstack\AT-command\ATApp\CC2530DB\..\Source\ZCL\
//        -I
//        D:\A_proj\A_Cproj\Zigbee\ZigBee-DoorLock-2021.09.27\Projects\zstack\AT-command\ATApp\CC2530DB\..\Source\UserAPI\
//        -I
//        D:\A_proj\A_Cproj\Zigbee\ZigBee-DoorLock-2021.09.27\Projects\zstack\AT-command\ATApp\CC2530DB\..\Source\Controller\
//        -I
//        D:\A_proj\A_Cproj\Zigbee\ZigBee-DoorLock-2021.09.27\Projects\zstack\AT-command\ATApp\CC2530DB\..\..\..\ZMain\TI2530DB\
//        -I
//        D:\A_proj\A_Cproj\Zigbee\ZigBee-DoorLock-2021.09.27\Projects\zstack\AT-command\ATApp\CC2530DB\..\..\..\..\..\Components\hal\include\
//        -I
//        D:\A_proj\A_Cproj\Zigbee\ZigBee-DoorLock-2021.09.27\Projects\zstack\AT-command\ATApp\CC2530DB\..\..\..\..\..\Components\hal\target\CC2530EB\
//        -I
//        D:\A_proj\A_Cproj\Zigbee\ZigBee-DoorLock-2021.09.27\Projects\zstack\AT-command\ATApp\CC2530DB\..\..\..\..\..\Components\mac\include\
//        -I
//        D:\A_proj\A_Cproj\Zigbee\ZigBee-DoorLock-2021.09.27\Projects\zstack\AT-command\ATApp\CC2530DB\..\..\..\..\..\Components\mac\high_level\
//        -I
//        D:\A_proj\A_Cproj\Zigbee\ZigBee-DoorLock-2021.09.27\Projects\zstack\AT-command\ATApp\CC2530DB\..\..\..\..\..\Components\mac\low_level\srf04\
//        -I
//        D:\A_proj\A_Cproj\Zigbee\ZigBee-DoorLock-2021.09.27\Projects\zstack\AT-command\ATApp\CC2530DB\..\..\..\..\..\Components\mac\low_level\srf04\single_chip\
//        -I
//        D:\A_proj\A_Cproj\Zigbee\ZigBee-DoorLock-2021.09.27\Projects\zstack\AT-command\ATApp\CC2530DB\..\..\..\..\..\Components\mt\
//        -I
//        D:\A_proj\A_Cproj\Zigbee\ZigBee-DoorLock-2021.09.27\Projects\zstack\AT-command\ATApp\CC2530DB\..\..\..\..\..\Components\osal\include\
//        -I
//        D:\A_proj\A_Cproj\Zigbee\ZigBee-DoorLock-2021.09.27\Projects\zstack\AT-command\ATApp\CC2530DB\..\..\..\..\..\Components\services\saddr\
//        -I
//        D:\A_proj\A_Cproj\Zigbee\ZigBee-DoorLock-2021.09.27\Projects\zstack\AT-command\ATApp\CC2530DB\..\..\..\..\..\Components\services\sdata\
//        -I
//        D:\A_proj\A_Cproj\Zigbee\ZigBee-DoorLock-2021.09.27\Projects\zstack\AT-command\ATApp\CC2530DB\..\..\..\..\..\Components\stack\af\
//        -I
//        D:\A_proj\A_Cproj\Zigbee\ZigBee-DoorLock-2021.09.27\Projects\zstack\AT-command\ATApp\CC2530DB\..\..\..\..\..\Components\stack\bdb\
//        -I
//        D:\A_proj\A_Cproj\Zigbee\ZigBee-DoorLock-2021.09.27\Projects\zstack\AT-command\ATApp\CC2530DB\..\..\..\..\..\Components\stack\gp\
//        -I
//        D:\A_proj\A_Cproj\Zigbee\ZigBee-DoorLock-2021.09.27\Projects\zstack\AT-command\ATApp\CC2530DB\..\..\..\..\..\Components\stack\nwk\
//        -I
//        D:\A_proj\A_Cproj\Zigbee\ZigBee-DoorLock-2021.09.27\Projects\zstack\AT-command\ATApp\CC2530DB\..\..\..\..\..\Components\stack\sapi\
//        -I
//        D:\A_proj\A_Cproj\Zigbee\ZigBee-DoorLock-2021.09.27\Projects\zstack\AT-command\ATApp\CC2530DB\..\..\..\..\..\Components\stack\sec\
//        -I
//        D:\A_proj\A_Cproj\Zigbee\ZigBee-DoorLock-2021.09.27\Projects\zstack\AT-command\ATApp\CC2530DB\..\..\..\..\..\Components\stack\sys\
//        -I
//        D:\A_proj\A_Cproj\Zigbee\ZigBee-DoorLock-2021.09.27\Projects\zstack\AT-command\ATApp\CC2530DB\..\..\..\..\..\Components\stack\zcl\
//        -I
//        D:\A_proj\A_Cproj\Zigbee\ZigBee-DoorLock-2021.09.27\Projects\zstack\AT-command\ATApp\CC2530DB\..\..\..\..\..\Components\stack\zdo\
//        -I
//        D:\A_proj\A_Cproj\Zigbee\ZigBee-DoorLock-2021.09.27\Projects\zstack\AT-command\ATApp\CC2530DB\..\..\..\..\..\Components\zmac\
//        -I
//        D:\A_proj\A_Cproj\Zigbee\ZigBee-DoorLock-2021.09.27\Projects\zstack\AT-command\ATApp\CC2530DB\..\..\..\..\..\Components\zmac\f8w\
//        -Ohz --require_prototypes)
//    Locale             =  Chinese (Simplified)_CHN.936
//    List file          =  
//        D:\A_proj\A_Cproj\Zigbee\ZigBee-DoorLock-2021.09.27\Projects\zstack\AT-command\ATApp\CC2530DB\EndDeviceEB\List\AT_printf.s51
//
///////////////////////////////////////////////////////////////////////////////

        NAME AT_printf

        RTMODEL "__SystemLibrary", "CLib"
        RTMODEL "__calling_convention", "xdata_reentrant"
        RTMODEL "__code_model", "banked"
        RTMODEL "__core", "plain"
        RTMODEL "__data_model", "large"
        RTMODEL "__dptr_size", "16"
        RTMODEL "__extended_stack", "disabled"
        RTMODEL "__location_for_constants", "data"
        RTMODEL "__number_of_dptrs", "1"
        RTMODEL "__register_banks", "*"
        RTMODEL "__rt_version", "1"

        RSEG DOVERLAY:DATA:NOROOT(0)
        RSEG IOVERLAY:IDATA:NOROOT(0)
        RSEG ISTACK:IDATA:NOROOT(0)
        RSEG PSTACK:XDATA:NOROOT(0)
        RSEG XSTACK:XDATA:NOROOT(0)

        EXTERN ?V0
        EXTERN ?V1
        EXTERN ?V2
        EXTERN ?V3
        EXTERN ?V4
        EXTERN ?V5
        EXTERN ?V6
        EXTERN ?V7
        EXTERN ?V8
        EXTERN ?V9
        EXTERN ?V10
        EXTERN ?V11
        EXTERN ?V12
        EXTERN ?V13
        EXTERN ?ALLOC_XSTACK8
        EXTERN ?BANKED_ENTER_XDATA
        EXTERN ?BANKED_LEAVE_XDATA
        EXTERN ?BDISPATCH
        EXTERN ?BRET
        EXTERN ?DEALLOC_XSTACK8
        EXTERN ?PUSH_XSTACK_I_TWO
        EXTERN ?US_DIV_MOD
        EXTERN ?VB
        EXTERN ?XSP
        EXTERN ?XSTACK_DISP0_8
        EXTERN ?XSTACK_DISP100_8
        EXTERN ?XSTACK_DISP101_8
        EXTERN ?XSTACK_DISP102_8

        FUNCTION `??print::?relay`,0203H
        FUNCTION `??printchar::?relay`,0203H
        PUBLIC `??printf::?relay`
        FUNCTION `??printf::?relay`,0203H
        FUNCTION `??printi::?relay`,0203H
        FUNCTION `??prints::?relay`,0203H
        PUBLIC `??putchar::?relay`
        FUNCTION `??putchar::?relay`,0203H
        PUBLIC `??sprintf::?relay`
        FUNCTION `??sprintf::?relay`,0203H
        FUNCTION print,0a1203H
        ARGFRAME XSTACK, 16, STACK
        ARGFRAME IOVERLAY, 0, STATIC
        ARGFRAME DOVERLAY, 0, STATIC
        LOCFRAME ISTACK, 1, STACK
        LOCFRAME XSTACK, 30, STACK
        FUNCTION printchar,021203H
        ARGFRAME XSTACK, 28, STACK
        ARGFRAME IOVERLAY, 0, STATIC
        ARGFRAME DOVERLAY, 0, STATIC
        LOCFRAME ISTACK, 3, STACK
        LOCFRAME XSTACK, 1, STACK
        PUBLIC printf
        FUNCTION printf,0a1203H
        ARGFRAME XSTACK, 0, STACK
        LOCFRAME XSTACK, 14, STACK
        FUNCTION printi,0a1203H
        ARGFRAME XSTACK, 30, STACK
        ARGFRAME IOVERLAY, 0, STATIC
        ARGFRAME DOVERLAY, 0, STATIC
        LOCFRAME ISTACK, 1, STACK
        LOCFRAME XSTACK, 32, STACK
        FUNCTION prints,0a1203H
        ARGFRAME XSTACK, 32, STACK
        ARGFRAME IOVERLAY, 0, STATIC
        ARGFRAME DOVERLAY, 0, STATIC
        LOCFRAME XSTACK, 16, STACK
        PUBLIC putchar
        FUNCTION putchar,021203H
        ARGFRAME XSTACK, 0, STACK
        LOCFRAME ISTACK, 3, STACK
        LOCFRAME XSTACK, 1, STACK
        PUBLIC sprintf
        FUNCTION sprintf,0a1203H
        ARGFRAME XSTACK, 0, STACK
        LOCFRAME XSTACK, 16, STACK
        
          CFI Names cfiNames0
          CFI StackFrame CFA_SP SP IDATA
          CFI StackFrame CFA_PSP16 PSP16 XDATA
          CFI StackFrame CFA_XSP16 XSP16 XDATA
          CFI StaticOverlayFrame CFA_IOVERLAY IOVERLAY
          CFI StaticOverlayFrame CFA_DOVERLAY DOVERLAY
          CFI Resource `PSW.CY`:1, `B.BR0`:1, `B.BR1`:1, `B.BR2`:1, `B.BR3`:1
          CFI Resource `B.BR4`:1, `B.BR5`:1, `B.BR6`:1, `B.BR7`:1, `VB.BR8`:1
          CFI Resource `VB.BR9`:1, `VB.BR10`:1, `VB.BR11`:1, `VB.BR12`:1
          CFI Resource `VB.BR13`:1, `VB.BR14`:1, `VB.BR15`:1, VB:8, B:8, A:8
          CFI Resource PSW:8, DPL0:8, DPH0:8, R0:8, R1:8, R2:8, R3:8, R4:8, R5:8
          CFI Resource R6:8, R7:8, V0:8, V1:8, V2:8, V3:8, V4:8, V5:8, V6:8, V7:8
          CFI Resource V8:8, V9:8, V10:8, V11:8, V12:8, V13:8, V14:8, V15:8, SP:8
          CFI Resource PSPH:8, PSPL:8, PSP16:16, XSPH:8, XSPL:8, XSP16:16
          CFI VirtualResource ?RET:24
          CFI Resource ?BRET_EXT:8
          CFI VirtualResource ?RET_HIGH:8, ?RET_LOW:8
          CFI ResourceParts PSP16 PSPH, PSPL
          CFI ResourceParts XSP16 XSPH, XSPL
          CFI ResourceParts ?RET ?BRET_EXT, ?RET_HIGH, ?RET_LOW
          CFI EndNames cfiNames0
        
          CFI Common cfiCommon0 Using cfiNames0
          CFI CodeAlign 1
          CFI DataAlign -1
          CFI ReturnAddress ?RET CODE
          CFI CFA_DOVERLAY Used
          CFI CFA_IOVERLAY Used
          CFI CFA_SP SP+-3
          CFI CFA_PSP16 PSP16+0
          CFI CFA_XSP16 XSP16+0
          CFI `PSW.CY` SameValue
          CFI `B.BR0` SameValue
          CFI `B.BR1` SameValue
          CFI `B.BR2` SameValue
          CFI `B.BR3` SameValue
          CFI `B.BR4` SameValue
          CFI `B.BR5` SameValue
          CFI `B.BR6` SameValue
          CFI `B.BR7` SameValue
          CFI `VB.BR8` SameValue
          CFI `VB.BR9` SameValue
          CFI `VB.BR10` SameValue
          CFI `VB.BR11` SameValue
          CFI `VB.BR12` SameValue
          CFI `VB.BR13` SameValue
          CFI `VB.BR14` SameValue
          CFI `VB.BR15` SameValue
          CFI VB SameValue
          CFI B Undefined
          CFI A Undefined
          CFI PSW SameValue
          CFI DPL0 SameValue
          CFI DPH0 SameValue
          CFI R0 Undefined
          CFI R1 Undefined
          CFI R2 Undefined
          CFI R3 Undefined
          CFI R4 Undefined
          CFI R5 Undefined
          CFI R6 SameValue
          CFI R7 SameValue
          CFI V0 SameValue
          CFI V1 SameValue
          CFI V2 SameValue
          CFI V3 SameValue
          CFI V4 SameValue
          CFI V5 SameValue
          CFI V6 SameValue
          CFI V7 SameValue
          CFI V8 SameValue
          CFI V9 SameValue
          CFI V10 SameValue
          CFI V11 SameValue
          CFI V12 SameValue
          CFI V13 SameValue
          CFI V14 SameValue
          CFI V15 SameValue
          CFI PSPH Undefined
          CFI PSPL Undefined
          CFI XSPH Undefined
          CFI XSPL Undefined
          CFI ?RET Concat
          CFI ?BRET_EXT Frame(CFA_SP, 3)
          CFI ?RET_HIGH Frame(CFA_SP, 2)
          CFI ?RET_LOW Frame(CFA_SP, 1)
          CFI EndCommon cfiCommon0
        
        
          CFI Common cfiCommon1 Using cfiNames0
          CFI CodeAlign 1
          CFI DataAlign -1
          CFI ReturnAddress ?RET CODE
          CFI CFA_DOVERLAY Used
          CFI CFA_IOVERLAY Used
          CFI CFA_SP SP+-2
          CFI CFA_PSP16 PSP16+0
          CFI CFA_XSP16 XSP16+0
          CFI `PSW.CY` SameValue
          CFI `B.BR0` SameValue
          CFI `B.BR1` SameValue
          CFI `B.BR2` SameValue
          CFI `B.BR3` SameValue
          CFI `B.BR4` SameValue
          CFI `B.BR5` SameValue
          CFI `B.BR6` SameValue
          CFI `B.BR7` SameValue
          CFI `VB.BR8` SameValue
          CFI `VB.BR9` SameValue
          CFI `VB.BR10` SameValue
          CFI `VB.BR11` SameValue
          CFI `VB.BR12` SameValue
          CFI `VB.BR13` SameValue
          CFI `VB.BR14` SameValue
          CFI `VB.BR15` SameValue
          CFI VB SameValue
          CFI B SameValue
          CFI A SameValue
          CFI PSW SameValue
          CFI DPL0 SameValue
          CFI DPH0 SameValue
          CFI R0 SameValue
          CFI R1 SameValue
          CFI R2 SameValue
          CFI R3 SameValue
          CFI R4 SameValue
          CFI R5 SameValue
          CFI R6 SameValue
          CFI R7 SameValue
          CFI V0 SameValue
          CFI V1 SameValue
          CFI V2 SameValue
          CFI V3 SameValue
          CFI V4 SameValue
          CFI V5 SameValue
          CFI V6 SameValue
          CFI V7 SameValue
          CFI V8 SameValue
          CFI V9 SameValue
          CFI V10 SameValue
          CFI V11 SameValue
          CFI V12 SameValue
          CFI V13 SameValue
          CFI V14 SameValue
          CFI V15 SameValue
          CFI PSPH Undefined
          CFI PSPL Undefined
          CFI XSPH Undefined
          CFI XSPL Undefined
          CFI ?RET Concat
          CFI ?BRET_EXT SameValue
          CFI ?RET_HIGH Frame(CFA_SP, 2)
          CFI ?RET_LOW Frame(CFA_SP, 1)
          CFI EndCommon cfiCommon1
        
AT_Uart0_Send       SYMBOL "AT_Uart0_Send"
`??AT_Uart0_Send::?relay` SYMBOL "?relay", AT_Uart0_Send
printf              SYMBOL "printf"
`??printf::?relay`  SYMBOL "?relay", printf
putchar             SYMBOL "putchar"
`??putchar::?relay` SYMBOL "?relay", putchar
sprintf             SYMBOL "sprintf"
`??sprintf::?relay` SYMBOL "?relay", sprintf

        EXTERN `??AT_Uart0_Send::?relay`
        FUNCTION `??AT_Uart0_Send::?relay`,00H
        EXTERN AT_Uart0_Send
        FUNCTION AT_Uart0_Send,0202H
        ARGFRAME ISTACK, 2, STACK
        ARGFRAME PSTACK, 0, STACK
        ARGFRAME XSTACK, 1, STACK
        ARGFRAME IOVERLAY, 0, STATIC
        ARGFRAME DOVERLAY, 0, STATIC

// D:\A_proj\A_Cproj\Zigbee\ZigBee-DoorLock-2021.09.27\Projects\zstack\AT-command\ATApp\Source\UserAPI\AT_printf.c
//    1 /*
//    2 	Copyright 2001, 2002 Georges Menie (www.menie.org)
//    3 	stdarg version contributed by Christian Ettinger
//    4 
//    5     This program is free software; you can redistribute it and/or modify
//    6     it under the terms of the GNU Lesser General Public License as published by
//    7     the Free Software Foundation; either version 2 of the License, or
//    8     (at your option) any later version.
//    9 
//   10     This program is distributed in the hope that it will be useful,
//   11     but WITHOUT ANY WARRANTY; without even the implied warranty of
//   12     MERCHANTABILITY or FITNESS FOR A PARTICULAR PURPOSE.  See the
//   13     GNU Lesser General Public License for more details.
//   14 
//   15     You should have received a copy of the GNU Lesser General Public License
//   16     along with this program; if not, write to the Free Software
//   17     Foundation, Inc., 59 Temple Place, Suite 330, Boston, MA  02111-1307  USA
//   18 */
//   19 
//   20 /*
//   21 	putchar is the only external dependency for this file,
//   22 	if you have a working putchar, leave it commented out.
//   23 	If not, uncomment the define below and
//   24 	replace outbyte(c) by your own function call.
//   25 
//   26 #define putchar(c) outbyte(c)
//   27 */
//   28 
//   29 #include "stdarg.h"
//   30 #include "AT_printf.h"
//   31 #include "AT_uart.h"
//   32 #include "AT_uart0.h"
//   33 
//   34 void putchar(char c);

        RSEG BANKED_CODE:HUGECODE:NOROOT(0)
//   35 void putchar(char c){
putchar:
          CFI Block cfiBlock0 Using cfiCommon0
          CFI Function putchar
        CODE
        FUNCALL putchar, AT_Uart0_Send
        LOCFRAME ISTACK, 2, STACK
        LOCFRAME PSTACK, 0, STACK
        LOCFRAME XSTACK, 1, STACK
        LOCFRAME IOVERLAY, 0, STATIC
        LOCFRAME DOVERLAY, 0, STATIC
        ARGFRAME ISTACK, 2, STACK
        ARGFRAME PSTACK, 0, STACK
        ARGFRAME XSTACK, 1, STACK
        ARGFRAME IOVERLAY, 0, STATIC
        ARGFRAME DOVERLAY, 0, STATIC
        PUSH      DPL
          CFI DPL0 Frame(CFA_SP, 4)
          CFI CFA_SP SP+-4
        PUSH      DPH
          CFI DPH0 Frame(CFA_SP, 5)
          CFI CFA_SP SP+-5
        ; Saved register size: 2
        ; Auto size: 1
        MOV       A,#-0x1
        LCALL     ?ALLOC_XSTACK8
          CFI CFA_XSP16 add(XSP16, 1)
        MOV       A,R1
        LCALL     ?Subroutine6 & 0xFFFF
//   36   AT_Uart0_Send((uint8 *)&c,1);
//   37 }
??CrossCallReturnLabel_9:
          CFI EndBlock cfiBlock0
        REQUIRE ?Subroutine0
        ; // Fall through to label ?Subroutine0

        RSEG BANKED_CODE:HUGECODE:NOROOT(0)
?Subroutine0:
          CFI Block cfiBlock1 Using cfiCommon0
          CFI NoFunction
          CFI CFA_SP SP+-5
          CFI CFA_XSP16 add(XSP16, 1)
          CFI DPL0 Frame(CFA_SP, 4)
          CFI DPH0 Frame(CFA_SP, 5)
        MOV       A,#0x1
        LCALL     ?DEALLOC_XSTACK8
          CFI CFA_XSP16 XSP16+0
        POP       DPH
          CFI CFA_SP SP+-4
          CFI DPH0 SameValue
        POP       DPL
          CFI CFA_SP SP+-3
          CFI DPL0 SameValue
        LJMP      ?BRET
          CFI EndBlock cfiBlock1
//   38 

        RSEG BANKED_CODE:HUGECODE:NOROOT(0)
//   39 static void printchar(char **str, int c)
printchar:
          CFI Block cfiBlock2 Using cfiCommon0
          CFI Function printchar
        CODE
//   40 {
        FUNCALL printchar, AT_Uart0_Send
        LOCFRAME ISTACK, 2, STACK
        LOCFRAME PSTACK, 0, STACK
        LOCFRAME XSTACK, 1, STACK
        LOCFRAME IOVERLAY, 0, STATIC
        LOCFRAME DOVERLAY, 0, STATIC
        ARGFRAME ISTACK, 2, STACK
        ARGFRAME PSTACK, 0, STACK
        ARGFRAME XSTACK, 1, STACK
        ARGFRAME IOVERLAY, 0, STATIC
        ARGFRAME DOVERLAY, 0, STATIC
        PUSH      DPL
          CFI DPL0 Frame(CFA_SP, 4)
          CFI CFA_SP SP+-4
        PUSH      DPH
          CFI DPH0 Frame(CFA_SP, 5)
          CFI CFA_SP SP+-5
        ; Saved register size: 2
        ; Auto size: 1
        MOV       A,#-0x1
        LCALL     ?ALLOC_XSTACK8
          CFI CFA_XSP16 add(XSP16, 1)
//   41 	extern void putchar(char c);
//   42 
//   43 	if (str) {
        MOV       A,R2
        ORL       A,R3
        JZ        ??printchar_0
//   44 		**str = c;
        MOV       DPL,R2
        MOV       DPH,R3
        LCALL     ?Subroutine7 & 0xFFFF
??CrossCallReturnLabel_11:
        MOV       A,R4
        MOVX      @DPTR,A
//   45 		++(*str);
        MOV       DPL,R2
        MOV       DPH,R3
        MOVX      A,@DPTR
        ADD       A,#0x1
        MOV       R0,A
        INC       DPTR
        MOVX      A,@DPTR
        ADDC      A,#0x0
        MOV       R1,A
        MOV       DPL,R2
        MOV       DPH,R3
        MOV       A,R0
        MOVX      @DPTR,A
        INC       DPTR
        MOV       A,R1
        MOVX      @DPTR,A
        SJMP      ??CrossCallReturnLabel_10
//   46 	}
//   47 	else (void)putchar((char)c);
??printchar_0:
        MOV       A,R4
        LCALL     ?Subroutine6 & 0xFFFF
//   48 }
??CrossCallReturnLabel_10:
        SJMP      ?Subroutine0
          CFI EndBlock cfiBlock2

        RSEG BANKED_CODE:HUGECODE:NOROOT(0)
?Subroutine6:
          CFI Block cfiCond3 Using cfiCommon0
          CFI Function putchar
          CFI Conditional ??CrossCallReturnLabel_9
          CFI DPL0 Frame(CFA_SP, 4)
          CFI DPH0 Frame(CFA_SP, 5)
          CFI CFA_SP SP+-7
          CFI CFA_XSP16 add(XSP16, 1)
          CFI Block cfiCond4 Using cfiCommon0
          CFI (cfiCond4) Function printchar
          CFI (cfiCond4) Conditional ??CrossCallReturnLabel_10
          CFI (cfiCond4) DPL0 Frame(CFA_SP, 4)
          CFI (cfiCond4) DPH0 Frame(CFA_SP, 5)
          CFI (cfiCond4) CFA_SP SP+-7
          CFI (cfiCond4) CFA_XSP16 add(XSP16, 1)
          CFI Block cfiPicker5 Using cfiCommon1
          CFI (cfiPicker5) NoFunction
          CFI (cfiPicker5) Picker
        MOV       DPL,?XSP + 0
        MOV       DPH,?XSP + 1
        MOVX      @DPTR,A
        ; Setup parameters for call to function AT_Uart0_Send
        ; Setup parameters for call to function AT_Uart0_Send
        MOV       R4,#0x1
        MOV       R5,#0x0
        MOV       R2,?XSP + 0
        MOV       R3,?XSP + 1
        LCALL     `??AT_Uart0_Send::?relay`; Banked call to: AT_Uart0_Send
        RET
          CFI EndBlock cfiCond3
          CFI EndBlock cfiCond4
          CFI EndBlock cfiPicker5
//   49 
//   50 #define PAD_RIGHT 1
//   51 #define PAD_ZERO 2
//   52 

        RSEG BANKED_CODE:HUGECODE:NOROOT(0)
//   53 static int prints(char **out, const char *string, int width, int pad)
prints:
          CFI Block cfiBlock6 Using cfiCommon0
          CFI Function prints
        CODE
//   54 {
        FUNCALL prints, printchar
        LOCFRAME ISTACK, 0, STACK
        LOCFRAME PSTACK, 0, STACK
        LOCFRAME XSTACK, 16, STACK
        LOCFRAME IOVERLAY, 0, STATIC
        LOCFRAME DOVERLAY, 0, STATIC
        ARGFRAME ISTACK, 0, STACK
        ARGFRAME PSTACK, 0, STACK
        ARGFRAME XSTACK, 16, STACK
        ARGFRAME IOVERLAY, 0, STATIC
        ARGFRAME DOVERLAY, 0, STATIC
        FUNCALL prints, printchar
        LOCFRAME ISTACK, 0, STACK
        LOCFRAME PSTACK, 0, STACK
        LOCFRAME XSTACK, 16, STACK
        LOCFRAME IOVERLAY, 0, STATIC
        LOCFRAME DOVERLAY, 0, STATIC
        ARGFRAME ISTACK, 0, STACK
        ARGFRAME PSTACK, 0, STACK
        ARGFRAME XSTACK, 16, STACK
        ARGFRAME IOVERLAY, 0, STATIC
        ARGFRAME DOVERLAY, 0, STATIC
        FUNCALL prints, printchar
        LOCFRAME ISTACK, 0, STACK
        LOCFRAME PSTACK, 0, STACK
        LOCFRAME XSTACK, 16, STACK
        LOCFRAME IOVERLAY, 0, STATIC
        LOCFRAME DOVERLAY, 0, STATIC
        ARGFRAME ISTACK, 0, STACK
        ARGFRAME PSTACK, 0, STACK
        ARGFRAME XSTACK, 16, STACK
        ARGFRAME IOVERLAY, 0, STATIC
        ARGFRAME DOVERLAY, 0, STATIC
        REQUIRE ?V0
        REQUIRE ?V1
        REQUIRE ?V2
        REQUIRE ?V3
        REQUIRE ?V4
        REQUIRE ?V5
        REQUIRE ?V6
        REQUIRE ?V7
        MOV       A,#-0x10
        LCALL     ?BANKED_ENTER_XDATA
          CFI DPH0 load(1, XDATA, add(CFA_XSP16, literal(-1)))
          CFI DPL0 load(1, XDATA, add(CFA_XSP16, literal(-2)))
          CFI ?BRET_EXT load(1, XDATA, add(CFA_XSP16, literal(-3)))
          CFI ?RET_HIGH load(1, XDATA, add(CFA_XSP16, literal(-4)))
          CFI ?RET_LOW load(1, XDATA, add(CFA_XSP16, literal(-5)))
          CFI R7 load(1, XDATA, add(CFA_XSP16, literal(-6)))
          CFI V7 load(1, XDATA, add(CFA_XSP16, literal(-7)))
          CFI V6 load(1, XDATA, add(CFA_XSP16, literal(-8)))
          CFI V5 load(1, XDATA, add(CFA_XSP16, literal(-9)))
          CFI V4 load(1, XDATA, add(CFA_XSP16, literal(-10)))
          CFI V3 load(1, XDATA, add(CFA_XSP16, literal(-11)))
          CFI V2 load(1, XDATA, add(CFA_XSP16, literal(-12)))
          CFI V1 load(1, XDATA, add(CFA_XSP16, literal(-13)))
          CFI V0 load(1, XDATA, add(CFA_XSP16, literal(-14)))
          CFI VB load(1, XDATA, add(CFA_XSP16, literal(-15)))
          CFI R6 load(1, XDATA, add(CFA_XSP16, literal(-16)))
          CFI CFA_SP SP+0
          CFI CFA_XSP16 add(XSP16, 16)
        ; Saved register size: 16
        ; Auto size: 0
        MOV       ?V6,R2
        MOV       ?V7,R3
        MOV       ?V2,R4
        MOV       ?V3,R5
//   55 	register int pc = 0, padchar = ' ';
        MOV       R6,#0x0
        MOV       R7,#0x0
        MOV       ?V4,#0x20
        MOV       ?V5,R6
        MOV       A,#0x10
        LCALL     ?XSTACK_DISP0_8
        MOVX      A,@DPTR
        MOV       ?V0,A
        INC       DPTR
        MOVX      A,@DPTR
        MOV       ?V1,A
        MOV       A,#0x12
        LCALL     ?XSTACK_DISP0_8
        MOVX      A,@DPTR
        MOV       R0,A
//   56 
//   57 	if (width > 0) {
        LCALL     ?Subroutine4 & 0xFFFF
??CrossCallReturnLabel_4:
        JC        ??prints_0
//   58 		register int len = 0;
        MOV       R2,#0x0
        MOV       R3,#0x0
//   59 		register const char *ptr;
//   60 		for (ptr = string; *ptr; ++ptr) ++len;
        MOV       DPL,R4
        MOV       DPH,R5
        SJMP      ??prints_1
??prints_2:
        INC       R2
        MOV       A,R2
        JNZ       ??prints_3
        INC       R3
??prints_3:
        INC       DPTR
??prints_1:
        MOVX      A,@DPTR
        JNZ       ??prints_2
//   61 		if (len >= width) width = 0;
        CLR       C
        MOV       A,R2
        SUBB      A,?V0
        MOV       A,R3
        SUBB      A,?V1
        MOV       C,0xD0 /* PSW */.2
        XRL       A,PSW
        RLC       A
        JC        ??prints_4
        MOV       ?V0,R6
        MOV       ?V1,R6
        SJMP      ??prints_5
//   62 		else width -= len;
??prints_4:
        CLR       C
        MOV       A,?V0
        SUBB      A,R2
        MOV       ?V0,A
        MOV       A,?V1
        SUBB      A,R3
        MOV       ?V1,A
//   63 		if (pad & PAD_ZERO) padchar = '0';
??prints_5:
        MOV       A,R0
        ANL       A,#0x2
        JZ        ??prints_0
        MOV       ?V4,#0x30
//   64 	}
//   65 	if (!(pad & PAD_RIGHT)) {
??prints_0:
        MOV       A,R0
        MOV       C,0xE0 /* A   */.0
        JC        ??prints_6
        SJMP      ??CrossCallReturnLabel_14
//   66 		for ( ; width > 0; --width) {
//   67 			printchar (out, padchar);
??prints_7:
        ; Setup parameters for call to function printchar
        MOV       R4,?V4
        MOV       R5,?V5
        MOV       R2,?V6
        MOV       R3,?V7
        LCALL     `??printchar::?relay`; Banked call to: printchar
//   68 			++pc;
        INC       R6
        MOV       A,R6
        JNZ       ??prints_8
        INC       R7
//   69 		}
??prints_8:
        LCALL     ?Subroutine8 & 0xFFFF
??CrossCallReturnLabel_14:
        LCALL     ?Subroutine4 & 0xFFFF
//   70 	}
??CrossCallReturnLabel_5:
        JNC       ??prints_7
//   71 	for ( ; *string ; ++string) {
??prints_6:
        MOV       DPL,?V2
        MOV       DPH,?V3
        MOVX      A,@DPTR
        JZ        ??CrossCallReturnLabel_15
//   72 		printchar (out, *string);
        ; Setup parameters for call to function printchar
        MOV       R4,A
        MOV       R5,#0x0
        MOV       R2,?V6
        MOV       R3,?V7
        LCALL     `??printchar::?relay`; Banked call to: printchar
//   73 		++pc;
        INC       R6
        MOV       A,R6
        JNZ       ??prints_9
        INC       R7
//   74 	}
??prints_9:
        MOV       DPL,?V2
        MOV       DPH,?V3
        INC       DPTR
        MOV       ?V2,DPL
        MOV       ?V3,DPH
        SJMP      ??prints_6
//   75 	for ( ; width > 0; --width) {
//   76 		printchar (out, padchar);
??prints_10:
        ; Setup parameters for call to function printchar
        MOV       R4,?V4
        MOV       R5,?V5
        MOV       R2,?V6
        MOV       R3,?V7
        LCALL     `??printchar::?relay`; Banked call to: printchar
//   77 		++pc;
        INC       R6
        MOV       A,R6
        JNZ       ??prints_11
        INC       R7
//   78 	}
??prints_11:
        LCALL     ?Subroutine8 & 0xFFFF
??CrossCallReturnLabel_15:
        LCALL     ?Subroutine4 & 0xFFFF
??CrossCallReturnLabel_6:
        JNC       ??prints_10
//   79 
//   80 	return pc;
        MOV       A,R6
        MOV       R2,A
        MOV       A,R7
        MOV       R3,A
        MOV       R7,#0x8
        LJMP      ?BANKED_LEAVE_XDATA
//   81 }
          CFI EndBlock cfiBlock6

        RSEG BANKED_CODE:HUGECODE:NOROOT(0)
?Subroutine4:
          CFI Block cfiCond7 Using cfiCommon0
          CFI Function prints
          CFI Conditional ??CrossCallReturnLabel_4
          CFI R6 load(1, XDATA, add(CFA_XSP16, literal(-16)))
          CFI VB load(1, XDATA, add(CFA_XSP16, literal(-15)))
          CFI V0 load(1, XDATA, add(CFA_XSP16, literal(-14)))
          CFI V1 load(1, XDATA, add(CFA_XSP16, literal(-13)))
          CFI V2 load(1, XDATA, add(CFA_XSP16, literal(-12)))
          CFI V3 load(1, XDATA, add(CFA_XSP16, literal(-11)))
          CFI V4 load(1, XDATA, add(CFA_XSP16, literal(-10)))
          CFI V5 load(1, XDATA, add(CFA_XSP16, literal(-9)))
          CFI V6 load(1, XDATA, add(CFA_XSP16, literal(-8)))
          CFI V7 load(1, XDATA, add(CFA_XSP16, literal(-7)))
          CFI R7 load(1, XDATA, add(CFA_XSP16, literal(-6)))
          CFI ?RET_LOW load(1, XDATA, add(CFA_XSP16, literal(-5)))
          CFI ?RET_HIGH load(1, XDATA, add(CFA_XSP16, literal(-4)))
          CFI ?BRET_EXT load(1, XDATA, add(CFA_XSP16, literal(-3)))
          CFI DPL0 load(1, XDATA, add(CFA_XSP16, literal(-2)))
          CFI DPH0 load(1, XDATA, add(CFA_XSP16, literal(-1)))
          CFI CFA_SP SP+-2
          CFI CFA_XSP16 add(XSP16, 16)
          CFI Block cfiCond8 Using cfiCommon0
          CFI (cfiCond8) Function prints
          CFI (cfiCond8) Conditional ??CrossCallReturnLabel_5
          CFI (cfiCond8) R6 load(1, XDATA, add(CFA_XSP16, literal(-16)))
          CFI (cfiCond8) VB load(1, XDATA, add(CFA_XSP16, literal(-15)))
          CFI (cfiCond8) V0 load(1, XDATA, add(CFA_XSP16, literal(-14)))
          CFI (cfiCond8) V1 load(1, XDATA, add(CFA_XSP16, literal(-13)))
          CFI (cfiCond8) V2 load(1, XDATA, add(CFA_XSP16, literal(-12)))
          CFI (cfiCond8) V3 load(1, XDATA, add(CFA_XSP16, literal(-11)))
          CFI (cfiCond8) V4 load(1, XDATA, add(CFA_XSP16, literal(-10)))
          CFI (cfiCond8) V5 load(1, XDATA, add(CFA_XSP16, literal(-9)))
          CFI (cfiCond8) V6 load(1, XDATA, add(CFA_XSP16, literal(-8)))
          CFI (cfiCond8) V7 load(1, XDATA, add(CFA_XSP16, literal(-7)))
          CFI (cfiCond8) R7 load(1, XDATA, add(CFA_XSP16, literal(-6)))
          CFI (cfiCond8) ?RET_LOW load(1, XDATA, add(CFA_XSP16, literal(-5)))
          CFI (cfiCond8) ?RET_HIGH load(1, XDATA, add(CFA_XSP16, literal(-4)))
          CFI (cfiCond8) ?BRET_EXT load(1, XDATA, add(CFA_XSP16, literal(-3)))
          CFI (cfiCond8) DPL0 load(1, XDATA, add(CFA_XSP16, literal(-2)))
          CFI (cfiCond8) DPH0 load(1, XDATA, add(CFA_XSP16, literal(-1)))
          CFI (cfiCond8) CFA_SP SP+-2
          CFI (cfiCond8) CFA_XSP16 add(XSP16, 16)
          CFI Block cfiCond9 Using cfiCommon0
          CFI (cfiCond9) Function prints
          CFI (cfiCond9) Conditional ??CrossCallReturnLabel_6
          CFI (cfiCond9) R6 load(1, XDATA, add(CFA_XSP16, literal(-16)))
          CFI (cfiCond9) VB load(1, XDATA, add(CFA_XSP16, literal(-15)))
          CFI (cfiCond9) V0 load(1, XDATA, add(CFA_XSP16, literal(-14)))
          CFI (cfiCond9) V1 load(1, XDATA, add(CFA_XSP16, literal(-13)))
          CFI (cfiCond9) V2 load(1, XDATA, add(CFA_XSP16, literal(-12)))
          CFI (cfiCond9) V3 load(1, XDATA, add(CFA_XSP16, literal(-11)))
          CFI (cfiCond9) V4 load(1, XDATA, add(CFA_XSP16, literal(-10)))
          CFI (cfiCond9) V5 load(1, XDATA, add(CFA_XSP16, literal(-9)))
          CFI (cfiCond9) V6 load(1, XDATA, add(CFA_XSP16, literal(-8)))
          CFI (cfiCond9) V7 load(1, XDATA, add(CFA_XSP16, literal(-7)))
          CFI (cfiCond9) R7 load(1, XDATA, add(CFA_XSP16, literal(-6)))
          CFI (cfiCond9) ?RET_LOW load(1, XDATA, add(CFA_XSP16, literal(-5)))
          CFI (cfiCond9) ?RET_HIGH load(1, XDATA, add(CFA_XSP16, literal(-4)))
          CFI (cfiCond9) ?BRET_EXT load(1, XDATA, add(CFA_XSP16, literal(-3)))
          CFI (cfiCond9) DPL0 load(1, XDATA, add(CFA_XSP16, literal(-2)))
          CFI (cfiCond9) DPH0 load(1, XDATA, add(CFA_XSP16, literal(-1)))
          CFI (cfiCond9) CFA_SP SP+-2
          CFI (cfiCond9) CFA_XSP16 add(XSP16, 16)
          CFI Block cfiPicker10 Using cfiCommon1
          CFI (cfiPicker10) NoFunction
          CFI (cfiPicker10) Picker
        CLR       C
        MOV       A,?V0
        SUBB      A,#0x1
        MOV       A,?V1
        LCALL     ?Subroutine10 & 0xFFFF
??CrossCallReturnLabel_21:
        RET
          CFI EndBlock cfiCond7
          CFI EndBlock cfiCond8
          CFI EndBlock cfiCond9
          CFI EndBlock cfiPicker10

        RSEG BANKED_CODE:HUGECODE:NOROOT(0)
?Subroutine10:
          CFI Block cfiCond11 Using cfiCommon0
          CFI Function prints
          CFI Conditional ??CrossCallReturnLabel_21, ??CrossCallReturnLabel_4
          CFI R6 load(1, XDATA, add(CFA_XSP16, literal(-16)))
          CFI VB load(1, XDATA, add(CFA_XSP16, literal(-15)))
          CFI V0 load(1, XDATA, add(CFA_XSP16, literal(-14)))
          CFI V1 load(1, XDATA, add(CFA_XSP16, literal(-13)))
          CFI V2 load(1, XDATA, add(CFA_XSP16, literal(-12)))
          CFI V3 load(1, XDATA, add(CFA_XSP16, literal(-11)))
          CFI V4 load(1, XDATA, add(CFA_XSP16, literal(-10)))
          CFI V5 load(1, XDATA, add(CFA_XSP16, literal(-9)))
          CFI V6 load(1, XDATA, add(CFA_XSP16, literal(-8)))
          CFI V7 load(1, XDATA, add(CFA_XSP16, literal(-7)))
          CFI R7 load(1, XDATA, add(CFA_XSP16, literal(-6)))
          CFI ?RET_LOW load(1, XDATA, add(CFA_XSP16, literal(-5)))
          CFI ?RET_HIGH load(1, XDATA, add(CFA_XSP16, literal(-4)))
          CFI ?BRET_EXT load(1, XDATA, add(CFA_XSP16, literal(-3)))
          CFI DPL0 load(1, XDATA, add(CFA_XSP16, literal(-2)))
          CFI DPH0 load(1, XDATA, add(CFA_XSP16, literal(-1)))
          CFI CFA_SP SP+-4
          CFI CFA_XSP16 add(XSP16, 16)
          CFI Block cfiCond12 Using cfiCommon0
          CFI (cfiCond12) Function prints
          CFI (cfiCond12) Conditional ??CrossCallReturnLabel_21, ??CrossCallReturnLabel_5
          CFI (cfiCond12) R6 load(1, XDATA, add(CFA_XSP16, literal(-16)))
          CFI (cfiCond12) VB load(1, XDATA, add(CFA_XSP16, literal(-15)))
          CFI (cfiCond12) V0 load(1, XDATA, add(CFA_XSP16, literal(-14)))
          CFI (cfiCond12) V1 load(1, XDATA, add(CFA_XSP16, literal(-13)))
          CFI (cfiCond12) V2 load(1, XDATA, add(CFA_XSP16, literal(-12)))
          CFI (cfiCond12) V3 load(1, XDATA, add(CFA_XSP16, literal(-11)))
          CFI (cfiCond12) V4 load(1, XDATA, add(CFA_XSP16, literal(-10)))
          CFI (cfiCond12) V5 load(1, XDATA, add(CFA_XSP16, literal(-9)))
          CFI (cfiCond12) V6 load(1, XDATA, add(CFA_XSP16, literal(-8)))
          CFI (cfiCond12) V7 load(1, XDATA, add(CFA_XSP16, literal(-7)))
          CFI (cfiCond12) R7 load(1, XDATA, add(CFA_XSP16, literal(-6)))
          CFI (cfiCond12) ?RET_LOW load(1, XDATA, add(CFA_XSP16, literal(-5)))
          CFI (cfiCond12) ?RET_HIGH load(1, XDATA, add(CFA_XSP16, literal(-4)))
          CFI (cfiCond12) ?BRET_EXT load(1, XDATA, add(CFA_XSP16, literal(-3)))
          CFI (cfiCond12) DPL0 load(1, XDATA, add(CFA_XSP16, literal(-2)))
          CFI (cfiCond12) DPH0 load(1, XDATA, add(CFA_XSP16, literal(-1)))
          CFI (cfiCond12) CFA_SP SP+-4
          CFI (cfiCond12) CFA_XSP16 add(XSP16, 16)
          CFI Block cfiCond13 Using cfiCommon0
          CFI (cfiCond13) Function prints
          CFI (cfiCond13) Conditional ??CrossCallReturnLabel_21, ??CrossCallReturnLabel_6
          CFI (cfiCond13) R6 load(1, XDATA, add(CFA_XSP16, literal(-16)))
          CFI (cfiCond13) VB load(1, XDATA, add(CFA_XSP16, literal(-15)))
          CFI (cfiCond13) V0 load(1, XDATA, add(CFA_XSP16, literal(-14)))
          CFI (cfiCond13) V1 load(1, XDATA, add(CFA_XSP16, literal(-13)))
          CFI (cfiCond13) V2 load(1, XDATA, add(CFA_XSP16, literal(-12)))
          CFI (cfiCond13) V3 load(1, XDATA, add(CFA_XSP16, literal(-11)))
          CFI (cfiCond13) V4 load(1, XDATA, add(CFA_XSP16, literal(-10)))
          CFI (cfiCond13) V5 load(1, XDATA, add(CFA_XSP16, literal(-9)))
          CFI (cfiCond13) V6 load(1, XDATA, add(CFA_XSP16, literal(-8)))
          CFI (cfiCond13) V7 load(1, XDATA, add(CFA_XSP16, literal(-7)))
          CFI (cfiCond13) R7 load(1, XDATA, add(CFA_XSP16, literal(-6)))
          CFI (cfiCond13) ?RET_LOW load(1, XDATA, add(CFA_XSP16, literal(-5)))
          CFI (cfiCond13) ?RET_HIGH load(1, XDATA, add(CFA_XSP16, literal(-4)))
          CFI (cfiCond13) ?BRET_EXT load(1, XDATA, add(CFA_XSP16, literal(-3)))
          CFI (cfiCond13) DPL0 load(1, XDATA, add(CFA_XSP16, literal(-2)))
          CFI (cfiCond13) DPH0 load(1, XDATA, add(CFA_XSP16, literal(-1)))
          CFI (cfiCond13) CFA_SP SP+-4
          CFI (cfiCond13) CFA_XSP16 add(XSP16, 16)
          CFI Block cfiCond14 Using cfiCommon0
          CFI (cfiCond14) Function printi
          CFI (cfiCond14) Conditional ??CrossCallReturnLabel_19
          CFI (cfiCond14) R6 load(1, XDATA, add(CFA_XSP16, literal(-22)))
          CFI (cfiCond14) VB load(1, XDATA, add(CFA_XSP16, literal(-21)))
          CFI (cfiCond14) V0 load(1, XDATA, add(CFA_XSP16, literal(-20)))
          CFI (cfiCond14) V1 load(1, XDATA, add(CFA_XSP16, literal(-19)))
          CFI (cfiCond14) V2 load(1, XDATA, add(CFA_XSP16, literal(-18)))
          CFI (cfiCond14) V3 load(1, XDATA, add(CFA_XSP16, literal(-17)))
          CFI (cfiCond14) V4 load(1, XDATA, add(CFA_XSP16, literal(-16)))
          CFI (cfiCond14) V5 load(1, XDATA, add(CFA_XSP16, literal(-15)))
          CFI (cfiCond14) V6 load(1, XDATA, add(CFA_XSP16, literal(-14)))
          CFI (cfiCond14) V7 load(1, XDATA, add(CFA_XSP16, literal(-13)))
          CFI (cfiCond14) V8 load(1, XDATA, add(CFA_XSP16, literal(-12)))
          CFI (cfiCond14) V9 load(1, XDATA, add(CFA_XSP16, literal(-11)))
          CFI (cfiCond14) V10 load(1, XDATA, add(CFA_XSP16, literal(-10)))
          CFI (cfiCond14) V11 load(1, XDATA, add(CFA_XSP16, literal(-9)))
          CFI (cfiCond14) V12 load(1, XDATA, add(CFA_XSP16, literal(-8)))
          CFI (cfiCond14) V13 load(1, XDATA, add(CFA_XSP16, literal(-7)))
          CFI (cfiCond14) R7 load(1, XDATA, add(CFA_XSP16, literal(-6)))
          CFI (cfiCond14) ?RET_LOW load(1, XDATA, add(CFA_XSP16, literal(-5)))
          CFI (cfiCond14) ?RET_HIGH load(1, XDATA, add(CFA_XSP16, literal(-4)))
          CFI (cfiCond14) ?BRET_EXT load(1, XDATA, add(CFA_XSP16, literal(-3)))
          CFI (cfiCond14) DPL0 load(1, XDATA, add(CFA_XSP16, literal(-2)))
          CFI (cfiCond14) DPH0 load(1, XDATA, add(CFA_XSP16, literal(-1)))
          CFI (cfiCond14) CFA_SP SP+-2
          CFI (cfiCond14) CFA_XSP16 add(XSP16, 28)
          CFI Block cfiCond15 Using cfiCommon0
          CFI (cfiCond15) Function printi
          CFI (cfiCond15) Conditional ??CrossCallReturnLabel_20
          CFI (cfiCond15) R6 load(1, XDATA, add(CFA_XSP16, literal(-22)))
          CFI (cfiCond15) VB load(1, XDATA, add(CFA_XSP16, literal(-21)))
          CFI (cfiCond15) V0 load(1, XDATA, add(CFA_XSP16, literal(-20)))
          CFI (cfiCond15) V1 load(1, XDATA, add(CFA_XSP16, literal(-19)))
          CFI (cfiCond15) V2 load(1, XDATA, add(CFA_XSP16, literal(-18)))
          CFI (cfiCond15) V3 load(1, XDATA, add(CFA_XSP16, literal(-17)))
          CFI (cfiCond15) V4 load(1, XDATA, add(CFA_XSP16, literal(-16)))
          CFI (cfiCond15) V5 load(1, XDATA, add(CFA_XSP16, literal(-15)))
          CFI (cfiCond15) V6 load(1, XDATA, add(CFA_XSP16, literal(-14)))
          CFI (cfiCond15) V7 load(1, XDATA, add(CFA_XSP16, literal(-13)))
          CFI (cfiCond15) V8 load(1, XDATA, add(CFA_XSP16, literal(-12)))
          CFI (cfiCond15) V9 load(1, XDATA, add(CFA_XSP16, literal(-11)))
          CFI (cfiCond15) V10 load(1, XDATA, add(CFA_XSP16, literal(-10)))
          CFI (cfiCond15) V11 load(1, XDATA, add(CFA_XSP16, literal(-9)))
          CFI (cfiCond15) V12 load(1, XDATA, add(CFA_XSP16, literal(-8)))
          CFI (cfiCond15) V13 load(1, XDATA, add(CFA_XSP16, literal(-7)))
          CFI (cfiCond15) R7 load(1, XDATA, add(CFA_XSP16, literal(-6)))
          CFI (cfiCond15) ?RET_LOW load(1, XDATA, add(CFA_XSP16, literal(-5)))
          CFI (cfiCond15) ?RET_HIGH load(1, XDATA, add(CFA_XSP16, literal(-4)))
          CFI (cfiCond15) ?BRET_EXT load(1, XDATA, add(CFA_XSP16, literal(-3)))
          CFI (cfiCond15) DPL0 load(1, XDATA, add(CFA_XSP16, literal(-2)))
          CFI (cfiCond15) DPH0 load(1, XDATA, add(CFA_XSP16, literal(-1)))
          CFI (cfiCond15) CFA_SP SP+-2
          CFI (cfiCond15) CFA_XSP16 add(XSP16, 28)
          CFI Block cfiPicker16 Using cfiCommon1
          CFI (cfiPicker16) NoFunction
          CFI (cfiPicker16) Picker
        SUBB      A,#0x0
        MOV       C,0xD0 /* PSW */.2
        XRL       A,PSW
        RLC       A
        RET
          CFI EndBlock cfiCond11
          CFI EndBlock cfiCond12
          CFI EndBlock cfiCond13
          CFI EndBlock cfiCond14
          CFI EndBlock cfiCond15
          CFI EndBlock cfiPicker16
//   82 
//   83 /* the following should be enough for 16 bit int */
//   84 #define PRINT_BUF_LEN 6
//   85 

        RSEG BANKED_CODE:HUGECODE:NOROOT(0)
//   86 static int printi(char **out, int i, int b, int sg, int width, int pad, int letbase)
printi:
          CFI Block cfiBlock17 Using cfiCommon0
          CFI Function printi
        CODE
//   87 {
        FUNCALL printi, prints
        LOCFRAME ISTACK, 0, STACK
        LOCFRAME PSTACK, 0, STACK
        LOCFRAME XSTACK, 32, STACK
        LOCFRAME IOVERLAY, 0, STATIC
        LOCFRAME DOVERLAY, 0, STATIC
        ARGFRAME ISTACK, 0, STACK
        ARGFRAME PSTACK, 0, STACK
        ARGFRAME XSTACK, 32, STACK
        ARGFRAME IOVERLAY, 0, STATIC
        ARGFRAME DOVERLAY, 0, STATIC
        FUNCALL printi, printchar
        LOCFRAME ISTACK, 0, STACK
        LOCFRAME PSTACK, 0, STACK
        LOCFRAME XSTACK, 28, STACK
        LOCFRAME IOVERLAY, 0, STATIC
        LOCFRAME DOVERLAY, 0, STATIC
        ARGFRAME ISTACK, 0, STACK
        ARGFRAME PSTACK, 0, STACK
        ARGFRAME XSTACK, 28, STACK
        ARGFRAME IOVERLAY, 0, STATIC
        ARGFRAME DOVERLAY, 0, STATIC
        FUNCALL printi, prints
        LOCFRAME ISTACK, 0, STACK
        LOCFRAME PSTACK, 0, STACK
        LOCFRAME XSTACK, 32, STACK
        LOCFRAME IOVERLAY, 0, STATIC
        LOCFRAME DOVERLAY, 0, STATIC
        ARGFRAME ISTACK, 0, STACK
        ARGFRAME PSTACK, 0, STACK
        ARGFRAME XSTACK, 32, STACK
        ARGFRAME IOVERLAY, 0, STATIC
        ARGFRAME DOVERLAY, 0, STATIC
        REQUIRE ?V0
        REQUIRE ?V1
        REQUIRE ?V2
        REQUIRE ?V3
        REQUIRE ?V4
        REQUIRE ?V5
        REQUIRE ?V6
        REQUIRE ?V7
        REQUIRE ?V8
        REQUIRE ?V9
        REQUIRE ?V10
        REQUIRE ?V11
        REQUIRE ?V12
        REQUIRE ?V13
        MOV       A,#-0x16
        LCALL     ?BANKED_ENTER_XDATA
          CFI DPH0 load(1, XDATA, add(CFA_XSP16, literal(-1)))
          CFI DPL0 load(1, XDATA, add(CFA_XSP16, literal(-2)))
          CFI ?BRET_EXT load(1, XDATA, add(CFA_XSP16, literal(-3)))
          CFI ?RET_HIGH load(1, XDATA, add(CFA_XSP16, literal(-4)))
          CFI ?RET_LOW load(1, XDATA, add(CFA_XSP16, literal(-5)))
          CFI R7 load(1, XDATA, add(CFA_XSP16, literal(-6)))
          CFI V13 load(1, XDATA, add(CFA_XSP16, literal(-7)))
          CFI V12 load(1, XDATA, add(CFA_XSP16, literal(-8)))
          CFI V11 load(1, XDATA, add(CFA_XSP16, literal(-9)))
          CFI V10 load(1, XDATA, add(CFA_XSP16, literal(-10)))
          CFI V9 load(1, XDATA, add(CFA_XSP16, literal(-11)))
          CFI V8 load(1, XDATA, add(CFA_XSP16, literal(-12)))
          CFI V7 load(1, XDATA, add(CFA_XSP16, literal(-13)))
          CFI V6 load(1, XDATA, add(CFA_XSP16, literal(-14)))
          CFI V5 load(1, XDATA, add(CFA_XSP16, literal(-15)))
          CFI V4 load(1, XDATA, add(CFA_XSP16, literal(-16)))
          CFI V3 load(1, XDATA, add(CFA_XSP16, literal(-17)))
          CFI V2 load(1, XDATA, add(CFA_XSP16, literal(-18)))
          CFI V1 load(1, XDATA, add(CFA_XSP16, literal(-19)))
          CFI V0 load(1, XDATA, add(CFA_XSP16, literal(-20)))
          CFI VB load(1, XDATA, add(CFA_XSP16, literal(-21)))
          CFI R6 load(1, XDATA, add(CFA_XSP16, literal(-22)))
          CFI CFA_SP SP+0
          CFI CFA_XSP16 add(XSP16, 22)
        ; Saved register size: 22
        ; Auto size: 6
        MOV       A,#-0x6
        LCALL     ?ALLOC_XSTACK8
          CFI CFA_XSP16 add(XSP16, 28)
        MOV       ?V6,R2
        MOV       ?V7,R3
        MOV       A,R4
        MOV       R0,A
        MOV       A,R5
        MOV       R1,A
//   88 	char print_buf[PRINT_BUF_LEN];
//   89 	register char *s;
//   90 	register int t, neg = 0, pc = 0;
        CLR       ?VB.0
        MOV       ?V4,#0x0
//   91 	register unsigned int u = i;
        MOV       A,#0x20
        LCALL     ?XSTACK_DISP0_8
        MOVX      A,@DPTR
        MOV       ?V0,A
        INC       DPTR
        MOVX      A,@DPTR
        MOV       ?V1,A
        MOV       A,#0x22
        LCALL     ?XSTACK_DISP0_8
        MOVX      A,@DPTR
        MOV       R6,A
        INC       DPTR
        MOVX      A,@DPTR
        MOV       R7,A
//   92 
//   93 	if (i == 0) {
        MOV       A,R4
        ORL       A,R1
        JNZ       ??printi_0
//   94 		print_buf[0] = '0';
        MOV       DPL,?XSP + 0
        MOV       DPH,?XSP + 1
        MOV       A,#0x30
        MOVX      @DPTR,A
//   95 		print_buf[1] = '\0';
        MOV       A,#0x1
        LCALL     ?XSTACK_DISP0_8
        CLR       A
        MOVX      @DPTR,A
//   96 		return prints (out, print_buf, width, pad);
        ; Setup parameters for call to function prints
        MOV       ?V2,R6
        MOV       ?V3,R7
        MOV       R0,#?V2
        LCALL     ?PUSH_XSTACK_I_TWO
          CFI CFA_XSP16 add(XSP16, 30)
        MOV       R0,#?V0
        LCALL     ?PUSH_XSTACK_I_TWO
          CFI CFA_XSP16 add(XSP16, 32)
        MOV       A,#0x4
        LCALL     ?XSTACK_DISP102_8
        LCALL     `??prints::?relay`; Banked call to: prints
        MOV       A,#0x4
        LCALL     ?DEALLOC_XSTACK8
          CFI CFA_XSP16 add(XSP16, 28)
        LJMP      ??printi_1 & 0xFFFF
//   97 	}
??printi_0:
        MOV       A,#0x1c
        LCALL     ?XSTACK_DISP0_8
        MOVX      A,@DPTR
        MOV       ?V8,A
        INC       DPTR
        MOVX      A,@DPTR
        MOV       ?V9,A
//   98 
//   99 	if (sg && b == 10 && i < 0) {
        MOV       A,#0x1e
        LCALL     ?XSTACK_DISP0_8
        MOVX      A,@DPTR
        MOV       R2,A
        INC       DPTR
        MOVX      A,@DPTR
        MOV       R3,A
        MOV       A,R2
        ORL       A,R3
        JZ        ??printi_2
        MOV       A,#0xa
        XRL       A,?V8
        ORL       A,?V9
        JNZ       ??printi_2
        CLR       C
        MOV       A,R5
        LCALL     ?Subroutine10 & 0xFFFF
??CrossCallReturnLabel_19:
        JNC       ??printi_2
//  100 		neg = 1;
        SETB      ?VB.0
//  101 		u = -i;
        CLR       C
        CLR       A
        SUBB      A,R0
        MOV       R4,A
        CLR       A
        SUBB      A,R1
        MOV       R5,A
//  102 	}
//  103 
//  104 	s = print_buf + PRINT_BUF_LEN-1;
??printi_2:
        MOV       A,#0x5
        LCALL     ?XSTACK_DISP0_8
        MOV       ?V2,DPL
        MOV       ?V3,DPH
//  105 	*s = '\0';
        CLR       A
        MOVX      @DPTR,A
        MOV       A,#0x24
        LCALL     ?XSTACK_DISP0_8
        MOVX      A,@DPTR
        MOV       ?V12,A
        SJMP      ??printi_3
//  106 
//  107 	while (u) {
//  108 		t = u % b;
??printi_4:
        MOV       A,R4
        MOV       R0,A
        MOV       A,R5
        MOV       R1,A
        MOV       R2,?V8
        MOV       R3,?V9
        LCALL     ?US_DIV_MOD
        MOV       ?V2,R2
        MOV       R0,?V2
//  109 		if( t >= 10 )
        MOV       A,R2
        SUBB      A,#0xa
        MOV       A,R3
        LCALL     ?Subroutine10 & 0xFFFF
??CrossCallReturnLabel_20:
        JC        ??printi_5
//  110 			t += letbase - '0' - 10;
        MOV       A,?V12
        ADD       A,#-0x3a
        MOV       R2,A
        MOV       A,R0
        ADD       A,R2
        MOV       R0,A
//  111 		*--s = t + '0';
??printi_5:
        MOV       ?V2,DPL
        MOV       ?V3,DPH
        MOV       A,R0
        ADD       A,#0x30
        MOVX      @DPTR,A
//  112 		u /= b;
        MOV       A,R4
        MOV       R0,A
        MOV       A,R5
        MOV       R1,A
        MOV       R2,?V8
        MOV       R3,?V9
        LCALL     ?US_DIV_MOD
        MOV       ?V10,R0
        MOV       ?V11,R1
        MOV       R4,?V10
        MOV       R5,?V11
//  113 	}
??printi_3:
        MOV       A,?V2
        ADD       A,#-0x1
        MOV       DPL,A
        MOV       A,?V3
        ADDC      A,#-0x1
        MOV       DPH,A
        MOV       A,R4
        ORL       A,R5
        JNZ       ??printi_4
//  114 
//  115 	if (neg) {
        MOV       C,?VB.0
        JNC       ??printi_6
//  116 		if( width && (pad & PAD_ZERO) ) {
        MOV       A,?V0
        ORL       A,?V1
        JZ        ??printi_7
        MOV       A,R6
        ANL       A,#0x2
        JZ        ??printi_7
//  117 			printchar (out, '-');
        ; Setup parameters for call to function printchar
        MOV       R4,#0x2d
        MOV       R5,#0x0
        MOV       R2,?V6
        MOV       R3,?V7
        LCALL     `??printchar::?relay`; Banked call to: printchar
//  118 			++pc;
        MOV       ?V4,#0x1
//  119 			--width;
        LCALL     ?Subroutine8 & 0xFFFF
//  120 		}
??CrossCallReturnLabel_16:
        SJMP      ??printi_6
//  121 		else {
//  122 			*--s = '-';
??printi_7:
        MOV       ?V2,DPL
        MOV       ?V3,DPH
        MOV       A,#0x2d
        MOVX      @DPTR,A
//  123 		}
//  124 	}
//  125 
//  126 	return pc + prints (out, s, width, pad);
??printi_6:
        ; Setup parameters for call to function prints
        MOV       ?V8,R6
        MOV       ?V9,R7
        MOV       R0,#?V8
        LCALL     ?PUSH_XSTACK_I_TWO
          CFI CFA_XSP16 add(XSP16, 30)
        MOV       R0,#?V0
        LCALL     ?PUSH_XSTACK_I_TWO
          CFI CFA_XSP16 add(XSP16, 32)
        MOV       R4,?V2
        MOV       R5,?V3
        MOV       R2,?V6
        MOV       R3,?V7
        LCALL     `??prints::?relay`; Banked call to: prints
        MOV       A,#0x4
        LCALL     ?DEALLOC_XSTACK8
          CFI CFA_XSP16 add(XSP16, 28)
        MOV       ?V1,R3
        MOV       A,?V4
        ADD       A,R2
        MOV       R2,A
        CLR       A
        ADDC      A,?V1
        MOV       R3,A
??printi_1:
        MOV       A,#0x6
        LCALL     ?DEALLOC_XSTACK8
          CFI CFA_XSP16 add(XSP16, 22)
        MOV       R7,#0xe
        LJMP      ?BANKED_LEAVE_XDATA
//  127 }
          CFI EndBlock cfiBlock17

        RSEG BANKED_CODE:HUGECODE:NOROOT(0)
?Subroutine8:
          CFI Block cfiCond18 Using cfiCommon0
          CFI Function prints
          CFI Conditional ??CrossCallReturnLabel_14
          CFI R6 load(1, XDATA, add(CFA_XSP16, literal(-16)))
          CFI VB load(1, XDATA, add(CFA_XSP16, literal(-15)))
          CFI V0 load(1, XDATA, add(CFA_XSP16, literal(-14)))
          CFI V1 load(1, XDATA, add(CFA_XSP16, literal(-13)))
          CFI V2 load(1, XDATA, add(CFA_XSP16, literal(-12)))
          CFI V3 load(1, XDATA, add(CFA_XSP16, literal(-11)))
          CFI V4 load(1, XDATA, add(CFA_XSP16, literal(-10)))
          CFI V5 load(1, XDATA, add(CFA_XSP16, literal(-9)))
          CFI V6 load(1, XDATA, add(CFA_XSP16, literal(-8)))
          CFI V7 load(1, XDATA, add(CFA_XSP16, literal(-7)))
          CFI R7 load(1, XDATA, add(CFA_XSP16, literal(-6)))
          CFI ?RET_LOW load(1, XDATA, add(CFA_XSP16, literal(-5)))
          CFI ?RET_HIGH load(1, XDATA, add(CFA_XSP16, literal(-4)))
          CFI ?BRET_EXT load(1, XDATA, add(CFA_XSP16, literal(-3)))
          CFI DPL0 load(1, XDATA, add(CFA_XSP16, literal(-2)))
          CFI DPH0 load(1, XDATA, add(CFA_XSP16, literal(-1)))
          CFI CFA_SP SP+-2
          CFI CFA_XSP16 add(XSP16, 16)
          CFI Block cfiCond19 Using cfiCommon0
          CFI (cfiCond19) Function prints
          CFI (cfiCond19) Conditional ??CrossCallReturnLabel_15
          CFI (cfiCond19) R6 load(1, XDATA, add(CFA_XSP16, literal(-16)))
          CFI (cfiCond19) VB load(1, XDATA, add(CFA_XSP16, literal(-15)))
          CFI (cfiCond19) V0 load(1, XDATA, add(CFA_XSP16, literal(-14)))
          CFI (cfiCond19) V1 load(1, XDATA, add(CFA_XSP16, literal(-13)))
          CFI (cfiCond19) V2 load(1, XDATA, add(CFA_XSP16, literal(-12)))
          CFI (cfiCond19) V3 load(1, XDATA, add(CFA_XSP16, literal(-11)))
          CFI (cfiCond19) V4 load(1, XDATA, add(CFA_XSP16, literal(-10)))
          CFI (cfiCond19) V5 load(1, XDATA, add(CFA_XSP16, literal(-9)))
          CFI (cfiCond19) V6 load(1, XDATA, add(CFA_XSP16, literal(-8)))
          CFI (cfiCond19) V7 load(1, XDATA, add(CFA_XSP16, literal(-7)))
          CFI (cfiCond19) R7 load(1, XDATA, add(CFA_XSP16, literal(-6)))
          CFI (cfiCond19) ?RET_LOW load(1, XDATA, add(CFA_XSP16, literal(-5)))
          CFI (cfiCond19) ?RET_HIGH load(1, XDATA, add(CFA_XSP16, literal(-4)))
          CFI (cfiCond19) ?BRET_EXT load(1, XDATA, add(CFA_XSP16, literal(-3)))
          CFI (cfiCond19) DPL0 load(1, XDATA, add(CFA_XSP16, literal(-2)))
          CFI (cfiCond19) DPH0 load(1, XDATA, add(CFA_XSP16, literal(-1)))
          CFI (cfiCond19) CFA_SP SP+-2
          CFI (cfiCond19) CFA_XSP16 add(XSP16, 16)
          CFI Block cfiCond20 Using cfiCommon0
          CFI (cfiCond20) Function printi
          CFI (cfiCond20) Conditional ??CrossCallReturnLabel_16
          CFI (cfiCond20) R6 load(1, XDATA, add(CFA_XSP16, literal(-22)))
          CFI (cfiCond20) VB load(1, XDATA, add(CFA_XSP16, literal(-21)))
          CFI (cfiCond20) V0 load(1, XDATA, add(CFA_XSP16, literal(-20)))
          CFI (cfiCond20) V1 load(1, XDATA, add(CFA_XSP16, literal(-19)))
          CFI (cfiCond20) V2 load(1, XDATA, add(CFA_XSP16, literal(-18)))
          CFI (cfiCond20) V3 load(1, XDATA, add(CFA_XSP16, literal(-17)))
          CFI (cfiCond20) V4 load(1, XDATA, add(CFA_XSP16, literal(-16)))
          CFI (cfiCond20) V5 load(1, XDATA, add(CFA_XSP16, literal(-15)))
          CFI (cfiCond20) V6 load(1, XDATA, add(CFA_XSP16, literal(-14)))
          CFI (cfiCond20) V7 load(1, XDATA, add(CFA_XSP16, literal(-13)))
          CFI (cfiCond20) V8 load(1, XDATA, add(CFA_XSP16, literal(-12)))
          CFI (cfiCond20) V9 load(1, XDATA, add(CFA_XSP16, literal(-11)))
          CFI (cfiCond20) V10 load(1, XDATA, add(CFA_XSP16, literal(-10)))
          CFI (cfiCond20) V11 load(1, XDATA, add(CFA_XSP16, literal(-9)))
          CFI (cfiCond20) V12 load(1, XDATA, add(CFA_XSP16, literal(-8)))
          CFI (cfiCond20) V13 load(1, XDATA, add(CFA_XSP16, literal(-7)))
          CFI (cfiCond20) R7 load(1, XDATA, add(CFA_XSP16, literal(-6)))
          CFI (cfiCond20) ?RET_LOW load(1, XDATA, add(CFA_XSP16, literal(-5)))
          CFI (cfiCond20) ?RET_HIGH load(1, XDATA, add(CFA_XSP16, literal(-4)))
          CFI (cfiCond20) ?BRET_EXT load(1, XDATA, add(CFA_XSP16, literal(-3)))
          CFI (cfiCond20) DPL0 load(1, XDATA, add(CFA_XSP16, literal(-2)))
          CFI (cfiCond20) DPH0 load(1, XDATA, add(CFA_XSP16, literal(-1)))
          CFI (cfiCond20) CFA_SP SP+-2
          CFI (cfiCond20) CFA_XSP16 add(XSP16, 28)
          CFI Block cfiPicker21 Using cfiCommon1
          CFI (cfiPicker21) NoFunction
          CFI (cfiPicker21) Picker
        MOV       A,?V0
        ADD       A,#-0x1
        MOV       ?V0,A
        MOV       A,?V1
        ADDC      A,#-0x1
        MOV       ?V1,A
        RET
          CFI EndBlock cfiCond18
          CFI EndBlock cfiCond19
          CFI EndBlock cfiCond20
          CFI EndBlock cfiPicker21
//  128 

        RSEG BANKED_CODE:HUGECODE:NOROOT(0)
//  129 static int print(char **out, const char *format, va_list args )
print:
          CFI Block cfiBlock22 Using cfiCommon0
          CFI Function print
        CODE
//  130 {
        FUNCALL print, printchar
        LOCFRAME ISTACK, 0, STACK
        LOCFRAME PSTACK, 0, STACK
        LOCFRAME XSTACK, 20, STACK
        LOCFRAME IOVERLAY, 0, STATIC
        LOCFRAME DOVERLAY, 0, STATIC
        ARGFRAME ISTACK, 0, STACK
        ARGFRAME PSTACK, 0, STACK
        ARGFRAME XSTACK, 20, STACK
        ARGFRAME IOVERLAY, 0, STATIC
        ARGFRAME DOVERLAY, 0, STATIC
        FUNCALL print, prints
        LOCFRAME ISTACK, 0, STACK
        LOCFRAME PSTACK, 0, STACK
        LOCFRAME XSTACK, 24, STACK
        LOCFRAME IOVERLAY, 0, STATIC
        LOCFRAME DOVERLAY, 0, STATIC
        ARGFRAME ISTACK, 0, STACK
        ARGFRAME PSTACK, 0, STACK
        ARGFRAME XSTACK, 24, STACK
        ARGFRAME IOVERLAY, 0, STATIC
        ARGFRAME DOVERLAY, 0, STATIC
        FUNCALL print, printi
        LOCFRAME ISTACK, 0, STACK
        LOCFRAME PSTACK, 0, STACK
        LOCFRAME XSTACK, 30, STACK
        LOCFRAME IOVERLAY, 0, STATIC
        LOCFRAME DOVERLAY, 0, STATIC
        ARGFRAME ISTACK, 0, STACK
        ARGFRAME PSTACK, 0, STACK
        ARGFRAME XSTACK, 30, STACK
        ARGFRAME IOVERLAY, 0, STATIC
        ARGFRAME DOVERLAY, 0, STATIC
        FUNCALL print, printi
        LOCFRAME ISTACK, 0, STACK
        LOCFRAME PSTACK, 0, STACK
        LOCFRAME XSTACK, 30, STACK
        LOCFRAME IOVERLAY, 0, STATIC
        LOCFRAME DOVERLAY, 0, STATIC
        ARGFRAME ISTACK, 0, STACK
        ARGFRAME PSTACK, 0, STACK
        ARGFRAME XSTACK, 30, STACK
        ARGFRAME IOVERLAY, 0, STATIC
        ARGFRAME DOVERLAY, 0, STATIC
        FUNCALL print, printi
        LOCFRAME ISTACK, 0, STACK
        LOCFRAME PSTACK, 0, STACK
        LOCFRAME XSTACK, 30, STACK
        LOCFRAME IOVERLAY, 0, STATIC
        LOCFRAME DOVERLAY, 0, STATIC
        ARGFRAME ISTACK, 0, STACK
        ARGFRAME PSTACK, 0, STACK
        ARGFRAME XSTACK, 30, STACK
        ARGFRAME IOVERLAY, 0, STATIC
        ARGFRAME DOVERLAY, 0, STATIC
        FUNCALL print, printi
        LOCFRAME ISTACK, 0, STACK
        LOCFRAME PSTACK, 0, STACK
        LOCFRAME XSTACK, 30, STACK
        LOCFRAME IOVERLAY, 0, STATIC
        LOCFRAME DOVERLAY, 0, STATIC
        ARGFRAME ISTACK, 0, STACK
        ARGFRAME PSTACK, 0, STACK
        ARGFRAME XSTACK, 30, STACK
        ARGFRAME IOVERLAY, 0, STATIC
        ARGFRAME DOVERLAY, 0, STATIC
        FUNCALL print, prints
        LOCFRAME ISTACK, 0, STACK
        LOCFRAME PSTACK, 0, STACK
        LOCFRAME XSTACK, 24, STACK
        LOCFRAME IOVERLAY, 0, STATIC
        LOCFRAME DOVERLAY, 0, STATIC
        ARGFRAME ISTACK, 0, STACK
        ARGFRAME PSTACK, 0, STACK
        ARGFRAME XSTACK, 24, STACK
        ARGFRAME IOVERLAY, 0, STATIC
        ARGFRAME DOVERLAY, 0, STATIC
        REQUIRE ?V0
        REQUIRE ?V1
        REQUIRE ?V2
        REQUIRE ?V3
        REQUIRE ?V4
        REQUIRE ?V5
        REQUIRE ?V6
        REQUIRE ?V7
        REQUIRE ?V8
        REQUIRE ?V9
        MOV       A,#-0x12
        LCALL     ?BANKED_ENTER_XDATA
          CFI DPH0 load(1, XDATA, add(CFA_XSP16, literal(-1)))
          CFI DPL0 load(1, XDATA, add(CFA_XSP16, literal(-2)))
          CFI ?BRET_EXT load(1, XDATA, add(CFA_XSP16, literal(-3)))
          CFI ?RET_HIGH load(1, XDATA, add(CFA_XSP16, literal(-4)))
          CFI ?RET_LOW load(1, XDATA, add(CFA_XSP16, literal(-5)))
          CFI R7 load(1, XDATA, add(CFA_XSP16, literal(-6)))
          CFI V9 load(1, XDATA, add(CFA_XSP16, literal(-7)))
          CFI V8 load(1, XDATA, add(CFA_XSP16, literal(-8)))
          CFI V7 load(1, XDATA, add(CFA_XSP16, literal(-9)))
          CFI V6 load(1, XDATA, add(CFA_XSP16, literal(-10)))
          CFI V5 load(1, XDATA, add(CFA_XSP16, literal(-11)))
          CFI V4 load(1, XDATA, add(CFA_XSP16, literal(-12)))
          CFI V3 load(1, XDATA, add(CFA_XSP16, literal(-13)))
          CFI V2 load(1, XDATA, add(CFA_XSP16, literal(-14)))
          CFI V1 load(1, XDATA, add(CFA_XSP16, literal(-15)))
          CFI V0 load(1, XDATA, add(CFA_XSP16, literal(-16)))
          CFI VB load(1, XDATA, add(CFA_XSP16, literal(-17)))
          CFI R6 load(1, XDATA, add(CFA_XSP16, literal(-18)))
          CFI CFA_SP SP+0
          CFI CFA_XSP16 add(XSP16, 18)
        ; Saved register size: 18
        ; Auto size: 2
        MOV       A,#-0x2
        LCALL     ?ALLOC_XSTACK8
          CFI CFA_XSP16 add(XSP16, 20)
        MOV       A,R2
        MOV       R6,A
        MOV       A,R3
        MOV       R7,A
        MOV       ?V0,R4
        MOV       ?V1,R5
//  131 	register int width, pad;
//  132 	register int pc = 0;
        MOV       ?V2,#0x0
        MOV       ?V3,#0x0
        MOV       A,#0x14
        LCALL     ?XSTACK_DISP0_8
        MOVX      A,@DPTR
        MOV       ?V4,A
        INC       DPTR
        MOVX      A,@DPTR
        MOV       ?V5,A
        SJMP      ??print_0
//  133 	char scr[2];
//  134 
//  135 	for (; *format != 0; ++format) {
//  136 		if (*format == '%') {
//  137 			++format;
//  138 			width = pad = 0;
//  139 			if (*format == '\0') break;
//  140 			if (*format == '%') goto out;
//  141 			if (*format == '-') {
//  142 				++format;
//  143 				pad = PAD_RIGHT;
//  144 			}
//  145 			while (*format == '0') {
//  146 				++format;
//  147 				pad |= PAD_ZERO;
//  148 			}
//  149 			for ( ; *format >= '0' && *format <= '9'; ++format) {
//  150 				width *= 10;
//  151 				width += *format - '0';
//  152 			}
//  153 			if( *format == 's' ) {
//  154 				register char *s = (char *)va_arg( args, int );
//  155 				pc += prints (out, s?s:"(null)", width, pad);
//  156 				continue;
//  157 			}
//  158 			if( *format == 'd' ) {
//  159 				pc += printi (out, va_arg( args, int ), 10, 1, width, pad, 'a');
//  160 				continue;
//  161 			}
//  162 			if( *format == 'x' ) {
//  163 				pc += printi (out, va_arg( args, int ), 16, 0, width, pad, 'a');
//  164 				continue;
//  165 			}
//  166 			if( *format == 'X' ) {
//  167 				pc += printi (out, va_arg( args, int ), 16, 0, width, pad, 'A');
//  168 				continue;
//  169 			}
//  170 			if( *format == 'u' ) {
//  171 				pc += printi (out, va_arg( args, int ), 10, 0, width, pad, 'a');
//  172 				continue;
//  173 			}
//  174 			if( *format == 'c' ) {
//  175 				/* char are converted to int then pushed on the stack */
//  176 				scr[0] = (char)va_arg( args, int );
//  177 				scr[1] = '\0';
//  178 				pc += prints (out, scr, width, pad);
//  179 				continue;
//  180 			}
//  181 		}
//  182 		else {
//  183 		out:
//  184 			printchar (out, *format);
??print_1:
        ; Setup parameters for call to function printchar
        MOV       DPL,?V0
        MOV       DPH,?V1
        MOVX      A,@DPTR
        MOV       R4,A
        MOV       R5,#0x0
        MOV       A,R6
        MOV       R2,A
        MOV       A,R7
        MOV       R3,A
        LCALL     `??printchar::?relay`; Banked call to: printchar
//  185 			++pc;
        INC       ?V2
        MOV       A,?V2
        JNZ       ??print_2
        INC       ?V3
//  186 		}
??print_2:
        MOV       DPL,?V0
        MOV       DPH,?V1
        INC       DPTR
        MOV       ?V0,DPL
        MOV       ?V1,DPH
??print_0:
        MOV       DPL,?V0
        MOV       DPH,?V1
        MOVX      A,@DPTR
        MOV       R0,A
        JNZ       $+5
        LJMP      ??print_3 & 0xFFFF
        MOV       A,#0x25
        XRL       A,R0
        JNZ       ??print_1
        INC       DPTR
        MOV       ?V0,DPL
        MOV       ?V1,DPH
        MOV       R4,#0x0
        MOV       R5,#0x0
        MOV       R2,#0x0
        MOV       R3,#0x0
        MOVX      A,@DPTR
        MOV       R0,A
        JNZ       $+5
        LJMP      ??print_3 & 0xFFFF
        MOV       A,#0x25
        XRL       A,R0
        JZ        ??print_1
        MOV       A,#0x2d
        XRL       A,R0
        JNZ       ??print_4
        INC       DPTR
        MOV       ?V0,DPL
        MOV       ?V1,DPH
        INC       R4
        SJMP      ??print_4
??print_5:
        INC       DPTR
        MOV       ?V0,DPL
        MOV       ?V1,DPH
        MOV       A,#0x2
        ORL       A,R4
        MOV       R4,A
??print_4:
        MOV       DPL,?V0
        MOV       DPH,?V1
        MOVX      A,@DPTR
        XRL       A,#0x30
        JZ        ??print_5
??print_6:
        MOV       DPL,?V0
        MOV       DPH,?V1
        MOVX      A,@DPTR
        MOV       R0,A
        MOV       A,#-0x30
        ADD       A,R0
        CLR       C
        SUBB      A,#0xa
        JNC       ??print_7
        MOV       A,R2
        MOV       B,#0xa
        MUL       AB
        MOV       R2,A
        MOV       R1,B
        MOV       B,#0xa
        MOV       A,R3
        MUL       AB
        ADD       A,R1
        MOV       R3,A
        MOV       A,R2
        ADD       A,R0
        MOV       R0,A
        CLR       A
        ADDC      A,R3
        MOV       R1,A
        MOV       A,R0
        ADD       A,#-0x30
        MOV       R2,A
        MOV       A,R1
        ADDC      A,#-0x1
        MOV       R3,A
        INC       DPTR
        MOV       ?V0,DPL
        MOV       ?V1,DPH
        SJMP      ??print_6
??print_7:
        MOVX      A,@DPTR
        MOV       R0,A
        MOV       A,#0x73
        XRL       A,R0
        JNZ       ??print_8
        MOV       DPL,?V4
        MOV       DPH,?V5
        MOVX      A,@DPTR
        MOV       R0,A
        INC       DPTR
        MOVX      A,@DPTR
        MOV       R1,A
        MOV       DPL,R0
        MOV       DPH,A
        MOVX      A,@DPTR
        MOV       ?V6,A
        INC       DPTR
        MOVX      A,@DPTR
        MOV       ?V7,A
        MOV       A,R0
        ADD       A,#0x2
        JNC       ??print_9
        INC       R1
??print_9:
        MOV       DPL,?V4
        MOV       DPH,?V5
        MOVX      @DPTR,A
        INC       DPTR
        MOV       A,R1
        MOVX      @DPTR,A
        MOV       A,?V6
        ORL       A,?V7
        JNZ       ??print_10
        MOV       ?V6,#`?<Constant "(null)">` & 0xff
        MOV       ?V7,#(`?<Constant "(null)">` >> 8) & 0xff
??print_10:
        ; Setup parameters for call to function prints
        MOV       ?V8,R4
        MOV       ?V9,R5
        MOV       R0,#?V8
        LCALL     ?PUSH_XSTACK_I_TWO
          CFI CFA_XSP16 add(XSP16, 22)
        MOV       ?V8,R2
        MOV       ?V9,R3
        MOV       R0,#?V8
        LCALL     ?PUSH_XSTACK_I_TWO
          CFI CFA_XSP16 add(XSP16, 24)
        MOV       R4,?V6
        MOV       R5,?V7
??print_11:
        MOV       A,R6
        MOV       R2,A
        MOV       A,R7
        MOV       R3,A
        LCALL     `??prints::?relay`; Banked call to: prints
        MOV       A,#0x4
        LCALL     ?DEALLOC_XSTACK8
          CFI CFA_XSP16 add(XSP16, 20)
??print_12:
        MOV       ?V7,R3
        MOV       A,?V2
        ADD       A,R2
        MOV       ?V2,A
        MOV       A,?V3
        ADDC      A,?V7
        MOV       ?V3,A
        LJMP      ??print_2 & 0xFFFF
??print_8:
        MOV       A,#0x64
        XRL       A,R0
        JNZ       ??print_13
        LCALL     ?Subroutine2 & 0xFFFF
??CrossCallReturnLabel_0:
        LCALL     ?PUSH_XSTACK_I_TWO
          CFI CFA_XSP16 add(XSP16, 22)
        MOV       ?V8,R4
        MOV       R0,#?V8
        LCALL     ?PUSH_XSTACK_I_TWO
          CFI CFA_XSP16 add(XSP16, 24)
        MOV       ?V8,R2
        MOV       ?V9,R3
        MOV       R0,#?V8
        LCALL     ?PUSH_XSTACK_I_TWO
          CFI CFA_XSP16 add(XSP16, 26)
        MOV       ?V8,#0x1
        MOV       ?V9,R5
??print_14:
        MOV       R0,#?V8
        LCALL     ?PUSH_XSTACK_I_TWO
          CFI CFA_XSP16 add(XSP16, 28)
        MOV       ?V8,#0xa
??print_15:
        MOV       R0,#?V8
        LCALL     ?PUSH_XSTACK_I_TWO
          CFI CFA_XSP16 add(XSP16, 30)
        MOV       DPL,?V6
        MOV       DPH,?V7
        MOVX      A,@DPTR
        MOV       R4,A
        INC       DPTR
        MOVX      A,@DPTR
        MOV       R5,A
        MOV       A,R6
        MOV       R2,A
        MOV       A,R7
        MOV       R3,A
        LCALL     `??printi::?relay`; Banked call to: printi
        MOV       A,#0xa
        LCALL     ?DEALLOC_XSTACK8
          CFI CFA_XSP16 add(XSP16, 20)
        SJMP      ??print_12
??print_13:
        MOV       A,#0x78
        XRL       A,R0
        JNZ       ??print_16
        LCALL     ?Subroutine3 & 0xFFFF
??CrossCallReturnLabel_2:
        ; Setup parameters for call to function printi
        MOV       ?V8,#0x61
??print_17:
        MOV       ?V9,R5
        MOV       R0,#?V8
        LCALL     ?PUSH_XSTACK_I_TWO
          CFI CFA_XSP16 add(XSP16, 22)
        MOV       ?V8,R4
        MOV       R0,#?V8
        LCALL     ?PUSH_XSTACK_I_TWO
          CFI CFA_XSP16 add(XSP16, 24)
        MOV       ?V8,R2
        MOV       ?V9,R3
        MOV       R0,#?V8
        LCALL     ?PUSH_XSTACK_I_TWO
          CFI CFA_XSP16 add(XSP16, 26)
        CLR       A
        MOV       ?V8,A
        MOV       ?V9,A
        MOV       R0,#?V8
        LCALL     ?PUSH_XSTACK_I_TWO
          CFI CFA_XSP16 add(XSP16, 28)
        MOV       ?V8,#0x10
        SJMP      ??print_15
          CFI CFA_XSP16 add(XSP16, 20)
??print_16:
        MOV       A,#0x58
        XRL       A,R0
        JNZ       ??print_18
        LCALL     ?Subroutine3 & 0xFFFF
??CrossCallReturnLabel_3:
        ; Setup parameters for call to function printi
        MOV       ?V8,#0x41
        SJMP      ??print_17
??print_18:
        MOV       A,#0x75
        XRL       A,R0
        JNZ       ??print_19
        LCALL     ?Subroutine2 & 0xFFFF
??CrossCallReturnLabel_1:
        LCALL     ?PUSH_XSTACK_I_TWO
          CFI CFA_XSP16 add(XSP16, 22)
        MOV       ?V8,R4
        MOV       R0,#?V8
        LCALL     ?PUSH_XSTACK_I_TWO
          CFI CFA_XSP16 add(XSP16, 24)
        MOV       ?V8,R2
        MOV       ?V9,R3
        MOV       R0,#?V8
        LCALL     ?PUSH_XSTACK_I_TWO
          CFI CFA_XSP16 add(XSP16, 26)
        CLR       A
        MOV       ?V8,A
        MOV       ?V9,A
        LJMP      ??print_14 & 0xFFFF
          CFI CFA_XSP16 add(XSP16, 20)
??print_19:
        MOV       A,#0x63
        XRL       A,R0
        JZ        $+5
        LJMP      ??print_2 & 0xFFFF
        MOV       DPL,?V4
        MOV       DPH,?V5
        LCALL     ?Subroutine7 & 0xFFFF
??CrossCallReturnLabel_12:
        MOVX      A,@DPTR
        MOV       DPL,?XSP + 0
        MOV       DPH,?XSP + 1
        MOVX      @DPTR,A
        MOV       DPL,?V4
        MOV       DPH,?V5
        MOVX      A,@DPTR
        ADD       A,#0x2
        MOV       R0,A
        INC       DPTR
        MOVX      A,@DPTR
        ADDC      A,#0x0
        MOV       R1,A
        MOV       DPL,?V4
        MOV       DPH,?V5
        MOV       A,R0
        MOVX      @DPTR,A
        INC       DPTR
        MOV       A,R1
        MOVX      @DPTR,A
        MOV       A,#0x1
        LCALL     ?XSTACK_DISP0_8
        CLR       A
        MOVX      @DPTR,A
        ; Setup parameters for call to function prints
        MOV       ?V6,R4
        MOV       ?V7,R5
        MOV       R0,#?V6
        LCALL     ?PUSH_XSTACK_I_TWO
          CFI CFA_XSP16 add(XSP16, 22)
        MOV       ?V6,R2
        MOV       ?V7,R3
        MOV       R0,#?V6
        LCALL     ?PUSH_XSTACK_I_TWO
          CFI CFA_XSP16 add(XSP16, 24)
        MOV       A,#0x4
        LCALL     ?XSTACK_DISP102_8
        LJMP      ??print_11 & 0xFFFF
          CFI CFA_XSP16 add(XSP16, 20)
//  187 	}
//  188 	if (out) **out = '\0';
??print_3:
        MOV       A,R6
        ORL       A,R7
        JZ        ??print_20
        MOV       DPL,R6
        MOV       DPH,R7
        LCALL     ?Subroutine7 & 0xFFFF
??CrossCallReturnLabel_13:
        CLR       A
        MOVX      @DPTR,A
//  189 	va_end( args );
//  190 	return pc;
??print_20:
        MOV       R2,?V2
        MOV       R3,?V3
        MOV       A,#0x2
        LCALL     ?DEALLOC_XSTACK8
          CFI CFA_XSP16 add(XSP16, 18)
        MOV       R7,#0xa
        LJMP      ?BANKED_LEAVE_XDATA
//  191 }
          CFI EndBlock cfiBlock22

        RSEG BANKED_CODE:HUGECODE:NOROOT(0)
?Subroutine7:
          CFI Block cfiCond23 Using cfiCommon0
          CFI Function printchar
          CFI Conditional ??CrossCallReturnLabel_11
          CFI DPL0 Frame(CFA_SP, 4)
          CFI DPH0 Frame(CFA_SP, 5)
          CFI CFA_SP SP+-7
          CFI CFA_XSP16 add(XSP16, 1)
          CFI Block cfiCond24 Using cfiCommon0
          CFI (cfiCond24) Function print
          CFI (cfiCond24) Conditional ??CrossCallReturnLabel_12
          CFI (cfiCond24) R6 load(1, XDATA, add(CFA_XSP16, literal(-18)))
          CFI (cfiCond24) VB load(1, XDATA, add(CFA_XSP16, literal(-17)))
          CFI (cfiCond24) V0 load(1, XDATA, add(CFA_XSP16, literal(-16)))
          CFI (cfiCond24) V1 load(1, XDATA, add(CFA_XSP16, literal(-15)))
          CFI (cfiCond24) V2 load(1, XDATA, add(CFA_XSP16, literal(-14)))
          CFI (cfiCond24) V3 load(1, XDATA, add(CFA_XSP16, literal(-13)))
          CFI (cfiCond24) V4 load(1, XDATA, add(CFA_XSP16, literal(-12)))
          CFI (cfiCond24) V5 load(1, XDATA, add(CFA_XSP16, literal(-11)))
          CFI (cfiCond24) V6 load(1, XDATA, add(CFA_XSP16, literal(-10)))
          CFI (cfiCond24) V7 load(1, XDATA, add(CFA_XSP16, literal(-9)))
          CFI (cfiCond24) V8 load(1, XDATA, add(CFA_XSP16, literal(-8)))
          CFI (cfiCond24) V9 load(1, XDATA, add(CFA_XSP16, literal(-7)))
          CFI (cfiCond24) R7 load(1, XDATA, add(CFA_XSP16, literal(-6)))
          CFI (cfiCond24) ?RET_LOW load(1, XDATA, add(CFA_XSP16, literal(-5)))
          CFI (cfiCond24) ?RET_HIGH load(1, XDATA, add(CFA_XSP16, literal(-4)))
          CFI (cfiCond24) ?BRET_EXT load(1, XDATA, add(CFA_XSP16, literal(-3)))
          CFI (cfiCond24) DPL0 load(1, XDATA, add(CFA_XSP16, literal(-2)))
          CFI (cfiCond24) DPH0 load(1, XDATA, add(CFA_XSP16, literal(-1)))
          CFI (cfiCond24) CFA_SP SP+-2
          CFI (cfiCond24) CFA_XSP16 add(XSP16, 20)
          CFI Block cfiCond25 Using cfiCommon0
          CFI (cfiCond25) Function print
          CFI (cfiCond25) Conditional ??CrossCallReturnLabel_13
          CFI (cfiCond25) R6 load(1, XDATA, add(CFA_XSP16, literal(-18)))
          CFI (cfiCond25) VB load(1, XDATA, add(CFA_XSP16, literal(-17)))
          CFI (cfiCond25) V0 load(1, XDATA, add(CFA_XSP16, literal(-16)))
          CFI (cfiCond25) V1 load(1, XDATA, add(CFA_XSP16, literal(-15)))
          CFI (cfiCond25) V2 load(1, XDATA, add(CFA_XSP16, literal(-14)))
          CFI (cfiCond25) V3 load(1, XDATA, add(CFA_XSP16, literal(-13)))
          CFI (cfiCond25) V4 load(1, XDATA, add(CFA_XSP16, literal(-12)))
          CFI (cfiCond25) V5 load(1, XDATA, add(CFA_XSP16, literal(-11)))
          CFI (cfiCond25) V6 load(1, XDATA, add(CFA_XSP16, literal(-10)))
          CFI (cfiCond25) V7 load(1, XDATA, add(CFA_XSP16, literal(-9)))
          CFI (cfiCond25) V8 load(1, XDATA, add(CFA_XSP16, literal(-8)))
          CFI (cfiCond25) V9 load(1, XDATA, add(CFA_XSP16, literal(-7)))
          CFI (cfiCond25) R7 load(1, XDATA, add(CFA_XSP16, literal(-6)))
          CFI (cfiCond25) ?RET_LOW load(1, XDATA, add(CFA_XSP16, literal(-5)))
          CFI (cfiCond25) ?RET_HIGH load(1, XDATA, add(CFA_XSP16, literal(-4)))
          CFI (cfiCond25) ?BRET_EXT load(1, XDATA, add(CFA_XSP16, literal(-3)))
          CFI (cfiCond25) DPL0 load(1, XDATA, add(CFA_XSP16, literal(-2)))
          CFI (cfiCond25) DPH0 load(1, XDATA, add(CFA_XSP16, literal(-1)))
          CFI (cfiCond25) CFA_SP SP+-2
          CFI (cfiCond25) CFA_XSP16 add(XSP16, 20)
          CFI Block cfiPicker26 Using cfiCommon1
          CFI (cfiPicker26) NoFunction
          CFI (cfiPicker26) Picker
        MOVX      A,@DPTR
        MOV       R0,A
        INC       DPTR
        MOVX      A,@DPTR
        MOV       DPH,A
        MOV       DPL,R0
        RET
          CFI EndBlock cfiCond23
          CFI EndBlock cfiCond24
          CFI EndBlock cfiCond25
          CFI EndBlock cfiPicker26

        RSEG BANKED_CODE:HUGECODE:NOROOT(0)
?Subroutine3:
          CFI Block cfiCond27 Using cfiCommon0
          CFI Function print
          CFI Conditional ??CrossCallReturnLabel_2
          CFI R6 load(1, XDATA, add(CFA_XSP16, literal(-18)))
          CFI VB load(1, XDATA, add(CFA_XSP16, literal(-17)))
          CFI V0 load(1, XDATA, add(CFA_XSP16, literal(-16)))
          CFI V1 load(1, XDATA, add(CFA_XSP16, literal(-15)))
          CFI V2 load(1, XDATA, add(CFA_XSP16, literal(-14)))
          CFI V3 load(1, XDATA, add(CFA_XSP16, literal(-13)))
          CFI V4 load(1, XDATA, add(CFA_XSP16, literal(-12)))
          CFI V5 load(1, XDATA, add(CFA_XSP16, literal(-11)))
          CFI V6 load(1, XDATA, add(CFA_XSP16, literal(-10)))
          CFI V7 load(1, XDATA, add(CFA_XSP16, literal(-9)))
          CFI V8 load(1, XDATA, add(CFA_XSP16, literal(-8)))
          CFI V9 load(1, XDATA, add(CFA_XSP16, literal(-7)))
          CFI R7 load(1, XDATA, add(CFA_XSP16, literal(-6)))
          CFI ?RET_LOW load(1, XDATA, add(CFA_XSP16, literal(-5)))
          CFI ?RET_HIGH load(1, XDATA, add(CFA_XSP16, literal(-4)))
          CFI ?BRET_EXT load(1, XDATA, add(CFA_XSP16, literal(-3)))
          CFI DPL0 load(1, XDATA, add(CFA_XSP16, literal(-2)))
          CFI DPH0 load(1, XDATA, add(CFA_XSP16, literal(-1)))
          CFI CFA_SP SP+-2
          CFI CFA_XSP16 add(XSP16, 20)
          CFI Block cfiCond28 Using cfiCommon0
          CFI (cfiCond28) Function print
          CFI (cfiCond28) Conditional ??CrossCallReturnLabel_3
          CFI (cfiCond28) R6 load(1, XDATA, add(CFA_XSP16, literal(-18)))
          CFI (cfiCond28) VB load(1, XDATA, add(CFA_XSP16, literal(-17)))
          CFI (cfiCond28) V0 load(1, XDATA, add(CFA_XSP16, literal(-16)))
          CFI (cfiCond28) V1 load(1, XDATA, add(CFA_XSP16, literal(-15)))
          CFI (cfiCond28) V2 load(1, XDATA, add(CFA_XSP16, literal(-14)))
          CFI (cfiCond28) V3 load(1, XDATA, add(CFA_XSP16, literal(-13)))
          CFI (cfiCond28) V4 load(1, XDATA, add(CFA_XSP16, literal(-12)))
          CFI (cfiCond28) V5 load(1, XDATA, add(CFA_XSP16, literal(-11)))
          CFI (cfiCond28) V6 load(1, XDATA, add(CFA_XSP16, literal(-10)))
          CFI (cfiCond28) V7 load(1, XDATA, add(CFA_XSP16, literal(-9)))
          CFI (cfiCond28) V8 load(1, XDATA, add(CFA_XSP16, literal(-8)))
          CFI (cfiCond28) V9 load(1, XDATA, add(CFA_XSP16, literal(-7)))
          CFI (cfiCond28) R7 load(1, XDATA, add(CFA_XSP16, literal(-6)))
          CFI (cfiCond28) ?RET_LOW load(1, XDATA, add(CFA_XSP16, literal(-5)))
          CFI (cfiCond28) ?RET_HIGH load(1, XDATA, add(CFA_XSP16, literal(-4)))
          CFI (cfiCond28) ?BRET_EXT load(1, XDATA, add(CFA_XSP16, literal(-3)))
          CFI (cfiCond28) DPL0 load(1, XDATA, add(CFA_XSP16, literal(-2)))
          CFI (cfiCond28) DPH0 load(1, XDATA, add(CFA_XSP16, literal(-1)))
          CFI (cfiCond28) CFA_SP SP+-2
          CFI (cfiCond28) CFA_XSP16 add(XSP16, 20)
          CFI Block cfiPicker29 Using cfiCommon1
          CFI (cfiPicker29) NoFunction
          CFI (cfiPicker29) Picker
        LCALL     ?Subroutine9 & 0xFFFF
??CrossCallReturnLabel_18:
        RET
          CFI EndBlock cfiCond27
          CFI EndBlock cfiCond28
          CFI EndBlock cfiPicker29

        RSEG BANKED_CODE:HUGECODE:NOROOT(0)
?Subroutine9:
          CFI Block cfiCond30 Using cfiCommon0
          CFI Function print
          CFI Conditional ??CrossCallReturnLabel_18, ??CrossCallReturnLabel_2
          CFI R6 load(1, XDATA, add(CFA_XSP16, literal(-18)))
          CFI VB load(1, XDATA, add(CFA_XSP16, literal(-17)))
          CFI V0 load(1, XDATA, add(CFA_XSP16, literal(-16)))
          CFI V1 load(1, XDATA, add(CFA_XSP16, literal(-15)))
          CFI V2 load(1, XDATA, add(CFA_XSP16, literal(-14)))
          CFI V3 load(1, XDATA, add(CFA_XSP16, literal(-13)))
          CFI V4 load(1, XDATA, add(CFA_XSP16, literal(-12)))
          CFI V5 load(1, XDATA, add(CFA_XSP16, literal(-11)))
          CFI V6 load(1, XDATA, add(CFA_XSP16, literal(-10)))
          CFI V7 load(1, XDATA, add(CFA_XSP16, literal(-9)))
          CFI V8 load(1, XDATA, add(CFA_XSP16, literal(-8)))
          CFI V9 load(1, XDATA, add(CFA_XSP16, literal(-7)))
          CFI R7 load(1, XDATA, add(CFA_XSP16, literal(-6)))
          CFI ?RET_LOW load(1, XDATA, add(CFA_XSP16, literal(-5)))
          CFI ?RET_HIGH load(1, XDATA, add(CFA_XSP16, literal(-4)))
          CFI ?BRET_EXT load(1, XDATA, add(CFA_XSP16, literal(-3)))
          CFI DPL0 load(1, XDATA, add(CFA_XSP16, literal(-2)))
          CFI DPH0 load(1, XDATA, add(CFA_XSP16, literal(-1)))
          CFI CFA_SP SP+-4
          CFI CFA_XSP16 add(XSP16, 20)
          CFI Block cfiCond31 Using cfiCommon0
          CFI (cfiCond31) Function print
          CFI (cfiCond31) Conditional ??CrossCallReturnLabel_18, ??CrossCallReturnLabel_3
          CFI (cfiCond31) R6 load(1, XDATA, add(CFA_XSP16, literal(-18)))
          CFI (cfiCond31) VB load(1, XDATA, add(CFA_XSP16, literal(-17)))
          CFI (cfiCond31) V0 load(1, XDATA, add(CFA_XSP16, literal(-16)))
          CFI (cfiCond31) V1 load(1, XDATA, add(CFA_XSP16, literal(-15)))
          CFI (cfiCond31) V2 load(1, XDATA, add(CFA_XSP16, literal(-14)))
          CFI (cfiCond31) V3 load(1, XDATA, add(CFA_XSP16, literal(-13)))
          CFI (cfiCond31) V4 load(1, XDATA, add(CFA_XSP16, literal(-12)))
          CFI (cfiCond31) V5 load(1, XDATA, add(CFA_XSP16, literal(-11)))
          CFI (cfiCond31) V6 load(1, XDATA, add(CFA_XSP16, literal(-10)))
          CFI (cfiCond31) V7 load(1, XDATA, add(CFA_XSP16, literal(-9)))
          CFI (cfiCond31) V8 load(1, XDATA, add(CFA_XSP16, literal(-8)))
          CFI (cfiCond31) V9 load(1, XDATA, add(CFA_XSP16, literal(-7)))
          CFI (cfiCond31) R7 load(1, XDATA, add(CFA_XSP16, literal(-6)))
          CFI (cfiCond31) ?RET_LOW load(1, XDATA, add(CFA_XSP16, literal(-5)))
          CFI (cfiCond31) ?RET_HIGH load(1, XDATA, add(CFA_XSP16, literal(-4)))
          CFI (cfiCond31) ?BRET_EXT load(1, XDATA, add(CFA_XSP16, literal(-3)))
          CFI (cfiCond31) DPL0 load(1, XDATA, add(CFA_XSP16, literal(-2)))
          CFI (cfiCond31) DPH0 load(1, XDATA, add(CFA_XSP16, literal(-1)))
          CFI (cfiCond31) CFA_SP SP+-4
          CFI (cfiCond31) CFA_XSP16 add(XSP16, 20)
          CFI Block cfiCond32 Using cfiCommon0
          CFI (cfiCond32) Function print
          CFI (cfiCond32) Conditional ??CrossCallReturnLabel_17, ??CrossCallReturnLabel_0
          CFI (cfiCond32) R6 load(1, XDATA, add(CFA_XSP16, literal(-18)))
          CFI (cfiCond32) VB load(1, XDATA, add(CFA_XSP16, literal(-17)))
          CFI (cfiCond32) V0 load(1, XDATA, add(CFA_XSP16, literal(-16)))
          CFI (cfiCond32) V1 load(1, XDATA, add(CFA_XSP16, literal(-15)))
          CFI (cfiCond32) V2 load(1, XDATA, add(CFA_XSP16, literal(-14)))
          CFI (cfiCond32) V3 load(1, XDATA, add(CFA_XSP16, literal(-13)))
          CFI (cfiCond32) V4 load(1, XDATA, add(CFA_XSP16, literal(-12)))
          CFI (cfiCond32) V5 load(1, XDATA, add(CFA_XSP16, literal(-11)))
          CFI (cfiCond32) V6 load(1, XDATA, add(CFA_XSP16, literal(-10)))
          CFI (cfiCond32) V7 load(1, XDATA, add(CFA_XSP16, literal(-9)))
          CFI (cfiCond32) V8 load(1, XDATA, add(CFA_XSP16, literal(-8)))
          CFI (cfiCond32) V9 load(1, XDATA, add(CFA_XSP16, literal(-7)))
          CFI (cfiCond32) R7 load(1, XDATA, add(CFA_XSP16, literal(-6)))
          CFI (cfiCond32) ?RET_LOW load(1, XDATA, add(CFA_XSP16, literal(-5)))
          CFI (cfiCond32) ?RET_HIGH load(1, XDATA, add(CFA_XSP16, literal(-4)))
          CFI (cfiCond32) ?BRET_EXT load(1, XDATA, add(CFA_XSP16, literal(-3)))
          CFI (cfiCond32) DPL0 load(1, XDATA, add(CFA_XSP16, literal(-2)))
          CFI (cfiCond32) DPH0 load(1, XDATA, add(CFA_XSP16, literal(-1)))
          CFI (cfiCond32) CFA_SP SP+-4
          CFI (cfiCond32) CFA_XSP16 add(XSP16, 20)
          CFI Block cfiCond33 Using cfiCommon0
          CFI (cfiCond33) Function print
          CFI (cfiCond33) Conditional ??CrossCallReturnLabel_17, ??CrossCallReturnLabel_1
          CFI (cfiCond33) R6 load(1, XDATA, add(CFA_XSP16, literal(-18)))
          CFI (cfiCond33) VB load(1, XDATA, add(CFA_XSP16, literal(-17)))
          CFI (cfiCond33) V0 load(1, XDATA, add(CFA_XSP16, literal(-16)))
          CFI (cfiCond33) V1 load(1, XDATA, add(CFA_XSP16, literal(-15)))
          CFI (cfiCond33) V2 load(1, XDATA, add(CFA_XSP16, literal(-14)))
          CFI (cfiCond33) V3 load(1, XDATA, add(CFA_XSP16, literal(-13)))
          CFI (cfiCond33) V4 load(1, XDATA, add(CFA_XSP16, literal(-12)))
          CFI (cfiCond33) V5 load(1, XDATA, add(CFA_XSP16, literal(-11)))
          CFI (cfiCond33) V6 load(1, XDATA, add(CFA_XSP16, literal(-10)))
          CFI (cfiCond33) V7 load(1, XDATA, add(CFA_XSP16, literal(-9)))
          CFI (cfiCond33) V8 load(1, XDATA, add(CFA_XSP16, literal(-8)))
          CFI (cfiCond33) V9 load(1, XDATA, add(CFA_XSP16, literal(-7)))
          CFI (cfiCond33) R7 load(1, XDATA, add(CFA_XSP16, literal(-6)))
          CFI (cfiCond33) ?RET_LOW load(1, XDATA, add(CFA_XSP16, literal(-5)))
          CFI (cfiCond33) ?RET_HIGH load(1, XDATA, add(CFA_XSP16, literal(-4)))
          CFI (cfiCond33) ?BRET_EXT load(1, XDATA, add(CFA_XSP16, literal(-3)))
          CFI (cfiCond33) DPL0 load(1, XDATA, add(CFA_XSP16, literal(-2)))
          CFI (cfiCond33) DPH0 load(1, XDATA, add(CFA_XSP16, literal(-1)))
          CFI (cfiCond33) CFA_SP SP+-4
          CFI (cfiCond33) CFA_XSP16 add(XSP16, 20)
          CFI Block cfiPicker34 Using cfiCommon1
          CFI (cfiPicker34) NoFunction
          CFI (cfiPicker34) Picker
        MOV       DPL,?V4
        MOV       DPH,?V5
        MOVX      A,@DPTR
        MOV       R0,A
        INC       DPTR
        MOVX      A,@DPTR
        MOV       ?V6,R0
        MOV       ?V7,A
        MOV       A,R0
        ADD       A,#0x2
        MOV       R0,A
        CLR       A
        ADDC      A,?V7
        MOV       R1,A
        MOV       DPL,?V4
        MOV       DPH,?V5
        MOV       A,R0
        MOVX      @DPTR,A
        INC       DPTR
        MOV       A,R1
        MOVX      @DPTR,A
        RET
          CFI EndBlock cfiCond30
          CFI EndBlock cfiCond31
          CFI EndBlock cfiCond32
          CFI EndBlock cfiCond33
          CFI EndBlock cfiPicker34

        RSEG BANKED_CODE:HUGECODE:NOROOT(0)
?Subroutine2:
          CFI Block cfiCond35 Using cfiCommon0
          CFI Function print
          CFI Conditional ??CrossCallReturnLabel_0
          CFI R6 load(1, XDATA, add(CFA_XSP16, literal(-18)))
          CFI VB load(1, XDATA, add(CFA_XSP16, literal(-17)))
          CFI V0 load(1, XDATA, add(CFA_XSP16, literal(-16)))
          CFI V1 load(1, XDATA, add(CFA_XSP16, literal(-15)))
          CFI V2 load(1, XDATA, add(CFA_XSP16, literal(-14)))
          CFI V3 load(1, XDATA, add(CFA_XSP16, literal(-13)))
          CFI V4 load(1, XDATA, add(CFA_XSP16, literal(-12)))
          CFI V5 load(1, XDATA, add(CFA_XSP16, literal(-11)))
          CFI V6 load(1, XDATA, add(CFA_XSP16, literal(-10)))
          CFI V7 load(1, XDATA, add(CFA_XSP16, literal(-9)))
          CFI V8 load(1, XDATA, add(CFA_XSP16, literal(-8)))
          CFI V9 load(1, XDATA, add(CFA_XSP16, literal(-7)))
          CFI R7 load(1, XDATA, add(CFA_XSP16, literal(-6)))
          CFI ?RET_LOW load(1, XDATA, add(CFA_XSP16, literal(-5)))
          CFI ?RET_HIGH load(1, XDATA, add(CFA_XSP16, literal(-4)))
          CFI ?BRET_EXT load(1, XDATA, add(CFA_XSP16, literal(-3)))
          CFI DPL0 load(1, XDATA, add(CFA_XSP16, literal(-2)))
          CFI DPH0 load(1, XDATA, add(CFA_XSP16, literal(-1)))
          CFI CFA_SP SP+-2
          CFI CFA_XSP16 add(XSP16, 20)
          CFI Block cfiCond36 Using cfiCommon0
          CFI (cfiCond36) Function print
          CFI (cfiCond36) Conditional ??CrossCallReturnLabel_1
          CFI (cfiCond36) R6 load(1, XDATA, add(CFA_XSP16, literal(-18)))
          CFI (cfiCond36) VB load(1, XDATA, add(CFA_XSP16, literal(-17)))
          CFI (cfiCond36) V0 load(1, XDATA, add(CFA_XSP16, literal(-16)))
          CFI (cfiCond36) V1 load(1, XDATA, add(CFA_XSP16, literal(-15)))
          CFI (cfiCond36) V2 load(1, XDATA, add(CFA_XSP16, literal(-14)))
          CFI (cfiCond36) V3 load(1, XDATA, add(CFA_XSP16, literal(-13)))
          CFI (cfiCond36) V4 load(1, XDATA, add(CFA_XSP16, literal(-12)))
          CFI (cfiCond36) V5 load(1, XDATA, add(CFA_XSP16, literal(-11)))
          CFI (cfiCond36) V6 load(1, XDATA, add(CFA_XSP16, literal(-10)))
          CFI (cfiCond36) V7 load(1, XDATA, add(CFA_XSP16, literal(-9)))
          CFI (cfiCond36) V8 load(1, XDATA, add(CFA_XSP16, literal(-8)))
          CFI (cfiCond36) V9 load(1, XDATA, add(CFA_XSP16, literal(-7)))
          CFI (cfiCond36) R7 load(1, XDATA, add(CFA_XSP16, literal(-6)))
          CFI (cfiCond36) ?RET_LOW load(1, XDATA, add(CFA_XSP16, literal(-5)))
          CFI (cfiCond36) ?RET_HIGH load(1, XDATA, add(CFA_XSP16, literal(-4)))
          CFI (cfiCond36) ?BRET_EXT load(1, XDATA, add(CFA_XSP16, literal(-3)))
          CFI (cfiCond36) DPL0 load(1, XDATA, add(CFA_XSP16, literal(-2)))
          CFI (cfiCond36) DPH0 load(1, XDATA, add(CFA_XSP16, literal(-1)))
          CFI (cfiCond36) CFA_SP SP+-2
          CFI (cfiCond36) CFA_XSP16 add(XSP16, 20)
          CFI Block cfiPicker37 Using cfiCommon1
          CFI (cfiPicker37) NoFunction
          CFI (cfiPicker37) Picker
        LCALL     ?Subroutine9 & 0xFFFF
??CrossCallReturnLabel_17:
        ; Setup parameters for call to function printi
        ; Setup parameters for call to function printi
        MOV       ?V8,#0x61
        MOV       ?V9,R5
        MOV       R0,#?V8
        RET
          CFI EndBlock cfiCond35
          CFI EndBlock cfiCond36
          CFI EndBlock cfiPicker37
//  192 

        RSEG BANKED_CODE:HUGECODE:NOROOT(0)
//  193 int printf(const char *format, ...)
printf:
          CFI Block cfiBlock38 Using cfiCommon0
          CFI Function printf
        CODE
//  194 {
        FUNCALL printf, print
        LOCFRAME ISTACK, 0, STACK
        LOCFRAME PSTACK, 0, STACK
        LOCFRAME XSTACK, 14, STACK
        LOCFRAME IOVERLAY, 0, STATIC
        LOCFRAME DOVERLAY, 0, STATIC
        ARGFRAME ISTACK, 0, STACK
        ARGFRAME PSTACK, 0, STACK
        ARGFRAME XSTACK, 14, STACK
        ARGFRAME IOVERLAY, 0, STATIC
        ARGFRAME DOVERLAY, 0, STATIC
        REQUIRE ?V0
        REQUIRE ?V1
        MOV       A,#-0xa
        LCALL     ?BANKED_ENTER_XDATA
          CFI DPH0 load(1, XDATA, add(CFA_XSP16, literal(-1)))
          CFI DPL0 load(1, XDATA, add(CFA_XSP16, literal(-2)))
          CFI ?BRET_EXT load(1, XDATA, add(CFA_XSP16, literal(-3)))
          CFI ?RET_HIGH load(1, XDATA, add(CFA_XSP16, literal(-4)))
          CFI ?RET_LOW load(1, XDATA, add(CFA_XSP16, literal(-5)))
          CFI R7 load(1, XDATA, add(CFA_XSP16, literal(-6)))
          CFI V1 load(1, XDATA, add(CFA_XSP16, literal(-7)))
          CFI V0 load(1, XDATA, add(CFA_XSP16, literal(-8)))
          CFI VB load(1, XDATA, add(CFA_XSP16, literal(-9)))
          CFI R6 load(1, XDATA, add(CFA_XSP16, literal(-10)))
          CFI CFA_SP SP+0
          CFI CFA_XSP16 add(XSP16, 10)
        ; Saved register size: 10
        ; Auto size: 2
        MOV       A,#-0x2
        LCALL     ?ALLOC_XSTACK8
          CFI CFA_XSP16 add(XSP16, 12)
//  195         va_list args;
//  196 
//  197         va_start( args, format );
        MOV       A,#0xc
        LCALL     ?XSTACK_DISP100_8
        LCALL     ?Subroutine5 & 0xFFFF
//  198         return print( 0, format, args );
??CrossCallReturnLabel_7:
        LCALL     ?PUSH_XSTACK_I_TWO
          CFI CFA_XSP16 add(XSP16, 14)
        MOV       A,R2
        MOV       R4,A
        MOV       A,R3
        MOV       R5,A
        MOV       R2,#0x0
        MOV       R3,#0x0
        LCALL     `??print::?relay`; Banked call to: print
        MOV       A,#0x2
        LCALL     ?DEALLOC_XSTACK8
          CFI CFA_XSP16 add(XSP16, 12)
        MOV       A,#0x2
          CFI EndBlock cfiBlock38
        REQUIRE ?Subroutine1
        ; // Fall through to label ?Subroutine1
//  199 }

        RSEG BANKED_CODE:HUGECODE:NOROOT(0)
?Subroutine1:
          CFI Block cfiBlock39 Using cfiCommon0
          CFI NoFunction
          CFI CFA_SP SP+0
          CFI CFA_XSP16 add(XSP16, 12)
          CFI VB load(1, XDATA, add(CFA_XSP16, literal(-9)))
          CFI DPL0 load(1, XDATA, add(CFA_XSP16, literal(-2)))
          CFI DPH0 load(1, XDATA, add(CFA_XSP16, literal(-1)))
          CFI R6 load(1, XDATA, add(CFA_XSP16, literal(-10)))
          CFI R7 load(1, XDATA, add(CFA_XSP16, literal(-6)))
          CFI V0 load(1, XDATA, add(CFA_XSP16, literal(-8)))
          CFI V1 load(1, XDATA, add(CFA_XSP16, literal(-7)))
          CFI ?BRET_EXT load(1, XDATA, add(CFA_XSP16, literal(-3)))
          CFI ?RET_HIGH load(1, XDATA, add(CFA_XSP16, literal(-4)))
          CFI ?RET_LOW load(1, XDATA, add(CFA_XSP16, literal(-5)))
          CFI Invalid
        LCALL     ?DEALLOC_XSTACK8
          CFI CFA_XSP16 add(XSP16, 10)
          CFI Valid
        MOV       R7,#0x2
        LJMP      ?BANKED_LEAVE_XDATA
          CFI EndBlock cfiBlock39
//  200 

        RSEG BANKED_CODE:HUGECODE:NOROOT(0)
//  201 int sprintf(char *out, const char *format, ...)
sprintf:
          CFI Block cfiBlock40 Using cfiCommon0
          CFI Function sprintf
        CODE
//  202 {
        FUNCALL sprintf, print
        LOCFRAME ISTACK, 0, STACK
        LOCFRAME PSTACK, 0, STACK
        LOCFRAME XSTACK, 16, STACK
        LOCFRAME IOVERLAY, 0, STATIC
        LOCFRAME DOVERLAY, 0, STATIC
        ARGFRAME ISTACK, 0, STACK
        ARGFRAME PSTACK, 0, STACK
        ARGFRAME XSTACK, 16, STACK
        ARGFRAME IOVERLAY, 0, STATIC
        ARGFRAME DOVERLAY, 0, STATIC
        REQUIRE ?V0
        REQUIRE ?V1
        MOV       A,#-0xa
        LCALL     ?BANKED_ENTER_XDATA
          CFI DPH0 load(1, XDATA, add(CFA_XSP16, literal(-1)))
          CFI DPL0 load(1, XDATA, add(CFA_XSP16, literal(-2)))
          CFI ?BRET_EXT load(1, XDATA, add(CFA_XSP16, literal(-3)))
          CFI ?RET_HIGH load(1, XDATA, add(CFA_XSP16, literal(-4)))
          CFI ?RET_LOW load(1, XDATA, add(CFA_XSP16, literal(-5)))
          CFI R7 load(1, XDATA, add(CFA_XSP16, literal(-6)))
          CFI V1 load(1, XDATA, add(CFA_XSP16, literal(-7)))
          CFI V0 load(1, XDATA, add(CFA_XSP16, literal(-8)))
          CFI VB load(1, XDATA, add(CFA_XSP16, literal(-9)))
          CFI R6 load(1, XDATA, add(CFA_XSP16, literal(-10)))
          CFI CFA_SP SP+0
          CFI CFA_XSP16 add(XSP16, 10)
        ; Saved register size: 10
        ; Auto size: 4
        MOV       A,#-0x4
        LCALL     ?ALLOC_XSTACK8
          CFI CFA_XSP16 add(XSP16, 14)
        MOV       A,#0x2
        LCALL     ?XSTACK_DISP0_8
        MOV       A,R2
        MOVX      @DPTR,A
        INC       DPTR
        MOV       A,R3
        MOVX      @DPTR,A
//  203         va_list args;
//  204 
//  205         va_start( args, format );
        MOV       A,#0xe
        LCALL     ?XSTACK_DISP100_8
        LCALL     ?Subroutine5 & 0xFFFF
//  206         return print( &out, format, args );
??CrossCallReturnLabel_8:
        LCALL     ?PUSH_XSTACK_I_TWO
          CFI CFA_XSP16 add(XSP16, 16)
        MOV       A,#0x4
        LCALL     ?XSTACK_DISP101_8
        LCALL     `??print::?relay`; Banked call to: print
        MOV       A,#0x2
        LCALL     ?DEALLOC_XSTACK8
          CFI CFA_XSP16 add(XSP16, 14)
        MOV       A,#0x4
        SJMP      ?Subroutine1
//  207 }
          CFI EndBlock cfiBlock40

        RSEG BANKED_CODE:HUGECODE:NOROOT(0)
?Subroutine5:
          CFI Block cfiCond41 Using cfiCommon0
          CFI Function printf
          CFI Conditional ??CrossCallReturnLabel_7
          CFI R6 load(1, XDATA, add(CFA_XSP16, literal(-10)))
          CFI VB load(1, XDATA, add(CFA_XSP16, literal(-9)))
          CFI V0 load(1, XDATA, add(CFA_XSP16, literal(-8)))
          CFI V1 load(1, XDATA, add(CFA_XSP16, literal(-7)))
          CFI R7 load(1, XDATA, add(CFA_XSP16, literal(-6)))
          CFI ?RET_LOW load(1, XDATA, add(CFA_XSP16, literal(-5)))
          CFI ?RET_HIGH load(1, XDATA, add(CFA_XSP16, literal(-4)))
          CFI ?BRET_EXT load(1, XDATA, add(CFA_XSP16, literal(-3)))
          CFI DPL0 load(1, XDATA, add(CFA_XSP16, literal(-2)))
          CFI DPH0 load(1, XDATA, add(CFA_XSP16, literal(-1)))
          CFI CFA_SP SP+-2
          CFI CFA_XSP16 add(XSP16, 12)
          CFI Block cfiCond42 Using cfiCommon0
          CFI (cfiCond42) Function sprintf
          CFI (cfiCond42) Conditional ??CrossCallReturnLabel_8
          CFI (cfiCond42) R6 load(1, XDATA, add(CFA_XSP16, literal(-10)))
          CFI (cfiCond42) VB load(1, XDATA, add(CFA_XSP16, literal(-9)))
          CFI (cfiCond42) V0 load(1, XDATA, add(CFA_XSP16, literal(-8)))
          CFI (cfiCond42) V1 load(1, XDATA, add(CFA_XSP16, literal(-7)))
          CFI (cfiCond42) R7 load(1, XDATA, add(CFA_XSP16, literal(-6)))
          CFI (cfiCond42) ?RET_LOW load(1, XDATA, add(CFA_XSP16, literal(-5)))
          CFI (cfiCond42) ?RET_HIGH load(1, XDATA, add(CFA_XSP16, literal(-4)))
          CFI (cfiCond42) ?BRET_EXT load(1, XDATA, add(CFA_XSP16, literal(-3)))
          CFI (cfiCond42) DPL0 load(1, XDATA, add(CFA_XSP16, literal(-2)))
          CFI (cfiCond42) DPH0 load(1, XDATA, add(CFA_XSP16, literal(-1)))
          CFI (cfiCond42) CFA_SP SP+-2
          CFI (cfiCond42) CFA_XSP16 add(XSP16, 14)
          CFI Block cfiPicker43 Using cfiCommon1
          CFI (cfiPicker43) NoFunction
          CFI (cfiPicker43) Picker
        MOV       DPL,?XSP + 0
        MOV       DPH,?XSP + 1
        MOV       A,R0
        MOVX      @DPTR,A
        INC       DPTR
        MOV       A,R1
        MOVX      @DPTR,A
        ; Setup parameters for call to function print
        ; Setup parameters for call to function print
        MOV       R0,?XSP + 0
        MOV       R1,?XSP + 1
        MOV       ?V0,R0
        MOV       ?V1,R1
        MOV       R0,#?V0
        RET
          CFI EndBlock cfiCond41
          CFI EndBlock cfiCond42
          CFI EndBlock cfiPicker43

        RSEG BANK_RELAYS:CODE:REORDER:NOROOT(0)
`??putchar::?relay`:
        CODE
        LCALL   ?BDISPATCH
        DATA24
        DC24    putchar

        RSEG BANK_RELAYS:CODE:REORDER:NOROOT(0)
`??printchar::?relay`:
        CODE
        LCALL   ?BDISPATCH
        DATA24
        DC24    printchar

        RSEG BANK_RELAYS:CODE:REORDER:NOROOT(0)
`??prints::?relay`:
        CODE
        LCALL   ?BDISPATCH
        DATA24
        DC24    prints

        RSEG BANK_RELAYS:CODE:REORDER:NOROOT(0)
`??printi::?relay`:
        CODE
        LCALL   ?BDISPATCH
        DATA24
        DC24    printi

        RSEG BANK_RELAYS:CODE:REORDER:NOROOT(0)
`??print::?relay`:
        CODE
        LCALL   ?BDISPATCH
        DATA24
        DC24    print

        RSEG BANK_RELAYS:CODE:REORDER:NOROOT(0)
`??printf::?relay`:
        CODE
        LCALL   ?BDISPATCH
        DATA24
        DC24    printf

        RSEG BANK_RELAYS:CODE:REORDER:NOROOT(0)
`??sprintf::?relay`:
        CODE
        LCALL   ?BDISPATCH
        DATA24
        DC24    sprintf

        RSEG XDATA_ROM_C:CONST:REORDER:NOROOT(0)
        DATA8
`?<Constant "(null)">`:
        DB "(null)"

        END
// 
// 1 445 bytes in segment BANKED_CODE
//    42 bytes in segment BANK_RELAYS
//     7 bytes in segment XDATA_ROM_C
// 
//    42 bytes of CODE     memory
//     7 bytes of CONST    memory
// 1 445 bytes of HUGECODE memory
//
//Errors: none
//Warnings: none
