///////////////////////////////////////////////////////////////////////////////
//
// IAR C/C++ Compiler V10.30.1.6000 for 8051              23/Feb/2022  09:35:01
// Copyright 2004-2018 IAR Systems AB.
// PC-locked license - IAR Embedded Workbench for 8051
//
//    Core               =  plain
//    Code model         =  banked
//    Data model         =  large
//    Calling convention =  xdata reentrant
//    Constant location  =  data_rom
//    Dptr setup         =  1,16
//                          
//    Source file        =  
//        D:\A_proj\A_Cproj\Zigbee\ZigBee-DoorLock-2021.09.27\Components\osal\common\OSAL.c
//    Command line       =  
//        -f C:\Users\Administrator\AppData\Local\Temp\EW3E87.tmp
//        (D:\A_proj\A_Cproj\Zigbee\ZigBee-DoorLock-2021.09.27\Components\osal\common\OSAL.c
//        -D WDT_IN_PM1 -D ZIGBEEPRO -D INTER_PAN -D ZIGBEE_FREQ_AGILITY -D
//        DISABLE_GREENPOWER_BASIC_PROXY -D REFLECTOR -D HAL_UART=FALSE -D
//        HAL_LED=FALSE -D HAL_KEY=FALSE -D SECURE=1 -D TC_LINKKEY_JOIN -D
//        NV_INIT -D NV_RESTORE -D POWER_SAVING -D NWK_AUTO_POLL -D xZTOOL_P1
//        -D xMT_TASK -D xMT_APP_FUNC -D xMT_SYS_FUNC -D xMT_ZDO_FUNC -D
//        xMT_ZDO_MGMT -D xMT_APP_CNF_FUNC -D xLEGACY_LCD_DEBUG -D
//        xLCD_SUPPORTED=DEBUG -D MULTICAST_ENABLED=FALSE -D ZCL_READ -D
//        ZCL_WRITE -D ZCL_DISCOVER -D ZCL_BASIC -D ZCL_IDENTIFY -D ZCL_SCENES
//        -D ZCL_GROUPS -D BDB_REPORTING -D ZCL_DOORLOCK -D ZCL_DOORLOCK_EXT -D
//        ISR_KEYINTERRUPT -lC
//        D:\A_proj\A_Cproj\Zigbee\ZigBee-DoorLock-2021.09.27\Projects\zstack\AT-command\ATApp\CC2530DB\EndDeviceEB\List
//        -lA
//        D:\A_proj\A_Cproj\Zigbee\ZigBee-DoorLock-2021.09.27\Projects\zstack\AT-command\ATApp\CC2530DB\EndDeviceEB\List
//        --diag_suppress Pe001,Pa010 -o
//        D:\A_proj\A_Cproj\Zigbee\ZigBee-DoorLock-2021.09.27\Projects\zstack\AT-command\ATApp\CC2530DB\EndDeviceEB\Obj
//        -e --debug --core=plain --dptr=16,1 --data_model=large
//        --code_model=banked --calling_convention=xdata_reentrant
//        --place_constants=data_rom --nr_virtual_regs 16 -f
//        D:\A_proj\A_Cproj\Zigbee\ZigBee-DoorLock-2021.09.27\Projects\zstack\AT-command\ATApp\CC2530DB\..\..\..\Tools\CC2530DB\f8wEndev.cfg
//        (-DCPU32MHZ -DROOT=__near_func -DMAC_CFG_TX_DATA_MAX=3
//        -DMAC_CFG_TX_MAX=6 -DMAC_CFG_RX_MAX=3) -f
//        D:\A_proj\A_Cproj\Zigbee\ZigBee-DoorLock-2021.09.27\Projects\zstack\AT-command\ATApp\CC2530DB\..\..\..\Tools\CC2530DB\f8wConfig.cfg
//        (-DZIGBEEPRO -DSECURE=1 -DZG_SECURE_DYNAMIC=0 -DREFLECTOR
//        -DDEFAULT_CHANLIST=0x00000800 -DZDAPP_CONFIG_PAN_ID=0xFFFF
//        -DNWK_START_DELAY=100 -DEXTENDED_JOINING_RANDOM_MASK=0x007F
//        -DBEACON_REQUEST_DELAY=100 -DBEACON_REQ_DELAY_MASK=0x00FF
//        -DLINK_STATUS_JITTER_MASK=0x007F -DROUTE_EXPIRY_TIME=30
//        -DAPSC_ACK_WAIT_DURATION_POLLED=3000 -DNWK_INDIRECT_MSG_TIMEOUT=7
//        -DMAX_RREQ_ENTRIES=8 -DAPSC_MAX_FRAME_RETRIES=3
//        -DNWK_MAX_DATA_RETRIES=2 -DMAX_POLL_FAILURE_RETRIES=2 -DMAX_BCAST=9
//        -DAPS_MAX_GROUPS=10 -DMAX_RTG_ENTRIES=15 -DNWK_MAX_BINDING_ENTRIES=4
//        -DMAX_BINDING_CLUSTER_IDS=4 -DDEFAULT_KEY={0}
//        -DMAC_MAX_FRAME_SIZE=116 -DZDNWKMGR_MIN_TRANSMISSIONS=20
//        "-DCONST=const __code" -DGENERIC=__generic -DRFD_RCVC_ALWAYS_ON=FALSE
//        -DPOLL_RATE=300 -DQUEUED_POLL_RATE=100 -DRESPONSE_POLL_RATE=100
//        -DREJOIN_POLL_RATE=440 -DREJOIN_BACKOFF=900000 -DREJOIN_SCAN=900000)
//        -f
//        D:\A_proj\A_Cproj\Zigbee\ZigBee-DoorLock-2021.09.27\Projects\zstack\AT-command\ATApp\CC2530DB\..\..\..\Tools\CC2530DB\f8wZCL.cfg
//        -I
//        D:\A_proj\A_Cproj\Zigbee\ZigBee-DoorLock-2021.09.27\Projects\zstack\AT-command\ATApp\CC2530DB\
//        -I
//        D:\A_proj\A_Cproj\Zigbee\ZigBee-DoorLock-2021.09.27\Projects\zstack\AT-command\ATApp\CC2530DB\..\Source\
//        -I
//        D:\A_proj\A_Cproj\Zigbee\ZigBee-DoorLock-2021.09.27\Projects\zstack\AT-command\ATApp\CC2530DB\..\Source\ZCL\
//        -I
//        D:\A_proj\A_Cproj\Zigbee\ZigBee-DoorLock-2021.09.27\Projects\zstack\AT-command\ATApp\CC2530DB\..\Source\UserAPI\
//        -I
//        D:\A_proj\A_Cproj\Zigbee\ZigBee-DoorLock-2021.09.27\Projects\zstack\AT-command\ATApp\CC2530DB\..\Source\Controller\
//        -I
//        D:\A_proj\A_Cproj\Zigbee\ZigBee-DoorLock-2021.09.27\Projects\zstack\AT-command\ATApp\CC2530DB\..\..\..\ZMain\TI2530DB\
//        -I
//        D:\A_proj\A_Cproj\Zigbee\ZigBee-DoorLock-2021.09.27\Projects\zstack\AT-command\ATApp\CC2530DB\..\..\..\..\..\Components\hal\include\
//        -I
//        D:\A_proj\A_Cproj\Zigbee\ZigBee-DoorLock-2021.09.27\Projects\zstack\AT-command\ATApp\CC2530DB\..\..\..\..\..\Components\hal\target\CC2530EB\
//        -I
//        D:\A_proj\A_Cproj\Zigbee\ZigBee-DoorLock-2021.09.27\Projects\zstack\AT-command\ATApp\CC2530DB\..\..\..\..\..\Components\mac\include\
//        -I
//        D:\A_proj\A_Cproj\Zigbee\ZigBee-DoorLock-2021.09.27\Projects\zstack\AT-command\ATApp\CC2530DB\..\..\..\..\..\Components\mac\high_level\
//        -I
//        D:\A_proj\A_Cproj\Zigbee\ZigBee-DoorLock-2021.09.27\Projects\zstack\AT-command\ATApp\CC2530DB\..\..\..\..\..\Components\mac\low_level\srf04\
//        -I
//        D:\A_proj\A_Cproj\Zigbee\ZigBee-DoorLock-2021.09.27\Projects\zstack\AT-command\ATApp\CC2530DB\..\..\..\..\..\Components\mac\low_level\srf04\single_chip\
//        -I
//        D:\A_proj\A_Cproj\Zigbee\ZigBee-DoorLock-2021.09.27\Projects\zstack\AT-command\ATApp\CC2530DB\..\..\..\..\..\Components\mt\
//        -I
//        D:\A_proj\A_Cproj\Zigbee\ZigBee-DoorLock-2021.09.27\Projects\zstack\AT-command\ATApp\CC2530DB\..\..\..\..\..\Components\osal\include\
//        -I
//        D:\A_proj\A_Cproj\Zigbee\ZigBee-DoorLock-2021.09.27\Projects\zstack\AT-command\ATApp\CC2530DB\..\..\..\..\..\Components\services\saddr\
//        -I
//        D:\A_proj\A_Cproj\Zigbee\ZigBee-DoorLock-2021.09.27\Projects\zstack\AT-command\ATApp\CC2530DB\..\..\..\..\..\Components\services\sdata\
//        -I
//        D:\A_proj\A_Cproj\Zigbee\ZigBee-DoorLock-2021.09.27\Projects\zstack\AT-command\ATApp\CC2530DB\..\..\..\..\..\Components\stack\af\
//        -I
//        D:\A_proj\A_Cproj\Zigbee\ZigBee-DoorLock-2021.09.27\Projects\zstack\AT-command\ATApp\CC2530DB\..\..\..\..\..\Components\stack\bdb\
//        -I
//        D:\A_proj\A_Cproj\Zigbee\ZigBee-DoorLock-2021.09.27\Projects\zstack\AT-command\ATApp\CC2530DB\..\..\..\..\..\Components\stack\gp\
//        -I
//        D:\A_proj\A_Cproj\Zigbee\ZigBee-DoorLock-2021.09.27\Projects\zstack\AT-command\ATApp\CC2530DB\..\..\..\..\..\Components\stack\nwk\
//        -I
//        D:\A_proj\A_Cproj\Zigbee\ZigBee-DoorLock-2021.09.27\Projects\zstack\AT-command\ATApp\CC2530DB\..\..\..\..\..\Components\stack\sapi\
//        -I
//        D:\A_proj\A_Cproj\Zigbee\ZigBee-DoorLock-2021.09.27\Projects\zstack\AT-command\ATApp\CC2530DB\..\..\..\..\..\Components\stack\sec\
//        -I
//        D:\A_proj\A_Cproj\Zigbee\ZigBee-DoorLock-2021.09.27\Projects\zstack\AT-command\ATApp\CC2530DB\..\..\..\..\..\Components\stack\sys\
//        -I
//        D:\A_proj\A_Cproj\Zigbee\ZigBee-DoorLock-2021.09.27\Projects\zstack\AT-command\ATApp\CC2530DB\..\..\..\..\..\Components\stack\zcl\
//        -I
//        D:\A_proj\A_Cproj\Zigbee\ZigBee-DoorLock-2021.09.27\Projects\zstack\AT-command\ATApp\CC2530DB\..\..\..\..\..\Components\stack\zdo\
//        -I
//        D:\A_proj\A_Cproj\Zigbee\ZigBee-DoorLock-2021.09.27\Projects\zstack\AT-command\ATApp\CC2530DB\..\..\..\..\..\Components\zmac\
//        -I
//        D:\A_proj\A_Cproj\Zigbee\ZigBee-DoorLock-2021.09.27\Projects\zstack\AT-command\ATApp\CC2530DB\..\..\..\..\..\Components\zmac\f8w\
//        -Ohz --require_prototypes)
//    Locale             =  Chinese (Simplified)_CHN.936
//    List file          =  
//        D:\A_proj\A_Cproj\Zigbee\ZigBee-DoorLock-2021.09.27\Projects\zstack\AT-command\ATApp\CC2530DB\EndDeviceEB\List\OSAL.s51
//
///////////////////////////////////////////////////////////////////////////////

        NAME OSAL

        RTMODEL "__SystemLibrary", "CLib"
        RTMODEL "__calling_convention", "xdata_reentrant"
        RTMODEL "__code_model", "banked"
        RTMODEL "__core", "plain"
        RTMODEL "__data_model", "large"
        RTMODEL "__dptr_size", "16"
        RTMODEL "__extended_stack", "disabled"
        RTMODEL "__location_for_constants", "data"
        RTMODEL "__number_of_dptrs", "1"
        RTMODEL "__register_banks", "*"
        RTMODEL "__rt_version", "1"

        RSEG DOVERLAY:DATA:NOROOT(0)
        RSEG IOVERLAY:IDATA:NOROOT(0)
        RSEG ISTACK:IDATA:NOROOT(0)
        RSEG PSTACK:XDATA:NOROOT(0)
        RSEG XSTACK:XDATA:NOROOT(0)

        EXTERN ?V0
        EXTERN ?V1
        EXTERN ?V2
        EXTERN ?V3
        EXTERN ?V4
        EXTERN ?V5
        EXTERN ?V6
        EXTERN ?V8
        EXTERN ?V9
        EXTERN ?V10
        EXTERN ?V7
        EXTERN ?V11
        EXTERN ?V12
        EXTERN ?V13
        EXTERN ?V14
        EXTERN ?V15
        EXTERN ?ALLOC_XSTACK8
        EXTERN ?BANKED_ENTER_XDATA
        EXTERN ?BANKED_LEAVE_XDATA
        EXTERN ?BDISPATCH
        EXTERN ?BRET
        EXTERN ?CALL_IND
        EXTERN ?C_GPTR_LOAD
        EXTERN ?DEALLOC_XSTACK8
        EXTERN ?L_ADD
        EXTERN ?L_MOV_X
        EXTERN ?L_SHL
        EXTERN ?MOVE_LONG8_XDATA_XDATA
        EXTERN ?PUSH_XSTACK_I_THREE
        EXTERN ?PUSH_XSTACK_I_TWO
        EXTERN ?UL_DIV_MOD
        EXTERN ?UL_SHR
        EXTERN ?XSP
        EXTERN ?XSTACK_DISP0_8
        EXTERN ?XSTACK_DISP101_8
        EXTERN ?XSTACK_DISP102_8
        EXTERN __INIT_XDATA_I
        EXTERN __INIT_XDATA_Z

        PUBLIC `??_ltoa::?relay`
        FUNCTION `??_ltoa::?relay`,0203H
        PUBLIC `??osal_buffer_uint24::?relay`
        FUNCTION `??osal_buffer_uint24::?relay`,0203H
        PUBLIC `??osal_buffer_uint32::?relay`
        FUNCTION `??osal_buffer_uint32::?relay`,0203H
        PUBLIC `??osal_build_uint16::?relay`
        FUNCTION `??osal_build_uint16::?relay`,0203H
        PUBLIC `??osal_build_uint32::?relay`
        FUNCTION `??osal_build_uint32::?relay`,0203H
        PUBLIC `??osal_clear_event::?relay`
        FUNCTION `??osal_clear_event::?relay`,0203H
        PUBLIC `??osal_init_system::?relay`
        FUNCTION `??osal_init_system::?relay`,0203H
        PUBLIC `??osal_int_disable::?relay`
        FUNCTION `??osal_int_disable::?relay`,0203H
        PUBLIC `??osal_int_enable::?relay`
        FUNCTION `??osal_int_enable::?relay`,0203H
        PUBLIC `??osal_isbufset::?relay`
        FUNCTION `??osal_isbufset::?relay`,0203H
        PUBLIC `??osal_isr_register::?relay`
        FUNCTION `??osal_isr_register::?relay`,0203H
        PUBLIC `??osal_memcmp::?relay`
        FUNCTION `??osal_memcmp::?relay`,0203H
        PUBLIC `??osal_memcpy::?relay`
        FUNCTION `??osal_memcpy::?relay`,0203H
        PUBLIC `??osal_memdup::?relay`
        FUNCTION `??osal_memdup::?relay`,0203H
        PUBLIC `??osal_memset::?relay`
        FUNCTION `??osal_memset::?relay`,0203H
        PUBLIC `??osal_msg_allocate::?relay`
        FUNCTION `??osal_msg_allocate::?relay`,0203H
        PUBLIC `??osal_msg_count::?relay`
        FUNCTION `??osal_msg_count::?relay`,0203H
        PUBLIC `??osal_msg_deallocate::?relay`
        FUNCTION `??osal_msg_deallocate::?relay`,0203H
        PUBLIC `??osal_msg_dequeue::?relay`
        FUNCTION `??osal_msg_dequeue::?relay`,0203H
        PUBLIC `??osal_msg_enqueue::?relay`
        FUNCTION `??osal_msg_enqueue::?relay`,0203H
        PUBLIC `??osal_msg_enqueue_max::?relay`
        FUNCTION `??osal_msg_enqueue_max::?relay`,0203H
        FUNCTION `??osal_msg_enqueue_push::?relay`,0203H
        PUBLIC `??osal_msg_extract::?relay`
        FUNCTION `??osal_msg_extract::?relay`,0203H
        PUBLIC `??osal_msg_find::?relay`
        FUNCTION `??osal_msg_find::?relay`,0203H
        PUBLIC `??osal_msg_push::?relay`
        FUNCTION `??osal_msg_push::?relay`,0203H
        PUBLIC `??osal_msg_push_front::?relay`
        FUNCTION `??osal_msg_push_front::?relay`,0203H
        PUBLIC `??osal_msg_receive::?relay`
        FUNCTION `??osal_msg_receive::?relay`,0203H
        PUBLIC `??osal_msg_send::?relay`
        FUNCTION `??osal_msg_send::?relay`,0203H
        PUBLIC `??osal_rand::?relay`
        FUNCTION `??osal_rand::?relay`,0203H
        PUBLIC `??osal_revmemcpy::?relay`
        FUNCTION `??osal_revmemcpy::?relay`,0203H
        PUBLIC `??osal_run_system::?relay`
        FUNCTION `??osal_run_system::?relay`,0203H
        PUBLIC `??osal_self::?relay`
        FUNCTION `??osal_self::?relay`,0203H
        PUBLIC `??osal_set_event::?relay`
        FUNCTION `??osal_set_event::?relay`,0203H
        PUBLIC `??osal_start_system::?relay`
        FUNCTION `??osal_start_system::?relay`,0203H
        PUBLIC `??osal_strlen::?relay`
        FUNCTION `??osal_strlen::?relay`,0203H
        PUBWEAK WDCTL
        PUBWEAK _A_IEN0
        PUBWEAK __Constant_2710
        PUBWEAK __Constant_5f5e100
        PUBLIC _ltoa
        FUNCTION _ltoa,0a1203H
        ARGFRAME XSTACK, 2, STACK
        LOCFRAME ISTACK, 1, STACK
        LOCFRAME XSTACK, 57, STACK
        PUBLIC osal_buffer_uint24
        FUNCTION osal_buffer_uint24,080203H
        ARGFRAME XSTACK, 4, STACK
        LOCFRAME ISTACK, 1, STACK
        LOCFRAME XSTACK, 16, STACK
        PUBLIC osal_buffer_uint32
        FUNCTION osal_buffer_uint32,080203H
        ARGFRAME XSTACK, 4, STACK
        LOCFRAME ISTACK, 1, STACK
        LOCFRAME XSTACK, 16, STACK
        PUBLIC osal_build_uint16
        FUNCTION osal_build_uint16,0203H
        ARGFRAME XSTACK, 0, STACK
        LOCFRAME ISTACK, 2, STACK
        PUBLIC osal_build_uint32
        FUNCTION osal_build_uint32,080203H
        ARGFRAME XSTACK, 0, STACK
        LOCFRAME XSTACK, 16, STACK
        PUBLIC osal_clear_event
        FUNCTION osal_clear_event,0203H
        ARGFRAME XSTACK, 14, STACK
        ARGFRAME IOVERLAY, 0, STATIC
        ARGFRAME DOVERLAY, 0, STATIC
        LOCFRAME XSTACK, 9, STACK
        PUBLIC osal_init_system
        FUNCTION osal_init_system,021203H
        ARGFRAME XSTACK, 0, STACK
        LOCFRAME ISTACK, 2, STACK
        PUBLIC osal_int_disable
        FUNCTION osal_int_disable,0203H
        ARGFRAME XSTACK, 0, STACK
        PUBLIC osal_int_enable
        FUNCTION osal_int_enable,0203H
        ARGFRAME XSTACK, 0, STACK
        PUBLIC osal_isbufset
        FUNCTION osal_isbufset,0203H
        ARGFRAME XSTACK, 0, STACK
        LOCFRAME XSTACK, 9, STACK
        PUBLIC osal_isr_register
        FUNCTION osal_isr_register,0203H
        ARGFRAME XSTACK, 0, STACK
        PUBLIC osal_memcmp
        FUNCTION osal_memcmp,080203H
        ARGFRAME XSTACK, 3, STACK
        LOCFRAME XSTACK, 19, STACK
        PUBLIC osal_memcpy
        FUNCTION osal_memcpy,0203H
        ARGFRAME XSTACK, 18, STACK
        ARGFRAME IOVERLAY, 0, STATIC
        ARGFRAME DOVERLAY, 0, STATIC
        LOCFRAME ISTACK, 1, STACK
        LOCFRAME XSTACK, 9, STACK
        PUBLIC osal_memdup
        FUNCTION osal_memdup,0a1203H
        ARGFRAME XSTACK, 0, STACK
        LOCFRAME XSTACK, 18, STACK
        PUBLIC osal_memset
        FUNCTION osal_memset,0a1203H
        ARGFRAME XSTACK, 0, STACK
        LOCFRAME XSTACK, 12, STACK
        PUBLIC osal_msg_allocate
        FUNCTION osal_msg_allocate,0a1203H
        ARGFRAME XSTACK, 0, STACK
        LOCFRAME XSTACK, 10, STACK
        PUBLIC osal_msg_count
        FUNCTION osal_msg_count,0203H
        ARGFRAME XSTACK, 0, STACK
        LOCFRAME XSTACK, 9, STACK
        PUBLIC osal_msg_deallocate
        FUNCTION osal_msg_deallocate,021203H
        ARGFRAME XSTACK, 9, STACK
        ARGFRAME IOVERLAY, 0, STATIC
        ARGFRAME DOVERLAY, 0, STATIC
        LOCFRAME ISTACK, 2, STACK
        PUBLIC osal_msg_dequeue
        FUNCTION osal_msg_dequeue,080203H
        ARGFRAME XSTACK, 0, STACK
        LOCFRAME XSTACK, 10, STACK
        PUBLIC osal_msg_enqueue
        FUNCTION osal_msg_enqueue,0203H
        ARGFRAME XSTACK, 9, STACK
        ARGFRAME IOVERLAY, 0, STATIC
        ARGFRAME DOVERLAY, 0, STATIC
        LOCFRAME XSTACK, 9, STACK
        PUBLIC osal_msg_enqueue_max
        FUNCTION osal_msg_enqueue_max,080203H
        ARGFRAME XSTACK, 0, STACK
        LOCFRAME XSTACK, 10, STACK
        FUNCTION osal_msg_enqueue_push,021203H
        ARGFRAME XSTACK, 9, STACK
        ARGFRAME IOVERLAY, 0, STATIC
        ARGFRAME DOVERLAY, 0, STATIC
        LOCFRAME ISTACK, 1, STACK
        LOCFRAME XSTACK, 9, STACK
        PUBLIC osal_msg_extract
        FUNCTION osal_msg_extract,080203H
        ARGFRAME XSTACK, 16, STACK
        ARGFRAME IOVERLAY, 0, STATIC
        ARGFRAME DOVERLAY, 0, STATIC
        LOCFRAME XSTACK, 11, STACK
        PUBLIC osal_msg_find
        FUNCTION osal_msg_find,0203H
        ARGFRAME XSTACK, 0, STACK
        LOCFRAME ISTACK, 2, STACK
        PUBLIC osal_msg_push
        FUNCTION osal_msg_push,0203H
        ARGFRAME XSTACK, 9, STACK
        ARGFRAME IOVERLAY, 0, STATIC
        ARGFRAME DOVERLAY, 0, STATIC
        LOCFRAME XSTACK, 9, STACK
        PUBLIC osal_msg_push_front
        FUNCTION osal_msg_push_front,021203H
        ARGFRAME XSTACK, 0, STACK
        LOCFRAME XSTACK, 9, STACK
        PUBLIC osal_msg_receive
        FUNCTION osal_msg_receive,0a1203H
        ARGFRAME XSTACK, 0, STACK
        LOCFRAME XSTACK, 16, STACK
        PUBLIC osal_msg_send
        FUNCTION osal_msg_send,021203H
        ARGFRAME XSTACK, 0, STACK
        LOCFRAME XSTACK, 9, STACK
        PUBLIC osal_qHead
        PUBLIC osal_rand
        FUNCTION osal_rand,021203H
        ARGFRAME XSTACK, 0, STACK
        LOCFRAME ISTACK, 2, STACK
        PUBLIC osal_revmemcpy
        FUNCTION osal_revmemcpy,0203H
        ARGFRAME XSTACK, 3, STACK
        LOCFRAME ISTACK, 1, STACK
        LOCFRAME XSTACK, 9, STACK
        PUBLIC osal_run_system
        FUNCTION osal_run_system,0a1203H
        ARGFRAME XSTACK, 0, STACK
        ARGFRAME IOVERLAY, 0, STATIC
        ARGFRAME DOVERLAY, 0, STATIC
        LOCFRAME XSTACK, 10, STACK
        PUBLIC osal_self
        FUNCTION osal_self,0203H
        ARGFRAME XSTACK, 0, STACK
        LOCFRAME ISTACK, 2, STACK
        PUBLIC osal_set_event
        FUNCTION osal_set_event,0203H
        ARGFRAME XSTACK, 14, STACK
        ARGFRAME IOVERLAY, 0, STATIC
        ARGFRAME DOVERLAY, 0, STATIC
        LOCFRAME XSTACK, 9, STACK
        PUBLIC osal_start_system
        FUNCTION osal_start_system,021203H
        ARGFRAME XSTACK, 0, STACK
        LOCFRAME ISTACK, 2, STACK
        PUBLIC osal_strlen
        FUNCTION osal_strlen,021203H
        ARGFRAME XSTACK, 0, STACK
        LOCFRAME ISTACK, 2, STACK
        
          CFI Names cfiNames0
          CFI StackFrame CFA_SP SP IDATA
          CFI StackFrame CFA_PSP16 PSP16 XDATA
          CFI StackFrame CFA_XSP16 XSP16 XDATA
          CFI StaticOverlayFrame CFA_IOVERLAY IOVERLAY
          CFI StaticOverlayFrame CFA_DOVERLAY DOVERLAY
          CFI Resource `PSW.CY`:1, `B.BR0`:1, `B.BR1`:1, `B.BR2`:1, `B.BR3`:1
          CFI Resource `B.BR4`:1, `B.BR5`:1, `B.BR6`:1, `B.BR7`:1, `VB.BR8`:1
          CFI Resource `VB.BR9`:1, `VB.BR10`:1, `VB.BR11`:1, `VB.BR12`:1
          CFI Resource `VB.BR13`:1, `VB.BR14`:1, `VB.BR15`:1, VB:8, B:8, A:8
          CFI Resource PSW:8, DPL0:8, DPH0:8, R0:8, R1:8, R2:8, R3:8, R4:8, R5:8
          CFI Resource R6:8, R7:8, V0:8, V1:8, V2:8, V3:8, V4:8, V5:8, V6:8, V7:8
          CFI Resource V8:8, V9:8, V10:8, V11:8, V12:8, V13:8, V14:8, V15:8, SP:8
          CFI Resource PSPH:8, PSPL:8, PSP16:16, XSPH:8, XSPL:8, XSP16:16
          CFI VirtualResource ?RET:24
          CFI Resource ?BRET_EXT:8
          CFI VirtualResource ?RET_HIGH:8, ?RET_LOW:8
          CFI ResourceParts PSP16 PSPH, PSPL
          CFI ResourceParts XSP16 XSPH, XSPL
          CFI ResourceParts ?RET ?BRET_EXT, ?RET_HIGH, ?RET_LOW
          CFI EndNames cfiNames0
        
          CFI Common cfiCommon0 Using cfiNames0
          CFI CodeAlign 1
          CFI DataAlign -1
          CFI ReturnAddress ?RET CODE
          CFI CFA_DOVERLAY Used
          CFI CFA_IOVERLAY Used
          CFI CFA_SP SP+-3
          CFI CFA_PSP16 PSP16+0
          CFI CFA_XSP16 XSP16+0
          CFI `PSW.CY` SameValue
          CFI `B.BR0` SameValue
          CFI `B.BR1` SameValue
          CFI `B.BR2` SameValue
          CFI `B.BR3` SameValue
          CFI `B.BR4` SameValue
          CFI `B.BR5` SameValue
          CFI `B.BR6` SameValue
          CFI `B.BR7` SameValue
          CFI `VB.BR8` SameValue
          CFI `VB.BR9` SameValue
          CFI `VB.BR10` SameValue
          CFI `VB.BR11` SameValue
          CFI `VB.BR12` SameValue
          CFI `VB.BR13` SameValue
          CFI `VB.BR14` SameValue
          CFI `VB.BR15` SameValue
          CFI VB SameValue
          CFI B Undefined
          CFI A Undefined
          CFI PSW SameValue
          CFI DPL0 SameValue
          CFI DPH0 SameValue
          CFI R0 Undefined
          CFI R1 Undefined
          CFI R2 Undefined
          CFI R3 Undefined
          CFI R4 Undefined
          CFI R5 Undefined
          CFI R6 SameValue
          CFI R7 SameValue
          CFI V0 SameValue
          CFI V1 SameValue
          CFI V2 SameValue
          CFI V3 SameValue
          CFI V4 SameValue
          CFI V5 SameValue
          CFI V6 SameValue
          CFI V7 SameValue
          CFI V8 SameValue
          CFI V9 SameValue
          CFI V10 SameValue
          CFI V11 SameValue
          CFI V12 SameValue
          CFI V13 SameValue
          CFI V14 SameValue
          CFI V15 SameValue
          CFI PSPH Undefined
          CFI PSPL Undefined
          CFI XSPH Undefined
          CFI XSPL Undefined
          CFI ?RET Concat
          CFI ?BRET_EXT Frame(CFA_SP, 3)
          CFI ?RET_HIGH Frame(CFA_SP, 2)
          CFI ?RET_LOW Frame(CFA_SP, 1)
          CFI EndCommon cfiCommon0
        
        
          CFI Common cfiCommon1 Using cfiNames0
          CFI CodeAlign 1
          CFI DataAlign -1
          CFI ReturnAddress ?RET CODE
          CFI CFA_DOVERLAY Used
          CFI CFA_IOVERLAY Used
          CFI CFA_SP SP+-2
          CFI CFA_PSP16 PSP16+0
          CFI CFA_XSP16 XSP16+0
          CFI `PSW.CY` SameValue
          CFI `B.BR0` SameValue
          CFI `B.BR1` SameValue
          CFI `B.BR2` SameValue
          CFI `B.BR3` SameValue
          CFI `B.BR4` SameValue
          CFI `B.BR5` SameValue
          CFI `B.BR6` SameValue
          CFI `B.BR7` SameValue
          CFI `VB.BR8` SameValue
          CFI `VB.BR9` SameValue
          CFI `VB.BR10` SameValue
          CFI `VB.BR11` SameValue
          CFI `VB.BR12` SameValue
          CFI `VB.BR13` SameValue
          CFI `VB.BR14` SameValue
          CFI `VB.BR15` SameValue
          CFI VB SameValue
          CFI B SameValue
          CFI A SameValue
          CFI PSW SameValue
          CFI DPL0 SameValue
          CFI DPH0 SameValue
          CFI R0 SameValue
          CFI R1 SameValue
          CFI R2 SameValue
          CFI R3 SameValue
          CFI R4 SameValue
          CFI R5 SameValue
          CFI R6 SameValue
          CFI R7 SameValue
          CFI V0 SameValue
          CFI V1 SameValue
          CFI V2 SameValue
          CFI V3 SameValue
          CFI V4 SameValue
          CFI V5 SameValue
          CFI V6 SameValue
          CFI V7 SameValue
          CFI V8 SameValue
          CFI V9 SameValue
          CFI V10 SameValue
          CFI V11 SameValue
          CFI V12 SameValue
          CFI V13 SameValue
          CFI V14 SameValue
          CFI V15 SameValue
          CFI PSPH Undefined
          CFI PSPL Undefined
          CFI XSPH Undefined
          CFI XSPL Undefined
          CFI ?RET Concat
          CFI ?BRET_EXT SameValue
          CFI ?RET_HIGH Frame(CFA_SP, 2)
          CFI ?RET_LOW Frame(CFA_SP, 1)
          CFI EndCommon cfiCommon1
        
Hal_ProcessPoll     SYMBOL "Hal_ProcessPoll"
`??Hal_ProcessPoll::?relay` SYMBOL "?relay", Hal_ProcessPoll
Onboard_rand        SYMBOL "Onboard_rand"
`??Onboard_rand::?relay` SYMBOL "?relay", Onboard_rand
_itoa               SYMBOL "_itoa"
`??_itoa::?relay`   SYMBOL "?relay", _itoa
memset              SYMBOL "memset"
`??memset::?relay`  SYMBOL "?relay", memset
osalInitTasks       SYMBOL "osalInitTasks"
`??osalInitTasks::?relay` SYMBOL "?relay", osalInitTasks
osalTimeUpdate      SYMBOL "osalTimeUpdate"
`??osalTimeUpdate::?relay` SYMBOL "?relay", osalTimeUpdate
osalTimerInit       SYMBOL "osalTimerInit"
`??osalTimerInit::?relay` SYMBOL "?relay", osalTimerInit
osal_mem_alloc      SYMBOL "osal_mem_alloc"
`??osal_mem_alloc::?relay` SYMBOL "?relay", osal_mem_alloc
osal_mem_free       SYMBOL "osal_mem_free"
`??osal_mem_free::?relay` SYMBOL "?relay", osal_mem_free
osal_mem_init       SYMBOL "osal_mem_init"
`??osal_mem_init::?relay` SYMBOL "?relay", osal_mem_init
osal_mem_kick       SYMBOL "osal_mem_kick"
`??osal_mem_kick::?relay` SYMBOL "?relay", osal_mem_kick
osal_pwrmgr_init    SYMBOL "osal_pwrmgr_init"
`??osal_pwrmgr_init::?relay` SYMBOL "?relay", osal_pwrmgr_init
osal_pwrmgr_powerconserve SYMBOL "osal_pwrmgr_powerconserve"
`??osal_pwrmgr_powerconserve::?relay` SYMBOL "?relay", osal_pwrmgr_powerconserve
strcat              SYMBOL "strcat"
`??strcat::?relay`  SYMBOL "?relay", strcat
strcpy              SYMBOL "strcpy"
`??strcpy::?relay`  SYMBOL "?relay", strcpy
strlen              SYMBOL "strlen"
`??strlen::?relay`  SYMBOL "?relay", strlen
_ltoa               SYMBOL "_ltoa"
`??_ltoa::?relay`   SYMBOL "?relay", _ltoa
osal_buffer_uint24  SYMBOL "osal_buffer_uint24"
`??osal_buffer_uint24::?relay` SYMBOL "?relay", osal_buffer_uint24
osal_buffer_uint32  SYMBOL "osal_buffer_uint32"
`??osal_buffer_uint32::?relay` SYMBOL "?relay", osal_buffer_uint32
osal_build_uint16   SYMBOL "osal_build_uint16"
`??osal_build_uint16::?relay` SYMBOL "?relay", osal_build_uint16
osal_build_uint32   SYMBOL "osal_build_uint32"
`??osal_build_uint32::?relay` SYMBOL "?relay", osal_build_uint32
osal_clear_event    SYMBOL "osal_clear_event"
`??osal_clear_event::?relay` SYMBOL "?relay", osal_clear_event
osal_init_system    SYMBOL "osal_init_system"
`??osal_init_system::?relay` SYMBOL "?relay", osal_init_system
osal_int_disable    SYMBOL "osal_int_disable"
`??osal_int_disable::?relay` SYMBOL "?relay", osal_int_disable
osal_int_enable     SYMBOL "osal_int_enable"
`??osal_int_enable::?relay` SYMBOL "?relay", osal_int_enable
osal_isbufset       SYMBOL "osal_isbufset"
`??osal_isbufset::?relay` SYMBOL "?relay", osal_isbufset
osal_isr_register   SYMBOL "osal_isr_register"
`??osal_isr_register::?relay` SYMBOL "?relay", osal_isr_register
osal_memcmp         SYMBOL "osal_memcmp"
`??osal_memcmp::?relay` SYMBOL "?relay", osal_memcmp
osal_memcpy         SYMBOL "osal_memcpy"
`??osal_memcpy::?relay` SYMBOL "?relay", osal_memcpy
osal_memdup         SYMBOL "osal_memdup"
`??osal_memdup::?relay` SYMBOL "?relay", osal_memdup
osal_memset         SYMBOL "osal_memset"
`??osal_memset::?relay` SYMBOL "?relay", osal_memset
osal_msg_allocate   SYMBOL "osal_msg_allocate"
`??osal_msg_allocate::?relay` SYMBOL "?relay", osal_msg_allocate
osal_msg_count      SYMBOL "osal_msg_count"
`??osal_msg_count::?relay` SYMBOL "?relay", osal_msg_count
osal_msg_deallocate SYMBOL "osal_msg_deallocate"
`??osal_msg_deallocate::?relay` SYMBOL "?relay", osal_msg_deallocate
osal_msg_dequeue    SYMBOL "osal_msg_dequeue"
`??osal_msg_dequeue::?relay` SYMBOL "?relay", osal_msg_dequeue
osal_msg_enqueue    SYMBOL "osal_msg_enqueue"
`??osal_msg_enqueue::?relay` SYMBOL "?relay", osal_msg_enqueue
osal_msg_enqueue_max SYMBOL "osal_msg_enqueue_max"
`??osal_msg_enqueue_max::?relay` SYMBOL "?relay", osal_msg_enqueue_max
osal_msg_extract    SYMBOL "osal_msg_extract"
`??osal_msg_extract::?relay` SYMBOL "?relay", osal_msg_extract
osal_msg_find       SYMBOL "osal_msg_find"
`??osal_msg_find::?relay` SYMBOL "?relay", osal_msg_find
osal_msg_push       SYMBOL "osal_msg_push"
`??osal_msg_push::?relay` SYMBOL "?relay", osal_msg_push
osal_msg_push_front SYMBOL "osal_msg_push_front"
`??osal_msg_push_front::?relay` SYMBOL "?relay", osal_msg_push_front
osal_msg_receive    SYMBOL "osal_msg_receive"
`??osal_msg_receive::?relay` SYMBOL "?relay", osal_msg_receive
osal_msg_send       SYMBOL "osal_msg_send"
`??osal_msg_send::?relay` SYMBOL "?relay", osal_msg_send
osal_rand           SYMBOL "osal_rand"
`??osal_rand::?relay` SYMBOL "?relay", osal_rand
osal_revmemcpy      SYMBOL "osal_revmemcpy"
`??osal_revmemcpy::?relay` SYMBOL "?relay", osal_revmemcpy
osal_run_system     SYMBOL "osal_run_system"
`??osal_run_system::?relay` SYMBOL "?relay", osal_run_system
osal_self           SYMBOL "osal_self"
`??osal_self::?relay` SYMBOL "?relay", osal_self
osal_set_event      SYMBOL "osal_set_event"
`??osal_set_event::?relay` SYMBOL "?relay", osal_set_event
osal_start_system   SYMBOL "osal_start_system"
`??osal_start_system::?relay` SYMBOL "?relay", osal_start_system
osal_strlen         SYMBOL "osal_strlen"
`??osal_strlen::?relay` SYMBOL "?relay", osal_strlen

        EXTERN `??Hal_ProcessPoll::?relay`
        FUNCTION `??Hal_ProcessPoll::?relay`,00H
        EXTERN `??Onboard_rand::?relay`
        FUNCTION `??Onboard_rand::?relay`,00H
        EXTERN `??_itoa::?relay`
        FUNCTION `??_itoa::?relay`,00H
        EXTERN `??memset::?relay`
        FUNCTION `??memset::?relay`,00H
        EXTERN `??osalInitTasks::?relay`
        FUNCTION `??osalInitTasks::?relay`,00H
        EXTERN `??osalTimeUpdate::?relay`
        FUNCTION `??osalTimeUpdate::?relay`,00H
        EXTERN `??osalTimerInit::?relay`
        FUNCTION `??osalTimerInit::?relay`,00H
        EXTERN `??osal_mem_alloc::?relay`
        FUNCTION `??osal_mem_alloc::?relay`,00H
        EXTERN `??osal_mem_free::?relay`
        FUNCTION `??osal_mem_free::?relay`,00H
        EXTERN `??osal_mem_init::?relay`
        FUNCTION `??osal_mem_init::?relay`,00H
        EXTERN `??osal_mem_kick::?relay`
        FUNCTION `??osal_mem_kick::?relay`,00H
        EXTERN `??osal_pwrmgr_init::?relay`
        FUNCTION `??osal_pwrmgr_init::?relay`,00H
        EXTERN `??osal_pwrmgr_powerconserve::?relay`
        FUNCTION `??osal_pwrmgr_powerconserve::?relay`,00H
        EXTERN `??strcat::?relay`
        FUNCTION `??strcat::?relay`,00H
        EXTERN `??strcpy::?relay`
        FUNCTION `??strcpy::?relay`,00H
        EXTERN `??strlen::?relay`
        FUNCTION `??strlen::?relay`,00H
        EXTERN Hal_ProcessPoll
        FUNCTION Hal_ProcessPoll,0202H
        ARGFRAME ISTACK, 0, STACK
        ARGFRAME PSTACK, 0, STACK
        ARGFRAME XSTACK, 10, STACK
        ARGFRAME IOVERLAY, 0, STATIC
        ARGFRAME DOVERLAY, 0, STATIC
        EXTERN Onboard_rand
        FUNCTION Onboard_rand,0202H
        ARGFRAME ISTACK, 2, STACK
        ARGFRAME PSTACK, 0, STACK
        ARGFRAME XSTACK, 0, STACK
        ARGFRAME IOVERLAY, 0, STATIC
        ARGFRAME DOVERLAY, 0, STATIC
        EXTERN _itoa
        FUNCTION _itoa,0202H
        ARGFRAME ISTACK, 0, STACK
        ARGFRAME PSTACK, 0, STACK
        ARGFRAME XSTACK, 57, STACK
        ARGFRAME IOVERLAY, 0, STATIC
        ARGFRAME DOVERLAY, 0, STATIC
        EXTERN memset
        FUNCTION memset,010202H
        ARGFRAME ISTACK, 0, STACK
        ARGFRAME PSTACK, 0, STACK
        ARGFRAME XSTACK, 12, STACK
        ARGFRAME IOVERLAY, 0, STATIC
        ARGFRAME DOVERLAY, 0, STATIC
        EXTERN osalInitTasks
        FUNCTION osalInitTasks,0202H
        ARGFRAME ISTACK, 2, STACK
        ARGFRAME PSTACK, 0, STACK
        ARGFRAME XSTACK, 0, STACK
        ARGFRAME IOVERLAY, 0, STATIC
        ARGFRAME DOVERLAY, 0, STATIC
        EXTERN osalTimeUpdate
        FUNCTION osalTimeUpdate,0202H
        ARGFRAME ISTACK, 0, STACK
        ARGFRAME PSTACK, 0, STACK
        ARGFRAME XSTACK, 10, STACK
        ARGFRAME IOVERLAY, 0, STATIC
        ARGFRAME DOVERLAY, 0, STATIC
        EXTERN osalTimerInit
        FUNCTION osalTimerInit,0202H
        ARGFRAME ISTACK, 2, STACK
        ARGFRAME PSTACK, 0, STACK
        ARGFRAME XSTACK, 0, STACK
        ARGFRAME IOVERLAY, 0, STATIC
        ARGFRAME DOVERLAY, 0, STATIC
        EXTERN osal_mem_alloc
        FUNCTION osal_mem_alloc,0202H
        ARGFRAME ISTACK, 0, STACK
        ARGFRAME PSTACK, 0, STACK
        ARGFRAME XSTACK, 15, STACK
        ARGFRAME IOVERLAY, 0, STATIC
        ARGFRAME DOVERLAY, 0, STATIC
        EXTERN osal_mem_free
        FUNCTION osal_mem_free,0202H
        ARGFRAME ISTACK, 2, STACK
        ARGFRAME PSTACK, 0, STACK
        ARGFRAME XSTACK, 0, STACK
        ARGFRAME IOVERLAY, 0, STATIC
        ARGFRAME DOVERLAY, 0, STATIC
        EXTERN osal_mem_init
        FUNCTION osal_mem_init,0202H
        ARGFRAME ISTACK, 2, STACK
        ARGFRAME PSTACK, 0, STACK
        ARGFRAME XSTACK, 0, STACK
        ARGFRAME IOVERLAY, 0, STATIC
        ARGFRAME DOVERLAY, 0, STATIC
        EXTERN osal_mem_kick
        FUNCTION osal_mem_kick,0202H
        ARGFRAME ISTACK, 2, STACK
        ARGFRAME PSTACK, 0, STACK
        ARGFRAME XSTACK, 0, STACK
        ARGFRAME IOVERLAY, 0, STATIC
        ARGFRAME DOVERLAY, 0, STATIC
        EXTERN osal_pwrmgr_init
        FUNCTION osal_pwrmgr_init,0202H
        ARGFRAME ISTACK, 2, STACK
        ARGFRAME PSTACK, 0, STACK
        ARGFRAME XSTACK, 0, STACK
        ARGFRAME IOVERLAY, 0, STATIC
        ARGFRAME DOVERLAY, 0, STATIC
        EXTERN osal_pwrmgr_powerconserve
        FUNCTION osal_pwrmgr_powerconserve,0202H
        ARGFRAME ISTACK, 0, STACK
        ARGFRAME PSTACK, 0, STACK
        ARGFRAME XSTACK, 10, STACK
        ARGFRAME IOVERLAY, 0, STATIC
        ARGFRAME DOVERLAY, 0, STATIC
        EXTERN strcat
        FUNCTION strcat,010202H
        ARGFRAME ISTACK, 0, STACK
        ARGFRAME PSTACK, 0, STACK
        ARGFRAME XSTACK, 57, STACK
        ARGFRAME IOVERLAY, 0, STATIC
        ARGFRAME DOVERLAY, 0, STATIC
        EXTERN strcpy
        FUNCTION strcpy,010202H
        ARGFRAME ISTACK, 0, STACK
        ARGFRAME PSTACK, 0, STACK
        ARGFRAME XSTACK, 57, STACK
        ARGFRAME IOVERLAY, 0, STATIC
        ARGFRAME DOVERLAY, 0, STATIC
        EXTERN strlen
        FUNCTION strlen,010202H
        ARGFRAME ISTACK, 2, STACK
        ARGFRAME PSTACK, 0, STACK
        ARGFRAME XSTACK, 57, STACK
        ARGFRAME IOVERLAY, 0, STATIC
        ARGFRAME DOVERLAY, 0, STATIC
        EXTERN tasksArr
        EXTERN tasksCnt
        EXTERN tasksEvents

// D:\A_proj\A_Cproj\Zigbee\ZigBee-DoorLock-2021.09.27\Components\osal\common\OSAL.c
//    1 /**************************************************************************************************
//    2   Filename:       OSAL.c
//    3   Revised:        $Date: 2014-11-04 15:36:27 -0800 (Tue, 04 Nov 2014) $
//    4   Revision:       $Revision: 40989 $
//    5 
//    6   Description:    This API allows the software components in the Z-stack to be written
//    7                   independently of the specifics of the operating system, kernel or tasking
//    8                   environment (including control loops or connect-to-interrupt systems).
//    9 
//   10 
//   11   Copyright 2004-2014 Texas Instruments Incorporated. All rights reserved.
//   12 
//   13   IMPORTANT: Your use of this Software is limited to those specific rights
//   14   granted under the terms of a software license agreement between the user
//   15   who downloaded the software, his/her employer (which must be your employer)
//   16   and Texas Instruments Incorporated (the "License"). You may not use this
//   17   Software unless you agree to abide by the terms of the License. The License
//   18   limits your use, and you acknowledge, that the Software may not be modified,
//   19   copied or distributed unless embedded on a Texas Instruments microcontroller
//   20   or used solely and exclusively in conjunction with a Texas Instruments radio
//   21   frequency transceiver, which is integrated into your product. Other than for
//   22   the foregoing purpose, you may not use, reproduce, copy, prepare derivative
//   23   works of, modify, distribute, perform, display or sell this Software and/or
//   24   its documentation for any purpose.
//   25 
//   26   YOU FURTHER ACKNOWLEDGE AND AGREE THAT THE SOFTWARE AND DOCUMENTATION ARE
//   27   PROVIDED “AS IS” WITHOUT WARRANTY OF ANY KIND, EITHER EXPRESS OR IMPLIED,
//   28   INCLUDING WITHOUT LIMITATION, ANY WARRANTY OF MERCHANTABILITY, TITLE,
//   29   NON-INFRINGEMENT AND FITNESS FOR A PARTICULAR PURPOSE. IN NO EVENT SHALL
//   30   TEXAS INSTRUMENTS OR ITS LICENSORS BE LIABLE OR OBLIGATED UNDER CONTRACT,
//   31   NEGLIGENCE, STRICT LIABILITY, CONTRIBUTION, BREACH OF WARRANTY, OR OTHER
//   32   LEGAL EQUITABLE THEORY ANY DIRECT OR INDIRECT DAMAGES OR EXPENSES
//   33   INCLUDING BUT NOT LIMITED TO ANY INCIDENTAL, SPECIAL, INDIRECT, PUNITIVE
//   34   OR CONSEQUENTIAL DAMAGES, LOST PROFITS OR LOST DATA, COST OF PROCUREMENT
//   35   OF SUBSTITUTE GOODS, TECHNOLOGY, SERVICES, OR ANY CLAIMS BY THIRD PARTIES
//   36   (INCLUDING BUT NOT LIMITED TO ANY DEFENSE THEREOF), OR OTHER SIMILAR COSTS.
//   37 
//   38   Should you have any questions regarding your right to use this Software,
//   39   contact Texas Instruments Incorporated at www.TI.com.
//   40 **************************************************************************************************/
//   41 
//   42 /*********************************************************************
//   43  * INCLUDES
//   44  */
//   45 
//   46 #include <string.h>
//   47 
//   48 #include "comdef.h"
//   49 #include "hal_board.h"

        ASEGN SFR_AN:DATA:NOROOT,0a8H
// union <unnamed> volatile __sfr _A_IEN0
_A_IEN0:
        DATA8
        DS 1

        ASEGN SFR_AN:DATA:NOROOT,0c9H
// unsigned char volatile __sfr WDCTL
WDCTL:
        DATA8
        DS 1
//   50 #include "OSAL.h"
//   51 #include "OSAL_Tasks.h"
//   52 #include "OSAL_Memory.h"
//   53 #include "OSAL_PwrMgr.h"
//   54 #include "OSAL_Clock.h"
//   55 
//   56 #include "OnBoard.h"
//   57 
//   58 /* HAL */
//   59 #include "hal_drivers.h"
//   60 
//   61 #ifdef IAR_ARMCM3_LM
//   62   #include "FreeRTOSConfig.h"
//   63   #include "osal_task.h"
//   64 #endif
//   65 
//   66 #ifdef USE_ICALL
//   67   #include <ICall.h>
//   68 #endif /* USE_ICALL */
//   69 
//   70 #include "AT_doorlock.h"
//   71 
//   72 /*********************************************************************
//   73  * MACROS
//   74  */
//   75 
//   76 /*********************************************************************
//   77  * CONSTANTS
//   78  */
//   79 #ifdef USE_ICALL
//   80 // A bit mask to use to indicate a proxy OSAL task ID.
//   81 #define OSAL_PROXY_ID_FLAG       0x80
//   82 #endif // USE_ICALL
//   83 
//   84 /*********************************************************************
//   85  * TYPEDEFS
//   86  */
//   87 
//   88 /*********************************************************************
//   89  * GLOBAL VARIABLES
//   90  */
//   91 
//   92 // Message Pool Definitions

        RSEG XDATA_Z:XDATA:NOROOT(0)
        DATA16
//   93 osal_msg_q_t osal_qHead;
osal_qHead:
        DS 2
        REQUIRE __INIT_XDATA_Z
//   94 
//   95 #ifdef USE_ICALL
//   96 // OSAL event loop hook function pointer 
//   97 void (*osal_eventloop_hook)(void) = NULL;
//   98 #endif /* USE_ICALL */
//   99 
//  100 /*********************************************************************
//  101  * EXTERNAL VARIABLES
//  102  */
//  103 
//  104 /*********************************************************************
//  105  * EXTERNAL FUNCTIONS
//  106  */
//  107 
//  108 /*********************************************************************
//  109  * LOCAL VARIABLES
//  110  */
//  111 
//  112 // Index of active task

        RSEG XDATA_I:XDATA:NOROOT(0)
//  113 static uint8 activeTaskID = TASK_NO_TASK;
activeTaskID:
        DATA8
        DS 1
        REQUIRE `?<Initializer for activeTaskID>`
        REQUIRE __INIT_XDATA_I
//  114 
//  115 #ifdef USE_ICALL
//  116 // Maximum number of proxy tasks
//  117 #ifndef OSAL_MAX_NUM_PROXY_TASKS
//  118 #define OSAL_MAX_NUM_PROXY_TASKS 2
//  119 #endif // OSAL_MAX_NUM_PROXY_TASKS
//  120 
//  121 // ICall entity ID value used to indicate invalid value
//  122 #define OSAL_INVALID_DISPATCH_ID 0xffu
//  123 
//  124 // Semaphore associated with OSAL RTOS thread receive queue
//  125 ICall_Semaphore osal_semaphore;
//  126 
//  127 // Entity ID that OSAL RTOS thread has registered with
//  128 ICall_EntityID osal_entity;
//  129 
//  130 // Last read tick count value reflected into the OSAL timer
//  131 uint_least32_t osal_last_timestamp;
//  132 
//  133 // RTOS tick period in microseconds
//  134 uint_least32_t osal_tickperiod;
//  135 
//  136 // Maximum timeout value in milliseconds that can be used with an RTOS timer
//  137 uint_least32_t osal_max_msecs;
//  138 
//  139 // Timer ID for RTOS timer as backend engine for OSAL timer
//  140 static ICall_TimerID osal_timerid_msec_timer;
//  141 
//  142 // Timer callback sequence tracking counter to handle race condition
//  143 static unsigned osal_msec_timer_seq = 0;
//  144 
//  145 // proxy task ID map
//  146 static uint8 osal_proxy_tasks[OSAL_MAX_NUM_PROXY_TASKS];
//  147 
//  148 // service dispatcher entity IDs corresponding to OSAL tasks
//  149 static uint8 *osal_dispatch_entities;
//  150 
//  151 static uint8 osal_notask_entity;
//  152 
//  153 #endif // USE_ICALL
//  154 
//  155 /*********************************************************************
//  156  * LOCAL FUNCTION PROTOTYPES
//  157  */
//  158 
//  159 static uint8 osal_msg_enqueue_push( uint8 destination_task, uint8 *msg_ptr, uint8 urgent );
//  160 
//  161 #ifdef USE_ICALL
//  162 static uint8 osal_alien2proxy(ICall_EntityID entity);
//  163 static ICall_EntityID osal_proxy2alien(uint8 proxyid);
//  164 static uint8 osal_dispatch2id(ICall_EntityID entity);
//  165 static void osal_msec_timer_cback(void *arg);
//  166 #endif // USE_ICALL
//  167 
//  168 /*********************************************************************
//  169  * HELPER FUNCTIONS
//  170  */
//  171 /* very ugly stub so Keil can compile */
//  172 #ifdef __KEIL__
//  173 char *  itoa ( int value, char * buffer, int radix )
//  174 {
//  175   return(buffer);
//  176 }
//  177 #endif
//  178 
//  179 /*********************************************************************
//  180  * @fn      osal_strlen
//  181  *
//  182  * @brief
//  183  *
//  184  *   Calculates the length of a string.  The string must be null
//  185  *   terminated.
//  186  *
//  187  * @param   char *pString - pointer to text string
//  188  *
//  189  * @return  int - number of characters
//  190  */

        RSEG BANKED_CODE:HUGECODE:NOROOT(0)
//  191 int osal_strlen( char *pString )
osal_strlen:
          CFI Block cfiBlock0 Using cfiCommon0
          CFI Function osal_strlen
        CODE
//  192 {
        FUNCALL osal_strlen, strlen
        LOCFRAME ISTACK, 2, STACK
        LOCFRAME PSTACK, 0, STACK
        LOCFRAME XSTACK, 0, STACK
        LOCFRAME IOVERLAY, 0, STATIC
        LOCFRAME DOVERLAY, 0, STATIC
        ARGFRAME ISTACK, 2, STACK
        ARGFRAME PSTACK, 0, STACK
        ARGFRAME XSTACK, 0, STACK
        ARGFRAME IOVERLAY, 0, STATIC
        ARGFRAME DOVERLAY, 0, STATIC
        PUSH      DPL
          CFI DPL0 Frame(CFA_SP, 4)
          CFI CFA_SP SP+-4
        PUSH      DPH
          CFI DPH0 Frame(CFA_SP, 5)
          CFI CFA_SP SP+-5
        ; Saved register size: 2
        ; Auto size: 0
//  193   return (int)( strlen( pString ) );
        ; Setup parameters for call to function strlen
        LCALL     `??strlen::?relay`; Banked call to: strlen
        LJMP      ?Subroutine0 & 0xFFFF
//  194 }
          CFI EndBlock cfiBlock0
//  195 
//  196 /*********************************************************************
//  197  * @fn      osal_memcpy
//  198  *
//  199  * @brief
//  200  *
//  201  *   Generic memory copy.
//  202  *
//  203  *   Note: This function differs from the standard memcpy(), since
//  204  *         it returns the pointer to the next destination uint8. The
//  205  *         standard memcpy() returns the original destination address.
//  206  *
//  207  * @param   dst - destination address
//  208  * @param   src - source address
//  209  * @param   len - number of bytes to copy
//  210  *
//  211  * @return  pointer to end of destination buffer
//  212  */

        RSEG BANKED_CODE:HUGECODE:NOROOT(0)
//  213 void *osal_memcpy( void *dst, const void GENERIC *src, unsigned int len )
osal_memcpy:
          CFI Block cfiBlock1 Using cfiCommon0
          CFI Function osal_memcpy
        CODE
//  214 {
        MOV       A,#-0x9
        LCALL     ?BANKED_ENTER_XDATA
          CFI DPH0 load(1, XDATA, add(CFA_XSP16, literal(-1)))
          CFI DPL0 load(1, XDATA, add(CFA_XSP16, literal(-2)))
          CFI ?BRET_EXT load(1, XDATA, add(CFA_XSP16, literal(-3)))
          CFI ?RET_HIGH load(1, XDATA, add(CFA_XSP16, literal(-4)))
          CFI ?RET_LOW load(1, XDATA, add(CFA_XSP16, literal(-5)))
          CFI R7 load(1, XDATA, add(CFA_XSP16, literal(-6)))
          CFI V0 load(1, XDATA, add(CFA_XSP16, literal(-7)))
          CFI VB load(1, XDATA, add(CFA_XSP16, literal(-8)))
          CFI R6 load(1, XDATA, add(CFA_XSP16, literal(-9)))
          CFI CFA_SP SP+0
          CFI CFA_XSP16 add(XSP16, 9)
        ; Saved register size: 9
        ; Auto size: 0
        MOV       A,R2
        MOV       R6,A
        MOV       A,R3
        MOV       R7,A
//  215   uint8 *pDst;
//  216   const uint8 GENERIC *pSrc;
//  217 
//  218   pSrc = src;
        MOV       A,#0x9
        LCALL     ?XSTACK_DISP0_8
        LCALL     ?Subroutine13 & 0xFFFF
//  219   pDst = dst;
??CrossCallReturnLabel_63:
        MOV       DPL,R6
        MOV       DPH,R7
        SJMP      ??osal_memcpy_0
//  220 
//  221   while ( len-- )
//  222     *pDst++ = *pSrc++;
??osal_memcpy_1:
        LCALL     ?C_GPTR_LOAD
        MOVX      @DPTR,A
        MOV       A,R1
        ADD       A,#0x1
        INC       R1
        CLR       A
        ADDC      A,R2
        MOV       R2,A
        INC       DPTR
??osal_memcpy_0:
        LCALL     ?Subroutine21 & 0xFFFF
??CrossCallReturnLabel_26:
        JNZ       ??osal_memcpy_1
//  223 
//  224   return ( pDst );
        LJMP      ?Subroutine1 & 0xFFFF
//  225 }
          CFI EndBlock cfiBlock1
//  226 
//  227 /*********************************************************************
//  228  * @fn      osal_revmemcpy
//  229  *
//  230  * @brief   Generic reverse memory copy.  Starts at the end of the
//  231  *   source buffer, by taking the source address pointer and moving
//  232  *   pointer ahead "len" bytes, then decrementing the pointer.
//  233  *
//  234  *   Note: This function differs from the standard memcpy(), since
//  235  *         it returns the pointer to the next destination uint8. The
//  236  *         standard memcpy() returns the original destination address.
//  237  *
//  238  * @param   dst - destination address
//  239  * @param   src - source address
//  240  * @param   len - number of bytes to copy
//  241  *
//  242  * @return  pointer to end of destination buffer
//  243  */

        RSEG BANKED_CODE:HUGECODE:NOROOT(0)
//  244 void *osal_revmemcpy( void *dst, const void GENERIC *src, unsigned int len )
osal_revmemcpy:
          CFI Block cfiBlock2 Using cfiCommon0
          CFI Function osal_revmemcpy
        CODE
//  245 {
        MOV       A,#-0x9
        LCALL     ?BANKED_ENTER_XDATA
          CFI DPH0 load(1, XDATA, add(CFA_XSP16, literal(-1)))
          CFI DPL0 load(1, XDATA, add(CFA_XSP16, literal(-2)))
          CFI ?BRET_EXT load(1, XDATA, add(CFA_XSP16, literal(-3)))
          CFI ?RET_HIGH load(1, XDATA, add(CFA_XSP16, literal(-4)))
          CFI ?RET_LOW load(1, XDATA, add(CFA_XSP16, literal(-5)))
          CFI R7 load(1, XDATA, add(CFA_XSP16, literal(-6)))
          CFI V0 load(1, XDATA, add(CFA_XSP16, literal(-7)))
          CFI VB load(1, XDATA, add(CFA_XSP16, literal(-8)))
          CFI R6 load(1, XDATA, add(CFA_XSP16, literal(-9)))
          CFI CFA_SP SP+0
          CFI CFA_XSP16 add(XSP16, 9)
        ; Saved register size: 9
        ; Auto size: 0
        MOV       A,R2
        MOV       R6,A
        MOV       A,R3
        MOV       R7,A
//  246   uint8 *pDst;
//  247   const uint8 GENERIC *pSrc;
//  248 
//  249   pSrc = src;
//  250   pSrc += (len-1);
        MOV       A,#0x9
        LCALL     ?XSTACK_DISP0_8
        LCALL     ?Subroutine13 & 0xFFFF
??CrossCallReturnLabel_64:
        MOV       A,R1
        ADD       A,R4
        MOV       R1,A
        MOV       A,R2
        ADDC      A,R5
        MOV       R2,A
        MOV       A,R1
        ADD       A,#-0x1
        DEC       R1
        MOV       A,R2
        ADDC      A,#-0x1
        MOV       R2,A
//  251   pDst = dst;
        MOV       DPL,R6
        MOV       DPH,R7
        SJMP      ??osal_revmemcpy_0
//  252 
//  253   while ( len-- )
//  254     *pDst++ = *pSrc--;
??osal_revmemcpy_1:
        LCALL     ?C_GPTR_LOAD
        MOVX      @DPTR,A
        MOV       A,R1
        ADD       A,#-0x1
        DEC       R1
        MOV       A,R2
        ADDC      A,#-0x1
        MOV       R2,A
        INC       DPTR
??osal_revmemcpy_0:
        LCALL     ?Subroutine21 & 0xFFFF
??CrossCallReturnLabel_27:
        JNZ       ??osal_revmemcpy_1
//  255 
//  256   return ( pDst );
        LJMP      ?Subroutine1 & 0xFFFF
//  257 }
          CFI EndBlock cfiBlock2

        RSEG BANKED_CODE:HUGECODE:NOROOT(0)
?Subroutine21:
          CFI Block cfiCond3 Using cfiCommon0
          CFI Function osal_memcpy
          CFI Conditional ??CrossCallReturnLabel_26
          CFI R6 load(1, XDATA, add(CFA_XSP16, literal(-9)))
          CFI VB load(1, XDATA, add(CFA_XSP16, literal(-8)))
          CFI V0 load(1, XDATA, add(CFA_XSP16, literal(-7)))
          CFI R7 load(1, XDATA, add(CFA_XSP16, literal(-6)))
          CFI ?RET_LOW load(1, XDATA, add(CFA_XSP16, literal(-5)))
          CFI ?RET_HIGH load(1, XDATA, add(CFA_XSP16, literal(-4)))
          CFI ?BRET_EXT load(1, XDATA, add(CFA_XSP16, literal(-3)))
          CFI DPL0 load(1, XDATA, add(CFA_XSP16, literal(-2)))
          CFI DPH0 load(1, XDATA, add(CFA_XSP16, literal(-1)))
          CFI CFA_SP SP+-2
          CFI CFA_XSP16 add(XSP16, 9)
          CFI Block cfiCond4 Using cfiCommon0
          CFI (cfiCond4) Function osal_revmemcpy
          CFI (cfiCond4) Conditional ??CrossCallReturnLabel_27
          CFI (cfiCond4) R6 load(1, XDATA, add(CFA_XSP16, literal(-9)))
          CFI (cfiCond4) VB load(1, XDATA, add(CFA_XSP16, literal(-8)))
          CFI (cfiCond4) V0 load(1, XDATA, add(CFA_XSP16, literal(-7)))
          CFI (cfiCond4) R7 load(1, XDATA, add(CFA_XSP16, literal(-6)))
          CFI (cfiCond4) ?RET_LOW load(1, XDATA, add(CFA_XSP16, literal(-5)))
          CFI (cfiCond4) ?RET_HIGH load(1, XDATA, add(CFA_XSP16, literal(-4)))
          CFI (cfiCond4) ?BRET_EXT load(1, XDATA, add(CFA_XSP16, literal(-3)))
          CFI (cfiCond4) DPL0 load(1, XDATA, add(CFA_XSP16, literal(-2)))
          CFI (cfiCond4) DPH0 load(1, XDATA, add(CFA_XSP16, literal(-1)))
          CFI (cfiCond4) CFA_SP SP+-2
          CFI (cfiCond4) CFA_XSP16 add(XSP16, 9)
          CFI Block cfiPicker5 Using cfiCommon1
          CFI (cfiPicker5) NoFunction
          CFI (cfiPicker5) Picker
        MOV       A,R4
        MOV       R6,A
        MOV       A,R5
        MOV       R7,A
        MOV       A,R6
        ADD       A,#-0x1
        DEC       R4
        MOV       A,R7
        ADDC      A,#-0x1
        MOV       R5,A
        MOV       A,R6
        ORL       A,R7
        RET
          CFI EndBlock cfiCond3
          CFI EndBlock cfiCond4
          CFI EndBlock cfiPicker5
//  258 
//  259 /*********************************************************************
//  260  * @fn      osal_memdup
//  261  *
//  262  * @brief   Allocates a buffer [with osal_mem_alloc()] and copies
//  263  *          the src buffer into the newly allocated space.
//  264  *
//  265  * @param   src - source address
//  266  * @param   len - number of bytes to copy
//  267  *
//  268  * @return  pointer to the new allocated buffer, or NULL if
//  269  *          allocation problem.
//  270  */

        RSEG BANKED_CODE:HUGECODE:NOROOT(0)
//  271 void *osal_memdup( const void GENERIC *src, unsigned int len )
osal_memdup:
          CFI Block cfiBlock6 Using cfiCommon0
          CFI Function osal_memdup
        CODE
//  272 {
        FUNCALL osal_memdup, osal_mem_alloc
        LOCFRAME ISTACK, 0, STACK
        LOCFRAME PSTACK, 0, STACK
        LOCFRAME XSTACK, 15, STACK
        LOCFRAME IOVERLAY, 0, STATIC
        LOCFRAME DOVERLAY, 0, STATIC
        ARGFRAME ISTACK, 0, STACK
        ARGFRAME PSTACK, 0, STACK
        ARGFRAME XSTACK, 15, STACK
        ARGFRAME IOVERLAY, 0, STATIC
        ARGFRAME DOVERLAY, 0, STATIC
        FUNCALL osal_memdup, osal_memcpy
        LOCFRAME ISTACK, 0, STACK
        LOCFRAME PSTACK, 0, STACK
        LOCFRAME XSTACK, 18, STACK
        LOCFRAME IOVERLAY, 0, STATIC
        LOCFRAME DOVERLAY, 0, STATIC
        ARGFRAME ISTACK, 0, STACK
        ARGFRAME PSTACK, 0, STACK
        ARGFRAME XSTACK, 18, STACK
        ARGFRAME IOVERLAY, 0, STATIC
        ARGFRAME DOVERLAY, 0, STATIC
        REQUIRE ?V0
        REQUIRE ?V1
        REQUIRE ?V2
        REQUIRE ?V3
        REQUIRE ?V4
        REQUIRE ?V5
        REQUIRE ?V6
        MOV       A,#-0xf
        LCALL     ?BANKED_ENTER_XDATA
          CFI DPH0 load(1, XDATA, add(CFA_XSP16, literal(-1)))
          CFI DPL0 load(1, XDATA, add(CFA_XSP16, literal(-2)))
          CFI ?BRET_EXT load(1, XDATA, add(CFA_XSP16, literal(-3)))
          CFI ?RET_HIGH load(1, XDATA, add(CFA_XSP16, literal(-4)))
          CFI ?RET_LOW load(1, XDATA, add(CFA_XSP16, literal(-5)))
          CFI R7 load(1, XDATA, add(CFA_XSP16, literal(-6)))
          CFI V6 load(1, XDATA, add(CFA_XSP16, literal(-7)))
          CFI V5 load(1, XDATA, add(CFA_XSP16, literal(-8)))
          CFI V4 load(1, XDATA, add(CFA_XSP16, literal(-9)))
          CFI V3 load(1, XDATA, add(CFA_XSP16, literal(-10)))
          CFI V2 load(1, XDATA, add(CFA_XSP16, literal(-11)))
          CFI V1 load(1, XDATA, add(CFA_XSP16, literal(-12)))
          CFI V0 load(1, XDATA, add(CFA_XSP16, literal(-13)))
          CFI VB load(1, XDATA, add(CFA_XSP16, literal(-14)))
          CFI R6 load(1, XDATA, add(CFA_XSP16, literal(-15)))
          CFI CFA_SP SP+0
          CFI CFA_XSP16 add(XSP16, 15)
        ; Saved register size: 15
        ; Auto size: 0
        MOV       ?V4,R1
        MOV       ?V5,R2
        MOV       ?V6,R3
        MOV       A,R4
        MOV       R6,A
        MOV       A,R5
        MOV       R7,A
//  273   uint8 *pDst;
//  274 
//  275   pDst = osal_mem_alloc( len );
        ; Setup parameters for call to function osal_mem_alloc
        MOV       A,R4
        MOV       R2,A
        MOV       A,R5
        MOV       R3,A
        LCALL     `??osal_mem_alloc::?relay`; Banked call to: osal_mem_alloc
        MOV       ?V0,R2
        MOV       ?V1,R3
//  276   if ( pDst )
        MOV       A,R2
        ORL       A,R3
        JZ        ??osal_memdup_0
//  277   {
//  278     VOID osal_memcpy( pDst, src, len );
        ; Setup parameters for call to function osal_memcpy
        MOV       R0,#?V4
        LCALL     ?PUSH_XSTACK_I_THREE
          CFI CFA_XSP16 add(XSP16, 18)
        MOV       A,R6
        MOV       R4,A
        MOV       A,R7
        MOV       R5,A
        LCALL     `??osal_memcpy::?relay`; Banked call to: osal_memcpy
        MOV       A,#0x3
        LCALL     ?DEALLOC_XSTACK8
          CFI CFA_XSP16 add(XSP16, 15)
//  279   }
//  280 
//  281   return ( (void *)pDst );
??osal_memdup_0:
        MOV       R2,?V0
        MOV       R3,?V1
        MOV       R7,#0x7
        LJMP      ?BANKED_LEAVE_XDATA
//  282 }
          CFI EndBlock cfiBlock6
//  283 
//  284 /*********************************************************************
//  285  * @fn      osal_memcmp
//  286  *
//  287  * @brief
//  288  *
//  289  *   Generic memory compare.
//  290  *
//  291  * @param   src1 - source 1 addrexx
//  292  * @param   src2 - source 2 address
//  293  * @param   len - number of bytes to compare
//  294  *
//  295  * @return  TRUE - same, FALSE - different
//  296  */

        RSEG BANKED_CODE:HUGECODE:NOROOT(0)
//  297 uint8 osal_memcmp( const void GENERIC *src1, const void GENERIC *src2, unsigned int len )
osal_memcmp:
          CFI Block cfiBlock7 Using cfiCommon0
          CFI Function osal_memcmp
        CODE
//  298 {
        REQUIRE ?V0
        REQUIRE ?V1
        REQUIRE ?V2
        REQUIRE ?V4
        REQUIRE ?V5
        REQUIRE ?V6
        REQUIRE ?V8
        REQUIRE ?V9
        REQUIRE ?V10
        MOV       A,#-0x13
        LCALL     ?BANKED_ENTER_XDATA
          CFI DPH0 load(1, XDATA, add(CFA_XSP16, literal(-1)))
          CFI DPL0 load(1, XDATA, add(CFA_XSP16, literal(-2)))
          CFI ?BRET_EXT load(1, XDATA, add(CFA_XSP16, literal(-3)))
          CFI ?RET_HIGH load(1, XDATA, add(CFA_XSP16, literal(-4)))
          CFI ?RET_LOW load(1, XDATA, add(CFA_XSP16, literal(-5)))
          CFI R7 load(1, XDATA, add(CFA_XSP16, literal(-6)))
          CFI V10 load(1, XDATA, add(CFA_XSP16, literal(-7)))
          CFI V9 load(1, XDATA, add(CFA_XSP16, literal(-8)))
          CFI V8 load(1, XDATA, add(CFA_XSP16, literal(-9)))
          CFI V7 load(1, XDATA, add(CFA_XSP16, literal(-10)))
          CFI V6 load(1, XDATA, add(CFA_XSP16, literal(-11)))
          CFI V5 load(1, XDATA, add(CFA_XSP16, literal(-12)))
          CFI V4 load(1, XDATA, add(CFA_XSP16, literal(-13)))
          CFI V3 load(1, XDATA, add(CFA_XSP16, literal(-14)))
          CFI V2 load(1, XDATA, add(CFA_XSP16, literal(-15)))
          CFI V1 load(1, XDATA, add(CFA_XSP16, literal(-16)))
          CFI V0 load(1, XDATA, add(CFA_XSP16, literal(-17)))
          CFI VB load(1, XDATA, add(CFA_XSP16, literal(-18)))
          CFI R6 load(1, XDATA, add(CFA_XSP16, literal(-19)))
          CFI CFA_SP SP+0
          CFI CFA_XSP16 add(XSP16, 19)
        ; Saved register size: 19
        ; Auto size: 0
//  299   const uint8 GENERIC *pSrc1;
//  300   const uint8 GENERIC *pSrc2;
//  301 
//  302   pSrc1 = src1;
        MOV       ?V0,R1
        MOV       ?V1,R2
        MOV       ?V2,R3
//  303   pSrc2 = src2;
        MOV       A,#0x13
        LCALL     ?XSTACK_DISP0_8
        MOVX      A,@DPTR
        MOV       ?V4,A
        INC       DPTR
        MOVX      A,@DPTR
        MOV       ?V5,A
        INC       DPTR
        MOVX      A,@DPTR
        MOV       ?V6,A
//  304 
//  305   while ( len-- )
??osal_memcmp_0:
        MOV       A,R4
        MOV       R0,A
        MOV       A,R5
        MOV       R1,A
        MOV       A,R0
        ADD       A,#-0x1
        DEC       R4
        MOV       A,R1
        ADDC      A,#-0x1
        MOV       R5,A
        MOV       A,R0
        ORL       A,R1
        JZ        ??osal_memcmp_1
//  306   {
//  307     if( *pSrc1++ != *pSrc2++ )
        MOV       R1,?V0
        MOV       R2,?V1
        MOV       R3,?V2
        MOV       A,R1
        ADD       A,#0x1
        MOV       ?V0,A
        CLR       A
        ADDC      A,R2
        MOV       ?V1,A
        MOV       ?V8,?V4
        MOV       ?V9,?V5
        MOV       ?V10,?V6
        MOV       A,?V4
        ADD       A,#0x1
        MOV       ?V4,A
        CLR       A
        ADDC      A,?V5
        MOV       ?V5,A
        LCALL     ?C_GPTR_LOAD
        MOV       R0,A
        MOV       R1,?V8
        MOV       R2,?V9
        MOV       R3,?V10
        LCALL     ?C_GPTR_LOAD
        XRL       A,R0
        JZ        ??osal_memcmp_0
//  308       return FALSE;
        MOV       R1,#0x0
        SJMP      ??osal_memcmp_2
//  309   }
//  310   return TRUE;
??osal_memcmp_1:
        MOV       R1,#0x1
??osal_memcmp_2:
        MOV       R7,#0xb
        LJMP      ?BANKED_LEAVE_XDATA
//  311 }
          CFI EndBlock cfiBlock7
//  312 
//  313 
//  314 /*********************************************************************
//  315  * @fn      osal_memset
//  316  *
//  317  * @brief
//  318  *
//  319  *   Set memory buffer to value.
//  320  *
//  321  * @param   dest - pointer to buffer
//  322  * @param   value - what to set each uint8 of the message
//  323  * @param   size - how big
//  324  *
//  325  * @return  pointer to destination buffer
//  326  */

        RSEG BANKED_CODE:HUGECODE:NOROOT(0)
//  327 void *osal_memset( void *dest, uint8 value, int len )
osal_memset:
          CFI Block cfiBlock8 Using cfiCommon0
          CFI Function osal_memset
        CODE
//  328 {
        FUNCALL osal_memset, memset
        LOCFRAME ISTACK, 0, STACK
        LOCFRAME PSTACK, 0, STACK
        LOCFRAME XSTACK, 12, STACK
        LOCFRAME IOVERLAY, 0, STATIC
        LOCFRAME DOVERLAY, 0, STATIC
        ARGFRAME ISTACK, 0, STACK
        ARGFRAME PSTACK, 0, STACK
        ARGFRAME XSTACK, 12, STACK
        ARGFRAME IOVERLAY, 0, STATIC
        ARGFRAME DOVERLAY, 0, STATIC
        REQUIRE ?V0
        REQUIRE ?V1
        MOV       A,#-0xa
        LCALL     ?BANKED_ENTER_XDATA
          CFI DPH0 load(1, XDATA, add(CFA_XSP16, literal(-1)))
          CFI DPL0 load(1, XDATA, add(CFA_XSP16, literal(-2)))
          CFI ?BRET_EXT load(1, XDATA, add(CFA_XSP16, literal(-3)))
          CFI ?RET_HIGH load(1, XDATA, add(CFA_XSP16, literal(-4)))
          CFI ?RET_LOW load(1, XDATA, add(CFA_XSP16, literal(-5)))
          CFI R7 load(1, XDATA, add(CFA_XSP16, literal(-6)))
          CFI V1 load(1, XDATA, add(CFA_XSP16, literal(-7)))
          CFI V0 load(1, XDATA, add(CFA_XSP16, literal(-8)))
          CFI VB load(1, XDATA, add(CFA_XSP16, literal(-9)))
          CFI R6 load(1, XDATA, add(CFA_XSP16, literal(-10)))
          CFI CFA_SP SP+0
          CFI CFA_XSP16 add(XSP16, 10)
        ; Saved register size: 10
        ; Auto size: 0
//  329   return memset( dest, value, len );
        ; Setup parameters for call to function memset
        MOV       ?V0,R4
        MOV       ?V1,R5
        MOV       R0,#?V0
        LCALL     ?PUSH_XSTACK_I_TWO
          CFI CFA_XSP16 add(XSP16, 12)
        MOV       A,R1
        MOV       R4,A
        MOV       R5,#0x0
        LCALL     `??memset::?relay`; Banked call to: memset
        MOV       A,#0x2
        LCALL     ?DEALLOC_XSTACK8
          CFI CFA_XSP16 add(XSP16, 10)
        LJMP      ?Subroutine2 & 0xFFFF
//  330 }
          CFI EndBlock cfiBlock8
//  331 
//  332 /*********************************************************************
//  333  * @fn      osal_build_uint16
//  334  *
//  335  * @brief
//  336  *
//  337  *   Build a uint16 out of 2 bytes (0 then 1).
//  338  *
//  339  * @param   swapped - 0 then 1
//  340  *
//  341  * @return  uint16
//  342  */

        RSEG BANKED_CODE:HUGECODE:NOROOT(0)
//  343 uint16 osal_build_uint16( uint8 *swapped )
osal_build_uint16:
          CFI Block cfiBlock9 Using cfiCommon0
          CFI Function osal_build_uint16
        CODE
//  344 {
        PUSH      DPL
          CFI DPL0 Frame(CFA_SP, 4)
          CFI CFA_SP SP+-4
        PUSH      DPH
          CFI DPH0 Frame(CFA_SP, 5)
          CFI CFA_SP SP+-5
        ; Saved register size: 2
        ; Auto size: 0
//  345   return ( BUILD_UINT16( swapped[0], swapped[1] ) );
        MOV       DPL,R2
        MOV       DPH,R3
        MOVX      A,@DPTR
        MOV       R4,A
        INC       DPTR
        MOVX      A,@DPTR
        MOV       R0,A
        CLR       A
        XCH       A,R0
        MOV       R1,A
        MOV       A,R4
        ADD       A,R0
        MOV       R2,A
        CLR       A
        ADDC      A,R1
        MOV       R3,A
        LJMP      ?Subroutine0 & 0xFFFF
//  346 }
          CFI EndBlock cfiBlock9
//  347 
//  348 /*********************************************************************
//  349  * @fn      osal_build_uint32
//  350  *
//  351  * @brief
//  352  *
//  353  *   Build a uint32 out of sequential bytes.
//  354  *
//  355  * @param   swapped - sequential bytes
//  356  * @param   len - number of bytes in the uint8 array
//  357  *
//  358  * @return  uint32
//  359  */

        RSEG BANKED_CODE:HUGECODE:NOROOT(0)
//  360 uint32 osal_build_uint32( uint8 *swapped, uint8 len )
osal_build_uint32:
          CFI Block cfiBlock10 Using cfiCommon0
          CFI Function osal_build_uint32
        CODE
//  361 {
        REQUIRE ?V0
        REQUIRE ?V1
        REQUIRE ?V2
        REQUIRE ?V3
        REQUIRE ?V4
        REQUIRE ?V5
        REQUIRE ?V6
        REQUIRE ?V7
        MOV       A,#-0x10
        LCALL     ?BANKED_ENTER_XDATA
          CFI DPH0 load(1, XDATA, add(CFA_XSP16, literal(-1)))
          CFI DPL0 load(1, XDATA, add(CFA_XSP16, literal(-2)))
          CFI ?BRET_EXT load(1, XDATA, add(CFA_XSP16, literal(-3)))
          CFI ?RET_HIGH load(1, XDATA, add(CFA_XSP16, literal(-4)))
          CFI ?RET_LOW load(1, XDATA, add(CFA_XSP16, literal(-5)))
          CFI R7 load(1, XDATA, add(CFA_XSP16, literal(-6)))
          CFI V7 load(1, XDATA, add(CFA_XSP16, literal(-7)))
          CFI V6 load(1, XDATA, add(CFA_XSP16, literal(-8)))
          CFI V5 load(1, XDATA, add(CFA_XSP16, literal(-9)))
          CFI V4 load(1, XDATA, add(CFA_XSP16, literal(-10)))
          CFI V3 load(1, XDATA, add(CFA_XSP16, literal(-11)))
          CFI V2 load(1, XDATA, add(CFA_XSP16, literal(-12)))
          CFI V1 load(1, XDATA, add(CFA_XSP16, literal(-13)))
          CFI V0 load(1, XDATA, add(CFA_XSP16, literal(-14)))
          CFI VB load(1, XDATA, add(CFA_XSP16, literal(-15)))
          CFI R6 load(1, XDATA, add(CFA_XSP16, literal(-16)))
          CFI CFA_SP SP+0
          CFI CFA_XSP16 add(XSP16, 16)
        ; Saved register size: 16
        ; Auto size: 0
        MOV       A,R1
        MOV       R6,A
//  362   if ( len == 2 )
        MOV       DPL,R2
        MOV       DPH,R3
        MOVX      A,@DPTR
        MOV       ?V4,A
        CLR       A
        MOV       ?V5,A
        MOV       ?V6,A
        MOV       ?V7,A
        MOV       A,#0x2
        XRL       A,R6
        JNZ       ??osal_build_uint32_0
//  363     return ( BUILD_UINT32( swapped[0], swapped[1], 0L, 0L ) );
        LCALL     ?Subroutine24 & 0xFFFF
??CrossCallReturnLabel_33:
        SJMP      ??osal_build_uint32_1
//  364   else if ( len == 3 )
??osal_build_uint32_0:
        MOV       A,#0x3
        XRL       A,R6
        JNZ       ??osal_build_uint32_2
//  365     return ( BUILD_UINT32( swapped[0], swapped[1], swapped[2], 0L ) );
        LCALL     ?Subroutine10 & 0xFFFF
??CrossCallReturnLabel_9:
        LCALL     ?L_SHL
        MOV       R0,#?V4
        MOV       R1,#?V0
        LCALL     ?L_ADD
        LCALL     ?Subroutine16 & 0xFFFF
??CrossCallReturnLabel_20:
        SJMP      ??osal_build_uint32_1
//  366   else if ( len == 4 )
??osal_build_uint32_2:
        MOV       A,#0x4
        XRL       A,R6
        JNZ       ??osal_build_uint32_3
//  367     return ( BUILD_UINT32( swapped[0], swapped[1], swapped[2], swapped[3] ) );
        LCALL     ?Subroutine10 & 0xFFFF
??CrossCallReturnLabel_10:
        LCALL     ?L_SHL
        MOV       R0,#?V4
        MOV       R1,#?V0
        LCALL     ?L_ADD
        LCALL     ?Subroutine16 & 0xFFFF
??CrossCallReturnLabel_21:
        MOV       R0,#?V0
        LCALL     ?L_SHL
        MOV       R0,#?V4
        MOV       R1,#?V0
        LCALL     ?L_ADD
        MOV       DPL,R2
        MOV       DPH,R3
        INC       DPTR
        INC       DPTR
        INC       DPTR
        MOVX      A,@DPTR
        MOV       ?V0,A
        CLR       A
        MOV       ?V2,A
        MOV       A,#0x18
??osal_build_uint32_1:
        MOV       R0,#?V0
        LCALL     ?L_SHL
        MOV       R0,#?V4
        MOV       R1,#?V0
        LCALL     ?L_ADD
//  368   else
//  369     return ( (uint32)swapped[0] );
??osal_build_uint32_3:
        MOV       R2,?V4
        MOV       R3,?V5
        MOV       R4,?V6
        MOV       R5,?V7
          CFI EndBlock cfiBlock10
        REQUIRE ?Subroutine3
        ; // Fall through to label ?Subroutine3
//  370 }

        RSEG BANKED_CODE:HUGECODE:NOROOT(0)
?Subroutine3:
          CFI Block cfiBlock11 Using cfiCommon0
          CFI NoFunction
          CFI CFA_SP SP+0
          CFI CFA_XSP16 add(XSP16, 16)
          CFI VB load(1, XDATA, add(CFA_XSP16, literal(-15)))
          CFI DPL0 load(1, XDATA, add(CFA_XSP16, literal(-2)))
          CFI DPH0 load(1, XDATA, add(CFA_XSP16, literal(-1)))
          CFI R6 load(1, XDATA, add(CFA_XSP16, literal(-16)))
          CFI R7 load(1, XDATA, add(CFA_XSP16, literal(-6)))
          CFI V0 load(1, XDATA, add(CFA_XSP16, literal(-14)))
          CFI V1 load(1, XDATA, add(CFA_XSP16, literal(-13)))
          CFI V2 load(1, XDATA, add(CFA_XSP16, literal(-12)))
          CFI V3 load(1, XDATA, add(CFA_XSP16, literal(-11)))
          CFI V4 load(1, XDATA, add(CFA_XSP16, literal(-10)))
          CFI V5 load(1, XDATA, add(CFA_XSP16, literal(-9)))
          CFI V6 load(1, XDATA, add(CFA_XSP16, literal(-8)))
          CFI V7 load(1, XDATA, add(CFA_XSP16, literal(-7)))
          CFI ?BRET_EXT load(1, XDATA, add(CFA_XSP16, literal(-3)))
          CFI ?RET_HIGH load(1, XDATA, add(CFA_XSP16, literal(-4)))
          CFI ?RET_LOW load(1, XDATA, add(CFA_XSP16, literal(-5)))
        MOV       R7,#0x8
        LJMP      ?BANKED_LEAVE_XDATA
          CFI EndBlock cfiBlock11

        RSEG BANKED_CODE:HUGECODE:NOROOT(0)
?Subroutine16:
          CFI Block cfiCond12 Using cfiCommon0
          CFI Function osal_build_uint32
          CFI Conditional ??CrossCallReturnLabel_20
          CFI R6 load(1, XDATA, add(CFA_XSP16, literal(-16)))
          CFI VB load(1, XDATA, add(CFA_XSP16, literal(-15)))
          CFI V0 load(1, XDATA, add(CFA_XSP16, literal(-14)))
          CFI V1 load(1, XDATA, add(CFA_XSP16, literal(-13)))
          CFI V2 load(1, XDATA, add(CFA_XSP16, literal(-12)))
          CFI V3 load(1, XDATA, add(CFA_XSP16, literal(-11)))
          CFI V4 load(1, XDATA, add(CFA_XSP16, literal(-10)))
          CFI V5 load(1, XDATA, add(CFA_XSP16, literal(-9)))
          CFI V6 load(1, XDATA, add(CFA_XSP16, literal(-8)))
          CFI V7 load(1, XDATA, add(CFA_XSP16, literal(-7)))
          CFI R7 load(1, XDATA, add(CFA_XSP16, literal(-6)))
          CFI ?RET_LOW load(1, XDATA, add(CFA_XSP16, literal(-5)))
          CFI ?RET_HIGH load(1, XDATA, add(CFA_XSP16, literal(-4)))
          CFI ?BRET_EXT load(1, XDATA, add(CFA_XSP16, literal(-3)))
          CFI DPL0 load(1, XDATA, add(CFA_XSP16, literal(-2)))
          CFI DPH0 load(1, XDATA, add(CFA_XSP16, literal(-1)))
          CFI CFA_SP SP+-2
          CFI CFA_XSP16 add(XSP16, 16)
          CFI Block cfiCond13 Using cfiCommon0
          CFI (cfiCond13) Function osal_build_uint32
          CFI (cfiCond13) Conditional ??CrossCallReturnLabel_21
          CFI (cfiCond13) R6 load(1, XDATA, add(CFA_XSP16, literal(-16)))
          CFI (cfiCond13) VB load(1, XDATA, add(CFA_XSP16, literal(-15)))
          CFI (cfiCond13) V0 load(1, XDATA, add(CFA_XSP16, literal(-14)))
          CFI (cfiCond13) V1 load(1, XDATA, add(CFA_XSP16, literal(-13)))
          CFI (cfiCond13) V2 load(1, XDATA, add(CFA_XSP16, literal(-12)))
          CFI (cfiCond13) V3 load(1, XDATA, add(CFA_XSP16, literal(-11)))
          CFI (cfiCond13) V4 load(1, XDATA, add(CFA_XSP16, literal(-10)))
          CFI (cfiCond13) V5 load(1, XDATA, add(CFA_XSP16, literal(-9)))
          CFI (cfiCond13) V6 load(1, XDATA, add(CFA_XSP16, literal(-8)))
          CFI (cfiCond13) V7 load(1, XDATA, add(CFA_XSP16, literal(-7)))
          CFI (cfiCond13) R7 load(1, XDATA, add(CFA_XSP16, literal(-6)))
          CFI (cfiCond13) ?RET_LOW load(1, XDATA, add(CFA_XSP16, literal(-5)))
          CFI (cfiCond13) ?RET_HIGH load(1, XDATA, add(CFA_XSP16, literal(-4)))
          CFI (cfiCond13) ?BRET_EXT load(1, XDATA, add(CFA_XSP16, literal(-3)))
          CFI (cfiCond13) DPL0 load(1, XDATA, add(CFA_XSP16, literal(-2)))
          CFI (cfiCond13) DPH0 load(1, XDATA, add(CFA_XSP16, literal(-1)))
          CFI (cfiCond13) CFA_SP SP+-2
          CFI (cfiCond13) CFA_XSP16 add(XSP16, 16)
          CFI Block cfiPicker14 Using cfiCommon1
          CFI (cfiPicker14) NoFunction
          CFI (cfiPicker14) Picker
        MOV       DPL,R2
        MOV       DPH,R3
        INC       DPTR
        INC       DPTR
        MOVX      A,@DPTR
        MOV       ?V0,A
        CLR       A
        MOV       ?V1,A
        MOV       A,#0x10
        RET
          CFI EndBlock cfiCond12
          CFI EndBlock cfiCond13
          CFI EndBlock cfiPicker14

        RSEG BANKED_CODE:HUGECODE:NOROOT(0)
?Subroutine10:
          CFI Block cfiCond15 Using cfiCommon0
          CFI Function osal_build_uint32
          CFI Conditional ??CrossCallReturnLabel_9
          CFI R6 load(1, XDATA, add(CFA_XSP16, literal(-16)))
          CFI VB load(1, XDATA, add(CFA_XSP16, literal(-15)))
          CFI V0 load(1, XDATA, add(CFA_XSP16, literal(-14)))
          CFI V1 load(1, XDATA, add(CFA_XSP16, literal(-13)))
          CFI V2 load(1, XDATA, add(CFA_XSP16, literal(-12)))
          CFI V3 load(1, XDATA, add(CFA_XSP16, literal(-11)))
          CFI V4 load(1, XDATA, add(CFA_XSP16, literal(-10)))
          CFI V5 load(1, XDATA, add(CFA_XSP16, literal(-9)))
          CFI V6 load(1, XDATA, add(CFA_XSP16, literal(-8)))
          CFI V7 load(1, XDATA, add(CFA_XSP16, literal(-7)))
          CFI R7 load(1, XDATA, add(CFA_XSP16, literal(-6)))
          CFI ?RET_LOW load(1, XDATA, add(CFA_XSP16, literal(-5)))
          CFI ?RET_HIGH load(1, XDATA, add(CFA_XSP16, literal(-4)))
          CFI ?BRET_EXT load(1, XDATA, add(CFA_XSP16, literal(-3)))
          CFI DPL0 load(1, XDATA, add(CFA_XSP16, literal(-2)))
          CFI DPH0 load(1, XDATA, add(CFA_XSP16, literal(-1)))
          CFI CFA_SP SP+-2
          CFI CFA_XSP16 add(XSP16, 16)
          CFI Block cfiCond16 Using cfiCommon0
          CFI (cfiCond16) Function osal_build_uint32
          CFI (cfiCond16) Conditional ??CrossCallReturnLabel_10
          CFI (cfiCond16) R6 load(1, XDATA, add(CFA_XSP16, literal(-16)))
          CFI (cfiCond16) VB load(1, XDATA, add(CFA_XSP16, literal(-15)))
          CFI (cfiCond16) V0 load(1, XDATA, add(CFA_XSP16, literal(-14)))
          CFI (cfiCond16) V1 load(1, XDATA, add(CFA_XSP16, literal(-13)))
          CFI (cfiCond16) V2 load(1, XDATA, add(CFA_XSP16, literal(-12)))
          CFI (cfiCond16) V3 load(1, XDATA, add(CFA_XSP16, literal(-11)))
          CFI (cfiCond16) V4 load(1, XDATA, add(CFA_XSP16, literal(-10)))
          CFI (cfiCond16) V5 load(1, XDATA, add(CFA_XSP16, literal(-9)))
          CFI (cfiCond16) V6 load(1, XDATA, add(CFA_XSP16, literal(-8)))
          CFI (cfiCond16) V7 load(1, XDATA, add(CFA_XSP16, literal(-7)))
          CFI (cfiCond16) R7 load(1, XDATA, add(CFA_XSP16, literal(-6)))
          CFI (cfiCond16) ?RET_LOW load(1, XDATA, add(CFA_XSP16, literal(-5)))
          CFI (cfiCond16) ?RET_HIGH load(1, XDATA, add(CFA_XSP16, literal(-4)))
          CFI (cfiCond16) ?BRET_EXT load(1, XDATA, add(CFA_XSP16, literal(-3)))
          CFI (cfiCond16) DPL0 load(1, XDATA, add(CFA_XSP16, literal(-2)))
          CFI (cfiCond16) DPH0 load(1, XDATA, add(CFA_XSP16, literal(-1)))
          CFI (cfiCond16) CFA_SP SP+-2
          CFI (cfiCond16) CFA_XSP16 add(XSP16, 16)
          CFI Block cfiPicker17 Using cfiCommon1
          CFI (cfiPicker17) NoFunction
          CFI (cfiPicker17) Picker
        LCALL     ?Subroutine24 & 0xFFFF
??CrossCallReturnLabel_34:
        MOV       R0,#?V0
        RET
          CFI EndBlock cfiCond15
          CFI EndBlock cfiCond16
          CFI EndBlock cfiPicker17

        RSEG BANKED_CODE:HUGECODE:NOROOT(0)
?Subroutine24:
          CFI Block cfiCond18 Using cfiCommon0
          CFI Function osal_build_uint32
          CFI Conditional ??CrossCallReturnLabel_33
          CFI R6 load(1, XDATA, add(CFA_XSP16, literal(-16)))
          CFI VB load(1, XDATA, add(CFA_XSP16, literal(-15)))
          CFI V0 load(1, XDATA, add(CFA_XSP16, literal(-14)))
          CFI V1 load(1, XDATA, add(CFA_XSP16, literal(-13)))
          CFI V2 load(1, XDATA, add(CFA_XSP16, literal(-12)))
          CFI V3 load(1, XDATA, add(CFA_XSP16, literal(-11)))
          CFI V4 load(1, XDATA, add(CFA_XSP16, literal(-10)))
          CFI V5 load(1, XDATA, add(CFA_XSP16, literal(-9)))
          CFI V6 load(1, XDATA, add(CFA_XSP16, literal(-8)))
          CFI V7 load(1, XDATA, add(CFA_XSP16, literal(-7)))
          CFI R7 load(1, XDATA, add(CFA_XSP16, literal(-6)))
          CFI ?RET_LOW load(1, XDATA, add(CFA_XSP16, literal(-5)))
          CFI ?RET_HIGH load(1, XDATA, add(CFA_XSP16, literal(-4)))
          CFI ?BRET_EXT load(1, XDATA, add(CFA_XSP16, literal(-3)))
          CFI DPL0 load(1, XDATA, add(CFA_XSP16, literal(-2)))
          CFI DPH0 load(1, XDATA, add(CFA_XSP16, literal(-1)))
          CFI CFA_SP SP+-2
          CFI CFA_XSP16 add(XSP16, 16)
          CFI Block cfiCond19 Using cfiCommon0
          CFI (cfiCond19) Function osal_build_uint32
          CFI (cfiCond19) Conditional ??CrossCallReturnLabel_34, ??CrossCallReturnLabel_9
          CFI (cfiCond19) R6 load(1, XDATA, add(CFA_XSP16, literal(-16)))
          CFI (cfiCond19) VB load(1, XDATA, add(CFA_XSP16, literal(-15)))
          CFI (cfiCond19) V0 load(1, XDATA, add(CFA_XSP16, literal(-14)))
          CFI (cfiCond19) V1 load(1, XDATA, add(CFA_XSP16, literal(-13)))
          CFI (cfiCond19) V2 load(1, XDATA, add(CFA_XSP16, literal(-12)))
          CFI (cfiCond19) V3 load(1, XDATA, add(CFA_XSP16, literal(-11)))
          CFI (cfiCond19) V4 load(1, XDATA, add(CFA_XSP16, literal(-10)))
          CFI (cfiCond19) V5 load(1, XDATA, add(CFA_XSP16, literal(-9)))
          CFI (cfiCond19) V6 load(1, XDATA, add(CFA_XSP16, literal(-8)))
          CFI (cfiCond19) V7 load(1, XDATA, add(CFA_XSP16, literal(-7)))
          CFI (cfiCond19) R7 load(1, XDATA, add(CFA_XSP16, literal(-6)))
          CFI (cfiCond19) ?RET_LOW load(1, XDATA, add(CFA_XSP16, literal(-5)))
          CFI (cfiCond19) ?RET_HIGH load(1, XDATA, add(CFA_XSP16, literal(-4)))
          CFI (cfiCond19) ?BRET_EXT load(1, XDATA, add(CFA_XSP16, literal(-3)))
          CFI (cfiCond19) DPL0 load(1, XDATA, add(CFA_XSP16, literal(-2)))
          CFI (cfiCond19) DPH0 load(1, XDATA, add(CFA_XSP16, literal(-1)))
          CFI (cfiCond19) CFA_SP SP+-4
          CFI (cfiCond19) CFA_XSP16 add(XSP16, 16)
          CFI Block cfiCond20 Using cfiCommon0
          CFI (cfiCond20) Function osal_build_uint32
          CFI (cfiCond20) Conditional ??CrossCallReturnLabel_34, ??CrossCallReturnLabel_10
          CFI (cfiCond20) R6 load(1, XDATA, add(CFA_XSP16, literal(-16)))
          CFI (cfiCond20) VB load(1, XDATA, add(CFA_XSP16, literal(-15)))
          CFI (cfiCond20) V0 load(1, XDATA, add(CFA_XSP16, literal(-14)))
          CFI (cfiCond20) V1 load(1, XDATA, add(CFA_XSP16, literal(-13)))
          CFI (cfiCond20) V2 load(1, XDATA, add(CFA_XSP16, literal(-12)))
          CFI (cfiCond20) V3 load(1, XDATA, add(CFA_XSP16, literal(-11)))
          CFI (cfiCond20) V4 load(1, XDATA, add(CFA_XSP16, literal(-10)))
          CFI (cfiCond20) V5 load(1, XDATA, add(CFA_XSP16, literal(-9)))
          CFI (cfiCond20) V6 load(1, XDATA, add(CFA_XSP16, literal(-8)))
          CFI (cfiCond20) V7 load(1, XDATA, add(CFA_XSP16, literal(-7)))
          CFI (cfiCond20) R7 load(1, XDATA, add(CFA_XSP16, literal(-6)))
          CFI (cfiCond20) ?RET_LOW load(1, XDATA, add(CFA_XSP16, literal(-5)))
          CFI (cfiCond20) ?RET_HIGH load(1, XDATA, add(CFA_XSP16, literal(-4)))
          CFI (cfiCond20) ?BRET_EXT load(1, XDATA, add(CFA_XSP16, literal(-3)))
          CFI (cfiCond20) DPL0 load(1, XDATA, add(CFA_XSP16, literal(-2)))
          CFI (cfiCond20) DPH0 load(1, XDATA, add(CFA_XSP16, literal(-1)))
          CFI (cfiCond20) CFA_SP SP+-4
          CFI (cfiCond20) CFA_XSP16 add(XSP16, 16)
          CFI Block cfiPicker21 Using cfiCommon1
          CFI (cfiPicker21) NoFunction
          CFI (cfiPicker21) Picker
        INC       DPTR
        MOVX      A,@DPTR
        MOV       ?V0,A
        CLR       A
        MOV       ?V1,A
        MOV       ?V2,A
        MOV       ?V3,A
        MOV       A,#0x8
        RET
          CFI EndBlock cfiCond18
          CFI EndBlock cfiCond19
          CFI EndBlock cfiCond20
          CFI EndBlock cfiPicker21
//  371 
//  372 #if !defined ( ZBIT ) && !defined ( ZBIT2 ) && !defined (UBIT)
//  373 /*********************************************************************
//  374  * @fn      _ltoa
//  375  *
//  376  * @brief
//  377  *
//  378  *   convert a long unsigned int to a string.
//  379  *
//  380  * @param  l - long to convert
//  381  * @param  buf - buffer to convert to
//  382  * @param  radix - 10 dec, 16 hex
//  383  *
//  384  * @return  pointer to buffer
//  385  */

        RSEG BANKED_CODE:HUGECODE:NOROOT(0)
//  386 unsigned char * _ltoa(unsigned long l, unsigned char *buf, unsigned char radix)
_ltoa:
          CFI Block cfiBlock22 Using cfiCommon0
          CFI Function _ltoa
        CODE
//  387 {
        FUNCALL _ltoa, _itoa
        LOCFRAME ISTACK, 0, STACK
        LOCFRAME PSTACK, 0, STACK
        LOCFRAME XSTACK, 57, STACK
        LOCFRAME IOVERLAY, 0, STATIC
        LOCFRAME DOVERLAY, 0, STATIC
        ARGFRAME ISTACK, 0, STACK
        ARGFRAME PSTACK, 0, STACK
        ARGFRAME XSTACK, 57, STACK
        ARGFRAME IOVERLAY, 0, STATIC
        ARGFRAME DOVERLAY, 0, STATIC
        FUNCALL _ltoa, _itoa
        LOCFRAME ISTACK, 0, STACK
        LOCFRAME PSTACK, 0, STACK
        LOCFRAME XSTACK, 57, STACK
        LOCFRAME IOVERLAY, 0, STATIC
        LOCFRAME DOVERLAY, 0, STATIC
        ARGFRAME ISTACK, 0, STACK
        ARGFRAME PSTACK, 0, STACK
        ARGFRAME XSTACK, 57, STACK
        ARGFRAME IOVERLAY, 0, STATIC
        ARGFRAME DOVERLAY, 0, STATIC
        FUNCALL _ltoa, _itoa
        LOCFRAME ISTACK, 0, STACK
        LOCFRAME PSTACK, 0, STACK
        LOCFRAME XSTACK, 57, STACK
        LOCFRAME IOVERLAY, 0, STATIC
        LOCFRAME DOVERLAY, 0, STATIC
        ARGFRAME ISTACK, 0, STACK
        ARGFRAME PSTACK, 0, STACK
        ARGFRAME XSTACK, 57, STACK
        ARGFRAME IOVERLAY, 0, STATIC
        ARGFRAME DOVERLAY, 0, STATIC
        FUNCALL _ltoa, strcpy
        LOCFRAME ISTACK, 0, STACK
        LOCFRAME PSTACK, 0, STACK
        LOCFRAME XSTACK, 57, STACK
        LOCFRAME IOVERLAY, 0, STATIC
        LOCFRAME DOVERLAY, 0, STATIC
        ARGFRAME ISTACK, 0, STACK
        ARGFRAME PSTACK, 0, STACK
        ARGFRAME XSTACK, 57, STACK
        ARGFRAME IOVERLAY, 0, STATIC
        ARGFRAME DOVERLAY, 0, STATIC
        FUNCALL _ltoa, strcat
        LOCFRAME ISTACK, 0, STACK
        LOCFRAME PSTACK, 0, STACK
        LOCFRAME XSTACK, 57, STACK
        LOCFRAME IOVERLAY, 0, STATIC
        LOCFRAME DOVERLAY, 0, STATIC
        ARGFRAME ISTACK, 0, STACK
        ARGFRAME PSTACK, 0, STACK
        ARGFRAME XSTACK, 57, STACK
        ARGFRAME IOVERLAY, 0, STATIC
        ARGFRAME DOVERLAY, 0, STATIC
        FUNCALL _ltoa, strlen
        LOCFRAME ISTACK, 0, STACK
        LOCFRAME PSTACK, 0, STACK
        LOCFRAME XSTACK, 57, STACK
        LOCFRAME IOVERLAY, 0, STATIC
        LOCFRAME DOVERLAY, 0, STATIC
        ARGFRAME ISTACK, 0, STACK
        ARGFRAME PSTACK, 0, STACK
        ARGFRAME XSTACK, 57, STACK
        ARGFRAME IOVERLAY, 0, STATIC
        ARGFRAME DOVERLAY, 0, STATIC
        FUNCALL _ltoa, strcat
        LOCFRAME ISTACK, 0, STACK
        LOCFRAME PSTACK, 0, STACK
        LOCFRAME XSTACK, 57, STACK
        LOCFRAME IOVERLAY, 0, STATIC
        LOCFRAME DOVERLAY, 0, STATIC
        ARGFRAME ISTACK, 0, STACK
        ARGFRAME PSTACK, 0, STACK
        ARGFRAME XSTACK, 57, STACK
        ARGFRAME IOVERLAY, 0, STATIC
        ARGFRAME DOVERLAY, 0, STATIC
        FUNCALL _ltoa, strcat
        LOCFRAME ISTACK, 0, STACK
        LOCFRAME PSTACK, 0, STACK
        LOCFRAME XSTACK, 57, STACK
        LOCFRAME IOVERLAY, 0, STATIC
        LOCFRAME DOVERLAY, 0, STATIC
        ARGFRAME ISTACK, 0, STACK
        ARGFRAME PSTACK, 0, STACK
        ARGFRAME XSTACK, 57, STACK
        ARGFRAME IOVERLAY, 0, STATIC
        ARGFRAME DOVERLAY, 0, STATIC
        FUNCALL _ltoa, strlen
        LOCFRAME ISTACK, 0, STACK
        LOCFRAME PSTACK, 0, STACK
        LOCFRAME XSTACK, 57, STACK
        LOCFRAME IOVERLAY, 0, STATIC
        LOCFRAME DOVERLAY, 0, STATIC
        ARGFRAME ISTACK, 0, STACK
        ARGFRAME PSTACK, 0, STACK
        ARGFRAME XSTACK, 57, STACK
        ARGFRAME IOVERLAY, 0, STATIC
        ARGFRAME DOVERLAY, 0, STATIC
        FUNCALL _ltoa, strcat
        LOCFRAME ISTACK, 0, STACK
        LOCFRAME PSTACK, 0, STACK
        LOCFRAME XSTACK, 57, STACK
        LOCFRAME IOVERLAY, 0, STATIC
        LOCFRAME DOVERLAY, 0, STATIC
        ARGFRAME ISTACK, 0, STACK
        ARGFRAME PSTACK, 0, STACK
        ARGFRAME XSTACK, 57, STACK
        ARGFRAME IOVERLAY, 0, STATIC
        ARGFRAME DOVERLAY, 0, STATIC
        FUNCALL _ltoa, _itoa
        LOCFRAME ISTACK, 0, STACK
        LOCFRAME PSTACK, 0, STACK
        LOCFRAME XSTACK, 57, STACK
        LOCFRAME IOVERLAY, 0, STATIC
        LOCFRAME DOVERLAY, 0, STATIC
        ARGFRAME ISTACK, 0, STACK
        ARGFRAME PSTACK, 0, STACK
        ARGFRAME XSTACK, 57, STACK
        ARGFRAME IOVERLAY, 0, STATIC
        ARGFRAME DOVERLAY, 0, STATIC
        FUNCALL _ltoa, _itoa
        LOCFRAME ISTACK, 0, STACK
        LOCFRAME PSTACK, 0, STACK
        LOCFRAME XSTACK, 57, STACK
        LOCFRAME IOVERLAY, 0, STATIC
        LOCFRAME DOVERLAY, 0, STATIC
        ARGFRAME ISTACK, 0, STACK
        ARGFRAME PSTACK, 0, STACK
        ARGFRAME XSTACK, 57, STACK
        ARGFRAME IOVERLAY, 0, STATIC
        ARGFRAME DOVERLAY, 0, STATIC
        FUNCALL _ltoa, strcpy
        LOCFRAME ISTACK, 0, STACK
        LOCFRAME PSTACK, 0, STACK
        LOCFRAME XSTACK, 57, STACK
        LOCFRAME IOVERLAY, 0, STATIC
        LOCFRAME DOVERLAY, 0, STATIC
        ARGFRAME ISTACK, 0, STACK
        ARGFRAME PSTACK, 0, STACK
        ARGFRAME XSTACK, 57, STACK
        ARGFRAME IOVERLAY, 0, STATIC
        ARGFRAME DOVERLAY, 0, STATIC
        FUNCALL _ltoa, strcat
        LOCFRAME ISTACK, 0, STACK
        LOCFRAME PSTACK, 0, STACK
        LOCFRAME XSTACK, 57, STACK
        LOCFRAME IOVERLAY, 0, STATIC
        LOCFRAME DOVERLAY, 0, STATIC
        ARGFRAME ISTACK, 0, STACK
        ARGFRAME PSTACK, 0, STACK
        ARGFRAME XSTACK, 57, STACK
        ARGFRAME IOVERLAY, 0, STATIC
        ARGFRAME DOVERLAY, 0, STATIC
        FUNCALL _ltoa, strlen
        LOCFRAME ISTACK, 0, STACK
        LOCFRAME PSTACK, 0, STACK
        LOCFRAME XSTACK, 57, STACK
        LOCFRAME IOVERLAY, 0, STATIC
        LOCFRAME DOVERLAY, 0, STATIC
        ARGFRAME ISTACK, 0, STACK
        ARGFRAME PSTACK, 0, STACK
        ARGFRAME XSTACK, 57, STACK
        ARGFRAME IOVERLAY, 0, STATIC
        ARGFRAME DOVERLAY, 0, STATIC
        FUNCALL _ltoa, strcat
        LOCFRAME ISTACK, 0, STACK
        LOCFRAME PSTACK, 0, STACK
        LOCFRAME XSTACK, 57, STACK
        LOCFRAME IOVERLAY, 0, STATIC
        LOCFRAME DOVERLAY, 0, STATIC
        ARGFRAME ISTACK, 0, STACK
        ARGFRAME PSTACK, 0, STACK
        ARGFRAME XSTACK, 57, STACK
        ARGFRAME IOVERLAY, 0, STATIC
        ARGFRAME DOVERLAY, 0, STATIC
        FUNCALL _ltoa, strcpy
        LOCFRAME ISTACK, 0, STACK
        LOCFRAME PSTACK, 0, STACK
        LOCFRAME XSTACK, 57, STACK
        LOCFRAME IOVERLAY, 0, STATIC
        LOCFRAME DOVERLAY, 0, STATIC
        ARGFRAME ISTACK, 0, STACK
        ARGFRAME PSTACK, 0, STACK
        ARGFRAME XSTACK, 57, STACK
        ARGFRAME IOVERLAY, 0, STATIC
        ARGFRAME DOVERLAY, 0, STATIC
        REQUIRE ?V0
        REQUIRE ?V1
        REQUIRE ?V2
        REQUIRE ?V3
        REQUIRE ?V4
        REQUIRE ?V5
        REQUIRE ?V6
        REQUIRE ?V7
        REQUIRE ?V8
        REQUIRE ?V9
        REQUIRE ?V10
        REQUIRE ?V11
        REQUIRE ?V12
        REQUIRE ?V13
        REQUIRE ?V14
        REQUIRE ?V15
        MOV       A,#-0x18
        LCALL     ?BANKED_ENTER_XDATA
          CFI DPH0 load(1, XDATA, add(CFA_XSP16, literal(-1)))
          CFI DPL0 load(1, XDATA, add(CFA_XSP16, literal(-2)))
          CFI ?BRET_EXT load(1, XDATA, add(CFA_XSP16, literal(-3)))
          CFI ?RET_HIGH load(1, XDATA, add(CFA_XSP16, literal(-4)))
          CFI ?RET_LOW load(1, XDATA, add(CFA_XSP16, literal(-5)))
          CFI R7 load(1, XDATA, add(CFA_XSP16, literal(-6)))
          CFI V15 load(1, XDATA, add(CFA_XSP16, literal(-7)))
          CFI V14 load(1, XDATA, add(CFA_XSP16, literal(-8)))
          CFI V13 load(1, XDATA, add(CFA_XSP16, literal(-9)))
          CFI V12 load(1, XDATA, add(CFA_XSP16, literal(-10)))
          CFI V11 load(1, XDATA, add(CFA_XSP16, literal(-11)))
          CFI V10 load(1, XDATA, add(CFA_XSP16, literal(-12)))
          CFI V9 load(1, XDATA, add(CFA_XSP16, literal(-13)))
          CFI V8 load(1, XDATA, add(CFA_XSP16, literal(-14)))
          CFI V7 load(1, XDATA, add(CFA_XSP16, literal(-15)))
          CFI V6 load(1, XDATA, add(CFA_XSP16, literal(-16)))
          CFI V5 load(1, XDATA, add(CFA_XSP16, literal(-17)))
          CFI V4 load(1, XDATA, add(CFA_XSP16, literal(-18)))
          CFI V3 load(1, XDATA, add(CFA_XSP16, literal(-19)))
          CFI V2 load(1, XDATA, add(CFA_XSP16, literal(-20)))
          CFI V1 load(1, XDATA, add(CFA_XSP16, literal(-21)))
          CFI V0 load(1, XDATA, add(CFA_XSP16, literal(-22)))
          CFI VB load(1, XDATA, add(CFA_XSP16, literal(-23)))
          CFI R6 load(1, XDATA, add(CFA_XSP16, literal(-24)))
          CFI CFA_SP SP+0
          CFI CFA_XSP16 add(XSP16, 24)
        ; Saved register size: 24
        ; Auto size: 33
        MOV       A,#-0x21
        LCALL     ?ALLOC_XSTACK8
          CFI CFA_XSP16 add(XSP16, 57)
        MOV       A,R1
        MOV       DPL,?XSP + 0
        MOV       DPH,?XSP + 1
        MOVX      @DPTR,A
        MOV       ?V8,R2
        MOV       ?V9,R3
        MOV       ?V10,R4
        MOV       ?V11,R5
//  388 #if defined (__TI_COMPILER_VERSION)
//  389   return ( (unsigned char*)ltoa( l, (char *)buf ) );
//  390 #elif defined( __GNUC__ )
//  391   return ( (char*)ltoa( l, buf, radix ) );
//  392 #else
//  393   unsigned char tmp1[10] = "", tmp2[10] = "", tmp3[10] = "";
        MOV       DPTR,#`?<Constant "">`
        MOV       A,#0x3
        LCALL     ?XSTACK_DISP102_8
        MOV       A,#0xa
        LCALL     ?MOVE_LONG8_XDATA_XDATA
        MOV       DPTR,#`?<Constant "">_1`
        MOV       A,#0xa
        LCALL     ?MOVE_LONG8_XDATA_XDATA
        MOV       DPTR,#`?<Constant "">_2`
        MOV       A,#0xa
        LCALL     ?MOVE_LONG8_XDATA_XDATA
//  394   unsigned short num1, num2, num3;
//  395   unsigned char i;
//  396 
//  397   buf[0] = '\0';
        MOV       A,#0x39
        LCALL     ?XSTACK_DISP0_8
        LCALL     ?Subroutine15 & 0xFFFF
??CrossCallReturnLabel_18:
        CLR       A
        MOVX      @DPTR,A
//  398 
//  399   if ( radix == 10 )
        INC       A
        LCALL     ?XSTACK_DISP0_8
        MOV       A,#`?<Constant "0">` & 0xff
        MOVX      @DPTR,A
        INC       DPTR
        MOV       A,#(`?<Constant "0">` >> 8) & 0xff
        MOVX      @DPTR,A
        MOV       DPL,?XSP + 0
        MOV       DPH,?XSP + 1
        MOVX      A,@DPTR
        XRL       A,#0xa
        JZ        $+5
        LJMP      ??_ltoa_0 & 0xFFFF
//  400   {
//  401     num1 = l % 10000;
        MOV       ?V0,R2
        MOV       ?V1,R3
        MOV       ?V2,?V10
        MOV       ?V3,?V11
        MOV       DPTR,#__Constant_2710
        MOV       R0,#?V4
        LCALL     ?L_MOV_X
        MOV       R0,#?V0
        MOV       R1,#?V4
        LCALL     ?UL_DIV_MOD
        MOV       ?V0,?V4
        MOV       ?V1,?V5
//  402     num2 = (l / 10000) % 10000;
        MOV       ?V4,R2
        MOV       ?V5,R3
        MOV       ?V6,?V10
        MOV       ?V7,?V11
        MOV       DPTR,#__Constant_2710
        MOV       R0,#?V12
        LCALL     ?L_MOV_X
        MOV       R0,#?V4
        MOV       R1,#?V12
        LCALL     ?UL_DIV_MOD
        MOV       DPTR,#__Constant_2710
        MOV       R0,#?V12
        LCALL     ?L_MOV_X
        MOV       R0,#?V4
        MOV       R1,#?V12
        LCALL     ?UL_DIV_MOD
        MOV       R6,?V12
        MOV       R7,?V13
//  403     num3 = (unsigned short)(l / 100000000);
        MOV       DPTR,#__Constant_5f5e100
        MOV       R0,#?V4
        LCALL     ?L_MOV_X
        MOV       R0,#?V8
        MOV       R1,#?V4
        LCALL     ?UL_DIV_MOD
        MOV       ?V2,?V8
        MOV       ?V3,?V9
//  404 
//  405     if (num3) _itoa(num3, tmp3, 10);
        MOV       A,?V2
        ORL       A,?V3
        JZ        ??_ltoa_1
        ; Setup parameters for call to function _itoa
        MOV       R1,#0xa
        MOV       A,#0x17
        LCALL     ?XSTACK_DISP102_8
        MOV       R2,?V2
        MOV       R3,?V3
        LCALL     `??_itoa::?relay`; Banked call to: _itoa
//  406     if (num2) _itoa(num2, tmp2, 10);
??_ltoa_1:
        MOV       A,R6
        ORL       A,R7
        JZ        ??_ltoa_2
        ; Setup parameters for call to function _itoa
        MOV       R1,#0xa
        MOV       A,#0xd
        LCALL     ?XSTACK_DISP102_8
        MOV       A,R6
        MOV       R2,A
        MOV       A,R7
        MOV       R3,A
        LCALL     `??_itoa::?relay`; Banked call to: _itoa
//  407     if (num1) _itoa(num1, tmp1, 10);
??_ltoa_2:
        MOV       A,?V0
        ORL       A,?V1
        JZ        ??_ltoa_3
        ; Setup parameters for call to function _itoa
        MOV       R1,#0xa
        MOV       A,#0x3
        LCALL     ?XSTACK_DISP102_8
        MOV       R2,?V0
        MOV       R3,?V1
        LCALL     `??_itoa::?relay`; Banked call to: _itoa
//  408 
//  409     if (num3)
??_ltoa_3:
        MOV       A,?V2
        ORL       A,?V3
        JZ        ??_ltoa_4
//  410     {
//  411       strcpy((char*)buf, (char const*)tmp3);
        ; Setup parameters for call to function strcpy
        MOV       A,#0x17
        LCALL     ?XSTACK_DISP102_8
        MOV       A,#0x39
        LCALL     ?XSTACK_DISP0_8
        LCALL     ?Subroutine12 & 0xFFFF
//  412       for (i = 0; i < 4 - strlen((char const*)tmp2); i++)
??CrossCallReturnLabel_13:
        SJMP      ??CrossCallReturnLabel_2
//  413         strcat((char*)buf, "0");
??_ltoa_5:
        ; Setup parameters for call to function strcat
        MOV       A,#0x1
        LCALL     ?XSTACK_DISP0_8
        LCALL     ?Subroutine9 & 0xFFFF
??CrossCallReturnLabel_5:
        LCALL     ?XSTACK_DISP0_8
        LCALL     ?Subroutine8 & 0xFFFF
??CrossCallReturnLabel_2:
        MOV       A,?V4
        MOV       ?V6,A
        ; Setup parameters for call to function strlen
        MOV       A,#0xd
        LCALL     ?XSTACK_DISP101_8
        LCALL     ?Subroutine6 & 0xFFFF
//  414     }
??CrossCallReturnLabel_0:
        JC        ??_ltoa_5
//  415     strcat((char*)buf, (char const*)tmp2);
??_ltoa_4:
        ; Setup parameters for call to function strcat
        MOV       A,#0xd
        LCALL     ?XSTACK_DISP102_8
        MOV       A,#0x39
        LCALL     ?XSTACK_DISP0_8
        LCALL     ?Subroutine11 & 0xFFFF
//  416     if (num3 || num2)
??CrossCallReturnLabel_11:
        JNZ       ??_ltoa_6
        MOV       A,R6
        ORL       A,R7
        JZ        ??_ltoa_7
//  417     {
//  418       for (i = 0; i < 4 - strlen((char const*)tmp1); i++)
??_ltoa_6:
        MOV       ?V4,#0x0
        SJMP      ??CrossCallReturnLabel_3
//  419         strcat((char*)buf, "0");
??_ltoa_8:
        ; Setup parameters for call to function strcat
        MOV       A,#0x1
        LCALL     ?XSTACK_DISP0_8
        LCALL     ?Subroutine9 & 0xFFFF
??CrossCallReturnLabel_6:
        LCALL     ?XSTACK_DISP0_8
        LCALL     ?Subroutine8 & 0xFFFF
??CrossCallReturnLabel_3:
        MOV       A,?V4
        MOV       ?V6,A
        ; Setup parameters for call to function strlen
        MOV       A,#0x3
        LCALL     ?XSTACK_DISP101_8
        LCALL     ?Subroutine6 & 0xFFFF
//  420     }
??CrossCallReturnLabel_1:
        JC        ??_ltoa_8
//  421     strcat((char*)buf, (char const*)tmp1);
??_ltoa_7:
        ; Setup parameters for call to function strcat
        MOV       A,#0x3
        LCALL     ?XSTACK_DISP102_8
        MOV       A,#0x39
        LCALL     ?XSTACK_DISP0_8
        LCALL     ?Subroutine11 & 0xFFFF
//  422     if (!num3 && !num2 && !num1)
//  423       strcpy((char*)buf, "0");
//  424   }
??CrossCallReturnLabel_12:
        JNZ       ??_ltoa_9
        MOV       A,R6
        ORL       A,R7
        JNZ       $+5
        LJMP      ??_ltoa_10 & 0xFFFF
//  425   else if ( radix == 16 )
//  426   {
//  427     num1 = l & 0x0000FFFF;
//  428     num2 = l >> 16;
//  429 
//  430     if (num2) _itoa(num2, tmp2, 16);
//  431     if (num1) _itoa(num1, tmp1, 16);
//  432 
//  433     if (num2)
//  434     {
//  435       strcpy((char*)buf,(char const*)tmp2);
//  436       for (i = 0; i < 4 - strlen((char const*)tmp1); i++)
//  437         strcat((char*)buf, "0");
//  438     }
//  439     strcat((char*)buf, (char const*)tmp1);
//  440     if (!num2 && !num1)
//  441       strcpy((char*)buf, "0");
//  442   }
//  443   else
//  444     return NULL;
//  445 
//  446   return buf;
??_ltoa_9:
        MOV       A,#0x39
        LCALL     ?XSTACK_DISP0_8
        LCALL     ??Subroutine32_0 & 0xFFFF
??CrossCallReturnLabel_58:
        MOV       A,#0x21
        LCALL     ?DEALLOC_XSTACK8
          CFI CFA_XSP16 add(XSP16, 24)
        MOV       R7,#0x10
        LJMP      ?BANKED_LEAVE_XDATA
          CFI CFA_XSP16 add(XSP16, 57)
??_ltoa_0:
        MOVX      A,@DPTR
        XRL       A,#0x10
        JZ        $+5
        LJMP      ??_ltoa_11 & 0xFFFF
        MOV       ?V0,R2
        MOV       ?V1,R3
        MOV       A,#0x10
        MOV       R0,#?V8
        LCALL     ?UL_SHR
        MOV       R6,?V8
        MOV       R7,?V9
        MOV       A,R6
        ORL       A,R7
        JZ        ??_ltoa_12
        ; Setup parameters for call to function _itoa
        MOV       R1,#0x10
        MOV       A,#0xd
        LCALL     ?XSTACK_DISP102_8
        MOV       A,R6
        MOV       R2,A
        MOV       A,R7
        MOV       R3,A
        LCALL     `??_itoa::?relay`; Banked call to: _itoa
??_ltoa_12:
        MOV       A,?V0
        ORL       A,?V1
        JZ        ??_ltoa_13
        ; Setup parameters for call to function _itoa
        MOV       R1,#0x10
        MOV       A,#0x3
        LCALL     ?XSTACK_DISP102_8
        MOV       R2,?V0
        MOV       R3,?V1
        LCALL     `??_itoa::?relay`; Banked call to: _itoa
??_ltoa_13:
        MOV       A,R6
        ORL       A,R7
        JZ        ??_ltoa_14
        ; Setup parameters for call to function strcpy
        MOV       A,#0xd
        LCALL     ?XSTACK_DISP102_8
        MOV       A,#0x39
        LCALL     ?XSTACK_DISP0_8
        LCALL     ?Subroutine12 & 0xFFFF
??CrossCallReturnLabel_14:
        SJMP      ??CrossCallReturnLabel_4
??_ltoa_15:
        ; Setup parameters for call to function strcat
        MOV       A,#0x1
        LCALL     ?XSTACK_DISP0_8
        LCALL     ?Subroutine9 & 0xFFFF
??CrossCallReturnLabel_7:
        LCALL     ?XSTACK_DISP0_8
        LCALL     ?Subroutine8 & 0xFFFF
??CrossCallReturnLabel_4:
        MOV       A,?V4
        MOV       ?V2,A
        ; Setup parameters for call to function strlen
        MOV       A,#0x3
        LCALL     ?XSTACK_DISP101_8
        LCALL     `??strlen::?relay`; Banked call to: strlen
        MOV       ?V6,R2
        MOV       ?V7,R3
        MOV       A,#0x4
        CLR       C
        SUBB      A,?V6
        MOV       R0,A
        CLR       A
        SUBB      A,?V7
        MOV       R1,A
        CLR       C
        MOV       A,?V2
        SUBB      A,R0
        CLR       A
        SUBB      A,R1
        JC        ??_ltoa_15
??_ltoa_14:
        ; Setup parameters for call to function strcat
        MOV       A,#0x3
        LCALL     ?XSTACK_DISP102_8
        MOV       A,#0x39
        LCALL     ?XSTACK_DISP0_8
        LCALL     ??Subroutine32_0 & 0xFFFF
??CrossCallReturnLabel_59:
        LCALL     `??strcat::?relay`; Banked call to: strcat
        MOV       A,R6
        ORL       A,R7
        JZ        $+5
        LJMP      ??_ltoa_9 & 0xFFFF
??_ltoa_10:
        MOV       A,?V0
        ORL       A,?V1
        JZ        $+5
        LJMP      ??_ltoa_9 & 0xFFFF
        ; Setup parameters for call to function strcpy
        MOV       A,#0x1
        LCALL     ?XSTACK_DISP0_8
        LCALL     ?Subroutine9 & 0xFFFF
??CrossCallReturnLabel_8:
        LCALL     ?XSTACK_DISP0_8
        LCALL     ??Subroutine32_0 & 0xFFFF
??CrossCallReturnLabel_60:
        LCALL     `??strcpy::?relay`; Banked call to: strcpy
        LJMP      ??_ltoa_9 & 0xFFFF
??_ltoa_11:
        MOV       R2,#0x0
        MOV       R3,#0x0
        LJMP      ??CrossCallReturnLabel_58 & 0xFFFF
//  447 #endif
//  448 }
          CFI EndBlock cfiBlock22

        RSEG BANKED_CODE:HUGECODE:NOROOT(0)
?Subroutine12:
          CFI Block cfiCond23 Using cfiCommon0
          CFI Function _ltoa
          CFI Conditional ??CrossCallReturnLabel_13
          CFI R6 load(1, XDATA, add(CFA_XSP16, literal(-24)))
          CFI VB load(1, XDATA, add(CFA_XSP16, literal(-23)))
          CFI V0 load(1, XDATA, add(CFA_XSP16, literal(-22)))
          CFI V1 load(1, XDATA, add(CFA_XSP16, literal(-21)))
          CFI V2 load(1, XDATA, add(CFA_XSP16, literal(-20)))
          CFI V3 load(1, XDATA, add(CFA_XSP16, literal(-19)))
          CFI V4 load(1, XDATA, add(CFA_XSP16, literal(-18)))
          CFI V5 load(1, XDATA, add(CFA_XSP16, literal(-17)))
          CFI V6 load(1, XDATA, add(CFA_XSP16, literal(-16)))
          CFI V7 load(1, XDATA, add(CFA_XSP16, literal(-15)))
          CFI V8 load(1, XDATA, add(CFA_XSP16, literal(-14)))
          CFI V9 load(1, XDATA, add(CFA_XSP16, literal(-13)))
          CFI V10 load(1, XDATA, add(CFA_XSP16, literal(-12)))
          CFI V11 load(1, XDATA, add(CFA_XSP16, literal(-11)))
          CFI V12 load(1, XDATA, add(CFA_XSP16, literal(-10)))
          CFI V13 load(1, XDATA, add(CFA_XSP16, literal(-9)))
          CFI V14 load(1, XDATA, add(CFA_XSP16, literal(-8)))
          CFI V15 load(1, XDATA, add(CFA_XSP16, literal(-7)))
          CFI R7 load(1, XDATA, add(CFA_XSP16, literal(-6)))
          CFI ?RET_LOW load(1, XDATA, add(CFA_XSP16, literal(-5)))
          CFI ?RET_HIGH load(1, XDATA, add(CFA_XSP16, literal(-4)))
          CFI ?BRET_EXT load(1, XDATA, add(CFA_XSP16, literal(-3)))
          CFI DPL0 load(1, XDATA, add(CFA_XSP16, literal(-2)))
          CFI DPH0 load(1, XDATA, add(CFA_XSP16, literal(-1)))
          CFI CFA_SP SP+-2
          CFI CFA_XSP16 add(XSP16, 57)
          CFI Block cfiCond24 Using cfiCommon0
          CFI (cfiCond24) Function _ltoa
          CFI (cfiCond24) Conditional ??CrossCallReturnLabel_14
          CFI (cfiCond24) R6 load(1, XDATA, add(CFA_XSP16, literal(-24)))
          CFI (cfiCond24) VB load(1, XDATA, add(CFA_XSP16, literal(-23)))
          CFI (cfiCond24) V0 load(1, XDATA, add(CFA_XSP16, literal(-22)))
          CFI (cfiCond24) V1 load(1, XDATA, add(CFA_XSP16, literal(-21)))
          CFI (cfiCond24) V2 load(1, XDATA, add(CFA_XSP16, literal(-20)))
          CFI (cfiCond24) V3 load(1, XDATA, add(CFA_XSP16, literal(-19)))
          CFI (cfiCond24) V4 load(1, XDATA, add(CFA_XSP16, literal(-18)))
          CFI (cfiCond24) V5 load(1, XDATA, add(CFA_XSP16, literal(-17)))
          CFI (cfiCond24) V6 load(1, XDATA, add(CFA_XSP16, literal(-16)))
          CFI (cfiCond24) V7 load(1, XDATA, add(CFA_XSP16, literal(-15)))
          CFI (cfiCond24) V8 load(1, XDATA, add(CFA_XSP16, literal(-14)))
          CFI (cfiCond24) V9 load(1, XDATA, add(CFA_XSP16, literal(-13)))
          CFI (cfiCond24) V10 load(1, XDATA, add(CFA_XSP16, literal(-12)))
          CFI (cfiCond24) V11 load(1, XDATA, add(CFA_XSP16, literal(-11)))
          CFI (cfiCond24) V12 load(1, XDATA, add(CFA_XSP16, literal(-10)))
          CFI (cfiCond24) V13 load(1, XDATA, add(CFA_XSP16, literal(-9)))
          CFI (cfiCond24) V14 load(1, XDATA, add(CFA_XSP16, literal(-8)))
          CFI (cfiCond24) V15 load(1, XDATA, add(CFA_XSP16, literal(-7)))
          CFI (cfiCond24) R7 load(1, XDATA, add(CFA_XSP16, literal(-6)))
          CFI (cfiCond24) ?RET_LOW load(1, XDATA, add(CFA_XSP16, literal(-5)))
          CFI (cfiCond24) ?RET_HIGH load(1, XDATA, add(CFA_XSP16, literal(-4)))
          CFI (cfiCond24) ?BRET_EXT load(1, XDATA, add(CFA_XSP16, literal(-3)))
          CFI (cfiCond24) DPL0 load(1, XDATA, add(CFA_XSP16, literal(-2)))
          CFI (cfiCond24) DPH0 load(1, XDATA, add(CFA_XSP16, literal(-1)))
          CFI (cfiCond24) CFA_SP SP+-2
          CFI (cfiCond24) CFA_XSP16 add(XSP16, 57)
          CFI Block cfiPicker25 Using cfiCommon1
          CFI (cfiPicker25) NoFunction
          CFI (cfiPicker25) Picker
        MOVX      A,@DPTR
        MOV       R2,A
        INC       DPTR
        MOVX      A,@DPTR
        MOV       R3,A
        LCALL     `??strcpy::?relay`; Banked call to: strcpy
        MOV       ?V4,#0x0
        RET
          CFI EndBlock cfiCond23
          CFI EndBlock cfiCond24
          CFI EndBlock cfiPicker25

        RSEG BANKED_CODE:HUGECODE:NOROOT(0)
?Subroutine11:
          CFI Block cfiCond26 Using cfiCommon0
          CFI Function _ltoa
          CFI Conditional ??CrossCallReturnLabel_11
          CFI R6 load(1, XDATA, add(CFA_XSP16, literal(-24)))
          CFI VB load(1, XDATA, add(CFA_XSP16, literal(-23)))
          CFI V0 load(1, XDATA, add(CFA_XSP16, literal(-22)))
          CFI V1 load(1, XDATA, add(CFA_XSP16, literal(-21)))
          CFI V2 load(1, XDATA, add(CFA_XSP16, literal(-20)))
          CFI V3 load(1, XDATA, add(CFA_XSP16, literal(-19)))
          CFI V4 load(1, XDATA, add(CFA_XSP16, literal(-18)))
          CFI V5 load(1, XDATA, add(CFA_XSP16, literal(-17)))
          CFI V6 load(1, XDATA, add(CFA_XSP16, literal(-16)))
          CFI V7 load(1, XDATA, add(CFA_XSP16, literal(-15)))
          CFI V8 load(1, XDATA, add(CFA_XSP16, literal(-14)))
          CFI V9 load(1, XDATA, add(CFA_XSP16, literal(-13)))
          CFI V10 load(1, XDATA, add(CFA_XSP16, literal(-12)))
          CFI V11 load(1, XDATA, add(CFA_XSP16, literal(-11)))
          CFI V12 load(1, XDATA, add(CFA_XSP16, literal(-10)))
          CFI V13 load(1, XDATA, add(CFA_XSP16, literal(-9)))
          CFI V14 load(1, XDATA, add(CFA_XSP16, literal(-8)))
          CFI V15 load(1, XDATA, add(CFA_XSP16, literal(-7)))
          CFI R7 load(1, XDATA, add(CFA_XSP16, literal(-6)))
          CFI ?RET_LOW load(1, XDATA, add(CFA_XSP16, literal(-5)))
          CFI ?RET_HIGH load(1, XDATA, add(CFA_XSP16, literal(-4)))
          CFI ?BRET_EXT load(1, XDATA, add(CFA_XSP16, literal(-3)))
          CFI DPL0 load(1, XDATA, add(CFA_XSP16, literal(-2)))
          CFI DPH0 load(1, XDATA, add(CFA_XSP16, literal(-1)))
          CFI CFA_SP SP+-2
          CFI CFA_XSP16 add(XSP16, 57)
          CFI Block cfiCond27 Using cfiCommon0
          CFI (cfiCond27) Function _ltoa
          CFI (cfiCond27) Conditional ??CrossCallReturnLabel_12
          CFI (cfiCond27) R6 load(1, XDATA, add(CFA_XSP16, literal(-24)))
          CFI (cfiCond27) VB load(1, XDATA, add(CFA_XSP16, literal(-23)))
          CFI (cfiCond27) V0 load(1, XDATA, add(CFA_XSP16, literal(-22)))
          CFI (cfiCond27) V1 load(1, XDATA, add(CFA_XSP16, literal(-21)))
          CFI (cfiCond27) V2 load(1, XDATA, add(CFA_XSP16, literal(-20)))
          CFI (cfiCond27) V3 load(1, XDATA, add(CFA_XSP16, literal(-19)))
          CFI (cfiCond27) V4 load(1, XDATA, add(CFA_XSP16, literal(-18)))
          CFI (cfiCond27) V5 load(1, XDATA, add(CFA_XSP16, literal(-17)))
          CFI (cfiCond27) V6 load(1, XDATA, add(CFA_XSP16, literal(-16)))
          CFI (cfiCond27) V7 load(1, XDATA, add(CFA_XSP16, literal(-15)))
          CFI (cfiCond27) V8 load(1, XDATA, add(CFA_XSP16, literal(-14)))
          CFI (cfiCond27) V9 load(1, XDATA, add(CFA_XSP16, literal(-13)))
          CFI (cfiCond27) V10 load(1, XDATA, add(CFA_XSP16, literal(-12)))
          CFI (cfiCond27) V11 load(1, XDATA, add(CFA_XSP16, literal(-11)))
          CFI (cfiCond27) V12 load(1, XDATA, add(CFA_XSP16, literal(-10)))
          CFI (cfiCond27) V13 load(1, XDATA, add(CFA_XSP16, literal(-9)))
          CFI (cfiCond27) V14 load(1, XDATA, add(CFA_XSP16, literal(-8)))
          CFI (cfiCond27) V15 load(1, XDATA, add(CFA_XSP16, literal(-7)))
          CFI (cfiCond27) R7 load(1, XDATA, add(CFA_XSP16, literal(-6)))
          CFI (cfiCond27) ?RET_LOW load(1, XDATA, add(CFA_XSP16, literal(-5)))
          CFI (cfiCond27) ?RET_HIGH load(1, XDATA, add(CFA_XSP16, literal(-4)))
          CFI (cfiCond27) ?BRET_EXT load(1, XDATA, add(CFA_XSP16, literal(-3)))
          CFI (cfiCond27) DPL0 load(1, XDATA, add(CFA_XSP16, literal(-2)))
          CFI (cfiCond27) DPH0 load(1, XDATA, add(CFA_XSP16, literal(-1)))
          CFI (cfiCond27) CFA_SP SP+-2
          CFI (cfiCond27) CFA_XSP16 add(XSP16, 57)
          CFI Block cfiPicker28 Using cfiCommon1
          CFI (cfiPicker28) NoFunction
          CFI (cfiPicker28) Picker
        LCALL     ?Subroutine25 & 0xFFFF
??CrossCallReturnLabel_35:
        MOV       A,?V2
        ORL       A,?V3
        RET
          CFI EndBlock cfiCond26
          CFI EndBlock cfiCond27
          CFI EndBlock cfiPicker28

        RSEG BANKED_CODE:HUGECODE:NOROOT(0)
?Subroutine9:
          CFI Block cfiCond29 Using cfiCommon0
          CFI Function _ltoa
          CFI Conditional ??CrossCallReturnLabel_5
          CFI R6 load(1, XDATA, add(CFA_XSP16, literal(-24)))
          CFI VB load(1, XDATA, add(CFA_XSP16, literal(-23)))
          CFI V0 load(1, XDATA, add(CFA_XSP16, literal(-22)))
          CFI V1 load(1, XDATA, add(CFA_XSP16, literal(-21)))
          CFI V2 load(1, XDATA, add(CFA_XSP16, literal(-20)))
          CFI V3 load(1, XDATA, add(CFA_XSP16, literal(-19)))
          CFI V4 load(1, XDATA, add(CFA_XSP16, literal(-18)))
          CFI V5 load(1, XDATA, add(CFA_XSP16, literal(-17)))
          CFI V6 load(1, XDATA, add(CFA_XSP16, literal(-16)))
          CFI V7 load(1, XDATA, add(CFA_XSP16, literal(-15)))
          CFI V8 load(1, XDATA, add(CFA_XSP16, literal(-14)))
          CFI V9 load(1, XDATA, add(CFA_XSP16, literal(-13)))
          CFI V10 load(1, XDATA, add(CFA_XSP16, literal(-12)))
          CFI V11 load(1, XDATA, add(CFA_XSP16, literal(-11)))
          CFI V12 load(1, XDATA, add(CFA_XSP16, literal(-10)))
          CFI V13 load(1, XDATA, add(CFA_XSP16, literal(-9)))
          CFI V14 load(1, XDATA, add(CFA_XSP16, literal(-8)))
          CFI V15 load(1, XDATA, add(CFA_XSP16, literal(-7)))
          CFI R7 load(1, XDATA, add(CFA_XSP16, literal(-6)))
          CFI ?RET_LOW load(1, XDATA, add(CFA_XSP16, literal(-5)))
          CFI ?RET_HIGH load(1, XDATA, add(CFA_XSP16, literal(-4)))
          CFI ?BRET_EXT load(1, XDATA, add(CFA_XSP16, literal(-3)))
          CFI DPL0 load(1, XDATA, add(CFA_XSP16, literal(-2)))
          CFI DPH0 load(1, XDATA, add(CFA_XSP16, literal(-1)))
          CFI CFA_SP SP+-2
          CFI CFA_XSP16 add(XSP16, 57)
          CFI Block cfiCond30 Using cfiCommon0
          CFI (cfiCond30) Function _ltoa
          CFI (cfiCond30) Conditional ??CrossCallReturnLabel_6
          CFI (cfiCond30) R6 load(1, XDATA, add(CFA_XSP16, literal(-24)))
          CFI (cfiCond30) VB load(1, XDATA, add(CFA_XSP16, literal(-23)))
          CFI (cfiCond30) V0 load(1, XDATA, add(CFA_XSP16, literal(-22)))
          CFI (cfiCond30) V1 load(1, XDATA, add(CFA_XSP16, literal(-21)))
          CFI (cfiCond30) V2 load(1, XDATA, add(CFA_XSP16, literal(-20)))
          CFI (cfiCond30) V3 load(1, XDATA, add(CFA_XSP16, literal(-19)))
          CFI (cfiCond30) V4 load(1, XDATA, add(CFA_XSP16, literal(-18)))
          CFI (cfiCond30) V5 load(1, XDATA, add(CFA_XSP16, literal(-17)))
          CFI (cfiCond30) V6 load(1, XDATA, add(CFA_XSP16, literal(-16)))
          CFI (cfiCond30) V7 load(1, XDATA, add(CFA_XSP16, literal(-15)))
          CFI (cfiCond30) V8 load(1, XDATA, add(CFA_XSP16, literal(-14)))
          CFI (cfiCond30) V9 load(1, XDATA, add(CFA_XSP16, literal(-13)))
          CFI (cfiCond30) V10 load(1, XDATA, add(CFA_XSP16, literal(-12)))
          CFI (cfiCond30) V11 load(1, XDATA, add(CFA_XSP16, literal(-11)))
          CFI (cfiCond30) V12 load(1, XDATA, add(CFA_XSP16, literal(-10)))
          CFI (cfiCond30) V13 load(1, XDATA, add(CFA_XSP16, literal(-9)))
          CFI (cfiCond30) V14 load(1, XDATA, add(CFA_XSP16, literal(-8)))
          CFI (cfiCond30) V15 load(1, XDATA, add(CFA_XSP16, literal(-7)))
          CFI (cfiCond30) R7 load(1, XDATA, add(CFA_XSP16, literal(-6)))
          CFI (cfiCond30) ?RET_LOW load(1, XDATA, add(CFA_XSP16, literal(-5)))
          CFI (cfiCond30) ?RET_HIGH load(1, XDATA, add(CFA_XSP16, literal(-4)))
          CFI (cfiCond30) ?BRET_EXT load(1, XDATA, add(CFA_XSP16, literal(-3)))
          CFI (cfiCond30) DPL0 load(1, XDATA, add(CFA_XSP16, literal(-2)))
          CFI (cfiCond30) DPH0 load(1, XDATA, add(CFA_XSP16, literal(-1)))
          CFI (cfiCond30) CFA_SP SP+-2
          CFI (cfiCond30) CFA_XSP16 add(XSP16, 57)
          CFI Block cfiCond31 Using cfiCommon0
          CFI (cfiCond31) Function _ltoa
          CFI (cfiCond31) Conditional ??CrossCallReturnLabel_7
          CFI (cfiCond31) R6 load(1, XDATA, add(CFA_XSP16, literal(-24)))
          CFI (cfiCond31) VB load(1, XDATA, add(CFA_XSP16, literal(-23)))
          CFI (cfiCond31) V0 load(1, XDATA, add(CFA_XSP16, literal(-22)))
          CFI (cfiCond31) V1 load(1, XDATA, add(CFA_XSP16, literal(-21)))
          CFI (cfiCond31) V2 load(1, XDATA, add(CFA_XSP16, literal(-20)))
          CFI (cfiCond31) V3 load(1, XDATA, add(CFA_XSP16, literal(-19)))
          CFI (cfiCond31) V4 load(1, XDATA, add(CFA_XSP16, literal(-18)))
          CFI (cfiCond31) V5 load(1, XDATA, add(CFA_XSP16, literal(-17)))
          CFI (cfiCond31) V6 load(1, XDATA, add(CFA_XSP16, literal(-16)))
          CFI (cfiCond31) V7 load(1, XDATA, add(CFA_XSP16, literal(-15)))
          CFI (cfiCond31) V8 load(1, XDATA, add(CFA_XSP16, literal(-14)))
          CFI (cfiCond31) V9 load(1, XDATA, add(CFA_XSP16, literal(-13)))
          CFI (cfiCond31) V10 load(1, XDATA, add(CFA_XSP16, literal(-12)))
          CFI (cfiCond31) V11 load(1, XDATA, add(CFA_XSP16, literal(-11)))
          CFI (cfiCond31) V12 load(1, XDATA, add(CFA_XSP16, literal(-10)))
          CFI (cfiCond31) V13 load(1, XDATA, add(CFA_XSP16, literal(-9)))
          CFI (cfiCond31) V14 load(1, XDATA, add(CFA_XSP16, literal(-8)))
          CFI (cfiCond31) V15 load(1, XDATA, add(CFA_XSP16, literal(-7)))
          CFI (cfiCond31) R7 load(1, XDATA, add(CFA_XSP16, literal(-6)))
          CFI (cfiCond31) ?RET_LOW load(1, XDATA, add(CFA_XSP16, literal(-5)))
          CFI (cfiCond31) ?RET_HIGH load(1, XDATA, add(CFA_XSP16, literal(-4)))
          CFI (cfiCond31) ?BRET_EXT load(1, XDATA, add(CFA_XSP16, literal(-3)))
          CFI (cfiCond31) DPL0 load(1, XDATA, add(CFA_XSP16, literal(-2)))
          CFI (cfiCond31) DPH0 load(1, XDATA, add(CFA_XSP16, literal(-1)))
          CFI (cfiCond31) CFA_SP SP+-2
          CFI (cfiCond31) CFA_XSP16 add(XSP16, 57)
          CFI Block cfiCond32 Using cfiCommon0
          CFI (cfiCond32) Function _ltoa
          CFI (cfiCond32) Conditional ??CrossCallReturnLabel_8
          CFI (cfiCond32) R6 load(1, XDATA, add(CFA_XSP16, literal(-24)))
          CFI (cfiCond32) VB load(1, XDATA, add(CFA_XSP16, literal(-23)))
          CFI (cfiCond32) V0 load(1, XDATA, add(CFA_XSP16, literal(-22)))
          CFI (cfiCond32) V1 load(1, XDATA, add(CFA_XSP16, literal(-21)))
          CFI (cfiCond32) V2 load(1, XDATA, add(CFA_XSP16, literal(-20)))
          CFI (cfiCond32) V3 load(1, XDATA, add(CFA_XSP16, literal(-19)))
          CFI (cfiCond32) V4 load(1, XDATA, add(CFA_XSP16, literal(-18)))
          CFI (cfiCond32) V5 load(1, XDATA, add(CFA_XSP16, literal(-17)))
          CFI (cfiCond32) V6 load(1, XDATA, add(CFA_XSP16, literal(-16)))
          CFI (cfiCond32) V7 load(1, XDATA, add(CFA_XSP16, literal(-15)))
          CFI (cfiCond32) V8 load(1, XDATA, add(CFA_XSP16, literal(-14)))
          CFI (cfiCond32) V9 load(1, XDATA, add(CFA_XSP16, literal(-13)))
          CFI (cfiCond32) V10 load(1, XDATA, add(CFA_XSP16, literal(-12)))
          CFI (cfiCond32) V11 load(1, XDATA, add(CFA_XSP16, literal(-11)))
          CFI (cfiCond32) V12 load(1, XDATA, add(CFA_XSP16, literal(-10)))
          CFI (cfiCond32) V13 load(1, XDATA, add(CFA_XSP16, literal(-9)))
          CFI (cfiCond32) V14 load(1, XDATA, add(CFA_XSP16, literal(-8)))
          CFI (cfiCond32) V15 load(1, XDATA, add(CFA_XSP16, literal(-7)))
          CFI (cfiCond32) R7 load(1, XDATA, add(CFA_XSP16, literal(-6)))
          CFI (cfiCond32) ?RET_LOW load(1, XDATA, add(CFA_XSP16, literal(-5)))
          CFI (cfiCond32) ?RET_HIGH load(1, XDATA, add(CFA_XSP16, literal(-4)))
          CFI (cfiCond32) ?BRET_EXT load(1, XDATA, add(CFA_XSP16, literal(-3)))
          CFI (cfiCond32) DPL0 load(1, XDATA, add(CFA_XSP16, literal(-2)))
          CFI (cfiCond32) DPH0 load(1, XDATA, add(CFA_XSP16, literal(-1)))
          CFI (cfiCond32) CFA_SP SP+-2
          CFI (cfiCond32) CFA_XSP16 add(XSP16, 57)
          CFI Block cfiPicker33 Using cfiCommon1
          CFI (cfiPicker33) NoFunction
          CFI (cfiPicker33) Picker
        MOVX      A,@DPTR
        MOV       R4,A
        INC       DPTR
        MOVX      A,@DPTR
        MOV       R5,A
        MOV       A,#0x39
        RET
          CFI EndBlock cfiCond29
          CFI EndBlock cfiCond30
          CFI EndBlock cfiCond31
          CFI EndBlock cfiCond32
          CFI EndBlock cfiPicker33

        RSEG BANKED_CODE:HUGECODE:NOROOT(0)
?Subroutine8:
          CFI Block cfiCond34 Using cfiCommon0
          CFI Function _ltoa
          CFI Conditional ??CrossCallReturnLabel_2
          CFI R6 load(1, XDATA, add(CFA_XSP16, literal(-24)))
          CFI VB load(1, XDATA, add(CFA_XSP16, literal(-23)))
          CFI V0 load(1, XDATA, add(CFA_XSP16, literal(-22)))
          CFI V1 load(1, XDATA, add(CFA_XSP16, literal(-21)))
          CFI V2 load(1, XDATA, add(CFA_XSP16, literal(-20)))
          CFI V3 load(1, XDATA, add(CFA_XSP16, literal(-19)))
          CFI V4 load(1, XDATA, add(CFA_XSP16, literal(-18)))
          CFI V5 load(1, XDATA, add(CFA_XSP16, literal(-17)))
          CFI V6 load(1, XDATA, add(CFA_XSP16, literal(-16)))
          CFI V7 load(1, XDATA, add(CFA_XSP16, literal(-15)))
          CFI V8 load(1, XDATA, add(CFA_XSP16, literal(-14)))
          CFI V9 load(1, XDATA, add(CFA_XSP16, literal(-13)))
          CFI V10 load(1, XDATA, add(CFA_XSP16, literal(-12)))
          CFI V11 load(1, XDATA, add(CFA_XSP16, literal(-11)))
          CFI V12 load(1, XDATA, add(CFA_XSP16, literal(-10)))
          CFI V13 load(1, XDATA, add(CFA_XSP16, literal(-9)))
          CFI V14 load(1, XDATA, add(CFA_XSP16, literal(-8)))
          CFI V15 load(1, XDATA, add(CFA_XSP16, literal(-7)))
          CFI R7 load(1, XDATA, add(CFA_XSP16, literal(-6)))
          CFI ?RET_LOW load(1, XDATA, add(CFA_XSP16, literal(-5)))
          CFI ?RET_HIGH load(1, XDATA, add(CFA_XSP16, literal(-4)))
          CFI ?BRET_EXT load(1, XDATA, add(CFA_XSP16, literal(-3)))
          CFI DPL0 load(1, XDATA, add(CFA_XSP16, literal(-2)))
          CFI DPH0 load(1, XDATA, add(CFA_XSP16, literal(-1)))
          CFI CFA_SP SP+-2
          CFI CFA_XSP16 add(XSP16, 57)
          CFI Block cfiCond35 Using cfiCommon0
          CFI (cfiCond35) Function _ltoa
          CFI (cfiCond35) Conditional ??CrossCallReturnLabel_3
          CFI (cfiCond35) R6 load(1, XDATA, add(CFA_XSP16, literal(-24)))
          CFI (cfiCond35) VB load(1, XDATA, add(CFA_XSP16, literal(-23)))
          CFI (cfiCond35) V0 load(1, XDATA, add(CFA_XSP16, literal(-22)))
          CFI (cfiCond35) V1 load(1, XDATA, add(CFA_XSP16, literal(-21)))
          CFI (cfiCond35) V2 load(1, XDATA, add(CFA_XSP16, literal(-20)))
          CFI (cfiCond35) V3 load(1, XDATA, add(CFA_XSP16, literal(-19)))
          CFI (cfiCond35) V4 load(1, XDATA, add(CFA_XSP16, literal(-18)))
          CFI (cfiCond35) V5 load(1, XDATA, add(CFA_XSP16, literal(-17)))
          CFI (cfiCond35) V6 load(1, XDATA, add(CFA_XSP16, literal(-16)))
          CFI (cfiCond35) V7 load(1, XDATA, add(CFA_XSP16, literal(-15)))
          CFI (cfiCond35) V8 load(1, XDATA, add(CFA_XSP16, literal(-14)))
          CFI (cfiCond35) V9 load(1, XDATA, add(CFA_XSP16, literal(-13)))
          CFI (cfiCond35) V10 load(1, XDATA, add(CFA_XSP16, literal(-12)))
          CFI (cfiCond35) V11 load(1, XDATA, add(CFA_XSP16, literal(-11)))
          CFI (cfiCond35) V12 load(1, XDATA, add(CFA_XSP16, literal(-10)))
          CFI (cfiCond35) V13 load(1, XDATA, add(CFA_XSP16, literal(-9)))
          CFI (cfiCond35) V14 load(1, XDATA, add(CFA_XSP16, literal(-8)))
          CFI (cfiCond35) V15 load(1, XDATA, add(CFA_XSP16, literal(-7)))
          CFI (cfiCond35) R7 load(1, XDATA, add(CFA_XSP16, literal(-6)))
          CFI (cfiCond35) ?RET_LOW load(1, XDATA, add(CFA_XSP16, literal(-5)))
          CFI (cfiCond35) ?RET_HIGH load(1, XDATA, add(CFA_XSP16, literal(-4)))
          CFI (cfiCond35) ?BRET_EXT load(1, XDATA, add(CFA_XSP16, literal(-3)))
          CFI (cfiCond35) DPL0 load(1, XDATA, add(CFA_XSP16, literal(-2)))
          CFI (cfiCond35) DPH0 load(1, XDATA, add(CFA_XSP16, literal(-1)))
          CFI (cfiCond35) CFA_SP SP+-2
          CFI (cfiCond35) CFA_XSP16 add(XSP16, 57)
          CFI Block cfiCond36 Using cfiCommon0
          CFI (cfiCond36) Function _ltoa
          CFI (cfiCond36) Conditional ??CrossCallReturnLabel_4
          CFI (cfiCond36) R6 load(1, XDATA, add(CFA_XSP16, literal(-24)))
          CFI (cfiCond36) VB load(1, XDATA, add(CFA_XSP16, literal(-23)))
          CFI (cfiCond36) V0 load(1, XDATA, add(CFA_XSP16, literal(-22)))
          CFI (cfiCond36) V1 load(1, XDATA, add(CFA_XSP16, literal(-21)))
          CFI (cfiCond36) V2 load(1, XDATA, add(CFA_XSP16, literal(-20)))
          CFI (cfiCond36) V3 load(1, XDATA, add(CFA_XSP16, literal(-19)))
          CFI (cfiCond36) V4 load(1, XDATA, add(CFA_XSP16, literal(-18)))
          CFI (cfiCond36) V5 load(1, XDATA, add(CFA_XSP16, literal(-17)))
          CFI (cfiCond36) V6 load(1, XDATA, add(CFA_XSP16, literal(-16)))
          CFI (cfiCond36) V7 load(1, XDATA, add(CFA_XSP16, literal(-15)))
          CFI (cfiCond36) V8 load(1, XDATA, add(CFA_XSP16, literal(-14)))
          CFI (cfiCond36) V9 load(1, XDATA, add(CFA_XSP16, literal(-13)))
          CFI (cfiCond36) V10 load(1, XDATA, add(CFA_XSP16, literal(-12)))
          CFI (cfiCond36) V11 load(1, XDATA, add(CFA_XSP16, literal(-11)))
          CFI (cfiCond36) V12 load(1, XDATA, add(CFA_XSP16, literal(-10)))
          CFI (cfiCond36) V13 load(1, XDATA, add(CFA_XSP16, literal(-9)))
          CFI (cfiCond36) V14 load(1, XDATA, add(CFA_XSP16, literal(-8)))
          CFI (cfiCond36) V15 load(1, XDATA, add(CFA_XSP16, literal(-7)))
          CFI (cfiCond36) R7 load(1, XDATA, add(CFA_XSP16, literal(-6)))
          CFI (cfiCond36) ?RET_LOW load(1, XDATA, add(CFA_XSP16, literal(-5)))
          CFI (cfiCond36) ?RET_HIGH load(1, XDATA, add(CFA_XSP16, literal(-4)))
          CFI (cfiCond36) ?BRET_EXT load(1, XDATA, add(CFA_XSP16, literal(-3)))
          CFI (cfiCond36) DPL0 load(1, XDATA, add(CFA_XSP16, literal(-2)))
          CFI (cfiCond36) DPH0 load(1, XDATA, add(CFA_XSP16, literal(-1)))
          CFI (cfiCond36) CFA_SP SP+-2
          CFI (cfiCond36) CFA_XSP16 add(XSP16, 57)
          CFI Block cfiPicker37 Using cfiCommon1
          CFI (cfiPicker37) NoFunction
          CFI (cfiPicker37) Picker
        LCALL     ?Subroutine25 & 0xFFFF
??CrossCallReturnLabel_36:
        INC       ?V4
        RET
          CFI EndBlock cfiCond34
          CFI EndBlock cfiCond35
          CFI EndBlock cfiCond36
          CFI EndBlock cfiPicker37

        RSEG BANKED_CODE:HUGECODE:NOROOT(0)
?Subroutine25:
          CFI Block cfiCond38 Using cfiCommon0
          CFI Function _ltoa
          CFI Conditional ??CrossCallReturnLabel_35, ??CrossCallReturnLabel_11
          CFI R6 load(1, XDATA, add(CFA_XSP16, literal(-24)))
          CFI VB load(1, XDATA, add(CFA_XSP16, literal(-23)))
          CFI V0 load(1, XDATA, add(CFA_XSP16, literal(-22)))
          CFI V1 load(1, XDATA, add(CFA_XSP16, literal(-21)))
          CFI V2 load(1, XDATA, add(CFA_XSP16, literal(-20)))
          CFI V3 load(1, XDATA, add(CFA_XSP16, literal(-19)))
          CFI V4 load(1, XDATA, add(CFA_XSP16, literal(-18)))
          CFI V5 load(1, XDATA, add(CFA_XSP16, literal(-17)))
          CFI V6 load(1, XDATA, add(CFA_XSP16, literal(-16)))
          CFI V7 load(1, XDATA, add(CFA_XSP16, literal(-15)))
          CFI V8 load(1, XDATA, add(CFA_XSP16, literal(-14)))
          CFI V9 load(1, XDATA, add(CFA_XSP16, literal(-13)))
          CFI V10 load(1, XDATA, add(CFA_XSP16, literal(-12)))
          CFI V11 load(1, XDATA, add(CFA_XSP16, literal(-11)))
          CFI V12 load(1, XDATA, add(CFA_XSP16, literal(-10)))
          CFI V13 load(1, XDATA, add(CFA_XSP16, literal(-9)))
          CFI V14 load(1, XDATA, add(CFA_XSP16, literal(-8)))
          CFI V15 load(1, XDATA, add(CFA_XSP16, literal(-7)))
          CFI R7 load(1, XDATA, add(CFA_XSP16, literal(-6)))
          CFI ?RET_LOW load(1, XDATA, add(CFA_XSP16, literal(-5)))
          CFI ?RET_HIGH load(1, XDATA, add(CFA_XSP16, literal(-4)))
          CFI ?BRET_EXT load(1, XDATA, add(CFA_XSP16, literal(-3)))
          CFI DPL0 load(1, XDATA, add(CFA_XSP16, literal(-2)))
          CFI DPH0 load(1, XDATA, add(CFA_XSP16, literal(-1)))
          CFI CFA_SP SP+-4
          CFI CFA_XSP16 add(XSP16, 57)
          CFI Block cfiCond39 Using cfiCommon0
          CFI (cfiCond39) Function _ltoa
          CFI (cfiCond39) Conditional ??CrossCallReturnLabel_35, ??CrossCallReturnLabel_12
          CFI (cfiCond39) R6 load(1, XDATA, add(CFA_XSP16, literal(-24)))
          CFI (cfiCond39) VB load(1, XDATA, add(CFA_XSP16, literal(-23)))
          CFI (cfiCond39) V0 load(1, XDATA, add(CFA_XSP16, literal(-22)))
          CFI (cfiCond39) V1 load(1, XDATA, add(CFA_XSP16, literal(-21)))
          CFI (cfiCond39) V2 load(1, XDATA, add(CFA_XSP16, literal(-20)))
          CFI (cfiCond39) V3 load(1, XDATA, add(CFA_XSP16, literal(-19)))
          CFI (cfiCond39) V4 load(1, XDATA, add(CFA_XSP16, literal(-18)))
          CFI (cfiCond39) V5 load(1, XDATA, add(CFA_XSP16, literal(-17)))
          CFI (cfiCond39) V6 load(1, XDATA, add(CFA_XSP16, literal(-16)))
          CFI (cfiCond39) V7 load(1, XDATA, add(CFA_XSP16, literal(-15)))
          CFI (cfiCond39) V8 load(1, XDATA, add(CFA_XSP16, literal(-14)))
          CFI (cfiCond39) V9 load(1, XDATA, add(CFA_XSP16, literal(-13)))
          CFI (cfiCond39) V10 load(1, XDATA, add(CFA_XSP16, literal(-12)))
          CFI (cfiCond39) V11 load(1, XDATA, add(CFA_XSP16, literal(-11)))
          CFI (cfiCond39) V12 load(1, XDATA, add(CFA_XSP16, literal(-10)))
          CFI (cfiCond39) V13 load(1, XDATA, add(CFA_XSP16, literal(-9)))
          CFI (cfiCond39) V14 load(1, XDATA, add(CFA_XSP16, literal(-8)))
          CFI (cfiCond39) V15 load(1, XDATA, add(CFA_XSP16, literal(-7)))
          CFI (cfiCond39) R7 load(1, XDATA, add(CFA_XSP16, literal(-6)))
          CFI (cfiCond39) ?RET_LOW load(1, XDATA, add(CFA_XSP16, literal(-5)))
          CFI (cfiCond39) ?RET_HIGH load(1, XDATA, add(CFA_XSP16, literal(-4)))
          CFI (cfiCond39) ?BRET_EXT load(1, XDATA, add(CFA_XSP16, literal(-3)))
          CFI (cfiCond39) DPL0 load(1, XDATA, add(CFA_XSP16, literal(-2)))
          CFI (cfiCond39) DPH0 load(1, XDATA, add(CFA_XSP16, literal(-1)))
          CFI (cfiCond39) CFA_SP SP+-4
          CFI (cfiCond39) CFA_XSP16 add(XSP16, 57)
          CFI Block cfiCond40 Using cfiCommon0
          CFI (cfiCond40) Function _ltoa
          CFI (cfiCond40) Conditional ??CrossCallReturnLabel_36, ??CrossCallReturnLabel_2
          CFI (cfiCond40) R6 load(1, XDATA, add(CFA_XSP16, literal(-24)))
          CFI (cfiCond40) VB load(1, XDATA, add(CFA_XSP16, literal(-23)))
          CFI (cfiCond40) V0 load(1, XDATA, add(CFA_XSP16, literal(-22)))
          CFI (cfiCond40) V1 load(1, XDATA, add(CFA_XSP16, literal(-21)))
          CFI (cfiCond40) V2 load(1, XDATA, add(CFA_XSP16, literal(-20)))
          CFI (cfiCond40) V3 load(1, XDATA, add(CFA_XSP16, literal(-19)))
          CFI (cfiCond40) V4 load(1, XDATA, add(CFA_XSP16, literal(-18)))
          CFI (cfiCond40) V5 load(1, XDATA, add(CFA_XSP16, literal(-17)))
          CFI (cfiCond40) V6 load(1, XDATA, add(CFA_XSP16, literal(-16)))
          CFI (cfiCond40) V7 load(1, XDATA, add(CFA_XSP16, literal(-15)))
          CFI (cfiCond40) V8 load(1, XDATA, add(CFA_XSP16, literal(-14)))
          CFI (cfiCond40) V9 load(1, XDATA, add(CFA_XSP16, literal(-13)))
          CFI (cfiCond40) V10 load(1, XDATA, add(CFA_XSP16, literal(-12)))
          CFI (cfiCond40) V11 load(1, XDATA, add(CFA_XSP16, literal(-11)))
          CFI (cfiCond40) V12 load(1, XDATA, add(CFA_XSP16, literal(-10)))
          CFI (cfiCond40) V13 load(1, XDATA, add(CFA_XSP16, literal(-9)))
          CFI (cfiCond40) V14 load(1, XDATA, add(CFA_XSP16, literal(-8)))
          CFI (cfiCond40) V15 load(1, XDATA, add(CFA_XSP16, literal(-7)))
          CFI (cfiCond40) R7 load(1, XDATA, add(CFA_XSP16, literal(-6)))
          CFI (cfiCond40) ?RET_LOW load(1, XDATA, add(CFA_XSP16, literal(-5)))
          CFI (cfiCond40) ?RET_HIGH load(1, XDATA, add(CFA_XSP16, literal(-4)))
          CFI (cfiCond40) ?BRET_EXT load(1, XDATA, add(CFA_XSP16, literal(-3)))
          CFI (cfiCond40) DPL0 load(1, XDATA, add(CFA_XSP16, literal(-2)))
          CFI (cfiCond40) DPH0 load(1, XDATA, add(CFA_XSP16, literal(-1)))
          CFI (cfiCond40) CFA_SP SP+-4
          CFI (cfiCond40) CFA_XSP16 add(XSP16, 57)
          CFI Block cfiCond41 Using cfiCommon0
          CFI (cfiCond41) Function _ltoa
          CFI (cfiCond41) Conditional ??CrossCallReturnLabel_36, ??CrossCallReturnLabel_3
          CFI (cfiCond41) R6 load(1, XDATA, add(CFA_XSP16, literal(-24)))
          CFI (cfiCond41) VB load(1, XDATA, add(CFA_XSP16, literal(-23)))
          CFI (cfiCond41) V0 load(1, XDATA, add(CFA_XSP16, literal(-22)))
          CFI (cfiCond41) V1 load(1, XDATA, add(CFA_XSP16, literal(-21)))
          CFI (cfiCond41) V2 load(1, XDATA, add(CFA_XSP16, literal(-20)))
          CFI (cfiCond41) V3 load(1, XDATA, add(CFA_XSP16, literal(-19)))
          CFI (cfiCond41) V4 load(1, XDATA, add(CFA_XSP16, literal(-18)))
          CFI (cfiCond41) V5 load(1, XDATA, add(CFA_XSP16, literal(-17)))
          CFI (cfiCond41) V6 load(1, XDATA, add(CFA_XSP16, literal(-16)))
          CFI (cfiCond41) V7 load(1, XDATA, add(CFA_XSP16, literal(-15)))
          CFI (cfiCond41) V8 load(1, XDATA, add(CFA_XSP16, literal(-14)))
          CFI (cfiCond41) V9 load(1, XDATA, add(CFA_XSP16, literal(-13)))
          CFI (cfiCond41) V10 load(1, XDATA, add(CFA_XSP16, literal(-12)))
          CFI (cfiCond41) V11 load(1, XDATA, add(CFA_XSP16, literal(-11)))
          CFI (cfiCond41) V12 load(1, XDATA, add(CFA_XSP16, literal(-10)))
          CFI (cfiCond41) V13 load(1, XDATA, add(CFA_XSP16, literal(-9)))
          CFI (cfiCond41) V14 load(1, XDATA, add(CFA_XSP16, literal(-8)))
          CFI (cfiCond41) V15 load(1, XDATA, add(CFA_XSP16, literal(-7)))
          CFI (cfiCond41) R7 load(1, XDATA, add(CFA_XSP16, literal(-6)))
          CFI (cfiCond41) ?RET_LOW load(1, XDATA, add(CFA_XSP16, literal(-5)))
          CFI (cfiCond41) ?RET_HIGH load(1, XDATA, add(CFA_XSP16, literal(-4)))
          CFI (cfiCond41) ?BRET_EXT load(1, XDATA, add(CFA_XSP16, literal(-3)))
          CFI (cfiCond41) DPL0 load(1, XDATA, add(CFA_XSP16, literal(-2)))
          CFI (cfiCond41) DPH0 load(1, XDATA, add(CFA_XSP16, literal(-1)))
          CFI (cfiCond41) CFA_SP SP+-4
          CFI (cfiCond41) CFA_XSP16 add(XSP16, 57)
          CFI Block cfiCond42 Using cfiCommon0
          CFI (cfiCond42) Function _ltoa
          CFI (cfiCond42) Conditional ??CrossCallReturnLabel_36, ??CrossCallReturnLabel_4
          CFI (cfiCond42) R6 load(1, XDATA, add(CFA_XSP16, literal(-24)))
          CFI (cfiCond42) VB load(1, XDATA, add(CFA_XSP16, literal(-23)))
          CFI (cfiCond42) V0 load(1, XDATA, add(CFA_XSP16, literal(-22)))
          CFI (cfiCond42) V1 load(1, XDATA, add(CFA_XSP16, literal(-21)))
          CFI (cfiCond42) V2 load(1, XDATA, add(CFA_XSP16, literal(-20)))
          CFI (cfiCond42) V3 load(1, XDATA, add(CFA_XSP16, literal(-19)))
          CFI (cfiCond42) V4 load(1, XDATA, add(CFA_XSP16, literal(-18)))
          CFI (cfiCond42) V5 load(1, XDATA, add(CFA_XSP16, literal(-17)))
          CFI (cfiCond42) V6 load(1, XDATA, add(CFA_XSP16, literal(-16)))
          CFI (cfiCond42) V7 load(1, XDATA, add(CFA_XSP16, literal(-15)))
          CFI (cfiCond42) V8 load(1, XDATA, add(CFA_XSP16, literal(-14)))
          CFI (cfiCond42) V9 load(1, XDATA, add(CFA_XSP16, literal(-13)))
          CFI (cfiCond42) V10 load(1, XDATA, add(CFA_XSP16, literal(-12)))
          CFI (cfiCond42) V11 load(1, XDATA, add(CFA_XSP16, literal(-11)))
          CFI (cfiCond42) V12 load(1, XDATA, add(CFA_XSP16, literal(-10)))
          CFI (cfiCond42) V13 load(1, XDATA, add(CFA_XSP16, literal(-9)))
          CFI (cfiCond42) V14 load(1, XDATA, add(CFA_XSP16, literal(-8)))
          CFI (cfiCond42) V15 load(1, XDATA, add(CFA_XSP16, literal(-7)))
          CFI (cfiCond42) R7 load(1, XDATA, add(CFA_XSP16, literal(-6)))
          CFI (cfiCond42) ?RET_LOW load(1, XDATA, add(CFA_XSP16, literal(-5)))
          CFI (cfiCond42) ?RET_HIGH load(1, XDATA, add(CFA_XSP16, literal(-4)))
          CFI (cfiCond42) ?BRET_EXT load(1, XDATA, add(CFA_XSP16, literal(-3)))
          CFI (cfiCond42) DPL0 load(1, XDATA, add(CFA_XSP16, literal(-2)))
          CFI (cfiCond42) DPH0 load(1, XDATA, add(CFA_XSP16, literal(-1)))
          CFI (cfiCond42) CFA_SP SP+-4
          CFI (cfiCond42) CFA_XSP16 add(XSP16, 57)
          CFI Block cfiPicker43 Using cfiCommon1
          CFI (cfiPicker43) NoFunction
          CFI (cfiPicker43) Picker
        MOVX      A,@DPTR
        MOV       R2,A
        INC       DPTR
        MOVX      A,@DPTR
        MOV       R3,A
        LCALL     `??strcat::?relay`; Banked call to: strcat
        RET
          CFI EndBlock cfiCond38
          CFI EndBlock cfiCond39
          CFI EndBlock cfiCond40
          CFI EndBlock cfiCond41
          CFI EndBlock cfiCond42
          CFI EndBlock cfiPicker43

        RSEG BANKED_CODE:HUGECODE:NOROOT(0)
?Subroutine6:
          CFI Block cfiCond44 Using cfiCommon0
          CFI Function _ltoa
          CFI Conditional ??CrossCallReturnLabel_0
          CFI R6 load(1, XDATA, add(CFA_XSP16, literal(-24)))
          CFI VB load(1, XDATA, add(CFA_XSP16, literal(-23)))
          CFI V0 load(1, XDATA, add(CFA_XSP16, literal(-22)))
          CFI V1 load(1, XDATA, add(CFA_XSP16, literal(-21)))
          CFI V2 load(1, XDATA, add(CFA_XSP16, literal(-20)))
          CFI V3 load(1, XDATA, add(CFA_XSP16, literal(-19)))
          CFI V4 load(1, XDATA, add(CFA_XSP16, literal(-18)))
          CFI V5 load(1, XDATA, add(CFA_XSP16, literal(-17)))
          CFI V6 load(1, XDATA, add(CFA_XSP16, literal(-16)))
          CFI V7 load(1, XDATA, add(CFA_XSP16, literal(-15)))
          CFI V8 load(1, XDATA, add(CFA_XSP16, literal(-14)))
          CFI V9 load(1, XDATA, add(CFA_XSP16, literal(-13)))
          CFI V10 load(1, XDATA, add(CFA_XSP16, literal(-12)))
          CFI V11 load(1, XDATA, add(CFA_XSP16, literal(-11)))
          CFI V12 load(1, XDATA, add(CFA_XSP16, literal(-10)))
          CFI V13 load(1, XDATA, add(CFA_XSP16, literal(-9)))
          CFI V14 load(1, XDATA, add(CFA_XSP16, literal(-8)))
          CFI V15 load(1, XDATA, add(CFA_XSP16, literal(-7)))
          CFI R7 load(1, XDATA, add(CFA_XSP16, literal(-6)))
          CFI ?RET_LOW load(1, XDATA, add(CFA_XSP16, literal(-5)))
          CFI ?RET_HIGH load(1, XDATA, add(CFA_XSP16, literal(-4)))
          CFI ?BRET_EXT load(1, XDATA, add(CFA_XSP16, literal(-3)))
          CFI DPL0 load(1, XDATA, add(CFA_XSP16, literal(-2)))
          CFI DPH0 load(1, XDATA, add(CFA_XSP16, literal(-1)))
          CFI CFA_SP SP+-2
          CFI CFA_XSP16 add(XSP16, 57)
          CFI Block cfiCond45 Using cfiCommon0
          CFI (cfiCond45) Function _ltoa
          CFI (cfiCond45) Conditional ??CrossCallReturnLabel_1
          CFI (cfiCond45) R6 load(1, XDATA, add(CFA_XSP16, literal(-24)))
          CFI (cfiCond45) VB load(1, XDATA, add(CFA_XSP16, literal(-23)))
          CFI (cfiCond45) V0 load(1, XDATA, add(CFA_XSP16, literal(-22)))
          CFI (cfiCond45) V1 load(1, XDATA, add(CFA_XSP16, literal(-21)))
          CFI (cfiCond45) V2 load(1, XDATA, add(CFA_XSP16, literal(-20)))
          CFI (cfiCond45) V3 load(1, XDATA, add(CFA_XSP16, literal(-19)))
          CFI (cfiCond45) V4 load(1, XDATA, add(CFA_XSP16, literal(-18)))
          CFI (cfiCond45) V5 load(1, XDATA, add(CFA_XSP16, literal(-17)))
          CFI (cfiCond45) V6 load(1, XDATA, add(CFA_XSP16, literal(-16)))
          CFI (cfiCond45) V7 load(1, XDATA, add(CFA_XSP16, literal(-15)))
          CFI (cfiCond45) V8 load(1, XDATA, add(CFA_XSP16, literal(-14)))
          CFI (cfiCond45) V9 load(1, XDATA, add(CFA_XSP16, literal(-13)))
          CFI (cfiCond45) V10 load(1, XDATA, add(CFA_XSP16, literal(-12)))
          CFI (cfiCond45) V11 load(1, XDATA, add(CFA_XSP16, literal(-11)))
          CFI (cfiCond45) V12 load(1, XDATA, add(CFA_XSP16, literal(-10)))
          CFI (cfiCond45) V13 load(1, XDATA, add(CFA_XSP16, literal(-9)))
          CFI (cfiCond45) V14 load(1, XDATA, add(CFA_XSP16, literal(-8)))
          CFI (cfiCond45) V15 load(1, XDATA, add(CFA_XSP16, literal(-7)))
          CFI (cfiCond45) R7 load(1, XDATA, add(CFA_XSP16, literal(-6)))
          CFI (cfiCond45) ?RET_LOW load(1, XDATA, add(CFA_XSP16, literal(-5)))
          CFI (cfiCond45) ?RET_HIGH load(1, XDATA, add(CFA_XSP16, literal(-4)))
          CFI (cfiCond45) ?BRET_EXT load(1, XDATA, add(CFA_XSP16, literal(-3)))
          CFI (cfiCond45) DPL0 load(1, XDATA, add(CFA_XSP16, literal(-2)))
          CFI (cfiCond45) DPH0 load(1, XDATA, add(CFA_XSP16, literal(-1)))
          CFI (cfiCond45) CFA_SP SP+-2
          CFI (cfiCond45) CFA_XSP16 add(XSP16, 57)
          CFI Block cfiPicker46 Using cfiCommon1
          CFI (cfiPicker46) NoFunction
          CFI (cfiPicker46) Picker
        LCALL     `??strlen::?relay`; Banked call to: strlen
        MOV       ?V8,R2
        MOV       ?V9,R3
        MOV       A,#0x4
        CLR       C
        SUBB      A,?V8
        MOV       R0,A
        CLR       A
        SUBB      A,?V9
        MOV       R1,A
        CLR       C
        MOV       A,?V6
        SUBB      A,R0
        CLR       A
        SUBB      A,R1
        RET
          CFI EndBlock cfiCond44
          CFI EndBlock cfiCond45
          CFI EndBlock cfiPicker46
//  449 #endif // !defined(ZBIT) && !defined(ZBIT2)
//  450 
//  451 /*********************************************************************
//  452  * @fn        osal_rand
//  453  *
//  454  * @brief    Random number generator
//  455  *
//  456  * @param   none
//  457  *
//  458  * @return  uint16 - new random number
//  459  */

        RSEG BANKED_CODE:HUGECODE:NOROOT(0)
//  460 uint16 osal_rand( void )
osal_rand:
          CFI Block cfiBlock47 Using cfiCommon0
          CFI Function osal_rand
        CODE
//  461 {
        FUNCALL osal_rand, Onboard_rand
        LOCFRAME ISTACK, 2, STACK
        LOCFRAME PSTACK, 0, STACK
        LOCFRAME XSTACK, 0, STACK
        LOCFRAME IOVERLAY, 0, STATIC
        LOCFRAME DOVERLAY, 0, STATIC
        ARGFRAME ISTACK, 2, STACK
        ARGFRAME PSTACK, 0, STACK
        ARGFRAME XSTACK, 0, STACK
        ARGFRAME IOVERLAY, 0, STATIC
        ARGFRAME DOVERLAY, 0, STATIC
        PUSH      DPL
          CFI DPL0 Frame(CFA_SP, 4)
          CFI CFA_SP SP+-4
        PUSH      DPH
          CFI DPH0 Frame(CFA_SP, 5)
          CFI CFA_SP SP+-5
        ; Saved register size: 2
        ; Auto size: 0
//  462   return ( Onboard_rand() );
        ; Setup parameters for call to function Onboard_rand
        LCALL     `??Onboard_rand::?relay`; Banked call to: Onboard_rand
        SJMP      ?Subroutine0
//  463 }
          CFI EndBlock cfiBlock47
//  464 
//  465 /*********************************************************************
//  466  * API FUNCTIONS
//  467  *********************************************************************/
//  468 
//  469 #ifdef USE_ICALL
//  470 /*********************************************************************
//  471  * @fn      osal_prepare_svc_enroll
//  472  *
//  473  * @brief   Initialize data structures that map OSAL task ids to
//  474  *          ICall entity ids.
//  475  *
//  476  * @param   none
//  477  *
//  478  * @return  none
//  479  */
//  480 static void osal_prepare_svc_enroll(void)
//  481 {
//  482   osal_dispatch_entities = (uint8 *) osal_mem_alloc(tasksCnt * 2);
//  483   osal_memset(osal_dispatch_entities, OSAL_INVALID_DISPATCH_ID, tasksCnt * 2);
//  484   osal_memset(osal_proxy_tasks, OSAL_INVALID_DISPATCH_ID,
//  485               OSAL_MAX_NUM_PROXY_TASKS);
//  486 }
//  487 
//  488 /*********************************************************************
//  489  * @fn      osal_enroll_dispatchid
//  490  *
//  491  * @brief   Map a task id to an ICall entity id for messaging in
//  492  *          both directions (sending and receiving).
//  493  *
//  494  * @param   taskid       OSAL task id
//  495  * @param   dispatchid   ICall entity id
//  496  *
//  497  * @return  none
//  498  */
//  499 void osal_enroll_dispatchid(uint8 taskid, ICall_EntityID dispatchid)
//  500 {
//  501   osal_dispatch_entities[taskid] = dispatchid;
//  502   osal_dispatch_entities[tasksCnt + taskid] = dispatchid;
//  503 }
//  504 
//  505 /*********************************************************************
//  506  * @fn      osal_enroll_senderid
//  507  *
//  508  * @brief   Map a task id to an ICall entity id, which shall be used
//  509  *          just for sending a message from an OSAL task.
//  510  *          Note that osal_enroll_dispatchid() must never be called
//  511  *          with the same OSAL task id used in this function call.
//  512  *          However, it is OK to call osal_enroll_dispatchid()
//  513  *          with the same ICall entity id and a different OSAL task id.
//  514  *
//  515  * @param   taskid       OSAL task id
//  516  * @param   dispatchid   ICall entity id
//  517  *
//  518  * @return  none
//  519  */
//  520 void osal_enroll_senderid(uint8 taskid, ICall_EntityID dispatchid)
//  521 {
//  522   osal_dispatch_entities[tasksCnt + taskid] = dispatchid;
//  523 }
//  524 
//  525 /*********************************************************************
//  526  * @fn      osal_enroll_notasksender
//  527  *
//  528  * @brief   Map no task id to an ICall entity id, which shall be used
//  529  *          just for sending a message from non-OSAL task.
//  530  *
//  531  * @param   dispatchid   ICall entity id
//  532  *
//  533  * @return  none
//  534  */
//  535 void osal_enroll_notasksender(ICall_EntityID dispatchid)
//  536 {
//  537   osal_notask_entity = dispatchid;
//  538 }
//  539 #endif /* USE_ICALL */
//  540 
//  541 /*********************************************************************
//  542  * @fn      osal_msg_allocate
//  543  *
//  544  * @brief
//  545  *
//  546  *    This function is called by a task to allocate a message buffer
//  547  *    into which the task will encode the particular message it wishes
//  548  *    to send.  This common buffer scheme is used to strictly limit the
//  549  *    creation of message buffers within the system due to RAM size
//  550  *    limitations on the microprocessor.   Note that all message buffers
//  551  *    are a fixed size (at least initially).  The parameter len is kept
//  552  *    in case a message pool with varying fixed message sizes is later
//  553  *    created (for example, a pool of message buffers of size LARGE,
//  554  *    MEDIUM and SMALL could be maintained and allocated based on request
//  555  *    from the tasks).
//  556  *
//  557  *
//  558  * @param   uint8 len  - wanted buffer length
//  559  *
//  560  *
//  561  * @return  pointer to allocated buffer or NULL if allocation failed.
//  562  */

        RSEG BANKED_CODE:HUGECODE:NOROOT(0)
//  563 uint8 * osal_msg_allocate( uint16 len )
osal_msg_allocate:
          CFI Block cfiBlock48 Using cfiCommon0
          CFI Function osal_msg_allocate
        CODE
//  564 {
        FUNCALL osal_msg_allocate, osal_mem_alloc
        LOCFRAME ISTACK, 0, STACK
        LOCFRAME PSTACK, 0, STACK
        LOCFRAME XSTACK, 10, STACK
        LOCFRAME IOVERLAY, 0, STATIC
        LOCFRAME DOVERLAY, 0, STATIC
        ARGFRAME ISTACK, 0, STACK
        ARGFRAME PSTACK, 0, STACK
        ARGFRAME XSTACK, 10, STACK
        ARGFRAME IOVERLAY, 0, STATIC
        ARGFRAME DOVERLAY, 0, STATIC
        REQUIRE ?V0
        REQUIRE ?V1
        MOV       A,#-0xa
        LCALL     ?BANKED_ENTER_XDATA
          CFI DPH0 load(1, XDATA, add(CFA_XSP16, literal(-1)))
          CFI DPL0 load(1, XDATA, add(CFA_XSP16, literal(-2)))
          CFI ?BRET_EXT load(1, XDATA, add(CFA_XSP16, literal(-3)))
          CFI ?RET_HIGH load(1, XDATA, add(CFA_XSP16, literal(-4)))
          CFI ?RET_LOW load(1, XDATA, add(CFA_XSP16, literal(-5)))
          CFI R7 load(1, XDATA, add(CFA_XSP16, literal(-6)))
          CFI V1 load(1, XDATA, add(CFA_XSP16, literal(-7)))
          CFI V0 load(1, XDATA, add(CFA_XSP16, literal(-8)))
          CFI VB load(1, XDATA, add(CFA_XSP16, literal(-9)))
          CFI R6 load(1, XDATA, add(CFA_XSP16, literal(-10)))
          CFI CFA_SP SP+0
          CFI CFA_XSP16 add(XSP16, 10)
        ; Saved register size: 10
        ; Auto size: 0
        MOV       A,R2
        MOV       R6,A
        MOV       A,R3
        MOV       R7,A
//  565   osal_msg_hdr_t *hdr;
//  566 
//  567   if ( len == 0 )
        MOV       A,R2
        ORL       A,R7
        JZ        ??osal_msg_allocate_0
//  568     return ( NULL );
//  569 
//  570   hdr = (osal_msg_hdr_t *) osal_mem_alloc( (short)(len + sizeof( osal_msg_hdr_t )) );
        ; Setup parameters for call to function osal_mem_alloc
        MOV       A,R2
        ADD       A,#0x5
        MOV       R2,A
        CLR       A
        ADDC      A,R7
        MOV       R3,A
        LCALL     `??osal_mem_alloc::?relay`; Banked call to: osal_mem_alloc
        MOV       ?V1,R3
        MOV       R1,?V1
//  571   if ( hdr )
        MOV       A,R2
        ORL       A,R1
        JZ        ??osal_msg_allocate_0
//  572   {
//  573     hdr->next = NULL;
        MOV       DPL,R2
        MOV       DPH,R3
        CLR       A
        MOVX      @DPTR,A
        INC       DPTR
        LCALL     ??Subroutine28_0 & 0xFFFF
//  574     hdr->len = len;
??CrossCallReturnLabel_39:
        INC       DPTR
        INC       DPTR
        LCALL     ?Subroutine20 & 0xFFFF
//  575     hdr->dest_id = TASK_NO_TASK;
??CrossCallReturnLabel_37:
        INC       DPTR
        INC       DPTR
        INC       DPTR
        INC       DPTR
        MOV       A,#-0x1
        MOVX      @DPTR,A
//  576     return ( (uint8 *) (hdr + 1) );
        MOV       A,R2
        ADD       A,#0x5
        MOV       R2,A
        CLR       A
        ADDC      A,R1
        MOV       R3,A
        SJMP      ??osal_msg_allocate_1
//  577   }
//  578   else
//  579     return ( NULL );
??osal_msg_allocate_0:
        MOV       R2,#0x0
        MOV       R3,#0x0
??osal_msg_allocate_1:
        LJMP      ?Subroutine2 & 0xFFFF
//  580 }
          CFI EndBlock cfiBlock48
//  581 
//  582 /*********************************************************************
//  583  * @fn      osal_msg_deallocate
//  584  *
//  585  * @brief
//  586  *
//  587  *    This function is used to deallocate a message buffer. This function
//  588  *    is called by a task (or processing element) after it has finished
//  589  *    processing a received message.
//  590  *
//  591  *
//  592  * @param   uint8 *msg_ptr - pointer to new message buffer
//  593  *
//  594  * @return  SUCCESS, INVALID_MSG_POINTER
//  595  */

        RSEG BANKED_CODE:HUGECODE:NOROOT(0)
//  596 uint8 osal_msg_deallocate( uint8 *msg_ptr )
osal_msg_deallocate:
          CFI Block cfiBlock49 Using cfiCommon0
          CFI Function osal_msg_deallocate
        CODE
//  597 {
        FUNCALL osal_msg_deallocate, osal_mem_free
        LOCFRAME ISTACK, 2, STACK
        LOCFRAME PSTACK, 0, STACK
        LOCFRAME XSTACK, 0, STACK
        LOCFRAME IOVERLAY, 0, STATIC
        LOCFRAME DOVERLAY, 0, STATIC
        ARGFRAME ISTACK, 2, STACK
        ARGFRAME PSTACK, 0, STACK
        ARGFRAME XSTACK, 0, STACK
        ARGFRAME IOVERLAY, 0, STATIC
        ARGFRAME DOVERLAY, 0, STATIC
        PUSH      DPL
          CFI DPL0 Frame(CFA_SP, 4)
          CFI CFA_SP SP+-4
        PUSH      DPH
          CFI DPH0 Frame(CFA_SP, 5)
          CFI CFA_SP SP+-5
        ; Saved register size: 2
        ; Auto size: 0
//  598   uint8 *x;
//  599 
//  600   if ( msg_ptr == NULL )
        MOV       A,R2
        ORL       A,R3
        JNZ       ??osal_msg_deallocate_0
//  601     return ( INVALID_MSG_POINTER );
        MOV       R1,#0x5
        SJMP      ??osal_msg_deallocate_1
//  602 
//  603   // don't deallocate queued buffer
//  604   if ( OSAL_MSG_ID( msg_ptr ) != TASK_NO_TASK )
??osal_msg_deallocate_0:
        LCALL     ?Subroutine18 & 0xFFFF
??CrossCallReturnLabel_24:
        JZ        ??osal_msg_deallocate_2
//  605     return ( MSG_BUFFER_NOT_AVAIL );
        MOV       R1,#0x4
        SJMP      ??osal_msg_deallocate_1
//  606 
//  607   x = (uint8 *)((uint8 *)msg_ptr - sizeof( osal_msg_hdr_t ));
//  608 
//  609   osal_mem_free( (void *)x );
??osal_msg_deallocate_2:
        ; Setup parameters for call to function osal_mem_free
        MOV       A,R2
        ADD       A,#-0x5
        MOV       R2,A
        MOV       A,R3
        ADDC      A,#-0x1
        MOV       R3,A
        LCALL     `??osal_mem_free::?relay`; Banked call to: osal_mem_free
//  610 
//  611   return ( SUCCESS );
        MOV       R1,#0x0
??osal_msg_deallocate_1:
          CFI EndBlock cfiBlock49
        REQUIRE ?Subroutine0
        ; // Fall through to label ?Subroutine0
//  612 }

        RSEG BANKED_CODE:HUGECODE:NOROOT(0)
?Subroutine0:
          CFI Block cfiBlock50 Using cfiCommon0
          CFI NoFunction
          CFI CFA_SP SP+-5
          CFI DPL0 Frame(CFA_SP, 4)
          CFI DPH0 Frame(CFA_SP, 5)
        POP       DPH
          CFI CFA_SP SP+-4
          CFI DPH0 SameValue
        POP       DPL
          CFI CFA_SP SP+-3
          CFI DPL0 SameValue
        LJMP      ?BRET
          CFI EndBlock cfiBlock50
//  613 
//  614 /*********************************************************************
//  615  * @fn      osal_msg_send
//  616  *
//  617  * @brief
//  618  *
//  619  *    This function is called by a task to send a command message to
//  620  *    another task or processing element.  The sending_task field must
//  621  *    refer to a valid task, since the task ID will be used
//  622  *    for the response message.  This function will also set a message
//  623  *    ready event in the destination tasks event list.
//  624  *
//  625  *
//  626  * @param   uint8 destination_task - Send msg to Task ID
//  627  * @param   uint8 *msg_ptr - pointer to new message buffer
//  628  *
//  629  * @return  SUCCESS, INVALID_TASK, INVALID_MSG_POINTER
//  630  */

        RSEG BANKED_CODE:HUGECODE:NOROOT(0)
//  631 uint8 osal_msg_send( uint8 destination_task, uint8 *msg_ptr )
osal_msg_send:
          CFI Block cfiBlock51 Using cfiCommon0
          CFI Function osal_msg_send
        CODE
//  632 {
        FUNCALL osal_msg_send, osal_msg_enqueue_push
        LOCFRAME ISTACK, 0, STACK
        LOCFRAME PSTACK, 0, STACK
        LOCFRAME XSTACK, 9, STACK
        LOCFRAME IOVERLAY, 0, STATIC
        LOCFRAME DOVERLAY, 0, STATIC
        ARGFRAME ISTACK, 0, STACK
        ARGFRAME PSTACK, 0, STACK
        ARGFRAME XSTACK, 9, STACK
        ARGFRAME IOVERLAY, 0, STATIC
        ARGFRAME DOVERLAY, 0, STATIC
        MOV       A,#-0x9
        LCALL     ?BANKED_ENTER_XDATA
          CFI DPH0 load(1, XDATA, add(CFA_XSP16, literal(-1)))
          CFI DPL0 load(1, XDATA, add(CFA_XSP16, literal(-2)))
          CFI ?BRET_EXT load(1, XDATA, add(CFA_XSP16, literal(-3)))
          CFI ?RET_HIGH load(1, XDATA, add(CFA_XSP16, literal(-4)))
          CFI ?RET_LOW load(1, XDATA, add(CFA_XSP16, literal(-5)))
          CFI R7 load(1, XDATA, add(CFA_XSP16, literal(-6)))
          CFI V0 load(1, XDATA, add(CFA_XSP16, literal(-7)))
          CFI VB load(1, XDATA, add(CFA_XSP16, literal(-8)))
          CFI R6 load(1, XDATA, add(CFA_XSP16, literal(-9)))
          CFI CFA_SP SP+0
          CFI CFA_XSP16 add(XSP16, 9)
        ; Saved register size: 9
        ; Auto size: 0
//  633 #ifdef USE_ICALL
//  634   if (destination_task & OSAL_PROXY_ID_FLAG)
//  635   {
//  636     /* Destination is a proxy task */
//  637     osal_msg_hdr_t *hdr = (osal_msg_hdr_t *)msg_ptr - 1;
//  638     ICall_EntityID src, dst;
//  639 
//  640     uint8 taskid = osal_self();
//  641     if (taskid == TASK_NO_TASK)
//  642     {
//  643       /* Call must have been made from either an ISR or a user-thread */
//  644       src = osal_notask_entity;
//  645     }
//  646     else
//  647     {
//  648       src = (ICall_EntityID) osal_dispatch_entities[taskid + tasksCnt];
//  649     }
//  650     if (src == OSAL_INVALID_DISPATCH_ID)
//  651     {
//  652       /* The source entity is not registered */
//  653       /* abort */
//  654       ICall_abort();
//  655       return FAILURE;
//  656     }
//  657     dst = osal_proxy2alien(destination_task);
//  658     hdr->dest_id = TASK_NO_TASK;
//  659     if (ICall_send(src, dst, ICALL_MSG_FORMAT_KEEP, msg_ptr) ==
//  660         ICALL_ERRNO_SUCCESS)
//  661     {
//  662       return SUCCESS;
//  663     }
//  664     osal_msg_deallocate(msg_ptr);
//  665     return FAILURE;
//  666   }
//  667 #endif /* USE_ICALL */
//  668   return ( osal_msg_enqueue_push( destination_task, msg_ptr, FALSE ) );
        ; Setup parameters for call to function osal_msg_enqueue_push
        MOV       R4,#0x0
          CFI EndBlock cfiBlock51
        REQUIRE ?Subroutine5
        ; // Fall through to label ?Subroutine5
//  669 }

        RSEG BANKED_CODE:HUGECODE:NOROOT(0)
?Subroutine5:
          CFI Block cfiBlock52 Using cfiCommon0
          CFI NoFunction
          CFI CFA_SP SP+0
          CFI CFA_XSP16 add(XSP16, 9)
          CFI VB load(1, XDATA, add(CFA_XSP16, literal(-8)))
          CFI DPL0 load(1, XDATA, add(CFA_XSP16, literal(-2)))
          CFI DPH0 load(1, XDATA, add(CFA_XSP16, literal(-1)))
          CFI R6 load(1, XDATA, add(CFA_XSP16, literal(-9)))
          CFI R7 load(1, XDATA, add(CFA_XSP16, literal(-6)))
          CFI V0 load(1, XDATA, add(CFA_XSP16, literal(-7)))
          CFI ?BRET_EXT load(1, XDATA, add(CFA_XSP16, literal(-3)))
          CFI ?RET_HIGH load(1, XDATA, add(CFA_XSP16, literal(-4)))
          CFI ?RET_LOW load(1, XDATA, add(CFA_XSP16, literal(-5)))
        LCALL     `??osal_msg_enqueue_push::?relay`; Banked call to: osal_msg_enqueue_push
        LJMP      ??Subroutine27_0 & 0xFFFF
          CFI EndBlock cfiBlock52
//  670 
//  671 /*********************************************************************
//  672  * @fn      osal_msg_push_front
//  673  *
//  674  * @brief
//  675  *
//  676  *    This function is called by a task to push a command message
//  677  *    to the head of the OSAL queue. The destination_task field
//  678  *    must refer to a valid task, since the task ID will be used to
//  679  *    send the message to. This function will also set a message
//  680  *    ready event in the destination task's event list.
//  681  *
//  682  * @param   uint8 destination_task - Send msg to Task ID
//  683  * @param   uint8 *msg_ptr - pointer to message buffer
//  684  *
//  685  * @return  SUCCESS, INVALID_TASK, INVALID_MSG_POINTER
//  686  */

        RSEG BANKED_CODE:HUGECODE:NOROOT(0)
//  687 uint8 osal_msg_push_front( uint8 destination_task, uint8 *msg_ptr )
osal_msg_push_front:
          CFI Block cfiBlock53 Using cfiCommon0
          CFI Function osal_msg_push_front
        CODE
//  688 {
        FUNCALL osal_msg_push_front, osal_msg_enqueue_push
        LOCFRAME ISTACK, 0, STACK
        LOCFRAME PSTACK, 0, STACK
        LOCFRAME XSTACK, 9, STACK
        LOCFRAME IOVERLAY, 0, STATIC
        LOCFRAME DOVERLAY, 0, STATIC
        ARGFRAME ISTACK, 0, STACK
        ARGFRAME PSTACK, 0, STACK
        ARGFRAME XSTACK, 9, STACK
        ARGFRAME IOVERLAY, 0, STATIC
        ARGFRAME DOVERLAY, 0, STATIC
        MOV       A,#-0x9
        LCALL     ?BANKED_ENTER_XDATA
          CFI DPH0 load(1, XDATA, add(CFA_XSP16, literal(-1)))
          CFI DPL0 load(1, XDATA, add(CFA_XSP16, literal(-2)))
          CFI ?BRET_EXT load(1, XDATA, add(CFA_XSP16, literal(-3)))
          CFI ?RET_HIGH load(1, XDATA, add(CFA_XSP16, literal(-4)))
          CFI ?RET_LOW load(1, XDATA, add(CFA_XSP16, literal(-5)))
          CFI R7 load(1, XDATA, add(CFA_XSP16, literal(-6)))
          CFI V0 load(1, XDATA, add(CFA_XSP16, literal(-7)))
          CFI VB load(1, XDATA, add(CFA_XSP16, literal(-8)))
          CFI R6 load(1, XDATA, add(CFA_XSP16, literal(-9)))
          CFI CFA_SP SP+0
          CFI CFA_XSP16 add(XSP16, 9)
        ; Saved register size: 9
        ; Auto size: 0
//  689   return ( osal_msg_enqueue_push( destination_task, msg_ptr, TRUE ) );
        ; Setup parameters for call to function osal_msg_enqueue_push
        MOV       R4,#0x1
        SJMP      ?Subroutine5
//  690 }
          CFI EndBlock cfiBlock53
//  691 
//  692 /*********************************************************************
//  693  * @fn      osal_msg_enqueue_push
//  694  *
//  695  * @brief
//  696  *
//  697  *    This function is called by a task to either enqueue (append to
//  698  *    queue) or push (prepend to queue) a command message to the OSAL
//  699  *    queue. The destination_task field must refer to a valid task,
//  700  *    since the task ID will be used to send the message to. This 
//  701  *    function will also set a message ready event in the destination
//  702  *    task's event list.
//  703  *
//  704  * @param   uint8 destination_task - Send msg to Task ID
//  705  * @param   uint8 *msg_ptr - pointer to message buffer
//  706  * @param   uint8 push - TRUE to push, otherwise enqueue
//  707  *
//  708  * @return  SUCCESS, INVALID_TASK, INVALID_MSG_POINTER
//  709  */

        RSEG BANKED_CODE:HUGECODE:NOROOT(0)
//  710 static uint8 osal_msg_enqueue_push( uint8 destination_task, uint8 *msg_ptr, uint8 push )
osal_msg_enqueue_push:
          CFI Block cfiBlock54 Using cfiCommon0
          CFI Function osal_msg_enqueue_push
        CODE
//  711 {
        FUNCALL osal_msg_enqueue_push, osal_msg_deallocate
        LOCFRAME ISTACK, 0, STACK
        LOCFRAME PSTACK, 0, STACK
        LOCFRAME XSTACK, 9, STACK
        LOCFRAME IOVERLAY, 0, STATIC
        LOCFRAME DOVERLAY, 0, STATIC
        ARGFRAME ISTACK, 0, STACK
        ARGFRAME PSTACK, 0, STACK
        ARGFRAME XSTACK, 9, STACK
        ARGFRAME IOVERLAY, 0, STATIC
        ARGFRAME DOVERLAY, 0, STATIC
        FUNCALL osal_msg_enqueue_push, osal_msg_deallocate
        LOCFRAME ISTACK, 0, STACK
        LOCFRAME PSTACK, 0, STACK
        LOCFRAME XSTACK, 9, STACK
        LOCFRAME IOVERLAY, 0, STATIC
        LOCFRAME DOVERLAY, 0, STATIC
        ARGFRAME ISTACK, 0, STACK
        ARGFRAME PSTACK, 0, STACK
        ARGFRAME XSTACK, 9, STACK
        ARGFRAME IOVERLAY, 0, STATIC
        ARGFRAME DOVERLAY, 0, STATIC
        FUNCALL osal_msg_enqueue_push, osal_msg_push
        LOCFRAME ISTACK, 0, STACK
        LOCFRAME PSTACK, 0, STACK
        LOCFRAME XSTACK, 9, STACK
        LOCFRAME IOVERLAY, 0, STATIC
        LOCFRAME DOVERLAY, 0, STATIC
        ARGFRAME ISTACK, 0, STACK
        ARGFRAME PSTACK, 0, STACK
        ARGFRAME XSTACK, 9, STACK
        ARGFRAME IOVERLAY, 0, STATIC
        ARGFRAME DOVERLAY, 0, STATIC
        FUNCALL osal_msg_enqueue_push, osal_msg_enqueue
        LOCFRAME ISTACK, 0, STACK
        LOCFRAME PSTACK, 0, STACK
        LOCFRAME XSTACK, 9, STACK
        LOCFRAME IOVERLAY, 0, STATIC
        LOCFRAME DOVERLAY, 0, STATIC
        ARGFRAME ISTACK, 0, STACK
        ARGFRAME PSTACK, 0, STACK
        ARGFRAME XSTACK, 9, STACK
        ARGFRAME IOVERLAY, 0, STATIC
        ARGFRAME DOVERLAY, 0, STATIC
        FUNCALL osal_msg_enqueue_push, osal_set_event
        LOCFRAME ISTACK, 0, STACK
        LOCFRAME PSTACK, 0, STACK
        LOCFRAME XSTACK, 9, STACK
        LOCFRAME IOVERLAY, 0, STATIC
        LOCFRAME DOVERLAY, 0, STATIC
        ARGFRAME ISTACK, 0, STACK
        ARGFRAME PSTACK, 0, STACK
        ARGFRAME XSTACK, 9, STACK
        ARGFRAME IOVERLAY, 0, STATIC
        ARGFRAME DOVERLAY, 0, STATIC
        MOV       A,#-0x9
        LCALL     ?BANKED_ENTER_XDATA
          CFI DPH0 load(1, XDATA, add(CFA_XSP16, literal(-1)))
          CFI DPL0 load(1, XDATA, add(CFA_XSP16, literal(-2)))
          CFI ?BRET_EXT load(1, XDATA, add(CFA_XSP16, literal(-3)))
          CFI ?RET_HIGH load(1, XDATA, add(CFA_XSP16, literal(-4)))
          CFI ?RET_LOW load(1, XDATA, add(CFA_XSP16, literal(-5)))
          CFI R7 load(1, XDATA, add(CFA_XSP16, literal(-6)))
          CFI V0 load(1, XDATA, add(CFA_XSP16, literal(-7)))
          CFI VB load(1, XDATA, add(CFA_XSP16, literal(-8)))
          CFI R6 load(1, XDATA, add(CFA_XSP16, literal(-9)))
          CFI CFA_SP SP+0
          CFI CFA_XSP16 add(XSP16, 9)
        ; Saved register size: 9
        ; Auto size: 0
        MOV       A,R1
        MOV       R6,A
        MOV       A,R4
        MOV       R7,A
//  712   if ( msg_ptr == NULL )
        MOV       A,R2
        ORL       A,R3
        JZ        ??osal_msg_enqueue_push_0
//  713   {
//  714     return ( INVALID_MSG_POINTER );
//  715   }
//  716 
//  717 #ifdef USE_ICALL
//  718   if (destination_task & OSAL_PROXY_ID_FLAG)
//  719   {
//  720     ICall_abort();
//  721   }
//  722 #endif /* USE_ICALL */
//  723 
//  724   if ( destination_task >= tasksCnt )
        MOV       DPTR,#tasksCnt
        MOVX      A,@DPTR
        MOV       R0,A
        MOV       A,R1
        CLR       C
        SUBB      A,R0
        JC        ??osal_msg_enqueue_push_1
//  725   {
//  726     osal_msg_deallocate( msg_ptr );
        ; Setup parameters for call to function osal_msg_deallocate
        LCALL     `??osal_msg_deallocate::?relay`; Banked call to: osal_msg_deallocate
//  727     return ( INVALID_TASK );
        MOV       R1,#0x3
        SJMP      ??osal_msg_enqueue_push_2
//  728   }
//  729 
//  730   // Check the message header
//  731   if ( OSAL_MSG_NEXT( msg_ptr ) != NULL ||
//  732        OSAL_MSG_ID( msg_ptr ) != TASK_NO_TASK )
??osal_msg_enqueue_push_1:
        MOV       A,R2
        ADD       A,#-0x5
        MOV       DPL,A
        MOV       A,R3
        ADDC      A,#-0x1
        LCALL     ?Subroutine7 & 0xFFFF
??CrossCallReturnLabel_55:
        JNZ       ??osal_msg_enqueue_push_3
        LCALL     ?Subroutine18 & 0xFFFF
??CrossCallReturnLabel_25:
        JZ        ??osal_msg_enqueue_push_4
//  733   {
//  734     osal_msg_deallocate( msg_ptr );
??osal_msg_enqueue_push_3:
        ; Setup parameters for call to function osal_msg_deallocate
        LCALL     `??osal_msg_deallocate::?relay`; Banked call to: osal_msg_deallocate
//  735     return ( INVALID_MSG_POINTER );
??osal_msg_enqueue_push_0:
        MOV       R1,#0x5
        SJMP      ??osal_msg_enqueue_push_2
//  736   }
//  737 
//  738   OSAL_MSG_ID( msg_ptr ) = destination_task;
??osal_msg_enqueue_push_4:
        MOV       A,R6
        MOVX      @DPTR,A
//  739 
//  740   if ( push == TRUE )
        MOV       A,#0x1
        XRL       A,R7
        JNZ       ??osal_msg_enqueue_push_5
//  741   {
//  742     // prepend the message
//  743     osal_msg_push( &osal_qHead, msg_ptr );
        ; Setup parameters for call to function osal_msg_push
        MOV       A,R2
        MOV       R4,A
        MOV       A,R3
        MOV       R5,A
        MOV       R2,#osal_qHead & 0xff
        MOV       R3,#(osal_qHead >> 8) & 0xff
        LCALL     `??osal_msg_push::?relay`; Banked call to: osal_msg_push
        SJMP      ??osal_msg_enqueue_push_6
//  744   }
//  745   else
//  746   {
//  747     // append the message
//  748     osal_msg_enqueue( &osal_qHead, msg_ptr );
??osal_msg_enqueue_push_5:
        ; Setup parameters for call to function osal_msg_enqueue
        MOV       A,R2
        MOV       R4,A
        MOV       A,R3
        MOV       R5,A
        MOV       R2,#osal_qHead & 0xff
        MOV       R3,#(osal_qHead >> 8) & 0xff
        LCALL     `??osal_msg_enqueue::?relay`; Banked call to: osal_msg_enqueue
//  749   }
//  750 
//  751   // Signal the task that a message is waiting
//  752   osal_set_event( destination_task, SYS_EVENT_MSG );
??osal_msg_enqueue_push_6:
        ; Setup parameters for call to function osal_set_event
        MOV       R2,#0x0
        MOV       R3,#-0x80
        MOV       A,R6
        MOV       R1,A
        LCALL     `??osal_set_event::?relay`; Banked call to: osal_set_event
//  753 
//  754   return ( SUCCESS );
        MOV       R1,#0x0
??osal_msg_enqueue_push_2:
        LJMP      ??Subroutine27_0 & 0xFFFF
//  755 }
          CFI EndBlock cfiBlock54

        RSEG BANKED_CODE:HUGECODE:NOROOT(0)
?Subroutine18:
          CFI Block cfiCond55 Using cfiCommon0
          CFI Function osal_msg_deallocate
          CFI Conditional ??CrossCallReturnLabel_24
          CFI DPL0 Frame(CFA_SP, 4)
          CFI DPH0 Frame(CFA_SP, 5)
          CFI CFA_SP SP+-7
          CFI Block cfiCond56 Using cfiCommon0
          CFI (cfiCond56) Function osal_msg_enqueue_push
          CFI (cfiCond56) Conditional ??CrossCallReturnLabel_25
          CFI (cfiCond56) R6 load(1, XDATA, add(CFA_XSP16, literal(-9)))
          CFI (cfiCond56) VB load(1, XDATA, add(CFA_XSP16, literal(-8)))
          CFI (cfiCond56) V0 load(1, XDATA, add(CFA_XSP16, literal(-7)))
          CFI (cfiCond56) R7 load(1, XDATA, add(CFA_XSP16, literal(-6)))
          CFI (cfiCond56) ?RET_LOW load(1, XDATA, add(CFA_XSP16, literal(-5)))
          CFI (cfiCond56) ?RET_HIGH load(1, XDATA, add(CFA_XSP16, literal(-4)))
          CFI (cfiCond56) ?BRET_EXT load(1, XDATA, add(CFA_XSP16, literal(-3)))
          CFI (cfiCond56) DPL0 load(1, XDATA, add(CFA_XSP16, literal(-2)))
          CFI (cfiCond56) DPH0 load(1, XDATA, add(CFA_XSP16, literal(-1)))
          CFI (cfiCond56) CFA_SP SP+-2
          CFI (cfiCond56) CFA_XSP16 add(XSP16, 9)
          CFI Block cfiPicker57 Using cfiCommon1
          CFI (cfiPicker57) NoFunction
          CFI (cfiPicker57) Picker
        MOV       A,R2
        ADD       A,#-0x1
        MOV       DPL,A
        MOV       A,R3
        ADDC      A,#-0x1
        MOV       DPH,A
        MOVX      A,@DPTR
        CPL       A
        RET
          CFI EndBlock cfiCond55
          CFI EndBlock cfiCond56
          CFI EndBlock cfiPicker57
//  756 
//  757 /*********************************************************************
//  758  * @fn      osal_msg_receive
//  759  *
//  760  * @brief
//  761  *
//  762  *    This function is called by a task to retrieve a received command
//  763  *    message. The calling task must deallocate the message buffer after
//  764  *    processing the message using the osal_msg_deallocate() call.
//  765  *
//  766  * @param   uint8 task_id - receiving tasks ID
//  767  *
//  768  * @return  *uint8 - message information or NULL if no message
//  769  */

        RSEG BANKED_CODE:HUGECODE:NOROOT(0)
//  770 uint8 *osal_msg_receive( uint8 task_id )
osal_msg_receive:
          CFI Block cfiBlock58 Using cfiCommon0
          CFI Function osal_msg_receive
        CODE
//  771 {
        FUNCALL osal_msg_receive, osal_set_event
        LOCFRAME ISTACK, 0, STACK
        LOCFRAME PSTACK, 0, STACK
        LOCFRAME XSTACK, 14, STACK
        LOCFRAME IOVERLAY, 0, STATIC
        LOCFRAME DOVERLAY, 0, STATIC
        ARGFRAME ISTACK, 0, STACK
        ARGFRAME PSTACK, 0, STACK
        ARGFRAME XSTACK, 14, STACK
        ARGFRAME IOVERLAY, 0, STATIC
        ARGFRAME DOVERLAY, 0, STATIC
        FUNCALL osal_msg_receive, osal_clear_event
        LOCFRAME ISTACK, 0, STACK
        LOCFRAME PSTACK, 0, STACK
        LOCFRAME XSTACK, 14, STACK
        LOCFRAME IOVERLAY, 0, STATIC
        LOCFRAME DOVERLAY, 0, STATIC
        ARGFRAME ISTACK, 0, STACK
        ARGFRAME PSTACK, 0, STACK
        ARGFRAME XSTACK, 14, STACK
        ARGFRAME IOVERLAY, 0, STATIC
        ARGFRAME DOVERLAY, 0, STATIC
        FUNCALL osal_msg_receive, osal_msg_extract
        LOCFRAME ISTACK, 0, STACK
        LOCFRAME PSTACK, 0, STACK
        LOCFRAME XSTACK, 16, STACK
        LOCFRAME IOVERLAY, 0, STATIC
        LOCFRAME DOVERLAY, 0, STATIC
        ARGFRAME ISTACK, 0, STACK
        ARGFRAME PSTACK, 0, STACK
        ARGFRAME XSTACK, 16, STACK
        ARGFRAME IOVERLAY, 0, STATIC
        ARGFRAME DOVERLAY, 0, STATIC
        REQUIRE ?V0
        REQUIRE ?V1
        REQUIRE ?V2
        REQUIRE ?V3
        REQUIRE ?V4
        REQUIRE ?V5
        MOV       A,#-0xe
        LCALL     ?BANKED_ENTER_XDATA
          CFI DPH0 load(1, XDATA, add(CFA_XSP16, literal(-1)))
          CFI DPL0 load(1, XDATA, add(CFA_XSP16, literal(-2)))
          CFI ?BRET_EXT load(1, XDATA, add(CFA_XSP16, literal(-3)))
          CFI ?RET_HIGH load(1, XDATA, add(CFA_XSP16, literal(-4)))
          CFI ?RET_LOW load(1, XDATA, add(CFA_XSP16, literal(-5)))
          CFI R7 load(1, XDATA, add(CFA_XSP16, literal(-6)))
          CFI V5 load(1, XDATA, add(CFA_XSP16, literal(-7)))
          CFI V4 load(1, XDATA, add(CFA_XSP16, literal(-8)))
          CFI V3 load(1, XDATA, add(CFA_XSP16, literal(-9)))
          CFI V2 load(1, XDATA, add(CFA_XSP16, literal(-10)))
          CFI V1 load(1, XDATA, add(CFA_XSP16, literal(-11)))
          CFI V0 load(1, XDATA, add(CFA_XSP16, literal(-12)))
          CFI VB load(1, XDATA, add(CFA_XSP16, literal(-13)))
          CFI R6 load(1, XDATA, add(CFA_XSP16, literal(-14)))
          CFI CFA_SP SP+0
          CFI CFA_XSP16 add(XSP16, 14)
        ; Saved register size: 14
        ; Auto size: 0
//  772   osal_msg_hdr_t *listHdr;
//  773   osal_msg_hdr_t *prevHdr = NULL;
        MOV       ?V4,#0x0
        MOV       ?V5,#0x0
//  774   osal_msg_hdr_t *foundHdr = NULL;
        MOV       R6,#0x0
        MOV       R7,#0x0
//  775   halIntState_t   intState;
//  776 
//  777   // Hold off interrupts
//  778   HAL_ENTER_CRITICAL_SECTION(intState);
        MOV       C,0xa8.7
        CLR       A
        RLC       A
        MOV       ?V2,A
        CLR       0xa8.7
//  779 
//  780   // Point to the top of the queue
//  781   listHdr = osal_qHead;
        MOV       DPTR,#osal_qHead
        SJMP      ??CrossCallReturnLabel_41
//  782 
//  783   // Look through the queue for a message that belongs to the asking task
//  784   while ( listHdr != NULL )
//  785   {
//  786     if ( (listHdr - 1)->dest_id == task_id )
//  787     {
//  788       if ( foundHdr == NULL )
//  789       {
//  790         // Save the first one
//  791         foundHdr = listHdr;
//  792       }
//  793       else
//  794       {
//  795         // Second msg found, stop looking
//  796         break;
//  797       }
//  798     }
//  799     if ( foundHdr == NULL )
??osal_msg_receive_0:
        MOV       A,R6
        ORL       A,R7
        JNZ       ??osal_msg_receive_1
//  800     {
//  801       prevHdr = listHdr;
        MOV       ?V4,?V0
        MOV       ?V5,?V1
//  802     }
//  803     listHdr = OSAL_MSG_NEXT( listHdr );
??osal_msg_receive_1:
        MOV       A,?V0
        ADD       A,#-0x5
        MOV       DPL,A
        MOV       A,?V1
        LCALL     ??Subroutine30_0 & 0xFFFF
??CrossCallReturnLabel_41:
        LCALL     ?Subroutine14 & 0xFFFF
??CrossCallReturnLabel_15:
        MOV       A,?V0
        ORL       A,?V1
        JZ        ??osal_msg_receive_2
        MOV       A,?V0
        ADD       A,#-0x1
        MOV       DPL,A
        MOV       A,?V1
        LCALL     ??Subroutine30_0 & 0xFFFF
??CrossCallReturnLabel_42:
        MOVX      A,@DPTR
        XRL       A,R1
        JNZ       ??osal_msg_receive_0
        MOV       A,R6
        ORL       A,R7
        JNZ       ??osal_msg_receive_3
        MOV       R6,?V0
        MOV       R7,?V1
        SJMP      ??osal_msg_receive_1
//  804   }
//  805 
//  806   // Is there more than one?
//  807   if ( listHdr != NULL )
//  808   {
//  809     // Yes, Signal the task that a message is waiting
//  810     osal_set_event( task_id, SYS_EVENT_MSG );
??osal_msg_receive_3:
        ; Setup parameters for call to function osal_set_event
        MOV       R2,#0x0
        MOV       R3,#-0x80
        LCALL     `??osal_set_event::?relay`; Banked call to: osal_set_event
        SJMP      ??osal_msg_receive_4
//  811   }
//  812   else
//  813   {
//  814     // No more
//  815     osal_clear_event( task_id, SYS_EVENT_MSG );
??osal_msg_receive_2:
        ; Setup parameters for call to function osal_clear_event
        MOV       R2,#0x0
        MOV       R3,#-0x80
        LCALL     `??osal_clear_event::?relay`; Banked call to: osal_clear_event
//  816   }
//  817 
//  818   // Did we find a message?
//  819   if ( foundHdr != NULL )
        MOV       A,R6
        ORL       A,R7
        JZ        ??osal_msg_receive_5
//  820   {
//  821     // Take out of the link list
//  822     osal_msg_extract( &osal_qHead, foundHdr, prevHdr );
??osal_msg_receive_4:
        ; Setup parameters for call to function osal_msg_extract
        MOV       R0,#?V4
        LCALL     ?PUSH_XSTACK_I_TWO
          CFI CFA_XSP16 add(XSP16, 16)
        MOV       A,R6
        MOV       R4,A
        MOV       A,R7
        MOV       R5,A
        MOV       R2,#osal_qHead & 0xff
        MOV       R3,#(osal_qHead >> 8) & 0xff
        LCALL     `??osal_msg_extract::?relay`; Banked call to: osal_msg_extract
        MOV       A,#0x2
        LCALL     ?DEALLOC_XSTACK8
          CFI CFA_XSP16 add(XSP16, 14)
//  823   }
//  824 
//  825   // Release interrupts
//  826   HAL_EXIT_CRITICAL_SECTION(intState);
??osal_msg_receive_5:
        MOV       A,?V2
        MOV       C,0xE0 /* A   */.0
        MOV       0xa8.7,C
//  827 
//  828   return ( (uint8*) foundHdr );
        MOV       A,R6
        MOV       R2,A
        MOV       A,R7
        MOV       R3,A
        MOV       R7,#0x6
        LJMP      ?BANKED_LEAVE_XDATA
          CFI EndBlock cfiBlock58
        REQUIRE _A_IEN0
//  829 }
//  830 
//  831 /**************************************************************************************************
//  832  * @fn          osal_msg_find
//  833  *
//  834  * @brief       This function finds in place an OSAL message matching the task_id and event
//  835  *              parameters.
//  836  *
//  837  * input parameters
//  838  *
//  839  * @param       task_id - The OSAL task id that the enqueued OSAL message must match.
//  840  * @param       event - The OSAL event id that the enqueued OSAL message must match.
//  841  *
//  842  * output parameters
//  843  *
//  844  * None.
//  845  *
//  846  * @return      NULL if no match, otherwise an in place pointer to the matching OSAL message.
//  847  **************************************************************************************************
//  848  */

        RSEG BANKED_CODE:HUGECODE:NOROOT(0)
//  849 osal_event_hdr_t *osal_msg_find(uint8 task_id, uint8 event)
osal_msg_find:
          CFI Block cfiBlock59 Using cfiCommon0
          CFI Function osal_msg_find
        CODE
//  850 {
        PUSH      DPL
          CFI DPL0 Frame(CFA_SP, 4)
          CFI CFA_SP SP+-4
        PUSH      DPH
          CFI DPH0 Frame(CFA_SP, 5)
          CFI CFA_SP SP+-5
        ; Saved register size: 2
        ; Auto size: 0
        MOV       A,R2
        MOV       R4,A
//  851   osal_msg_hdr_t *pHdr;
//  852   halIntState_t intState;
//  853 
//  854   HAL_ENTER_CRITICAL_SECTION(intState);  // Hold off interrupts.
        MOV       C,0xa8.7
        CLR       A
        RLC       A
        MOV       R0,A
        CLR       0xa8.7
//  855 
//  856   pHdr = osal_qHead;  // Point to the top of the queue.
        MOV       DPTR,#osal_qHead
        SJMP      ??CrossCallReturnLabel_43
//  857 
//  858   // Look through the queue for a message that matches the task_id and event parameters.
//  859   while (pHdr != NULL)
//  860   {
//  861     if (((pHdr-1)->dest_id == task_id) && (((osal_event_hdr_t *)pHdr)->event == event))
//  862     {
//  863       break;
//  864     }
//  865 
//  866     pHdr = OSAL_MSG_NEXT(pHdr);
??osal_msg_find_0:
        MOV       A,R2
        ADD       A,#-0x5
        MOV       DPL,A
        MOV       A,R3
        LCALL     ??Subroutine30_0 & 0xFFFF
??CrossCallReturnLabel_43:
        LCALL     ??Subroutine32_0 & 0xFFFF
??CrossCallReturnLabel_61:
        MOV       A,R2
        ORL       A,R3
        JZ        ??osal_msg_find_1
        MOV       A,R2
        ADD       A,#-0x1
        MOV       DPL,A
        MOV       A,R3
        LCALL     ??Subroutine30_0 & 0xFFFF
//  867   }
??CrossCallReturnLabel_44:
        MOVX      A,@DPTR
        XRL       A,R1
        JNZ       ??osal_msg_find_0
        MOV       DPL,R2
        MOV       DPH,R3
        MOVX      A,@DPTR
        XRL       A,R4
        JNZ       ??osal_msg_find_0
//  868 
//  869   HAL_EXIT_CRITICAL_SECTION(intState);  // Release interrupts.
??osal_msg_find_1:
        MOV       A,R0
        MOV       C,0xE0 /* A   */.0
        MOV       0xa8.7,C
//  870 
//  871   return (osal_event_hdr_t *)pHdr;
        LJMP      ?Subroutine0 & 0xFFFF
          CFI EndBlock cfiBlock59
        REQUIRE _A_IEN0
//  872 }
//  873 
//  874 /**************************************************************************************************
//  875  * @fn          osal_msg_count
//  876  *
//  877  * @brief       This function counts the number of messages, in the OSAL message queue with a
//  878  *              a given task ID and message event type.
//  879  *
//  880  * input parameters
//  881  *
//  882  * @param       task_id - The OSAL task id that the enqueued OSAL message must match.
//  883  * @param       event - The OSAL event id that the enqueued OSAL message must match. 0xFF for 
//  884  *              all events.
//  885  *
//  886  * output parameters
//  887  *
//  888  * None.
//  889  *
//  890  * @return      The number of OSAL messages that match the task ID and Event.
//  891  **************************************************************************************************
//  892  */

        RSEG BANKED_CODE:HUGECODE:NOROOT(0)
//  893 uint8 osal_msg_count( uint8 task_id, uint8 event )
osal_msg_count:
          CFI Block cfiBlock60 Using cfiCommon0
          CFI Function osal_msg_count
        CODE
//  894 {
        MOV       A,#-0x9
        LCALL     ?BANKED_ENTER_XDATA
          CFI DPH0 load(1, XDATA, add(CFA_XSP16, literal(-1)))
          CFI DPL0 load(1, XDATA, add(CFA_XSP16, literal(-2)))
          CFI ?BRET_EXT load(1, XDATA, add(CFA_XSP16, literal(-3)))
          CFI ?RET_HIGH load(1, XDATA, add(CFA_XSP16, literal(-4)))
          CFI ?RET_LOW load(1, XDATA, add(CFA_XSP16, literal(-5)))
          CFI R7 load(1, XDATA, add(CFA_XSP16, literal(-6)))
          CFI V0 load(1, XDATA, add(CFA_XSP16, literal(-7)))
          CFI VB load(1, XDATA, add(CFA_XSP16, literal(-8)))
          CFI R6 load(1, XDATA, add(CFA_XSP16, literal(-9)))
          CFI CFA_SP SP+0
          CFI CFA_XSP16 add(XSP16, 9)
        ; Saved register size: 9
        ; Auto size: 0
        MOV       A,R1
        MOV       R3,A
//  895   uint8 count = 0;
        MOV       R1,#0x0
//  896   osal_msg_hdr_t *pHdr;
//  897   halIntState_t intState;
//  898 
//  899   HAL_ENTER_CRITICAL_SECTION(intState);  // Hold off interrupts.
        MOV       C,0xa8.7
        CLR       A
        RLC       A
        MOV       R0,A
        CLR       0xa8.7
//  900 
//  901   pHdr = osal_qHead;  // Point to the top of the queue.
        MOV       DPTR,#osal_qHead
        SJMP      ??CrossCallReturnLabel_49
//  902 
//  903   // Look through the queue for a message that matches the task_id and event parameters.
//  904   while (pHdr != NULL)
//  905   {
//  906     if ( ((pHdr-1)->dest_id == task_id) 
//  907         && ((event == 0xFF) || (((osal_event_hdr_t *)pHdr)->event == event)) )
??osal_msg_count_0:
        MOV       A,R4
        ADD       A,#-0x1
        LCALL     ??Subroutine29_0 & 0xFFFF
??CrossCallReturnLabel_47:
        MOVX      A,@DPTR
        XRL       A,R3
        JNZ       ??osal_msg_count_1
        MOV       A,#-0x1
        XRL       A,R2
        JZ        ??osal_msg_count_2
        MOV       DPL,R4
        MOV       DPH,R5
        MOVX      A,@DPTR
        XRL       A,R2
        JNZ       ??osal_msg_count_1
//  908     {
//  909       count++;
??osal_msg_count_2:
        INC       R1
//  910     }
//  911 
//  912     pHdr = OSAL_MSG_NEXT(pHdr);
??osal_msg_count_1:
        LCALL     ?Subroutine19 & 0xFFFF
//  913   }
??CrossCallReturnLabel_49:
        MOVX      A,@DPTR
        MOV       R4,A
        INC       DPTR
        MOVX      A,@DPTR
        MOV       R5,A
        MOV       A,R4
        ORL       A,R5
        JNZ       ??osal_msg_count_0
//  914 
//  915   HAL_EXIT_CRITICAL_SECTION(intState);  // Release interrupts.
        MOV       A,R0
          CFI EndBlock cfiBlock60
        REQUIRE ?Subroutine4
        REQUIRE _A_IEN0
        ; // Fall through to label ?Subroutine4
//  916 
//  917   return ( count );
//  918 }

        RSEG BANKED_CODE:HUGECODE:NOROOT(0)
?Subroutine4:
          CFI Block cfiBlock61 Using cfiCommon0
          CFI NoFunction
          CFI CFA_SP SP+0
          CFI CFA_XSP16 add(XSP16, 9)
          CFI VB load(1, XDATA, add(CFA_XSP16, literal(-8)))
          CFI DPL0 load(1, XDATA, add(CFA_XSP16, literal(-2)))
          CFI DPH0 load(1, XDATA, add(CFA_XSP16, literal(-1)))
          CFI R6 load(1, XDATA, add(CFA_XSP16, literal(-9)))
          CFI R7 load(1, XDATA, add(CFA_XSP16, literal(-6)))
          CFI V0 load(1, XDATA, add(CFA_XSP16, literal(-7)))
          CFI ?BRET_EXT load(1, XDATA, add(CFA_XSP16, literal(-3)))
          CFI ?RET_HIGH load(1, XDATA, add(CFA_XSP16, literal(-4)))
          CFI ?RET_LOW load(1, XDATA, add(CFA_XSP16, literal(-5)))
        MOV       C,0xE0 /* A   */.0
          CFI EndBlock cfiBlock61
        REQUIRE ??Subroutine26_0
        ; // Fall through to label ??Subroutine26_0

        RSEG BANKED_CODE:HUGECODE:NOROOT(0)
??Subroutine26_0:
          CFI Block cfiBlock62 Using cfiCommon0
          CFI NoFunction
          CFI CFA_SP SP+0
          CFI CFA_XSP16 add(XSP16, 9)
          CFI VB load(1, XDATA, add(CFA_XSP16, literal(-8)))
          CFI DPL0 load(1, XDATA, add(CFA_XSP16, literal(-2)))
          CFI DPH0 load(1, XDATA, add(CFA_XSP16, literal(-1)))
          CFI R6 load(1, XDATA, add(CFA_XSP16, literal(-9)))
          CFI R7 load(1, XDATA, add(CFA_XSP16, literal(-6)))
          CFI V0 load(1, XDATA, add(CFA_XSP16, literal(-7)))
          CFI ?BRET_EXT load(1, XDATA, add(CFA_XSP16, literal(-3)))
          CFI ?RET_HIGH load(1, XDATA, add(CFA_XSP16, literal(-4)))
          CFI ?RET_LOW load(1, XDATA, add(CFA_XSP16, literal(-5)))
        MOV       0xa8.7,C
        SJMP      ??Subroutine27_0
          CFI EndBlock cfiBlock62

        RSEG BANKED_CODE:HUGECODE:NOROOT(0)
?Subroutine1:
          CFI Block cfiBlock63 Using cfiCommon0
          CFI NoFunction
          CFI CFA_SP SP+0
          CFI CFA_XSP16 add(XSP16, 9)
          CFI VB load(1, XDATA, add(CFA_XSP16, literal(-8)))
          CFI DPL0 load(1, XDATA, add(CFA_XSP16, literal(-2)))
          CFI DPH0 load(1, XDATA, add(CFA_XSP16, literal(-1)))
          CFI R6 load(1, XDATA, add(CFA_XSP16, literal(-9)))
          CFI R7 load(1, XDATA, add(CFA_XSP16, literal(-6)))
          CFI V0 load(1, XDATA, add(CFA_XSP16, literal(-7)))
          CFI ?BRET_EXT load(1, XDATA, add(CFA_XSP16, literal(-3)))
          CFI ?RET_HIGH load(1, XDATA, add(CFA_XSP16, literal(-4)))
          CFI ?RET_LOW load(1, XDATA, add(CFA_XSP16, literal(-5)))
        MOV       R2,DPL
        MOV       R3,DPH
          CFI EndBlock cfiBlock63
        REQUIRE ??Subroutine27_0
        ; // Fall through to label ??Subroutine27_0

        RSEG BANKED_CODE:HUGECODE:NOROOT(0)
??Subroutine27_0:
          CFI Block cfiBlock64 Using cfiCommon0
          CFI NoFunction
          CFI CFA_SP SP+0
          CFI CFA_XSP16 add(XSP16, 9)
          CFI VB load(1, XDATA, add(CFA_XSP16, literal(-8)))
          CFI DPL0 load(1, XDATA, add(CFA_XSP16, literal(-2)))
          CFI DPH0 load(1, XDATA, add(CFA_XSP16, literal(-1)))
          CFI R6 load(1, XDATA, add(CFA_XSP16, literal(-9)))
          CFI R7 load(1, XDATA, add(CFA_XSP16, literal(-6)))
          CFI V0 load(1, XDATA, add(CFA_XSP16, literal(-7)))
          CFI ?BRET_EXT load(1, XDATA, add(CFA_XSP16, literal(-3)))
          CFI ?RET_HIGH load(1, XDATA, add(CFA_XSP16, literal(-4)))
          CFI ?RET_LOW load(1, XDATA, add(CFA_XSP16, literal(-5)))
        MOV       R7,#0x1
        LJMP      ?BANKED_LEAVE_XDATA
          CFI EndBlock cfiBlock64
//  919 
//  920 /*********************************************************************
//  921  * @fn      osal_msg_enqueue
//  922  *
//  923  * @brief
//  924  *
//  925  *    This function enqueues an OSAL message into an OSAL queue.
//  926  *
//  927  * @param   osal_msg_q_t *q_ptr - OSAL queue
//  928  * @param   void *msg_ptr  - OSAL message
//  929  *
//  930  * @return  none
//  931  */

        RSEG BANKED_CODE:HUGECODE:NOROOT(0)
//  932 void osal_msg_enqueue( osal_msg_q_t *q_ptr, void *msg_ptr )
osal_msg_enqueue:
          CFI Block cfiBlock65 Using cfiCommon0
          CFI Function osal_msg_enqueue
        CODE
//  933 {
        MOV       A,#-0x9
        LCALL     ?BANKED_ENTER_XDATA
          CFI DPH0 load(1, XDATA, add(CFA_XSP16, literal(-1)))
          CFI DPL0 load(1, XDATA, add(CFA_XSP16, literal(-2)))
          CFI ?BRET_EXT load(1, XDATA, add(CFA_XSP16, literal(-3)))
          CFI ?RET_HIGH load(1, XDATA, add(CFA_XSP16, literal(-4)))
          CFI ?RET_LOW load(1, XDATA, add(CFA_XSP16, literal(-5)))
          CFI R7 load(1, XDATA, add(CFA_XSP16, literal(-6)))
          CFI V0 load(1, XDATA, add(CFA_XSP16, literal(-7)))
          CFI VB load(1, XDATA, add(CFA_XSP16, literal(-8)))
          CFI R6 load(1, XDATA, add(CFA_XSP16, literal(-9)))
          CFI CFA_SP SP+0
          CFI CFA_XSP16 add(XSP16, 9)
        ; Saved register size: 9
        ; Auto size: 0
//  934   void *list;
//  935   halIntState_t intState;
//  936 
//  937   // Hold off interrupts
//  938   HAL_ENTER_CRITICAL_SECTION(intState);
        MOV       C,0xa8.7
        CLR       A
        RLC       A
        MOV       R6,A
        CLR       0xa8.7
//  939 
//  940   OSAL_MSG_NEXT( msg_ptr ) = NULL;
        LCALL     ?Subroutine19 & 0xFFFF
??CrossCallReturnLabel_50:
        CLR       A
        MOVX      @DPTR,A
        INC       DPTR
        LCALL     ??Subroutine28_0 & 0xFFFF
//  941   // If first message in queue
//  942   if ( *q_ptr == NULL )
??CrossCallReturnLabel_40:
        SJMP      ??osal_msg_enqueue_0
//  943   {
//  944     *q_ptr = msg_ptr;
//  945   }
//  946   else
//  947   {
//  948     // Find end of queue
//  949     for ( list = *q_ptr; OSAL_MSG_NEXT( list ) != NULL; list = OSAL_MSG_NEXT( list ) );
??osal_msg_enqueue_1:
        LCALL     ?Subroutine23 & 0xFFFF
??CrossCallReturnLabel_30:
        MOV       R1,A
        MOV       A,R0
        MOV       R2,A
        MOV       A,R1
        MOV       R3,A
        MOV       DPL,R0
        MOV       DPH,A
??osal_msg_enqueue_0:
        LCALL     ??Subroutine31_0 & 0xFFFF
??CrossCallReturnLabel_52:
        JNZ       ??osal_msg_enqueue_1
//  950 
//  951     // Add message to end of queue
//  952     OSAL_MSG_NEXT( list ) = msg_ptr;
        MOV       DPL,R2
        MOV       DPH,R3
        MOV       A,R4
        MOVX      @DPTR,A
        INC       DPTR
        MOV       A,R5
        MOVX      @DPTR,A
//  953   }
//  954 
//  955   // Re-enable interrupts
//  956   HAL_EXIT_CRITICAL_SECTION(intState);
        MOV       A,R6
        SJMP      ?Subroutine4
          CFI EndBlock cfiBlock65
        REQUIRE _A_IEN0
//  957 }

        RSEG BANKED_CODE:HUGECODE:NOROOT(0)
?Subroutine20:
          CFI Block cfiCond66 Using cfiCommon0
          CFI Function osal_msg_allocate
          CFI Conditional ??CrossCallReturnLabel_37
          CFI R6 load(1, XDATA, add(CFA_XSP16, literal(-10)))
          CFI VB load(1, XDATA, add(CFA_XSP16, literal(-9)))
          CFI V0 load(1, XDATA, add(CFA_XSP16, literal(-8)))
          CFI V1 load(1, XDATA, add(CFA_XSP16, literal(-7)))
          CFI R7 load(1, XDATA, add(CFA_XSP16, literal(-6)))
          CFI ?RET_LOW load(1, XDATA, add(CFA_XSP16, literal(-5)))
          CFI ?RET_HIGH load(1, XDATA, add(CFA_XSP16, literal(-4)))
          CFI ?BRET_EXT load(1, XDATA, add(CFA_XSP16, literal(-3)))
          CFI DPL0 load(1, XDATA, add(CFA_XSP16, literal(-2)))
          CFI DPH0 load(1, XDATA, add(CFA_XSP16, literal(-1)))
          CFI CFA_SP SP+-2
          CFI CFA_XSP16 add(XSP16, 10)
          CFI Block cfiCond67 Using cfiCommon0
          CFI (cfiCond67) Function osal_msg_push
          CFI (cfiCond67) Conditional ??CrossCallReturnLabel_38
          CFI (cfiCond67) R6 load(1, XDATA, add(CFA_XSP16, literal(-9)))
          CFI (cfiCond67) VB load(1, XDATA, add(CFA_XSP16, literal(-8)))
          CFI (cfiCond67) V0 load(1, XDATA, add(CFA_XSP16, literal(-7)))
          CFI (cfiCond67) R7 load(1, XDATA, add(CFA_XSP16, literal(-6)))
          CFI (cfiCond67) ?RET_LOW load(1, XDATA, add(CFA_XSP16, literal(-5)))
          CFI (cfiCond67) ?RET_HIGH load(1, XDATA, add(CFA_XSP16, literal(-4)))
          CFI (cfiCond67) ?BRET_EXT load(1, XDATA, add(CFA_XSP16, literal(-3)))
          CFI (cfiCond67) DPL0 load(1, XDATA, add(CFA_XSP16, literal(-2)))
          CFI (cfiCond67) DPH0 load(1, XDATA, add(CFA_XSP16, literal(-1)))
          CFI (cfiCond67) CFA_SP SP+-2
          CFI (cfiCond67) CFA_XSP16 add(XSP16, 9)
          CFI Block cfiPicker68 Using cfiCommon1
          CFI (cfiPicker68) NoFunction
          CFI (cfiPicker68) Picker
        MOV       A,R6
        MOVX      @DPTR,A
        INC       DPTR
        MOV       A,R7
          CFI EndBlock cfiCond66
          CFI EndBlock cfiCond67
          CFI EndBlock cfiPicker68
        REQUIRE ??Subroutine28_0
        ; // Fall through to label ??Subroutine28_0

        RSEG BANKED_CODE:HUGECODE:NOROOT(0)
??Subroutine28_0:
          CFI Block cfiCond69 Using cfiCommon0
          CFI Function osal_msg_allocate
          CFI Conditional ??CrossCallReturnLabel_39
          CFI R6 load(1, XDATA, add(CFA_XSP16, literal(-10)))
          CFI VB load(1, XDATA, add(CFA_XSP16, literal(-9)))
          CFI V0 load(1, XDATA, add(CFA_XSP16, literal(-8)))
          CFI V1 load(1, XDATA, add(CFA_XSP16, literal(-7)))
          CFI R7 load(1, XDATA, add(CFA_XSP16, literal(-6)))
          CFI ?RET_LOW load(1, XDATA, add(CFA_XSP16, literal(-5)))
          CFI ?RET_HIGH load(1, XDATA, add(CFA_XSP16, literal(-4)))
          CFI ?BRET_EXT load(1, XDATA, add(CFA_XSP16, literal(-3)))
          CFI DPL0 load(1, XDATA, add(CFA_XSP16, literal(-2)))
          CFI DPH0 load(1, XDATA, add(CFA_XSP16, literal(-1)))
          CFI CFA_SP SP+-2
          CFI CFA_XSP16 add(XSP16, 10)
          CFI Block cfiCond70 Using cfiCommon0
          CFI (cfiCond70) Function osal_msg_enqueue
          CFI (cfiCond70) Conditional ??CrossCallReturnLabel_40
          CFI (cfiCond70) R6 load(1, XDATA, add(CFA_XSP16, literal(-9)))
          CFI (cfiCond70) VB load(1, XDATA, add(CFA_XSP16, literal(-8)))
          CFI (cfiCond70) V0 load(1, XDATA, add(CFA_XSP16, literal(-7)))
          CFI (cfiCond70) R7 load(1, XDATA, add(CFA_XSP16, literal(-6)))
          CFI (cfiCond70) ?RET_LOW load(1, XDATA, add(CFA_XSP16, literal(-5)))
          CFI (cfiCond70) ?RET_HIGH load(1, XDATA, add(CFA_XSP16, literal(-4)))
          CFI (cfiCond70) ?BRET_EXT load(1, XDATA, add(CFA_XSP16, literal(-3)))
          CFI (cfiCond70) DPL0 load(1, XDATA, add(CFA_XSP16, literal(-2)))
          CFI (cfiCond70) DPH0 load(1, XDATA, add(CFA_XSP16, literal(-1)))
          CFI (cfiCond70) CFA_SP SP+-2
          CFI (cfiCond70) CFA_XSP16 add(XSP16, 9)
          CFI Block cfiCond71 Using cfiCommon0
          CFI (cfiCond71) Function osal_msg_allocate
          CFI (cfiCond71) Conditional ??CrossCallReturnLabel_37
          CFI (cfiCond71) R6 load(1, XDATA, add(CFA_XSP16, literal(-10)))
          CFI (cfiCond71) VB load(1, XDATA, add(CFA_XSP16, literal(-9)))
          CFI (cfiCond71) V0 load(1, XDATA, add(CFA_XSP16, literal(-8)))
          CFI (cfiCond71) V1 load(1, XDATA, add(CFA_XSP16, literal(-7)))
          CFI (cfiCond71) R7 load(1, XDATA, add(CFA_XSP16, literal(-6)))
          CFI (cfiCond71) ?RET_LOW load(1, XDATA, add(CFA_XSP16, literal(-5)))
          CFI (cfiCond71) ?RET_HIGH load(1, XDATA, add(CFA_XSP16, literal(-4)))
          CFI (cfiCond71) ?BRET_EXT load(1, XDATA, add(CFA_XSP16, literal(-3)))
          CFI (cfiCond71) DPL0 load(1, XDATA, add(CFA_XSP16, literal(-2)))
          CFI (cfiCond71) DPH0 load(1, XDATA, add(CFA_XSP16, literal(-1)))
          CFI (cfiCond71) CFA_SP SP+-2
          CFI (cfiCond71) CFA_XSP16 add(XSP16, 10)
          CFI Block cfiCond72 Using cfiCommon0
          CFI (cfiCond72) Function osal_msg_push
          CFI (cfiCond72) Conditional ??CrossCallReturnLabel_38
          CFI (cfiCond72) R6 load(1, XDATA, add(CFA_XSP16, literal(-9)))
          CFI (cfiCond72) VB load(1, XDATA, add(CFA_XSP16, literal(-8)))
          CFI (cfiCond72) V0 load(1, XDATA, add(CFA_XSP16, literal(-7)))
          CFI (cfiCond72) R7 load(1, XDATA, add(CFA_XSP16, literal(-6)))
          CFI (cfiCond72) ?RET_LOW load(1, XDATA, add(CFA_XSP16, literal(-5)))
          CFI (cfiCond72) ?RET_HIGH load(1, XDATA, add(CFA_XSP16, literal(-4)))
          CFI (cfiCond72) ?BRET_EXT load(1, XDATA, add(CFA_XSP16, literal(-3)))
          CFI (cfiCond72) DPL0 load(1, XDATA, add(CFA_XSP16, literal(-2)))
          CFI (cfiCond72) DPH0 load(1, XDATA, add(CFA_XSP16, literal(-1)))
          CFI (cfiCond72) CFA_SP SP+-2
          CFI (cfiCond72) CFA_XSP16 add(XSP16, 9)
          CFI Block cfiPicker73 Using cfiCommon1
          CFI (cfiPicker73) NoFunction
          CFI (cfiPicker73) Picker
        MOVX      @DPTR,A
        MOV       DPL,R2
        MOV       DPH,R3
        RET
          CFI EndBlock cfiCond69
          CFI EndBlock cfiCond70
          CFI EndBlock cfiCond71
          CFI EndBlock cfiCond72
          CFI EndBlock cfiPicker73
//  958 
//  959 /*********************************************************************
//  960  * @fn      osal_msg_dequeue
//  961  *
//  962  * @brief
//  963  *
//  964  *    This function dequeues an OSAL message from an OSAL queue.
//  965  *
//  966  * @param   osal_msg_q_t *q_ptr - OSAL queue
//  967  *
//  968  * @return  void * - pointer to OSAL message or NULL of queue is empty.
//  969  */

        RSEG BANKED_CODE:HUGECODE:NOROOT(0)
//  970 void *osal_msg_dequeue( osal_msg_q_t *q_ptr )
osal_msg_dequeue:
          CFI Block cfiBlock74 Using cfiCommon0
          CFI Function osal_msg_dequeue
        CODE
//  971 {
        REQUIRE ?V0
        REQUIRE ?V1
        MOV       A,#-0xa
        LCALL     ?BANKED_ENTER_XDATA
          CFI DPH0 load(1, XDATA, add(CFA_XSP16, literal(-1)))
          CFI DPL0 load(1, XDATA, add(CFA_XSP16, literal(-2)))
          CFI ?BRET_EXT load(1, XDATA, add(CFA_XSP16, literal(-3)))
          CFI ?RET_HIGH load(1, XDATA, add(CFA_XSP16, literal(-4)))
          CFI ?RET_LOW load(1, XDATA, add(CFA_XSP16, literal(-5)))
          CFI R7 load(1, XDATA, add(CFA_XSP16, literal(-6)))
          CFI V1 load(1, XDATA, add(CFA_XSP16, literal(-7)))
          CFI V0 load(1, XDATA, add(CFA_XSP16, literal(-8)))
          CFI VB load(1, XDATA, add(CFA_XSP16, literal(-9)))
          CFI R6 load(1, XDATA, add(CFA_XSP16, literal(-10)))
          CFI CFA_SP SP+0
          CFI CFA_XSP16 add(XSP16, 10)
        ; Saved register size: 10
        ; Auto size: 0
        MOV       A,R2
        MOV       R4,A
        MOV       A,R3
        MOV       R5,A
//  972   void *msg_ptr = NULL;
        MOV       R2,#0x0
        MOV       R3,#0x0
//  973   halIntState_t intState;
//  974 
//  975   // Hold off interrupts
//  976   HAL_ENTER_CRITICAL_SECTION(intState);
        MOV       C,0xa8.7
        CLR       A
        RLC       A
        MOV       R6,A
        CLR       0xa8.7
//  977 
//  978   if ( *q_ptr != NULL )
        MOV       DPL,R4
        MOV       DPH,R5
        LCALL     ??Subroutine31_0 & 0xFFFF
??CrossCallReturnLabel_53:
        JZ        ??osal_msg_dequeue_0
//  979   {
//  980     // Dequeue message
//  981     msg_ptr = *q_ptr;
        MOV       A,R0
        MOV       R2,A
        MOV       A,R1
        MOV       R3,A
//  982     *q_ptr = OSAL_MSG_NEXT( msg_ptr );
        LCALL     ?Subroutine23 & 0xFFFF
??CrossCallReturnLabel_31:
        MOV       R1,A
        MOV       DPL,R0
        MOV       DPH,A
        LCALL     ?Subroutine14 & 0xFFFF
??CrossCallReturnLabel_16:
        MOV       DPL,R4
        MOV       DPH,R5
        MOV       A,?V0
        MOVX      @DPTR,A
        INC       DPTR
        MOV       A,?V1
        MOVX      @DPTR,A
//  983     OSAL_MSG_NEXT( msg_ptr ) = NULL;
        MOV       DPL,R0
        MOV       DPH,R1
        CLR       A
        MOVX      @DPTR,A
        INC       DPTR
        MOVX      @DPTR,A
//  984     OSAL_MSG_ID( msg_ptr ) = TASK_NO_TASK;
        MOV       A,R2
        ADD       A,#-0x1
        MOV       DPL,A
        MOV       A,R3
        LCALL     ??Subroutine30_0 & 0xFFFF
//  985   }
??CrossCallReturnLabel_45:
        MOV       A,#-0x1
        MOVX      @DPTR,A
//  986 
//  987   // Re-enable interrupts
//  988   HAL_EXIT_CRITICAL_SECTION(intState);
??osal_msg_dequeue_0:
        MOV       A,R6
        MOV       C,0xE0 /* A   */.0
        MOV       0xa8.7,C
//  989 
//  990   return msg_ptr;
          CFI EndBlock cfiBlock74
        REQUIRE ?Subroutine2
        REQUIRE _A_IEN0
        ; // Fall through to label ?Subroutine2
//  991 }

        RSEG BANKED_CODE:HUGECODE:NOROOT(0)
?Subroutine2:
          CFI Block cfiBlock75 Using cfiCommon0
          CFI NoFunction
          CFI CFA_SP SP+0
          CFI CFA_XSP16 add(XSP16, 10)
          CFI VB load(1, XDATA, add(CFA_XSP16, literal(-9)))
          CFI DPL0 load(1, XDATA, add(CFA_XSP16, literal(-2)))
          CFI DPH0 load(1, XDATA, add(CFA_XSP16, literal(-1)))
          CFI R6 load(1, XDATA, add(CFA_XSP16, literal(-10)))
          CFI R7 load(1, XDATA, add(CFA_XSP16, literal(-6)))
          CFI V0 load(1, XDATA, add(CFA_XSP16, literal(-8)))
          CFI V1 load(1, XDATA, add(CFA_XSP16, literal(-7)))
          CFI ?BRET_EXT load(1, XDATA, add(CFA_XSP16, literal(-3)))
          CFI ?RET_HIGH load(1, XDATA, add(CFA_XSP16, literal(-4)))
          CFI ?RET_LOW load(1, XDATA, add(CFA_XSP16, literal(-5)))
        MOV       R7,#0x2
        LJMP      ?BANKED_LEAVE_XDATA
          CFI EndBlock cfiBlock75

        RSEG BANKED_CODE:HUGECODE:NOROOT(0)
?Subroutine23:
          CFI Block cfiCond76 Using cfiCommon0
          CFI Function osal_msg_enqueue
          CFI Conditional ??CrossCallReturnLabel_30
          CFI R6 load(1, XDATA, add(CFA_XSP16, literal(-9)))
          CFI VB load(1, XDATA, add(CFA_XSP16, literal(-8)))
          CFI V0 load(1, XDATA, add(CFA_XSP16, literal(-7)))
          CFI R7 load(1, XDATA, add(CFA_XSP16, literal(-6)))
          CFI ?RET_LOW load(1, XDATA, add(CFA_XSP16, literal(-5)))
          CFI ?RET_HIGH load(1, XDATA, add(CFA_XSP16, literal(-4)))
          CFI ?BRET_EXT load(1, XDATA, add(CFA_XSP16, literal(-3)))
          CFI DPL0 load(1, XDATA, add(CFA_XSP16, literal(-2)))
          CFI DPH0 load(1, XDATA, add(CFA_XSP16, literal(-1)))
          CFI CFA_SP SP+-2
          CFI CFA_XSP16 add(XSP16, 9)
          CFI Block cfiCond77 Using cfiCommon0
          CFI (cfiCond77) Function osal_msg_dequeue
          CFI (cfiCond77) Conditional ??CrossCallReturnLabel_31
          CFI (cfiCond77) R6 load(1, XDATA, add(CFA_XSP16, literal(-10)))
          CFI (cfiCond77) VB load(1, XDATA, add(CFA_XSP16, literal(-9)))
          CFI (cfiCond77) V0 load(1, XDATA, add(CFA_XSP16, literal(-8)))
          CFI (cfiCond77) V1 load(1, XDATA, add(CFA_XSP16, literal(-7)))
          CFI (cfiCond77) R7 load(1, XDATA, add(CFA_XSP16, literal(-6)))
          CFI (cfiCond77) ?RET_LOW load(1, XDATA, add(CFA_XSP16, literal(-5)))
          CFI (cfiCond77) ?RET_HIGH load(1, XDATA, add(CFA_XSP16, literal(-4)))
          CFI (cfiCond77) ?BRET_EXT load(1, XDATA, add(CFA_XSP16, literal(-3)))
          CFI (cfiCond77) DPL0 load(1, XDATA, add(CFA_XSP16, literal(-2)))
          CFI (cfiCond77) DPH0 load(1, XDATA, add(CFA_XSP16, literal(-1)))
          CFI (cfiCond77) CFA_SP SP+-2
          CFI (cfiCond77) CFA_XSP16 add(XSP16, 10)
          CFI Block cfiCond78 Using cfiCommon0
          CFI (cfiCond78) Function osal_msg_enqueue_max
          CFI (cfiCond78) Conditional ??CrossCallReturnLabel_32
          CFI (cfiCond78) R6 load(1, XDATA, add(CFA_XSP16, literal(-10)))
          CFI (cfiCond78) VB load(1, XDATA, add(CFA_XSP16, literal(-9)))
          CFI (cfiCond78) V0 load(1, XDATA, add(CFA_XSP16, literal(-8)))
          CFI (cfiCond78) V1 load(1, XDATA, add(CFA_XSP16, literal(-7)))
          CFI (cfiCond78) R7 load(1, XDATA, add(CFA_XSP16, literal(-6)))
          CFI (cfiCond78) ?RET_LOW load(1, XDATA, add(CFA_XSP16, literal(-5)))
          CFI (cfiCond78) ?RET_HIGH load(1, XDATA, add(CFA_XSP16, literal(-4)))
          CFI (cfiCond78) ?BRET_EXT load(1, XDATA, add(CFA_XSP16, literal(-3)))
          CFI (cfiCond78) DPL0 load(1, XDATA, add(CFA_XSP16, literal(-2)))
          CFI (cfiCond78) DPH0 load(1, XDATA, add(CFA_XSP16, literal(-1)))
          CFI (cfiCond78) CFA_SP SP+-2
          CFI (cfiCond78) CFA_XSP16 add(XSP16, 10)
          CFI Block cfiPicker79 Using cfiCommon1
          CFI (cfiPicker79) NoFunction
          CFI (cfiPicker79) Picker
        MOV       A,R0
        ADD       A,#-0x5
        MOV       R0,A
        MOV       A,R1
        ADDC      A,#-0x1
        RET
          CFI EndBlock cfiCond76
          CFI EndBlock cfiCond77
          CFI EndBlock cfiCond78
          CFI EndBlock cfiPicker79

        RSEG BANKED_CODE:HUGECODE:NOROOT(0)
?Subroutine14:
          CFI Block cfiCond80 Using cfiCommon0
          CFI Function osal_msg_receive
          CFI Conditional ??CrossCallReturnLabel_15
          CFI R6 load(1, XDATA, add(CFA_XSP16, literal(-14)))
          CFI VB load(1, XDATA, add(CFA_XSP16, literal(-13)))
          CFI V0 load(1, XDATA, add(CFA_XSP16, literal(-12)))
          CFI V1 load(1, XDATA, add(CFA_XSP16, literal(-11)))
          CFI V2 load(1, XDATA, add(CFA_XSP16, literal(-10)))
          CFI V3 load(1, XDATA, add(CFA_XSP16, literal(-9)))
          CFI V4 load(1, XDATA, add(CFA_XSP16, literal(-8)))
          CFI V5 load(1, XDATA, add(CFA_XSP16, literal(-7)))
          CFI R7 load(1, XDATA, add(CFA_XSP16, literal(-6)))
          CFI ?RET_LOW load(1, XDATA, add(CFA_XSP16, literal(-5)))
          CFI ?RET_HIGH load(1, XDATA, add(CFA_XSP16, literal(-4)))
          CFI ?BRET_EXT load(1, XDATA, add(CFA_XSP16, literal(-3)))
          CFI DPL0 load(1, XDATA, add(CFA_XSP16, literal(-2)))
          CFI DPH0 load(1, XDATA, add(CFA_XSP16, literal(-1)))
          CFI CFA_SP SP+-2
          CFI CFA_XSP16 add(XSP16, 14)
          CFI Block cfiCond81 Using cfiCommon0
          CFI (cfiCond81) Function osal_msg_dequeue
          CFI (cfiCond81) Conditional ??CrossCallReturnLabel_16
          CFI (cfiCond81) R6 load(1, XDATA, add(CFA_XSP16, literal(-10)))
          CFI (cfiCond81) VB load(1, XDATA, add(CFA_XSP16, literal(-9)))
          CFI (cfiCond81) V0 load(1, XDATA, add(CFA_XSP16, literal(-8)))
          CFI (cfiCond81) V1 load(1, XDATA, add(CFA_XSP16, literal(-7)))
          CFI (cfiCond81) R7 load(1, XDATA, add(CFA_XSP16, literal(-6)))
          CFI (cfiCond81) ?RET_LOW load(1, XDATA, add(CFA_XSP16, literal(-5)))
          CFI (cfiCond81) ?RET_HIGH load(1, XDATA, add(CFA_XSP16, literal(-4)))
          CFI (cfiCond81) ?BRET_EXT load(1, XDATA, add(CFA_XSP16, literal(-3)))
          CFI (cfiCond81) DPL0 load(1, XDATA, add(CFA_XSP16, literal(-2)))
          CFI (cfiCond81) DPH0 load(1, XDATA, add(CFA_XSP16, literal(-1)))
          CFI (cfiCond81) CFA_SP SP+-2
          CFI (cfiCond81) CFA_XSP16 add(XSP16, 10)
          CFI Block cfiCond82 Using cfiCommon0
          CFI (cfiCond82) Function osal_msg_extract
          CFI (cfiCond82) Conditional ??CrossCallReturnLabel_17
          CFI (cfiCond82) R6 load(1, XDATA, add(CFA_XSP16, literal(-11)))
          CFI (cfiCond82) VB load(1, XDATA, add(CFA_XSP16, literal(-10)))
          CFI (cfiCond82) V0 load(1, XDATA, add(CFA_XSP16, literal(-9)))
          CFI (cfiCond82) V1 load(1, XDATA, add(CFA_XSP16, literal(-8)))
          CFI (cfiCond82) V2 load(1, XDATA, add(CFA_XSP16, literal(-7)))
          CFI (cfiCond82) R7 load(1, XDATA, add(CFA_XSP16, literal(-6)))
          CFI (cfiCond82) ?RET_LOW load(1, XDATA, add(CFA_XSP16, literal(-5)))
          CFI (cfiCond82) ?RET_HIGH load(1, XDATA, add(CFA_XSP16, literal(-4)))
          CFI (cfiCond82) ?BRET_EXT load(1, XDATA, add(CFA_XSP16, literal(-3)))
          CFI (cfiCond82) DPL0 load(1, XDATA, add(CFA_XSP16, literal(-2)))
          CFI (cfiCond82) DPH0 load(1, XDATA, add(CFA_XSP16, literal(-1)))
          CFI (cfiCond82) CFA_SP SP+-2
          CFI (cfiCond82) CFA_XSP16 add(XSP16, 11)
          CFI Block cfiPicker83 Using cfiCommon1
          CFI (cfiPicker83) NoFunction
          CFI (cfiPicker83) Picker
        MOVX      A,@DPTR
        MOV       ?V0,A
        INC       DPTR
        MOVX      A,@DPTR
        MOV       ?V1,A
        RET
          CFI EndBlock cfiCond80
          CFI EndBlock cfiCond81
          CFI EndBlock cfiCond82
          CFI EndBlock cfiPicker83
//  992 
//  993 /*********************************************************************
//  994  * @fn      osal_msg_push
//  995  *
//  996  * @brief
//  997  *
//  998  *    This function pushes an OSAL message to the head of an OSAL
//  999  *    queue.
// 1000  *
// 1001  * @param   osal_msg_q_t *q_ptr - OSAL queue
// 1002  * @param   void *msg_ptr  - OSAL message
// 1003  *
// 1004  * @return  none
// 1005  */

        RSEG BANKED_CODE:HUGECODE:NOROOT(0)
// 1006 void osal_msg_push( osal_msg_q_t *q_ptr, void *msg_ptr )
osal_msg_push:
          CFI Block cfiBlock84 Using cfiCommon0
          CFI Function osal_msg_push
        CODE
// 1007 {
        MOV       A,#-0x9
        LCALL     ?BANKED_ENTER_XDATA
          CFI DPH0 load(1, XDATA, add(CFA_XSP16, literal(-1)))
          CFI DPL0 load(1, XDATA, add(CFA_XSP16, literal(-2)))
          CFI ?BRET_EXT load(1, XDATA, add(CFA_XSP16, literal(-3)))
          CFI ?RET_HIGH load(1, XDATA, add(CFA_XSP16, literal(-4)))
          CFI ?RET_LOW load(1, XDATA, add(CFA_XSP16, literal(-5)))
          CFI R7 load(1, XDATA, add(CFA_XSP16, literal(-6)))
          CFI V0 load(1, XDATA, add(CFA_XSP16, literal(-7)))
          CFI VB load(1, XDATA, add(CFA_XSP16, literal(-8)))
          CFI R6 load(1, XDATA, add(CFA_XSP16, literal(-9)))
          CFI CFA_SP SP+0
          CFI CFA_XSP16 add(XSP16, 9)
        ; Saved register size: 9
        ; Auto size: 0
// 1008   halIntState_t intState;
// 1009 
// 1010   // Hold off interrupts
// 1011   HAL_ENTER_CRITICAL_SECTION(intState);
        MOV       R0,0xa8+0x0
        CLR       0xa8.7
// 1012 
// 1013   // Push message to head of queue
// 1014   OSAL_MSG_NEXT( msg_ptr ) = *q_ptr;
        MOV       DPL,R2
        MOV       DPH,R3
        MOVX      A,@DPTR
        MOV       R6,A
        INC       DPTR
        MOVX      A,@DPTR
        MOV       R7,A
        LCALL     ?Subroutine19 & 0xFFFF
??CrossCallReturnLabel_51:
        LCALL     ?Subroutine20 & 0xFFFF
// 1015   *q_ptr = msg_ptr;
??CrossCallReturnLabel_38:
        MOV       A,R4
        MOVX      @DPTR,A
        INC       DPTR
        MOV       A,R5
        MOVX      @DPTR,A
// 1016 
// 1017   // Re-enable interrupts
// 1018   HAL_EXIT_CRITICAL_SECTION(intState);
        MOV       A,R0
        MOV       C,0xE0 /* A   */.7
        LJMP      ??Subroutine26_0 & 0xFFFF
          CFI EndBlock cfiBlock84
        REQUIRE _A_IEN0
// 1019 }
// 1020 
// 1021 /*********************************************************************
// 1022  * @fn      osal_msg_extract
// 1023  *
// 1024  * @brief
// 1025  *
// 1026  *    This function extracts and removes an OSAL message from the
// 1027  *    middle of an OSAL queue.
// 1028  *
// 1029  * @param   osal_msg_q_t *q_ptr - OSAL queue
// 1030  * @param   void *msg_ptr  - OSAL message to be extracted
// 1031  * @param   void *prev_ptr  - OSAL message before msg_ptr in queue
// 1032  *
// 1033  * @return  none
// 1034  */

        RSEG BANKED_CODE:HUGECODE:NOROOT(0)
// 1035 void osal_msg_extract( osal_msg_q_t *q_ptr, void *msg_ptr, void *prev_ptr )
osal_msg_extract:
          CFI Block cfiBlock85 Using cfiCommon0
          CFI Function osal_msg_extract
        CODE
// 1036 {
        REQUIRE ?V0
        REQUIRE ?V1
        REQUIRE ?V2
        MOV       A,#-0xb
        LCALL     ?BANKED_ENTER_XDATA
          CFI DPH0 load(1, XDATA, add(CFA_XSP16, literal(-1)))
          CFI DPL0 load(1, XDATA, add(CFA_XSP16, literal(-2)))
          CFI ?BRET_EXT load(1, XDATA, add(CFA_XSP16, literal(-3)))
          CFI ?RET_HIGH load(1, XDATA, add(CFA_XSP16, literal(-4)))
          CFI ?RET_LOW load(1, XDATA, add(CFA_XSP16, literal(-5)))
          CFI R7 load(1, XDATA, add(CFA_XSP16, literal(-6)))
          CFI V2 load(1, XDATA, add(CFA_XSP16, literal(-7)))
          CFI V1 load(1, XDATA, add(CFA_XSP16, literal(-8)))
          CFI V0 load(1, XDATA, add(CFA_XSP16, literal(-9)))
          CFI VB load(1, XDATA, add(CFA_XSP16, literal(-10)))
          CFI R6 load(1, XDATA, add(CFA_XSP16, literal(-11)))
          CFI CFA_SP SP+0
          CFI CFA_XSP16 add(XSP16, 11)
        ; Saved register size: 11
        ; Auto size: 0
// 1037   halIntState_t intState;
// 1038 
// 1039   // Hold off interrupts
// 1040   HAL_ENTER_CRITICAL_SECTION(intState);
        MOV       C,0xa8.7
        CLR       A
        RLC       A
        MOV       ?V2,A
        CLR       0xa8.7
// 1041 
// 1042   if ( msg_ptr == *q_ptr )
        MOV       A,R4
        ADD       A,#-0x5
        MOV       R0,A
        MOV       A,R5
        ADDC      A,#-0x1
        MOV       R1,A
        MOV       A,R0
        MOV       R6,A
        MOV       A,R1
        MOV       R7,A
        MOV       DPL,R0
        MOV       DPH,A
        MOVX      A,@DPTR
        MOV       R0,A
        INC       DPTR
        MOVX      A,@DPTR
        MOV       R1,A
        MOV       DPL,R2
        MOV       DPH,R3
        LCALL     ?Subroutine14 & 0xFFFF
??CrossCallReturnLabel_17:
        MOV       A,R4
        XRL       A,?V0
        JNZ       ??osal_msg_extract_0
        MOV       A,R5
        XRL       A,?V1
??osal_msg_extract_0:
        JNZ       ??osal_msg_extract_1
// 1043   {
// 1044     // remove from first
// 1045     *q_ptr = OSAL_MSG_NEXT( msg_ptr );
        MOV       DPL,R2
        MOV       DPH,R3
        SJMP      ??CrossCallReturnLabel_46
// 1046   }
// 1047   else
// 1048   {
// 1049     // remove from middle
// 1050     OSAL_MSG_NEXT( prev_ptr ) = OSAL_MSG_NEXT( msg_ptr );
??osal_msg_extract_1:
        MOV       A,#0xb
        LCALL     ?XSTACK_DISP0_8
        MOVX      A,@DPTR
        MOV       R2,A
        INC       DPTR
        MOVX      A,@DPTR
        XCH       A,R2
        ADD       A,#-0x5
        MOV       DPL,A
        MOV       A,R2
        LCALL     ??Subroutine30_0 & 0xFFFF
// 1051   }
??CrossCallReturnLabel_46:
        MOV       A,R0
        MOVX      @DPTR,A
        INC       DPTR
        MOV       A,R1
        MOVX      @DPTR,A
// 1052   OSAL_MSG_NEXT( msg_ptr ) = NULL;
        MOV       DPL,R6
        MOV       DPH,R7
        CLR       A
        MOVX      @DPTR,A
        INC       DPTR
        MOVX      @DPTR,A
// 1053   OSAL_MSG_ID( msg_ptr ) = TASK_NO_TASK;
        MOV       A,R4
        ADD       A,#-0x1
        LCALL     ??Subroutine29_0 & 0xFFFF
??CrossCallReturnLabel_48:
        MOV       A,#-0x1
        MOVX      @DPTR,A
// 1054 
// 1055   // Re-enable interrupts
// 1056   HAL_EXIT_CRITICAL_SECTION(intState);
        MOV       A,?V2
        MOV       C,0xE0 /* A   */.0
        MOV       0xa8.7,C
// 1057 }
        MOV       R7,#0x3
        LJMP      ?BANKED_LEAVE_XDATA
          CFI EndBlock cfiBlock85
        REQUIRE _A_IEN0

        RSEG BANKED_CODE:HUGECODE:NOROOT(0)
?Subroutine19:
          CFI Block cfiCond86 Using cfiCommon0
          CFI Function osal_msg_count
          CFI Conditional ??CrossCallReturnLabel_49
          CFI R6 load(1, XDATA, add(CFA_XSP16, literal(-9)))
          CFI VB load(1, XDATA, add(CFA_XSP16, literal(-8)))
          CFI V0 load(1, XDATA, add(CFA_XSP16, literal(-7)))
          CFI R7 load(1, XDATA, add(CFA_XSP16, literal(-6)))
          CFI ?RET_LOW load(1, XDATA, add(CFA_XSP16, literal(-5)))
          CFI ?RET_HIGH load(1, XDATA, add(CFA_XSP16, literal(-4)))
          CFI ?BRET_EXT load(1, XDATA, add(CFA_XSP16, literal(-3)))
          CFI DPL0 load(1, XDATA, add(CFA_XSP16, literal(-2)))
          CFI DPH0 load(1, XDATA, add(CFA_XSP16, literal(-1)))
          CFI CFA_SP SP+-2
          CFI CFA_XSP16 add(XSP16, 9)
          CFI Block cfiCond87 Using cfiCommon0
          CFI (cfiCond87) Function osal_msg_enqueue
          CFI (cfiCond87) Conditional ??CrossCallReturnLabel_50
          CFI (cfiCond87) R6 load(1, XDATA, add(CFA_XSP16, literal(-9)))
          CFI (cfiCond87) VB load(1, XDATA, add(CFA_XSP16, literal(-8)))
          CFI (cfiCond87) V0 load(1, XDATA, add(CFA_XSP16, literal(-7)))
          CFI (cfiCond87) R7 load(1, XDATA, add(CFA_XSP16, literal(-6)))
          CFI (cfiCond87) ?RET_LOW load(1, XDATA, add(CFA_XSP16, literal(-5)))
          CFI (cfiCond87) ?RET_HIGH load(1, XDATA, add(CFA_XSP16, literal(-4)))
          CFI (cfiCond87) ?BRET_EXT load(1, XDATA, add(CFA_XSP16, literal(-3)))
          CFI (cfiCond87) DPL0 load(1, XDATA, add(CFA_XSP16, literal(-2)))
          CFI (cfiCond87) DPH0 load(1, XDATA, add(CFA_XSP16, literal(-1)))
          CFI (cfiCond87) CFA_SP SP+-2
          CFI (cfiCond87) CFA_XSP16 add(XSP16, 9)
          CFI Block cfiCond88 Using cfiCommon0
          CFI (cfiCond88) Function osal_msg_push
          CFI (cfiCond88) Conditional ??CrossCallReturnLabel_51
          CFI (cfiCond88) R6 load(1, XDATA, add(CFA_XSP16, literal(-9)))
          CFI (cfiCond88) VB load(1, XDATA, add(CFA_XSP16, literal(-8)))
          CFI (cfiCond88) V0 load(1, XDATA, add(CFA_XSP16, literal(-7)))
          CFI (cfiCond88) R7 load(1, XDATA, add(CFA_XSP16, literal(-6)))
          CFI (cfiCond88) ?RET_LOW load(1, XDATA, add(CFA_XSP16, literal(-5)))
          CFI (cfiCond88) ?RET_HIGH load(1, XDATA, add(CFA_XSP16, literal(-4)))
          CFI (cfiCond88) ?BRET_EXT load(1, XDATA, add(CFA_XSP16, literal(-3)))
          CFI (cfiCond88) DPL0 load(1, XDATA, add(CFA_XSP16, literal(-2)))
          CFI (cfiCond88) DPH0 load(1, XDATA, add(CFA_XSP16, literal(-1)))
          CFI (cfiCond88) CFA_SP SP+-2
          CFI (cfiCond88) CFA_XSP16 add(XSP16, 9)
          CFI Block cfiPicker89 Using cfiCommon1
          CFI (cfiPicker89) NoFunction
          CFI (cfiPicker89) Picker
        MOV       A,R4
        ADD       A,#-0x5
          CFI EndBlock cfiCond86
          CFI EndBlock cfiCond87
          CFI EndBlock cfiCond88
          CFI EndBlock cfiPicker89
        REQUIRE ??Subroutine29_0
        ; // Fall through to label ??Subroutine29_0

        RSEG BANKED_CODE:HUGECODE:NOROOT(0)
??Subroutine29_0:
          CFI Block cfiCond90 Using cfiCommon0
          CFI Function osal_msg_count
          CFI Conditional ??CrossCallReturnLabel_47
          CFI R6 load(1, XDATA, add(CFA_XSP16, literal(-9)))
          CFI VB load(1, XDATA, add(CFA_XSP16, literal(-8)))
          CFI V0 load(1, XDATA, add(CFA_XSP16, literal(-7)))
          CFI R7 load(1, XDATA, add(CFA_XSP16, literal(-6)))
          CFI ?RET_LOW load(1, XDATA, add(CFA_XSP16, literal(-5)))
          CFI ?RET_HIGH load(1, XDATA, add(CFA_XSP16, literal(-4)))
          CFI ?BRET_EXT load(1, XDATA, add(CFA_XSP16, literal(-3)))
          CFI DPL0 load(1, XDATA, add(CFA_XSP16, literal(-2)))
          CFI DPH0 load(1, XDATA, add(CFA_XSP16, literal(-1)))
          CFI CFA_SP SP+-2
          CFI CFA_XSP16 add(XSP16, 9)
          CFI Block cfiCond91 Using cfiCommon0
          CFI (cfiCond91) Function osal_msg_extract
          CFI (cfiCond91) Conditional ??CrossCallReturnLabel_48
          CFI (cfiCond91) R6 load(1, XDATA, add(CFA_XSP16, literal(-11)))
          CFI (cfiCond91) VB load(1, XDATA, add(CFA_XSP16, literal(-10)))
          CFI (cfiCond91) V0 load(1, XDATA, add(CFA_XSP16, literal(-9)))
          CFI (cfiCond91) V1 load(1, XDATA, add(CFA_XSP16, literal(-8)))
          CFI (cfiCond91) V2 load(1, XDATA, add(CFA_XSP16, literal(-7)))
          CFI (cfiCond91) R7 load(1, XDATA, add(CFA_XSP16, literal(-6)))
          CFI (cfiCond91) ?RET_LOW load(1, XDATA, add(CFA_XSP16, literal(-5)))
          CFI (cfiCond91) ?RET_HIGH load(1, XDATA, add(CFA_XSP16, literal(-4)))
          CFI (cfiCond91) ?BRET_EXT load(1, XDATA, add(CFA_XSP16, literal(-3)))
          CFI (cfiCond91) DPL0 load(1, XDATA, add(CFA_XSP16, literal(-2)))
          CFI (cfiCond91) DPH0 load(1, XDATA, add(CFA_XSP16, literal(-1)))
          CFI (cfiCond91) CFA_SP SP+-2
          CFI (cfiCond91) CFA_XSP16 add(XSP16, 11)
          CFI Block cfiCond92 Using cfiCommon0
          CFI (cfiCond92) Function osal_msg_count
          CFI (cfiCond92) Conditional ??CrossCallReturnLabel_49
          CFI (cfiCond92) R6 load(1, XDATA, add(CFA_XSP16, literal(-9)))
          CFI (cfiCond92) VB load(1, XDATA, add(CFA_XSP16, literal(-8)))
          CFI (cfiCond92) V0 load(1, XDATA, add(CFA_XSP16, literal(-7)))
          CFI (cfiCond92) R7 load(1, XDATA, add(CFA_XSP16, literal(-6)))
          CFI (cfiCond92) ?RET_LOW load(1, XDATA, add(CFA_XSP16, literal(-5)))
          CFI (cfiCond92) ?RET_HIGH load(1, XDATA, add(CFA_XSP16, literal(-4)))
          CFI (cfiCond92) ?BRET_EXT load(1, XDATA, add(CFA_XSP16, literal(-3)))
          CFI (cfiCond92) DPL0 load(1, XDATA, add(CFA_XSP16, literal(-2)))
          CFI (cfiCond92) DPH0 load(1, XDATA, add(CFA_XSP16, literal(-1)))
          CFI (cfiCond92) CFA_SP SP+-2
          CFI (cfiCond92) CFA_XSP16 add(XSP16, 9)
          CFI Block cfiCond93 Using cfiCommon0
          CFI (cfiCond93) Function osal_msg_enqueue
          CFI (cfiCond93) Conditional ??CrossCallReturnLabel_50
          CFI (cfiCond93) R6 load(1, XDATA, add(CFA_XSP16, literal(-9)))
          CFI (cfiCond93) VB load(1, XDATA, add(CFA_XSP16, literal(-8)))
          CFI (cfiCond93) V0 load(1, XDATA, add(CFA_XSP16, literal(-7)))
          CFI (cfiCond93) R7 load(1, XDATA, add(CFA_XSP16, literal(-6)))
          CFI (cfiCond93) ?RET_LOW load(1, XDATA, add(CFA_XSP16, literal(-5)))
          CFI (cfiCond93) ?RET_HIGH load(1, XDATA, add(CFA_XSP16, literal(-4)))
          CFI (cfiCond93) ?BRET_EXT load(1, XDATA, add(CFA_XSP16, literal(-3)))
          CFI (cfiCond93) DPL0 load(1, XDATA, add(CFA_XSP16, literal(-2)))
          CFI (cfiCond93) DPH0 load(1, XDATA, add(CFA_XSP16, literal(-1)))
          CFI (cfiCond93) CFA_SP SP+-2
          CFI (cfiCond93) CFA_XSP16 add(XSP16, 9)
          CFI Block cfiCond94 Using cfiCommon0
          CFI (cfiCond94) Function osal_msg_push
          CFI (cfiCond94) Conditional ??CrossCallReturnLabel_51
          CFI (cfiCond94) R6 load(1, XDATA, add(CFA_XSP16, literal(-9)))
          CFI (cfiCond94) VB load(1, XDATA, add(CFA_XSP16, literal(-8)))
          CFI (cfiCond94) V0 load(1, XDATA, add(CFA_XSP16, literal(-7)))
          CFI (cfiCond94) R7 load(1, XDATA, add(CFA_XSP16, literal(-6)))
          CFI (cfiCond94) ?RET_LOW load(1, XDATA, add(CFA_XSP16, literal(-5)))
          CFI (cfiCond94) ?RET_HIGH load(1, XDATA, add(CFA_XSP16, literal(-4)))
          CFI (cfiCond94) ?BRET_EXT load(1, XDATA, add(CFA_XSP16, literal(-3)))
          CFI (cfiCond94) DPL0 load(1, XDATA, add(CFA_XSP16, literal(-2)))
          CFI (cfiCond94) DPH0 load(1, XDATA, add(CFA_XSP16, literal(-1)))
          CFI (cfiCond94) CFA_SP SP+-2
          CFI (cfiCond94) CFA_XSP16 add(XSP16, 9)
          CFI Block cfiPicker95 Using cfiCommon1
          CFI (cfiPicker95) NoFunction
          CFI (cfiPicker95) Picker
        MOV       DPL,A
        MOV       A,R5
          CFI EndBlock cfiCond90
          CFI EndBlock cfiCond91
          CFI EndBlock cfiCond92
          CFI EndBlock cfiCond93
          CFI EndBlock cfiCond94
          CFI EndBlock cfiPicker95
        REQUIRE ??Subroutine30_0
        ; // Fall through to label ??Subroutine30_0

        RSEG BANKED_CODE:HUGECODE:NOROOT(0)
??Subroutine30_0:
          CFI Block cfiCond96 Using cfiCommon0
          CFI Function osal_msg_receive
          CFI Conditional ??CrossCallReturnLabel_41
          CFI R6 load(1, XDATA, add(CFA_XSP16, literal(-14)))
          CFI VB load(1, XDATA, add(CFA_XSP16, literal(-13)))
          CFI V0 load(1, XDATA, add(CFA_XSP16, literal(-12)))
          CFI V1 load(1, XDATA, add(CFA_XSP16, literal(-11)))
          CFI V2 load(1, XDATA, add(CFA_XSP16, literal(-10)))
          CFI V3 load(1, XDATA, add(CFA_XSP16, literal(-9)))
          CFI V4 load(1, XDATA, add(CFA_XSP16, literal(-8)))
          CFI V5 load(1, XDATA, add(CFA_XSP16, literal(-7)))
          CFI R7 load(1, XDATA, add(CFA_XSP16, literal(-6)))
          CFI ?RET_LOW load(1, XDATA, add(CFA_XSP16, literal(-5)))
          CFI ?RET_HIGH load(1, XDATA, add(CFA_XSP16, literal(-4)))
          CFI ?BRET_EXT load(1, XDATA, add(CFA_XSP16, literal(-3)))
          CFI DPL0 load(1, XDATA, add(CFA_XSP16, literal(-2)))
          CFI DPH0 load(1, XDATA, add(CFA_XSP16, literal(-1)))
          CFI CFA_SP SP+-2
          CFI CFA_XSP16 add(XSP16, 14)
          CFI Block cfiCond97 Using cfiCommon0
          CFI (cfiCond97) Function osal_msg_receive
          CFI (cfiCond97) Conditional ??CrossCallReturnLabel_42
          CFI (cfiCond97) R6 load(1, XDATA, add(CFA_XSP16, literal(-14)))
          CFI (cfiCond97) VB load(1, XDATA, add(CFA_XSP16, literal(-13)))
          CFI (cfiCond97) V0 load(1, XDATA, add(CFA_XSP16, literal(-12)))
          CFI (cfiCond97) V1 load(1, XDATA, add(CFA_XSP16, literal(-11)))
          CFI (cfiCond97) V2 load(1, XDATA, add(CFA_XSP16, literal(-10)))
          CFI (cfiCond97) V3 load(1, XDATA, add(CFA_XSP16, literal(-9)))
          CFI (cfiCond97) V4 load(1, XDATA, add(CFA_XSP16, literal(-8)))
          CFI (cfiCond97) V5 load(1, XDATA, add(CFA_XSP16, literal(-7)))
          CFI (cfiCond97) R7 load(1, XDATA, add(CFA_XSP16, literal(-6)))
          CFI (cfiCond97) ?RET_LOW load(1, XDATA, add(CFA_XSP16, literal(-5)))
          CFI (cfiCond97) ?RET_HIGH load(1, XDATA, add(CFA_XSP16, literal(-4)))
          CFI (cfiCond97) ?BRET_EXT load(1, XDATA, add(CFA_XSP16, literal(-3)))
          CFI (cfiCond97) DPL0 load(1, XDATA, add(CFA_XSP16, literal(-2)))
          CFI (cfiCond97) DPH0 load(1, XDATA, add(CFA_XSP16, literal(-1)))
          CFI (cfiCond97) CFA_SP SP+-2
          CFI (cfiCond97) CFA_XSP16 add(XSP16, 14)
          CFI Block cfiCond98 Using cfiCommon0
          CFI (cfiCond98) Function osal_msg_find
          CFI (cfiCond98) Conditional ??CrossCallReturnLabel_43
          CFI (cfiCond98) DPL0 Frame(CFA_SP, 4)
          CFI (cfiCond98) DPH0 Frame(CFA_SP, 5)
          CFI (cfiCond98) CFA_SP SP+-7
          CFI Block cfiCond99 Using cfiCommon0
          CFI (cfiCond99) Function osal_msg_find
          CFI (cfiCond99) Conditional ??CrossCallReturnLabel_44
          CFI (cfiCond99) DPL0 Frame(CFA_SP, 4)
          CFI (cfiCond99) DPH0 Frame(CFA_SP, 5)
          CFI (cfiCond99) CFA_SP SP+-7
          CFI Block cfiCond100 Using cfiCommon0
          CFI (cfiCond100) Function osal_msg_dequeue
          CFI (cfiCond100) Conditional ??CrossCallReturnLabel_45
          CFI (cfiCond100) R6 load(1, XDATA, add(CFA_XSP16, literal(-10)))
          CFI (cfiCond100) VB load(1, XDATA, add(CFA_XSP16, literal(-9)))
          CFI (cfiCond100) V0 load(1, XDATA, add(CFA_XSP16, literal(-8)))
          CFI (cfiCond100) V1 load(1, XDATA, add(CFA_XSP16, literal(-7)))
          CFI (cfiCond100) R7 load(1, XDATA, add(CFA_XSP16, literal(-6)))
          CFI (cfiCond100) ?RET_LOW load(1, XDATA, add(CFA_XSP16, literal(-5)))
          CFI (cfiCond100) ?RET_HIGH load(1, XDATA, add(CFA_XSP16, literal(-4)))
          CFI (cfiCond100) ?BRET_EXT load(1, XDATA, add(CFA_XSP16, literal(-3)))
          CFI (cfiCond100) DPL0 load(1, XDATA, add(CFA_XSP16, literal(-2)))
          CFI (cfiCond100) DPH0 load(1, XDATA, add(CFA_XSP16, literal(-1)))
          CFI (cfiCond100) CFA_SP SP+-2
          CFI (cfiCond100) CFA_XSP16 add(XSP16, 10)
          CFI Block cfiCond101 Using cfiCommon0
          CFI (cfiCond101) Function osal_msg_extract
          CFI (cfiCond101) Conditional ??CrossCallReturnLabel_46
          CFI (cfiCond101) R6 load(1, XDATA, add(CFA_XSP16, literal(-11)))
          CFI (cfiCond101) VB load(1, XDATA, add(CFA_XSP16, literal(-10)))
          CFI (cfiCond101) V0 load(1, XDATA, add(CFA_XSP16, literal(-9)))
          CFI (cfiCond101) V1 load(1, XDATA, add(CFA_XSP16, literal(-8)))
          CFI (cfiCond101) V2 load(1, XDATA, add(CFA_XSP16, literal(-7)))
          CFI (cfiCond101) R7 load(1, XDATA, add(CFA_XSP16, literal(-6)))
          CFI (cfiCond101) ?RET_LOW load(1, XDATA, add(CFA_XSP16, literal(-5)))
          CFI (cfiCond101) ?RET_HIGH load(1, XDATA, add(CFA_XSP16, literal(-4)))
          CFI (cfiCond101) ?BRET_EXT load(1, XDATA, add(CFA_XSP16, literal(-3)))
          CFI (cfiCond101) DPL0 load(1, XDATA, add(CFA_XSP16, literal(-2)))
          CFI (cfiCond101) DPH0 load(1, XDATA, add(CFA_XSP16, literal(-1)))
          CFI (cfiCond101) CFA_SP SP+-2
          CFI (cfiCond101) CFA_XSP16 add(XSP16, 11)
          CFI Block cfiCond102 Using cfiCommon0
          CFI (cfiCond102) Function osal_msg_count
          CFI (cfiCond102) Conditional ??CrossCallReturnLabel_47
          CFI (cfiCond102) R6 load(1, XDATA, add(CFA_XSP16, literal(-9)))
          CFI (cfiCond102) VB load(1, XDATA, add(CFA_XSP16, literal(-8)))
          CFI (cfiCond102) V0 load(1, XDATA, add(CFA_XSP16, literal(-7)))
          CFI (cfiCond102) R7 load(1, XDATA, add(CFA_XSP16, literal(-6)))
          CFI (cfiCond102) ?RET_LOW load(1, XDATA, add(CFA_XSP16, literal(-5)))
          CFI (cfiCond102) ?RET_HIGH load(1, XDATA, add(CFA_XSP16, literal(-4)))
          CFI (cfiCond102) ?BRET_EXT load(1, XDATA, add(CFA_XSP16, literal(-3)))
          CFI (cfiCond102) DPL0 load(1, XDATA, add(CFA_XSP16, literal(-2)))
          CFI (cfiCond102) DPH0 load(1, XDATA, add(CFA_XSP16, literal(-1)))
          CFI (cfiCond102) CFA_SP SP+-2
          CFI (cfiCond102) CFA_XSP16 add(XSP16, 9)
          CFI Block cfiCond103 Using cfiCommon0
          CFI (cfiCond103) Function osal_msg_extract
          CFI (cfiCond103) Conditional ??CrossCallReturnLabel_48
          CFI (cfiCond103) R6 load(1, XDATA, add(CFA_XSP16, literal(-11)))
          CFI (cfiCond103) VB load(1, XDATA, add(CFA_XSP16, literal(-10)))
          CFI (cfiCond103) V0 load(1, XDATA, add(CFA_XSP16, literal(-9)))
          CFI (cfiCond103) V1 load(1, XDATA, add(CFA_XSP16, literal(-8)))
          CFI (cfiCond103) V2 load(1, XDATA, add(CFA_XSP16, literal(-7)))
          CFI (cfiCond103) R7 load(1, XDATA, add(CFA_XSP16, literal(-6)))
          CFI (cfiCond103) ?RET_LOW load(1, XDATA, add(CFA_XSP16, literal(-5)))
          CFI (cfiCond103) ?RET_HIGH load(1, XDATA, add(CFA_XSP16, literal(-4)))
          CFI (cfiCond103) ?BRET_EXT load(1, XDATA, add(CFA_XSP16, literal(-3)))
          CFI (cfiCond103) DPL0 load(1, XDATA, add(CFA_XSP16, literal(-2)))
          CFI (cfiCond103) DPH0 load(1, XDATA, add(CFA_XSP16, literal(-1)))
          CFI (cfiCond103) CFA_SP SP+-2
          CFI (cfiCond103) CFA_XSP16 add(XSP16, 11)
          CFI Block cfiCond104 Using cfiCommon0
          CFI (cfiCond104) Function osal_msg_count
          CFI (cfiCond104) Conditional ??CrossCallReturnLabel_49
          CFI (cfiCond104) R6 load(1, XDATA, add(CFA_XSP16, literal(-9)))
          CFI (cfiCond104) VB load(1, XDATA, add(CFA_XSP16, literal(-8)))
          CFI (cfiCond104) V0 load(1, XDATA, add(CFA_XSP16, literal(-7)))
          CFI (cfiCond104) R7 load(1, XDATA, add(CFA_XSP16, literal(-6)))
          CFI (cfiCond104) ?RET_LOW load(1, XDATA, add(CFA_XSP16, literal(-5)))
          CFI (cfiCond104) ?RET_HIGH load(1, XDATA, add(CFA_XSP16, literal(-4)))
          CFI (cfiCond104) ?BRET_EXT load(1, XDATA, add(CFA_XSP16, literal(-3)))
          CFI (cfiCond104) DPL0 load(1, XDATA, add(CFA_XSP16, literal(-2)))
          CFI (cfiCond104) DPH0 load(1, XDATA, add(CFA_XSP16, literal(-1)))
          CFI (cfiCond104) CFA_SP SP+-2
          CFI (cfiCond104) CFA_XSP16 add(XSP16, 9)
          CFI Block cfiCond105 Using cfiCommon0
          CFI (cfiCond105) Function osal_msg_enqueue
          CFI (cfiCond105) Conditional ??CrossCallReturnLabel_50
          CFI (cfiCond105) R6 load(1, XDATA, add(CFA_XSP16, literal(-9)))
          CFI (cfiCond105) VB load(1, XDATA, add(CFA_XSP16, literal(-8)))
          CFI (cfiCond105) V0 load(1, XDATA, add(CFA_XSP16, literal(-7)))
          CFI (cfiCond105) R7 load(1, XDATA, add(CFA_XSP16, literal(-6)))
          CFI (cfiCond105) ?RET_LOW load(1, XDATA, add(CFA_XSP16, literal(-5)))
          CFI (cfiCond105) ?RET_HIGH load(1, XDATA, add(CFA_XSP16, literal(-4)))
          CFI (cfiCond105) ?BRET_EXT load(1, XDATA, add(CFA_XSP16, literal(-3)))
          CFI (cfiCond105) DPL0 load(1, XDATA, add(CFA_XSP16, literal(-2)))
          CFI (cfiCond105) DPH0 load(1, XDATA, add(CFA_XSP16, literal(-1)))
          CFI (cfiCond105) CFA_SP SP+-2
          CFI (cfiCond105) CFA_XSP16 add(XSP16, 9)
          CFI Block cfiCond106 Using cfiCommon0
          CFI (cfiCond106) Function osal_msg_push
          CFI (cfiCond106) Conditional ??CrossCallReturnLabel_51
          CFI (cfiCond106) R6 load(1, XDATA, add(CFA_XSP16, literal(-9)))
          CFI (cfiCond106) VB load(1, XDATA, add(CFA_XSP16, literal(-8)))
          CFI (cfiCond106) V0 load(1, XDATA, add(CFA_XSP16, literal(-7)))
          CFI (cfiCond106) R7 load(1, XDATA, add(CFA_XSP16, literal(-6)))
          CFI (cfiCond106) ?RET_LOW load(1, XDATA, add(CFA_XSP16, literal(-5)))
          CFI (cfiCond106) ?RET_HIGH load(1, XDATA, add(CFA_XSP16, literal(-4)))
          CFI (cfiCond106) ?BRET_EXT load(1, XDATA, add(CFA_XSP16, literal(-3)))
          CFI (cfiCond106) DPL0 load(1, XDATA, add(CFA_XSP16, literal(-2)))
          CFI (cfiCond106) DPH0 load(1, XDATA, add(CFA_XSP16, literal(-1)))
          CFI (cfiCond106) CFA_SP SP+-2
          CFI (cfiCond106) CFA_XSP16 add(XSP16, 9)
          CFI Block cfiPicker107 Using cfiCommon1
          CFI (cfiPicker107) NoFunction
          CFI (cfiPicker107) Picker
        ADDC      A,#-0x1
        MOV       DPH,A
        RET
          CFI EndBlock cfiCond96
          CFI EndBlock cfiCond97
          CFI EndBlock cfiCond98
          CFI EndBlock cfiCond99
          CFI EndBlock cfiCond100
          CFI EndBlock cfiCond101
          CFI EndBlock cfiCond102
          CFI EndBlock cfiCond103
          CFI EndBlock cfiCond104
          CFI EndBlock cfiCond105
          CFI EndBlock cfiCond106
          CFI EndBlock cfiPicker107
// 1058 
// 1059 /*********************************************************************
// 1060  * @fn      osal_msg_enqueue_max
// 1061  *
// 1062  * @brief
// 1063  *
// 1064  *    This function enqueues an OSAL message into an OSAL queue if
// 1065  *    the length of the queue is less than max.
// 1066  *
// 1067  * @param   osal_msg_q_t *q_ptr - OSAL queue
// 1068  * @param   void *msg_ptr  - OSAL message
// 1069  * @param   uint8 max - maximum length of queue
// 1070  *
// 1071  * @return  TRUE if message was enqueued, FALSE otherwise
// 1072  */

        RSEG BANKED_CODE:HUGECODE:NOROOT(0)
// 1073 uint8 osal_msg_enqueue_max( osal_msg_q_t *q_ptr, void *msg_ptr, uint8 max )
osal_msg_enqueue_max:
          CFI Block cfiBlock108 Using cfiCommon0
          CFI Function osal_msg_enqueue_max
        CODE
// 1074 {
        REQUIRE ?V0
        REQUIRE ?V1
        MOV       A,#-0xa
        LCALL     ?BANKED_ENTER_XDATA
          CFI DPH0 load(1, XDATA, add(CFA_XSP16, literal(-1)))
          CFI DPL0 load(1, XDATA, add(CFA_XSP16, literal(-2)))
          CFI ?BRET_EXT load(1, XDATA, add(CFA_XSP16, literal(-3)))
          CFI ?RET_HIGH load(1, XDATA, add(CFA_XSP16, literal(-4)))
          CFI ?RET_LOW load(1, XDATA, add(CFA_XSP16, literal(-5)))
          CFI R7 load(1, XDATA, add(CFA_XSP16, literal(-6)))
          CFI V1 load(1, XDATA, add(CFA_XSP16, literal(-7)))
          CFI V0 load(1, XDATA, add(CFA_XSP16, literal(-8)))
          CFI VB load(1, XDATA, add(CFA_XSP16, literal(-9)))
          CFI R6 load(1, XDATA, add(CFA_XSP16, literal(-10)))
          CFI CFA_SP SP+0
          CFI CFA_XSP16 add(XSP16, 10)
        ; Saved register size: 10
        ; Auto size: 0
        MOV       ?V0,R2
        MOV       ?V1,R3
        MOV       A,R1
        MOV       R6,A
// 1075   void *list;
// 1076   uint8 ret = FALSE;
        MOV       R2,#0x0
// 1077   halIntState_t intState;
// 1078 
// 1079   // Hold off interrupts
// 1080   HAL_ENTER_CRITICAL_SECTION(intState);
        MOV       C,0xa8.7
        CLR       A
        RLC       A
        MOV       R3,A
        CLR       0xa8.7
// 1081 
// 1082   // If first message in queue
// 1083   if ( *q_ptr == NULL )
        MOV       DPL,?V0
        MOV       DPH,?V1
        LCALL     ??Subroutine31_0 & 0xFFFF
??CrossCallReturnLabel_54:
        JNZ       ??osal_msg_enqueue_max_0
// 1084   {
// 1085     *q_ptr = msg_ptr;
        SJMP      ??osal_msg_enqueue_max_1
// 1086     ret = TRUE;
// 1087   }
// 1088   else
// 1089   {
// 1090     // Find end of queue or max
// 1091     list = *q_ptr;
// 1092     max--;
// 1093     while ( (OSAL_MSG_NEXT( list ) != NULL) && (max > 0) )
??osal_msg_enqueue_max_2:
        MOV       A,R6
        JZ        ??osal_msg_enqueue_max_3
// 1094     {
// 1095       list = OSAL_MSG_NEXT( list );
// 1096       max--;
??osal_msg_enqueue_max_0:
        DEC       R6
// 1097     }
        LCALL     ?Subroutine23 & 0xFFFF
??CrossCallReturnLabel_32:
        MOV       ?V0,R0
        MOV       ?V1,A
        MOV       DPL,R0
        LCALL     ?Subroutine7 & 0xFFFF
??CrossCallReturnLabel_56:
        JNZ       ??osal_msg_enqueue_max_2
// 1098 
// 1099     // Add message to end of queue if max not reached
// 1100     if ( max != 0 )
        MOV       A,R6
        JZ        ??osal_msg_enqueue_max_3
// 1101     {
// 1102       OSAL_MSG_NEXT( list ) = msg_ptr;
??osal_msg_enqueue_max_1:
        MOV       DPL,?V0
        MOV       DPH,?V1
        MOV       A,R4
        MOVX      @DPTR,A
        INC       DPTR
        MOV       A,R5
        MOVX      @DPTR,A
// 1103       ret = TRUE;
        MOV       R2,#0x1
// 1104     }
// 1105   }
// 1106 
// 1107   // Re-enable interrupts
// 1108   HAL_EXIT_CRITICAL_SECTION(intState);
??osal_msg_enqueue_max_3:
        MOV       A,R3
        MOV       C,0xE0 /* A   */.0
        MOV       0xa8.7,C
// 1109 
// 1110   return ret;
        MOV       A,R2
        MOV       R1,A
        LJMP      ?Subroutine2 & 0xFFFF
          CFI EndBlock cfiBlock108
        REQUIRE _A_IEN0
// 1111 }

        RSEG BANKED_CODE:HUGECODE:NOROOT(0)
?Subroutine7:
          CFI Block cfiCond109 Using cfiCommon0
          CFI Function osal_msg_enqueue_push
          CFI Conditional ??CrossCallReturnLabel_55
          CFI R6 load(1, XDATA, add(CFA_XSP16, literal(-9)))
          CFI VB load(1, XDATA, add(CFA_XSP16, literal(-8)))
          CFI V0 load(1, XDATA, add(CFA_XSP16, literal(-7)))
          CFI R7 load(1, XDATA, add(CFA_XSP16, literal(-6)))
          CFI ?RET_LOW load(1, XDATA, add(CFA_XSP16, literal(-5)))
          CFI ?RET_HIGH load(1, XDATA, add(CFA_XSP16, literal(-4)))
          CFI ?BRET_EXT load(1, XDATA, add(CFA_XSP16, literal(-3)))
          CFI DPL0 load(1, XDATA, add(CFA_XSP16, literal(-2)))
          CFI DPH0 load(1, XDATA, add(CFA_XSP16, literal(-1)))
          CFI CFA_SP SP+-2
          CFI CFA_XSP16 add(XSP16, 9)
          CFI Block cfiCond110 Using cfiCommon0
          CFI (cfiCond110) Function osal_msg_enqueue_max
          CFI (cfiCond110) Conditional ??CrossCallReturnLabel_56
          CFI (cfiCond110) R6 load(1, XDATA, add(CFA_XSP16, literal(-10)))
          CFI (cfiCond110) VB load(1, XDATA, add(CFA_XSP16, literal(-9)))
          CFI (cfiCond110) V0 load(1, XDATA, add(CFA_XSP16, literal(-8)))
          CFI (cfiCond110) V1 load(1, XDATA, add(CFA_XSP16, literal(-7)))
          CFI (cfiCond110) R7 load(1, XDATA, add(CFA_XSP16, literal(-6)))
          CFI (cfiCond110) ?RET_LOW load(1, XDATA, add(CFA_XSP16, literal(-5)))
          CFI (cfiCond110) ?RET_HIGH load(1, XDATA, add(CFA_XSP16, literal(-4)))
          CFI (cfiCond110) ?BRET_EXT load(1, XDATA, add(CFA_XSP16, literal(-3)))
          CFI (cfiCond110) DPL0 load(1, XDATA, add(CFA_XSP16, literal(-2)))
          CFI (cfiCond110) DPH0 load(1, XDATA, add(CFA_XSP16, literal(-1)))
          CFI (cfiCond110) CFA_SP SP+-2
          CFI (cfiCond110) CFA_XSP16 add(XSP16, 10)
          CFI Block cfiCond111 Using cfiCommon0
          CFI (cfiCond111) Function osal_run_system
          CFI (cfiCond111) Conditional ??CrossCallReturnLabel_57
          CFI (cfiCond111) R6 load(1, XDATA, add(CFA_XSP16, literal(-10)))
          CFI (cfiCond111) VB load(1, XDATA, add(CFA_XSP16, literal(-9)))
          CFI (cfiCond111) V0 load(1, XDATA, add(CFA_XSP16, literal(-8)))
          CFI (cfiCond111) V1 load(1, XDATA, add(CFA_XSP16, literal(-7)))
          CFI (cfiCond111) R7 load(1, XDATA, add(CFA_XSP16, literal(-6)))
          CFI (cfiCond111) ?RET_LOW load(1, XDATA, add(CFA_XSP16, literal(-5)))
          CFI (cfiCond111) ?RET_HIGH load(1, XDATA, add(CFA_XSP16, literal(-4)))
          CFI (cfiCond111) ?BRET_EXT load(1, XDATA, add(CFA_XSP16, literal(-3)))
          CFI (cfiCond111) DPL0 load(1, XDATA, add(CFA_XSP16, literal(-2)))
          CFI (cfiCond111) DPH0 load(1, XDATA, add(CFA_XSP16, literal(-1)))
          CFI (cfiCond111) CFA_SP SP+-2
          CFI (cfiCond111) CFA_XSP16 add(XSP16, 10)
          CFI Block cfiPicker112 Using cfiCommon1
          CFI (cfiPicker112) NoFunction
          CFI (cfiPicker112) Picker
        MOV       DPH,A
          CFI EndBlock cfiCond109
          CFI EndBlock cfiCond110
          CFI EndBlock cfiCond111
          CFI EndBlock cfiPicker112
        REQUIRE ??Subroutine31_0
        ; // Fall through to label ??Subroutine31_0

        RSEG BANKED_CODE:HUGECODE:NOROOT(0)
??Subroutine31_0:
          CFI Block cfiCond113 Using cfiCommon0
          CFI Function osal_msg_enqueue
          CFI Conditional ??CrossCallReturnLabel_52
          CFI R6 load(1, XDATA, add(CFA_XSP16, literal(-9)))
          CFI VB load(1, XDATA, add(CFA_XSP16, literal(-8)))
          CFI V0 load(1, XDATA, add(CFA_XSP16, literal(-7)))
          CFI R7 load(1, XDATA, add(CFA_XSP16, literal(-6)))
          CFI ?RET_LOW load(1, XDATA, add(CFA_XSP16, literal(-5)))
          CFI ?RET_HIGH load(1, XDATA, add(CFA_XSP16, literal(-4)))
          CFI ?BRET_EXT load(1, XDATA, add(CFA_XSP16, literal(-3)))
          CFI DPL0 load(1, XDATA, add(CFA_XSP16, literal(-2)))
          CFI DPH0 load(1, XDATA, add(CFA_XSP16, literal(-1)))
          CFI CFA_SP SP+-2
          CFI CFA_XSP16 add(XSP16, 9)
          CFI Block cfiCond114 Using cfiCommon0
          CFI (cfiCond114) Function osal_msg_dequeue
          CFI (cfiCond114) Conditional ??CrossCallReturnLabel_53
          CFI (cfiCond114) R6 load(1, XDATA, add(CFA_XSP16, literal(-10)))
          CFI (cfiCond114) VB load(1, XDATA, add(CFA_XSP16, literal(-9)))
          CFI (cfiCond114) V0 load(1, XDATA, add(CFA_XSP16, literal(-8)))
          CFI (cfiCond114) V1 load(1, XDATA, add(CFA_XSP16, literal(-7)))
          CFI (cfiCond114) R7 load(1, XDATA, add(CFA_XSP16, literal(-6)))
          CFI (cfiCond114) ?RET_LOW load(1, XDATA, add(CFA_XSP16, literal(-5)))
          CFI (cfiCond114) ?RET_HIGH load(1, XDATA, add(CFA_XSP16, literal(-4)))
          CFI (cfiCond114) ?BRET_EXT load(1, XDATA, add(CFA_XSP16, literal(-3)))
          CFI (cfiCond114) DPL0 load(1, XDATA, add(CFA_XSP16, literal(-2)))
          CFI (cfiCond114) DPH0 load(1, XDATA, add(CFA_XSP16, literal(-1)))
          CFI (cfiCond114) CFA_SP SP+-2
          CFI (cfiCond114) CFA_XSP16 add(XSP16, 10)
          CFI Block cfiCond115 Using cfiCommon0
          CFI (cfiCond115) Function osal_msg_enqueue_max
          CFI (cfiCond115) Conditional ??CrossCallReturnLabel_54
          CFI (cfiCond115) R6 load(1, XDATA, add(CFA_XSP16, literal(-10)))
          CFI (cfiCond115) VB load(1, XDATA, add(CFA_XSP16, literal(-9)))
          CFI (cfiCond115) V0 load(1, XDATA, add(CFA_XSP16, literal(-8)))
          CFI (cfiCond115) V1 load(1, XDATA, add(CFA_XSP16, literal(-7)))
          CFI (cfiCond115) R7 load(1, XDATA, add(CFA_XSP16, literal(-6)))
          CFI (cfiCond115) ?RET_LOW load(1, XDATA, add(CFA_XSP16, literal(-5)))
          CFI (cfiCond115) ?RET_HIGH load(1, XDATA, add(CFA_XSP16, literal(-4)))
          CFI (cfiCond115) ?BRET_EXT load(1, XDATA, add(CFA_XSP16, literal(-3)))
          CFI (cfiCond115) DPL0 load(1, XDATA, add(CFA_XSP16, literal(-2)))
          CFI (cfiCond115) DPH0 load(1, XDATA, add(CFA_XSP16, literal(-1)))
          CFI (cfiCond115) CFA_SP SP+-2
          CFI (cfiCond115) CFA_XSP16 add(XSP16, 10)
          CFI Block cfiCond116 Using cfiCommon0
          CFI (cfiCond116) Function osal_msg_enqueue_push
          CFI (cfiCond116) Conditional ??CrossCallReturnLabel_55
          CFI (cfiCond116) R6 load(1, XDATA, add(CFA_XSP16, literal(-9)))
          CFI (cfiCond116) VB load(1, XDATA, add(CFA_XSP16, literal(-8)))
          CFI (cfiCond116) V0 load(1, XDATA, add(CFA_XSP16, literal(-7)))
          CFI (cfiCond116) R7 load(1, XDATA, add(CFA_XSP16, literal(-6)))
          CFI (cfiCond116) ?RET_LOW load(1, XDATA, add(CFA_XSP16, literal(-5)))
          CFI (cfiCond116) ?RET_HIGH load(1, XDATA, add(CFA_XSP16, literal(-4)))
          CFI (cfiCond116) ?BRET_EXT load(1, XDATA, add(CFA_XSP16, literal(-3)))
          CFI (cfiCond116) DPL0 load(1, XDATA, add(CFA_XSP16, literal(-2)))
          CFI (cfiCond116) DPH0 load(1, XDATA, add(CFA_XSP16, literal(-1)))
          CFI (cfiCond116) CFA_SP SP+-2
          CFI (cfiCond116) CFA_XSP16 add(XSP16, 9)
          CFI Block cfiCond117 Using cfiCommon0
          CFI (cfiCond117) Function osal_msg_enqueue_max
          CFI (cfiCond117) Conditional ??CrossCallReturnLabel_56
          CFI (cfiCond117) R6 load(1, XDATA, add(CFA_XSP16, literal(-10)))
          CFI (cfiCond117) VB load(1, XDATA, add(CFA_XSP16, literal(-9)))
          CFI (cfiCond117) V0 load(1, XDATA, add(CFA_XSP16, literal(-8)))
          CFI (cfiCond117) V1 load(1, XDATA, add(CFA_XSP16, literal(-7)))
          CFI (cfiCond117) R7 load(1, XDATA, add(CFA_XSP16, literal(-6)))
          CFI (cfiCond117) ?RET_LOW load(1, XDATA, add(CFA_XSP16, literal(-5)))
          CFI (cfiCond117) ?RET_HIGH load(1, XDATA, add(CFA_XSP16, literal(-4)))
          CFI (cfiCond117) ?BRET_EXT load(1, XDATA, add(CFA_XSP16, literal(-3)))
          CFI (cfiCond117) DPL0 load(1, XDATA, add(CFA_XSP16, literal(-2)))
          CFI (cfiCond117) DPH0 load(1, XDATA, add(CFA_XSP16, literal(-1)))
          CFI (cfiCond117) CFA_SP SP+-2
          CFI (cfiCond117) CFA_XSP16 add(XSP16, 10)
          CFI Block cfiCond118 Using cfiCommon0
          CFI (cfiCond118) Function osal_run_system
          CFI (cfiCond118) Conditional ??CrossCallReturnLabel_57
          CFI (cfiCond118) R6 load(1, XDATA, add(CFA_XSP16, literal(-10)))
          CFI (cfiCond118) VB load(1, XDATA, add(CFA_XSP16, literal(-9)))
          CFI (cfiCond118) V0 load(1, XDATA, add(CFA_XSP16, literal(-8)))
          CFI (cfiCond118) V1 load(1, XDATA, add(CFA_XSP16, literal(-7)))
          CFI (cfiCond118) R7 load(1, XDATA, add(CFA_XSP16, literal(-6)))
          CFI (cfiCond118) ?RET_LOW load(1, XDATA, add(CFA_XSP16, literal(-5)))
          CFI (cfiCond118) ?RET_HIGH load(1, XDATA, add(CFA_XSP16, literal(-4)))
          CFI (cfiCond118) ?BRET_EXT load(1, XDATA, add(CFA_XSP16, literal(-3)))
          CFI (cfiCond118) DPL0 load(1, XDATA, add(CFA_XSP16, literal(-2)))
          CFI (cfiCond118) DPH0 load(1, XDATA, add(CFA_XSP16, literal(-1)))
          CFI (cfiCond118) CFA_SP SP+-2
          CFI (cfiCond118) CFA_XSP16 add(XSP16, 10)
          CFI Block cfiPicker119 Using cfiCommon1
          CFI (cfiPicker119) NoFunction
          CFI (cfiPicker119) Picker
        MOVX      A,@DPTR
        MOV       R0,A
        INC       DPTR
        MOVX      A,@DPTR
        MOV       R1,A
        MOV       A,R0
        ORL       A,R1
        RET
          CFI EndBlock cfiCond113
          CFI EndBlock cfiCond114
          CFI EndBlock cfiCond115
          CFI EndBlock cfiCond116
          CFI EndBlock cfiCond117
          CFI EndBlock cfiCond118
          CFI EndBlock cfiPicker119
// 1112 
// 1113 /*********************************************************************
// 1114  * @fn      osal_set_event
// 1115  *
// 1116  * @brief
// 1117  *
// 1118  *    This function is called to set the event flags for a task. The
// 1119  *    event passed in is OR'd into the task's event variable.
// 1120  *
// 1121  * @param   uint8 task_id - receiving tasks ID
// 1122  * @param   uint8 event_flag - what event to set
// 1123  *
// 1124  * @return  SUCCESS, MSG_BUFFER_NOT_AVAIL, FAILURE, INVALID_TASK
// 1125  */
// 1126 #ifdef OSAL_PORT2TIRTOS
// 1127 uint8 osal_set_event_raw( uint8 task_id, uint16 event_flag )
// 1128 #else /* OSAL_PORT2TIRTOS */

        RSEG BANKED_CODE:HUGECODE:NOROOT(0)
// 1129 uint8 osal_set_event( uint8 task_id, uint16 event_flag )
osal_set_event:
          CFI Block cfiBlock120 Using cfiCommon0
          CFI Function osal_set_event
        CODE
// 1130 #endif /* OSAL_PORT2TIRTOS */
// 1131 {
        MOV       A,#-0x9
        LCALL     ?BANKED_ENTER_XDATA
          CFI DPH0 load(1, XDATA, add(CFA_XSP16, literal(-1)))
          CFI DPL0 load(1, XDATA, add(CFA_XSP16, literal(-2)))
          CFI ?BRET_EXT load(1, XDATA, add(CFA_XSP16, literal(-3)))
          CFI ?RET_HIGH load(1, XDATA, add(CFA_XSP16, literal(-4)))
          CFI ?RET_LOW load(1, XDATA, add(CFA_XSP16, literal(-5)))
          CFI R7 load(1, XDATA, add(CFA_XSP16, literal(-6)))
          CFI V0 load(1, XDATA, add(CFA_XSP16, literal(-7)))
          CFI VB load(1, XDATA, add(CFA_XSP16, literal(-8)))
          CFI R6 load(1, XDATA, add(CFA_XSP16, literal(-9)))
          CFI CFA_SP SP+0
          CFI CFA_XSP16 add(XSP16, 9)
        ; Saved register size: 9
        ; Auto size: 0
// 1132 #ifdef USE_ICALL
// 1133   if (task_id & OSAL_PROXY_ID_FLAG)
// 1134   {
// 1135     /* Destination is a proxy task */
// 1136     osal_msg_hdr_t *hdr;
// 1137     ICall_EntityID src, dst;
// 1138     uint8 taskid;
// 1139 
// 1140     struct _osal_event_msg_t
// 1141     {
// 1142       uint16 signature;
// 1143       uint16 event_flag;
// 1144     } *msg_ptr = (struct _osal_event_msg_t *)
// 1145       osal_msg_allocate(sizeof(*msg_ptr));
// 1146 
// 1147     if (!msg_ptr)
// 1148     {
// 1149       return MSG_BUFFER_NOT_AVAIL;
// 1150     }
// 1151     msg_ptr->signature = 0xffffu;
// 1152     msg_ptr->event_flag = event_flag;
// 1153     hdr = (osal_msg_hdr_t *)msg_ptr - 1;
// 1154 
// 1155     taskid = osal_self();
// 1156     if (taskid == TASK_NO_TASK)
// 1157     {
// 1158       /* Call must have been made from either an ISR or a user-thread */
// 1159       src = osal_notask_entity;
// 1160     }
// 1161     else
// 1162     {
// 1163       src = (ICall_EntityID) osal_dispatch_entities[taskid + tasksCnt];
// 1164     }
// 1165 
// 1166     if (src == OSAL_INVALID_DISPATCH_ID)
// 1167     {
// 1168       /* The source entity is not registered */
// 1169       osal_msg_deallocate((uint8 *) msg_ptr);
// 1170       ICall_abort();
// 1171       return FAILURE;
// 1172     }
// 1173     dst = osal_proxy2alien(task_id);
// 1174     hdr->dest_id = TASK_NO_TASK;
// 1175     if (ICall_send(src, dst,
// 1176                    ICALL_MSG_FORMAT_KEEP, msg_ptr) ==
// 1177         ICALL_ERRNO_SUCCESS)
// 1178     {
// 1179       return SUCCESS;
// 1180     }
// 1181     osal_msg_deallocate((uint8 *) msg_ptr);
// 1182     return FAILURE;
// 1183   }
// 1184 #endif /* USE_ICALL */
// 1185 
// 1186   if ( task_id < tasksCnt )
        MOV       DPTR,#tasksCnt
        MOVX      A,@DPTR
        MOV       R0,A
        MOV       A,R1
        CLR       C
        SUBB      A,R0
        JNC       ??osal_set_event_0
// 1187   {
// 1188     halIntState_t   intState;
// 1189     HAL_ENTER_CRITICAL_SECTION(intState);    // Hold off interrupts
        MOV       R4,0xa8+0x0
        CLR       0xa8.7
// 1190     tasksEvents[task_id] |= event_flag;  // Stuff the event bit(s)
        MOV       A,R1
        ADD       A,R1
        MOV       R0,A
        CLR       A
        RLC       A
        MOV       R1,A
        MOV       DPTR,#tasksEvents
        MOVX      A,@DPTR
        ADD       A,R0
        MOV       R5,A
        INC       DPTR
        MOVX      A,@DPTR
        ADDC      A,R1
        MOV       DPL,R5
        MOV       DPH,A
        MOVX      A,@DPTR
        ORL       A,R2
        MOVX      @DPTR,A
        INC       DPTR
        MOVX      A,@DPTR
        ORL       A,R3
        MOVX      @DPTR,A
// 1191     HAL_EXIT_CRITICAL_SECTION(intState);     // Release interrupts
        MOV       A,R4
        MOV       C,0xE0 /* A   */.7
        MOV       0xa8.7,C
// 1192 #ifdef USE_ICALL
// 1193     ICall_signal(osal_semaphore);
// 1194 #endif /* USE_ICALL */
// 1195     return ( SUCCESS );
        MOV       R1,#0x0
        SJMP      ??osal_set_event_1
// 1196   }
// 1197    else
// 1198   {
// 1199     return ( INVALID_TASK );
??osal_set_event_0:
        MOV       R1,#0x3
// 1200   }
??osal_set_event_1:
        LJMP      ??Subroutine27_0 & 0xFFFF
          CFI EndBlock cfiBlock120
        REQUIRE _A_IEN0
// 1201 }
// 1202 
// 1203 /*********************************************************************
// 1204  * @fn      osal_clear_event
// 1205  *
// 1206  * @brief
// 1207  *
// 1208  *    This function is called to clear the event flags for a task. The
// 1209  *    event passed in is masked out of the task's event variable.
// 1210  *
// 1211  * @param   uint8 task_id - receiving tasks ID
// 1212  * @param   uint8 event_flag - what event to clear
// 1213  *
// 1214  * @return  SUCCESS, INVALID_TASK
// 1215  */

        RSEG BANKED_CODE:HUGECODE:NOROOT(0)
// 1216 uint8 osal_clear_event( uint8 task_id, uint16 event_flag )
osal_clear_event:
          CFI Block cfiBlock121 Using cfiCommon0
          CFI Function osal_clear_event
        CODE
// 1217 {
        MOV       A,#-0x9
        LCALL     ?BANKED_ENTER_XDATA
          CFI DPH0 load(1, XDATA, add(CFA_XSP16, literal(-1)))
          CFI DPL0 load(1, XDATA, add(CFA_XSP16, literal(-2)))
          CFI ?BRET_EXT load(1, XDATA, add(CFA_XSP16, literal(-3)))
          CFI ?RET_HIGH load(1, XDATA, add(CFA_XSP16, literal(-4)))
          CFI ?RET_LOW load(1, XDATA, add(CFA_XSP16, literal(-5)))
          CFI R7 load(1, XDATA, add(CFA_XSP16, literal(-6)))
          CFI V0 load(1, XDATA, add(CFA_XSP16, literal(-7)))
          CFI VB load(1, XDATA, add(CFA_XSP16, literal(-8)))
          CFI R6 load(1, XDATA, add(CFA_XSP16, literal(-9)))
          CFI CFA_SP SP+0
          CFI CFA_XSP16 add(XSP16, 9)
        ; Saved register size: 9
        ; Auto size: 0
// 1218   if ( task_id < tasksCnt )
        MOV       DPTR,#tasksCnt
        MOVX      A,@DPTR
        MOV       R0,A
        MOV       A,R1
        CLR       C
        SUBB      A,R0
        JNC       ??osal_clear_event_0
// 1219   {
// 1220     halIntState_t   intState;
// 1221     HAL_ENTER_CRITICAL_SECTION(intState);    // Hold off interrupts
        MOV       R6,0xa8+0x0
        CLR       0xa8.7
// 1222     tasksEvents[task_id] &= ~(event_flag);   // Clear the event bit(s)
        MOV       A,R2
        CPL       A
        MOV       R4,A
        MOV       A,R3
        CPL       A
        MOV       R5,A
        MOV       A,R1
        ADD       A,R1
        LCALL     ?Subroutine17 & 0xFFFF
??CrossCallReturnLabel_22:
        MOV       DPH,A
        MOVX      A,@DPTR
        ANL       A,R4
        MOVX      @DPTR,A
        INC       DPTR
        MOVX      A,@DPTR
        ANL       A,R5
        MOVX      @DPTR,A
// 1223     HAL_EXIT_CRITICAL_SECTION(intState);     // Release interrupts
        MOV       A,R6
        MOV       C,0xE0 /* A   */.7
        MOV       0xa8.7,C
// 1224     return ( SUCCESS );
        MOV       R1,#0x0
        SJMP      ??osal_clear_event_1
// 1225   }
// 1226    else
// 1227   {
// 1228     return ( INVALID_TASK );
??osal_clear_event_0:
        MOV       R1,#0x3
// 1229   }
??osal_clear_event_1:
        LJMP      ??Subroutine27_0 & 0xFFFF
          CFI EndBlock cfiBlock121
        REQUIRE _A_IEN0
// 1230 }
// 1231 
// 1232 /*********************************************************************
// 1233  * @fn      osal_isr_register
// 1234  *
// 1235  * @brief
// 1236  *
// 1237  *   This function is called to register a service routine with an
// 1238  *   interrupt. When the interrupt occurs, this service routine is called.
// 1239  *
// 1240  * @param   uint8 interrupt_id - Interrupt number
// 1241  * @param   void (*isr_ptr)( uint8* ) - function pointer to ISR
// 1242  *
// 1243  * @return  SUCCESS, INVALID_INTERRUPT_ID,
// 1244  */

        RSEG BANKED_CODE:HUGECODE:NOROOT(0)
// 1245 uint8 osal_isr_register( uint8 interrupt_id, void (*isr_ptr)( uint8* ) )
osal_isr_register:
          CFI Block cfiBlock122 Using cfiCommon0
          CFI Function osal_isr_register
        CODE
// 1246 {
        ; Saved register size: 0
        ; Auto size: 0
// 1247   // Remove these statements when functionality is complete
// 1248   (void)interrupt_id;
// 1249   (void)isr_ptr;
// 1250   return ( SUCCESS );
        MOV       R1,#0x0
        LJMP      ?BRET
// 1251 }
          CFI EndBlock cfiBlock122
// 1252 
// 1253 /*********************************************************************
// 1254  * @fn      osal_int_enable
// 1255  *
// 1256  * @brief
// 1257  *
// 1258  *   This function is called to enable an interrupt. Once enabled,
// 1259  *   occurrence of the interrupt causes the service routine associated
// 1260  *   with that interrupt to be called.
// 1261  *
// 1262  *   If INTS_ALL is the interrupt_id, interrupts (in general) are enabled.
// 1263  *   If a single interrupt is passed in, then interrupts still have
// 1264  *   to be enabled with another call to INTS_ALL.
// 1265  *
// 1266  * @param   uint8 interrupt_id - Interrupt number
// 1267  *
// 1268  * @return  SUCCESS or INVALID_INTERRUPT_ID
// 1269  */

        RSEG BANKED_CODE:HUGECODE:NOROOT(0)
// 1270 uint8 osal_int_enable( uint8 interrupt_id )
osal_int_enable:
          CFI Block cfiBlock123 Using cfiCommon0
          CFI Function osal_int_enable
        CODE
// 1271 {
        ; Saved register size: 0
        ; Auto size: 0
        MOV       A,R1
        MOV       R0,A
// 1272 
// 1273   if ( interrupt_id == INTS_ALL )
        MOV       A,#-0x1
        XRL       A,R0
        JNZ       ??osal_int_enable_0
// 1274   {
// 1275     HAL_ENABLE_INTERRUPTS();
        SETB      0xa8.7
// 1276     return ( SUCCESS );
        MOV       R1,#0x0
        SJMP      ??osal_int_enable_1
// 1277   }
// 1278   else
// 1279   {
// 1280     return ( INVALID_INTERRUPT_ID );
??osal_int_enable_0:
        MOV       R1,#0x7
??osal_int_enable_1:
        LJMP      ?BRET
          CFI EndBlock cfiBlock123
        REQUIRE _A_IEN0
// 1281   }
// 1282 }
// 1283 
// 1284 /*********************************************************************
// 1285  * @fn      osal_int_disable
// 1286  *
// 1287  * @brief
// 1288  *
// 1289  *   This function is called to disable an interrupt. When a disabled
// 1290  *   interrupt occurs, the service routine associated with that
// 1291  *   interrupt is not called.
// 1292  *
// 1293  *   If INTS_ALL is the interrupt_id, interrupts (in general) are disabled.
// 1294  *   If a single interrupt is passed in, then just that interrupt is disabled.
// 1295  *
// 1296  * @param   uint8 interrupt_id - Interrupt number
// 1297  *
// 1298  * @return  SUCCESS or INVALID_INTERRUPT_ID
// 1299  */

        RSEG BANKED_CODE:HUGECODE:NOROOT(0)
// 1300 uint8 osal_int_disable( uint8 interrupt_id )
osal_int_disable:
          CFI Block cfiBlock124 Using cfiCommon0
          CFI Function osal_int_disable
        CODE
// 1301 {
        ; Saved register size: 0
        ; Auto size: 0
        MOV       A,R1
        MOV       R0,A
// 1302 
// 1303   if ( interrupt_id == INTS_ALL )
        MOV       A,#-0x1
        XRL       A,R0
        JNZ       ??osal_int_disable_0
// 1304   {
// 1305     HAL_DISABLE_INTERRUPTS();
        CLR       0xa8.7
// 1306     return ( SUCCESS );
        MOV       R1,#0x0
        SJMP      ??osal_int_disable_1
// 1307   }
// 1308   else
// 1309   {
// 1310     return ( INVALID_INTERRUPT_ID );
??osal_int_disable_0:
        MOV       R1,#0x7
??osal_int_disable_1:
        LJMP      ?BRET
          CFI EndBlock cfiBlock124
        REQUIRE _A_IEN0
// 1311   }
// 1312 }
// 1313 
// 1314 /*********************************************************************
// 1315  * @fn      osal_init_system
// 1316  *
// 1317  * @brief
// 1318  *
// 1319  *   This function initializes the "task" system by creating the
// 1320  *   tasks defined in the task table (OSAL_Tasks.h).
// 1321  *
// 1322  * @param   void
// 1323  *
// 1324  * @return  SUCCESS
// 1325  */

        RSEG BANKED_CODE:HUGECODE:NOROOT(0)
// 1326 uint8 osal_init_system( void )
osal_init_system:
          CFI Block cfiBlock125 Using cfiCommon0
          CFI Function osal_init_system
        CODE
// 1327 {
        FUNCALL osal_init_system, osal_mem_init
        LOCFRAME ISTACK, 2, STACK
        LOCFRAME PSTACK, 0, STACK
        LOCFRAME XSTACK, 0, STACK
        LOCFRAME IOVERLAY, 0, STATIC
        LOCFRAME DOVERLAY, 0, STATIC
        ARGFRAME ISTACK, 2, STACK
        ARGFRAME PSTACK, 0, STACK
        ARGFRAME XSTACK, 0, STACK
        ARGFRAME IOVERLAY, 0, STATIC
        ARGFRAME DOVERLAY, 0, STATIC
        FUNCALL osal_init_system, osalTimerInit
        LOCFRAME ISTACK, 2, STACK
        LOCFRAME PSTACK, 0, STACK
        LOCFRAME XSTACK, 0, STACK
        LOCFRAME IOVERLAY, 0, STATIC
        LOCFRAME DOVERLAY, 0, STATIC
        ARGFRAME ISTACK, 2, STACK
        ARGFRAME PSTACK, 0, STACK
        ARGFRAME XSTACK, 0, STACK
        ARGFRAME IOVERLAY, 0, STATIC
        ARGFRAME DOVERLAY, 0, STATIC
        FUNCALL osal_init_system, osal_pwrmgr_init
        LOCFRAME ISTACK, 2, STACK
        LOCFRAME PSTACK, 0, STACK
        LOCFRAME XSTACK, 0, STACK
        LOCFRAME IOVERLAY, 0, STATIC
        LOCFRAME DOVERLAY, 0, STATIC
        ARGFRAME ISTACK, 2, STACK
        ARGFRAME PSTACK, 0, STACK
        ARGFRAME XSTACK, 0, STACK
        ARGFRAME IOVERLAY, 0, STATIC
        ARGFRAME DOVERLAY, 0, STATIC
        FUNCALL osal_init_system, osalInitTasks
        LOCFRAME ISTACK, 2, STACK
        LOCFRAME PSTACK, 0, STACK
        LOCFRAME XSTACK, 0, STACK
        LOCFRAME IOVERLAY, 0, STATIC
        LOCFRAME DOVERLAY, 0, STATIC
        ARGFRAME ISTACK, 2, STACK
        ARGFRAME PSTACK, 0, STACK
        ARGFRAME XSTACK, 0, STACK
        ARGFRAME IOVERLAY, 0, STATIC
        ARGFRAME DOVERLAY, 0, STATIC
        FUNCALL osal_init_system, osal_mem_kick
        LOCFRAME ISTACK, 2, STACK
        LOCFRAME PSTACK, 0, STACK
        LOCFRAME XSTACK, 0, STACK
        LOCFRAME IOVERLAY, 0, STATIC
        LOCFRAME DOVERLAY, 0, STATIC
        ARGFRAME ISTACK, 2, STACK
        ARGFRAME PSTACK, 0, STACK
        ARGFRAME XSTACK, 0, STACK
        ARGFRAME IOVERLAY, 0, STATIC
        ARGFRAME DOVERLAY, 0, STATIC
        PUSH      DPL
          CFI DPL0 Frame(CFA_SP, 4)
          CFI CFA_SP SP+-4
        PUSH      DPH
          CFI DPH0 Frame(CFA_SP, 5)
          CFI CFA_SP SP+-5
        ; Saved register size: 2
        ; Auto size: 0
// 1328 #if !defined USE_ICALL && !defined OSAL_PORT2TIRTOS
// 1329   // Initialize the Memory Allocation System
// 1330   osal_mem_init();
        ; Setup parameters for call to function osal_mem_init
        LCALL     `??osal_mem_init::?relay`; Banked call to: osal_mem_init
// 1331 #endif /* !defined USE_ICALL && !defined OSAL_PORT2TIRTOS */
// 1332 
// 1333   // Initialize the message queue
// 1334   osal_qHead = NULL;
        MOV       DPTR,#osal_qHead
        CLR       A
        MOVX      @DPTR,A
        INC       DPTR
        MOVX      @DPTR,A
// 1335 
// 1336   // Initialize the timers
// 1337   osalTimerInit();
        ; Setup parameters for call to function osalTimerInit
        LCALL     `??osalTimerInit::?relay`; Banked call to: osalTimerInit
// 1338 
// 1339   // Initialize the Power Management System
// 1340   osal_pwrmgr_init();
        ; Setup parameters for call to function osal_pwrmgr_init
        LCALL     `??osal_pwrmgr_init::?relay`; Banked call to: osal_pwrmgr_init
// 1341 
// 1342 #ifdef USE_ICALL
// 1343   /* Prepare memory space for service enrollment */
// 1344   osal_prepare_svc_enroll();
// 1345 #endif /* USE_ICALL */
// 1346 
// 1347   // Initialize the system tasks.
// 1348   osalInitTasks();
        ; Setup parameters for call to function osalInitTasks
        LCALL     `??osalInitTasks::?relay`; Banked call to: osalInitTasks
// 1349 
// 1350 #if !defined USE_ICALL && !defined OSAL_PORT2TIRTOS
// 1351   // Setup efficient search for the first free block of heap.
// 1352   osal_mem_kick();
        ; Setup parameters for call to function osal_mem_kick
        LCALL     `??osal_mem_kick::?relay`; Banked call to: osal_mem_kick
// 1353 #endif /* !defined USE_ICALL && !defined OSAL_PORT2TIRTOS */
// 1354 
// 1355 #ifdef USE_ICALL
// 1356   // Initialize variables used to track timing and provide OSAL timer service
// 1357   osal_last_timestamp = (uint_least32_t) ICall_getTicks();
// 1358   osal_tickperiod = (uint_least32_t) ICall_getTickPeriod();
// 1359   osal_max_msecs = (uint_least32_t) ICall_getMaxMSecs();
// 1360   /* Reduce ceiling considering potential latency */
// 1361   osal_max_msecs -= 2;
// 1362 #endif /* USE_ICALL */
// 1363 
// 1364   return ( SUCCESS );
        MOV       R1,#0x0
        LJMP      ?Subroutine0 & 0xFFFF
// 1365 }
          CFI EndBlock cfiBlock125
// 1366 
// 1367 /*********************************************************************
// 1368  * @fn      osal_start_system
// 1369  *
// 1370  * @brief
// 1371  *
// 1372  *   This function is the main loop function of the task system (if
// 1373  *   ZBIT and UBIT are not defined). This Function doesn't return.
// 1374  *
// 1375  * @param   void
// 1376  *
// 1377  * @return  none
// 1378  */

        RSEG BANKED_CODE:HUGECODE:NOROOT(0)
// 1379 void osal_start_system( void )
osal_start_system:
          CFI Block cfiBlock126 Using cfiCommon0
          CFI Function osal_start_system
        CODE
// 1380 {
        FUNCALL osal_start_system, osal_run_system
        LOCFRAME ISTACK, 2, STACK
        LOCFRAME PSTACK, 0, STACK
        LOCFRAME XSTACK, 0, STACK
        LOCFRAME IOVERLAY, 0, STATIC
        LOCFRAME DOVERLAY, 0, STATIC
        ARGFRAME ISTACK, 2, STACK
        ARGFRAME PSTACK, 0, STACK
        ARGFRAME XSTACK, 0, STACK
        ARGFRAME IOVERLAY, 0, STATIC
        ARGFRAME DOVERLAY, 0, STATIC
        PUSH      DPL
          CFI DPL0 Frame(CFA_SP, 4)
          CFI CFA_SP SP+-4
        PUSH      DPH
          CFI DPH0 Frame(CFA_SP, 5)
          CFI CFA_SP SP+-5
        ; Saved register size: 2
        ; Auto size: 0
// 1381 #ifdef USE_ICALL
// 1382   /* Kick off timer service in order to allocate resources upfront.
// 1383    * The first timeout is required to schedule next OSAL timer event
// 1384    * as well. */
// 1385   ICall_Errno errno = ICall_setTimer(1, osal_msec_timer_cback,
// 1386                                      (void *) osal_msec_timer_seq,
// 1387                                      &osal_timerid_msec_timer);
// 1388   if (errno != ICALL_ERRNO_SUCCESS)
// 1389   {
// 1390     ICall_abort();
// 1391   }
// 1392 #endif /* USE_ICALL */
// 1393 
// 1394 #if !defined ( ZBIT ) && !defined ( UBIT )
// 1395   for(;;)  // Forever Loop
// 1396 #endif
// 1397   {
// 1398     osal_run_system();
??osal_start_system_0:
        ; Setup parameters for call to function osal_run_system
        LCALL     `??osal_run_system::?relay`; Banked call to: osal_run_system
// 1399 
// 1400 #ifdef WDT_IN_PM1
// 1401     WatchDogClear();
        MOV       A,0xc9
        ANL       A,#0xf
        ORL       A,#0xa0
        MOV       0xc9,A
        MOV       A,0xc9
        ANL       A,#0xf
        ORL       A,#0x50
        MOV       0xc9,A
        SJMP      ??osal_start_system_0
          CFI EndBlock cfiBlock126
        REQUIRE WDCTL
// 1402 #endif
// 1403 
// 1404 #ifdef USE_ICALL
// 1405     ICall_wait(ICALL_TIMEOUT_FOREVER);
// 1406 #endif /* USE_ICALL */
// 1407   }
// 1408 }
// 1409 
// 1410 #ifdef USE_ICALL
// 1411 /*********************************************************************
// 1412  * @fn      osal_alien2proxy
// 1413  *
// 1414  * @brief
// 1415  *
// 1416  *   Assign or retrieve a proxy OSAL task id for an external ICall entity.
// 1417  *
// 1418  * @param   origid  ICall entity id
// 1419  *
// 1420  * @return  proxy OSAL task id
// 1421  */
// 1422 static uint8 osal_alien2proxy(ICall_EntityID origid)
// 1423 {
// 1424   size_t i;
// 1425 
// 1426   for (i = 0; i < OSAL_MAX_NUM_PROXY_TASKS; i++)
// 1427   {
// 1428     if (osal_proxy_tasks[i] == OSAL_INVALID_DISPATCH_ID)
// 1429     {
// 1430       /* proxy not found. Create a new one */
// 1431       osal_proxy_tasks[i] = (uint8) origid;
// 1432       return (OSAL_PROXY_ID_FLAG | i);
// 1433     }
// 1434     else if ((ICall_EntityID) osal_proxy_tasks[i] == origid)
// 1435     {
// 1436       return (OSAL_PROXY_ID_FLAG | i);
// 1437     }
// 1438   }
// 1439   /* abort */
// 1440   ICall_abort();
// 1441   return TASK_NO_TASK;
// 1442 }
// 1443 
// 1444 /*********************************************************************
// 1445  * @fn      osal_proxy2alien
// 1446  *
// 1447  * @brief
// 1448  *
// 1449  *   Retrieve the ICall entity id for a proxy OSAL task id
// 1450  *
// 1451  * @param   proxyid  Proxy OSAL task id
// 1452  *
// 1453  * @return  ICall entity id
// 1454  */
// 1455 static ICall_EntityID osal_proxy2alien(uint8 proxyid)
// 1456 {
// 1457   proxyid ^= OSAL_PROXY_ID_FLAG;
// 1458   if (proxyid >= OSAL_MAX_NUM_PROXY_TASKS)
// 1459   {
// 1460     /* abort */
// 1461     ICall_abort();
// 1462   }
// 1463   return (ICall_EntityID) osal_proxy_tasks[proxyid];
// 1464 }
// 1465 
// 1466 /*********************************************************************
// 1467  * @fn      osal_dispatch2id
// 1468  *
// 1469  * @brief
// 1470  *
// 1471  *   Retrieve OSAL task id mapped to a designated ICall entity id
// 1472  *
// 1473  * @param   entity  ICall entity id
// 1474  *
// 1475  * @return  OSAL task id
// 1476  */
// 1477 static uint8 osal_dispatch2id(ICall_EntityID entity)
// 1478 {
// 1479   size_t i;
// 1480 
// 1481   for (i = 0; i < tasksCnt; i++)
// 1482   {
// 1483     if ((ICall_EntityID) osal_dispatch_entities[i] == entity)
// 1484     {
// 1485       return i;
// 1486     }
// 1487   }
// 1488   return TASK_NO_TASK;
// 1489 }
// 1490 
// 1491 /*********************************************************************
// 1492  * @fn      osal_msec_timer_cback
// 1493  *
// 1494  * @brief
// 1495  *
// 1496  *   This function is a callback function for ICall_setTimer() service
// 1497  *   used to implement OSAL timer
// 1498  *
// 1499  * @param   arg  In this case, the timer sequence number is passed.
// 1500  *
// 1501  * @return  None
// 1502  */
// 1503 static void osal_msec_timer_cback(void *arg)
// 1504 {
// 1505   unsigned seq = (unsigned) arg;
// 1506   halIntState_t intState;
// 1507 
// 1508   HAL_ENTER_CRITICAL_SECTION(intState);
// 1509   if (seq == osal_msec_timer_seq)
// 1510   {
// 1511     ICall_signal(osal_semaphore);
// 1512   }
// 1513   HAL_EXIT_CRITICAL_SECTION(intState);
// 1514 }
// 1515 
// 1516 /*********************************************************************
// 1517  * @fn      osal_service_entry
// 1518  *
// 1519  * @brief
// 1520  *
// 1521  *   This function is service function for messaging service
// 1522  *
// 1523  * @param   args  arguments.
// 1524  *
// 1525  * @return  ICall error code
// 1526  */
// 1527 ICall_Errno osal_service_entry(ICall_FuncArgsHdr *args)
// 1528 {
// 1529   if (args->func == ICALL_MSG_FUNC_GET_LOCAL_MSG_ENTITY_ID)
// 1530   {
// 1531     /* Get proxy ID */
// 1532     ((ICall_GetLocalMsgEntityIdArgs *)args)->localId =
// 1533       osal_alien2proxy(((ICall_GetLocalMsgEntityIdArgs *)args)->entity);
// 1534     if (((ICall_GetLocalMsgEntityIdArgs *)args)->localId == TASK_NO_TASK)
// 1535     {
// 1536       return ICALL_ERRNO_NO_RESOURCE;
// 1537     }
// 1538   }
// 1539   else
// 1540   {
// 1541     return ICALL_ERRNO_INVALID_FUNCTION;
// 1542   }
// 1543   return ICALL_ERRNO_SUCCESS;
// 1544 }
// 1545 #endif /* USE_ICALL */
// 1546 
// 1547 /*********************************************************************
// 1548  * @fn      osal_run_system
// 1549  *
// 1550  * @brief
// 1551  *
// 1552  *   This function will make one pass through the OSAL taskEvents table
// 1553  *   and call the task_event_processor() function for the first task that
// 1554  *   is found with at least one event pending. If there are no pending
// 1555  *   events (all tasks), this function puts the processor into Sleep.
// 1556  *
// 1557  * @param   void
// 1558  *
// 1559  * @return  none
// 1560  */

        RSEG BANKED_CODE:HUGECODE:NOROOT(0)
// 1561 void osal_run_system( void )
osal_run_system:
          CFI Block cfiBlock127 Using cfiCommon0
          CFI Function osal_run_system
        CODE
// 1562 {
        FUNCALL osal_run_system, osalTimeUpdate
        LOCFRAME ISTACK, 0, STACK
        LOCFRAME PSTACK, 0, STACK
        LOCFRAME XSTACK, 10, STACK
        LOCFRAME IOVERLAY, 0, STATIC
        LOCFRAME DOVERLAY, 0, STATIC
        ARGFRAME ISTACK, 0, STACK
        ARGFRAME PSTACK, 0, STACK
        ARGFRAME XSTACK, 10, STACK
        ARGFRAME IOVERLAY, 0, STATIC
        ARGFRAME DOVERLAY, 0, STATIC
        FUNCALL osal_run_system, Hal_ProcessPoll
        LOCFRAME ISTACK, 0, STACK
        LOCFRAME PSTACK, 0, STACK
        LOCFRAME XSTACK, 10, STACK
        LOCFRAME IOVERLAY, 0, STATIC
        LOCFRAME DOVERLAY, 0, STATIC
        ARGFRAME ISTACK, 0, STACK
        ARGFRAME PSTACK, 0, STACK
        ARGFRAME XSTACK, 10, STACK
        ARGFRAME IOVERLAY, 0, STATIC
        ARGFRAME DOVERLAY, 0, STATIC
        FUNCALL osal_run_system, osal_pwrmgr_powerconserve
        LOCFRAME ISTACK, 0, STACK
        LOCFRAME PSTACK, 0, STACK
        LOCFRAME XSTACK, 10, STACK
        LOCFRAME IOVERLAY, 0, STATIC
        LOCFRAME DOVERLAY, 0, STATIC
        ARGFRAME ISTACK, 0, STACK
        ARGFRAME PSTACK, 0, STACK
        ARGFRAME XSTACK, 10, STACK
        ARGFRAME IOVERLAY, 0, STATIC
        ARGFRAME DOVERLAY, 0, STATIC
        REQUIRE ?V0
        REQUIRE ?V1
        MOV       A,#-0xa
        LCALL     ?BANKED_ENTER_XDATA
          CFI DPH0 load(1, XDATA, add(CFA_XSP16, literal(-1)))
          CFI DPL0 load(1, XDATA, add(CFA_XSP16, literal(-2)))
          CFI ?BRET_EXT load(1, XDATA, add(CFA_XSP16, literal(-3)))
          CFI ?RET_HIGH load(1, XDATA, add(CFA_XSP16, literal(-4)))
          CFI ?RET_LOW load(1, XDATA, add(CFA_XSP16, literal(-5)))
          CFI R7 load(1, XDATA, add(CFA_XSP16, literal(-6)))
          CFI V1 load(1, XDATA, add(CFA_XSP16, literal(-7)))
          CFI V0 load(1, XDATA, add(CFA_XSP16, literal(-8)))
          CFI VB load(1, XDATA, add(CFA_XSP16, literal(-9)))
          CFI R6 load(1, XDATA, add(CFA_XSP16, literal(-10)))
          CFI CFA_SP SP+0
          CFI CFA_XSP16 add(XSP16, 10)
        ; Saved register size: 10
        ; Auto size: 0
// 1563   uint8 idx = 0;
        MOV       ?V0,#0x0
// 1564 
// 1565 #ifdef USE_ICALL
// 1566   uint32 next_timeout_prior = osal_next_timeout();
// 1567 #else /* USE_ICALL */
// 1568 #ifndef HAL_BOARD_CC2538
// 1569   osalTimeUpdate();
        ; Setup parameters for call to function osalTimeUpdate
        LCALL     `??osalTimeUpdate::?relay`; Banked call to: osalTimeUpdate
// 1570 #endif
// 1571 
// 1572   Hal_ProcessPoll();
        ; Setup parameters for call to function Hal_ProcessPoll
        LCALL     `??Hal_ProcessPoll::?relay`; Banked call to: Hal_ProcessPoll
// 1573 #endif /* USE_ICALL */
// 1574 
// 1575 #ifdef USE_ICALL
// 1576   {
// 1577     /* Update osal timers to the latest before running any OSAL processes
// 1578      * regardless of wakeup callback from ICall because OSAL timers are added
// 1579      * relative to the current time. */
// 1580     unsigned long newtimestamp = ICall_getTicks();
// 1581     uint32 milliseconds;
// 1582 
// 1583     if (osal_tickperiod == 1000)
// 1584     {
// 1585       milliseconds = newtimestamp - osal_last_timestamp;
// 1586       osal_last_timestamp = newtimestamp;
// 1587     }
// 1588     else
// 1589     {
// 1590       unsigned long long delta = (unsigned long long)
// 1591         ((newtimestamp - osal_last_timestamp) & 0xfffffffful);
// 1592       delta *= osal_tickperiod;
// 1593       delta /= 1000;
// 1594       milliseconds = (uint32) delta;
// 1595       osal_last_timestamp += (uint32) (delta * 1000 / osal_tickperiod);
// 1596     }
// 1597     osalAdjustTimer(milliseconds);
// 1598     /* Set a value that will never match osal_next_timeout()
// 1599      * return value so that the next time can be scheduled.
// 1600      */
// 1601     next_timeout_prior = 0xfffffffful;
// 1602   }
// 1603   if (osal_eventloop_hook)
// 1604   {
// 1605     osal_eventloop_hook();
// 1606   }
// 1607 
// 1608   for (;;)
// 1609   {
// 1610     void *msg;
// 1611     ICall_EntityID src, dst;
// 1612     osal_msg_hdr_t *hdr;
// 1613     uint8 dest_id;
// 1614 
// 1615     if (ICall_fetchMsg(&src, &dst, &msg) != ICALL_ERRNO_SUCCESS)
// 1616     {
// 1617       break;
// 1618     }
// 1619     hdr = (osal_msg_hdr_t *) msg - 1;
// 1620     dest_id = osal_dispatch2id(dst);
// 1621     if (dest_id == TASK_NO_TASK)
// 1622     {
// 1623       /* Something wrong */
// 1624       ICall_abort();
// 1625     }
// 1626     else
// 1627     {
// 1628       /* Message towards one of the tasks */
// 1629       /* Create a proxy task ID if necessary and
// 1630        * queue the message to the OSAL internal queue.
// 1631        */
// 1632       uint8 proxyid = osal_alien2proxy(hdr->srcentity);
// 1633 
// 1634       if (hdr->format == ICALL_MSG_FORMAT_1ST_CHAR_TASK_ID)
// 1635       {
// 1636         uint8 *bytes = msg;
// 1637         *bytes = proxyid;
// 1638       }
// 1639       else if (hdr->format == ICALL_MSG_FORMAT_3RD_CHAR_TASK_ID)
// 1640       {
// 1641         uint8 *bytes = msg;
// 1642         bytes[2] = proxyid;
// 1643       }
// 1644       /* now queue the message to the OSAL queue */
// 1645       osal_msg_send(dest_id, msg);
// 1646     }
// 1647   }
// 1648 #endif /* USE_ICALL */
// 1649 
// 1650   do {
// 1651     if (tasksEvents[idx])  // Task is highest priority that is ready.
??osal_run_system_0:
        MOV       R0,?V0
        MOV       A,R0
        ADD       A,R0
        LCALL     ?Subroutine17 & 0xFFFF
// 1652     {
// 1653       break;
// 1654     }
// 1655   } while (++idx < tasksCnt);
??CrossCallReturnLabel_23:
        LCALL     ?Subroutine7 & 0xFFFF
??CrossCallReturnLabel_57:
        JNZ       ??osal_run_system_1
        INC       ?V0
        MOV       DPTR,#tasksCnt
        MOVX      A,@DPTR
        MOV       R0,A
        MOV       A,?V0
        CLR       C
        SUBB      A,R0
        JC        ??osal_run_system_0
// 1656 
// 1657   if (idx < tasksCnt)
??osal_run_system_1:
        MOV       DPTR,#tasksCnt
        MOVX      A,@DPTR
        MOV       R0,A
        MOV       A,?V0
        CLR       C
        SUBB      A,R0
        JNC       ??osal_run_system_2
// 1658   {
// 1659     uint16 events;
// 1660     halIntState_t intState;
// 1661 
// 1662     HAL_ENTER_CRITICAL_SECTION(intState);
        MOV       R4,0xa8+0x0
        CLR       0xa8.7
// 1663     events = tasksEvents[idx];
        MOV       R6,?V0
        MOV       A,R6
        ADD       A,R6
        MOV       R6,A
        CLR       A
        RLC       A
        MOV       R7,A
        MOV       DPTR,#tasksEvents
        MOVX      A,@DPTR
        ADD       A,R6
        MOV       R0,A
        INC       DPTR
        MOVX      A,@DPTR
        ADDC      A,R7
        MOV       R1,A
        MOV       DPL,R0
        MOV       DPH,A
        LCALL     ??Subroutine32_0 & 0xFFFF
// 1664     tasksEvents[idx] = 0;  // Clear the Events for this task.
??CrossCallReturnLabel_62:
        MOV       DPL,R0
        MOV       DPH,R1
        CLR       A
        MOVX      @DPTR,A
        INC       DPTR
        MOVX      @DPTR,A
// 1665     HAL_EXIT_CRITICAL_SECTION(intState);
        MOV       A,R4
        MOV       C,0xE0 /* A   */.7
        MOV       0xa8.7,C
// 1666 
// 1667     activeTaskID = idx;
        MOV       A,?V0
        MOV       DPTR,#activeTaskID
        MOVX      @DPTR,A
// 1668     events = (tasksArr[idx])( idx, events );
        ; Setup parameters for indirect call
        MOV       R1,A
        MOV       A,#tasksArr & 0xff
        ADD       A,R6
        MOV       DPL,A
        MOV       A,#(tasksArr >> 8) & 0xff
        ADDC      A,R7
        MOV       DPH,A
        LCALL     ?Subroutine15 & 0xFFFF
??CrossCallReturnLabel_19:
        LCALL     ?CALL_IND
// 1669     activeTaskID = TASK_NO_TASK;
        MOV       DPTR,#activeTaskID
        MOV       A,#-0x1
        MOVX      @DPTR,A
// 1670 
// 1671     HAL_ENTER_CRITICAL_SECTION(intState);
        MOV       R0,0xa8+0x0
        CLR       0xa8.7
// 1672     tasksEvents[idx] |= events;  // Add back unprocessed events to the current task.
        MOV       DPTR,#tasksEvents
        MOVX      A,@DPTR
        ADD       A,R6
        MOV       R1,A
        INC       DPTR
        MOVX      A,@DPTR
        ADDC      A,R7
        MOV       DPL,R1
        MOV       DPH,A
        MOVX      A,@DPTR
        ORL       A,R2
        MOVX      @DPTR,A
        INC       DPTR
        MOVX      A,@DPTR
        ORL       A,R3
        MOVX      @DPTR,A
// 1673     HAL_EXIT_CRITICAL_SECTION(intState);
        MOV       A,R0
        MOV       C,0xE0 /* A   */.7
        MOV       0xa8.7,C
        SJMP      ??osal_run_system_3
// 1674   }
// 1675 #if defined( POWER_SAVING ) && !defined(USE_ICALL)
// 1676   else  // Complete pass through all task events with no activity?
// 1677   {
// 1678     osal_pwrmgr_powerconserve();  // Put the processor/system into sleep
??osal_run_system_2:
        ; Setup parameters for call to function osal_pwrmgr_powerconserve
        LCALL     `??osal_pwrmgr_powerconserve::?relay`; Banked call to: osal_pwrmgr_powerconserve
// 1679   }
// 1680 #endif
// 1681 
// 1682   /* Yield in case cooperative scheduling is being used. */
// 1683 #if defined (configUSE_PREEMPTION) && (configUSE_PREEMPTION == 0)
// 1684   {
// 1685     osal_task_yield();
// 1686   }
// 1687 #endif
// 1688 
// 1689 #if defined USE_ICALL
// 1690   /* Note that scheduling wakeup at this point instead of
// 1691    * scheduling it upon ever OSAL start timer request,
// 1692    * would only work if OSAL start timer call is made
// 1693    * from OSAL tasks, but not from either ISR or
// 1694    * non-OSAL application thread.
// 1695    * In case, OSAL start timer is called from non-OSAL
// 1696    * task, the scheduling should be part of OSAL_Timers
// 1697    * module.
// 1698    * Such a change to OSAL_Timers module was not made
// 1699    * in order not to diverge the OSAL implementations
// 1700    * too drastically between pure OSAL solution vs.
// 1701    * OSAL upon service dispatcher (RTOS).
// 1702    * TODO: reconsider the above statement.
// 1703    */
// 1704   {
// 1705     halIntState_t intState;
// 1706 
// 1707     uint32 next_timeout_post = osal_next_timeout();
// 1708     if (next_timeout_post != next_timeout_prior)
// 1709     {
// 1710       /* Next wakeup time has to be scheduled */
// 1711       if (next_timeout_post == 0)
// 1712       {
// 1713         /* No timer. Set time to the max */
// 1714         next_timeout_post = OSAL_TIMERS_MAX_TIMEOUT;
// 1715       }
// 1716       if (next_timeout_post > osal_max_msecs)
// 1717       {
// 1718         next_timeout_post = osal_max_msecs;
// 1719       }
// 1720       /* Restart timer */
// 1721       HAL_ENTER_CRITICAL_SECTION(intState);
// 1722       ICall_stopTimer(osal_timerid_msec_timer);
// 1723       ICall_setTimerMSecs(next_timeout_post, osal_msec_timer_cback,
// 1724                           (void *) (++osal_msec_timer_seq),
// 1725                           &osal_timerid_msec_timer);
// 1726       HAL_EXIT_CRITICAL_SECTION(intState);
// 1727     }
// 1728   }
// 1729 #endif /* USE_ICALL */
// 1730 }
??osal_run_system_3:
        LJMP      ?Subroutine2 & 0xFFFF
          CFI EndBlock cfiBlock127
        REQUIRE _A_IEN0

        RSEG BANKED_CODE:HUGECODE:NOROOT(0)
?Subroutine17:
          CFI Block cfiCond128 Using cfiCommon0
          CFI Function osal_clear_event
          CFI Conditional ??CrossCallReturnLabel_22
          CFI R6 load(1, XDATA, add(CFA_XSP16, literal(-9)))
          CFI VB load(1, XDATA, add(CFA_XSP16, literal(-8)))
          CFI V0 load(1, XDATA, add(CFA_XSP16, literal(-7)))
          CFI R7 load(1, XDATA, add(CFA_XSP16, literal(-6)))
          CFI ?RET_LOW load(1, XDATA, add(CFA_XSP16, literal(-5)))
          CFI ?RET_HIGH load(1, XDATA, add(CFA_XSP16, literal(-4)))
          CFI ?BRET_EXT load(1, XDATA, add(CFA_XSP16, literal(-3)))
          CFI DPL0 load(1, XDATA, add(CFA_XSP16, literal(-2)))
          CFI DPH0 load(1, XDATA, add(CFA_XSP16, literal(-1)))
          CFI CFA_SP SP+-2
          CFI CFA_XSP16 add(XSP16, 9)
          CFI Block cfiCond129 Using cfiCommon0
          CFI (cfiCond129) Function osal_run_system
          CFI (cfiCond129) Conditional ??CrossCallReturnLabel_23
          CFI (cfiCond129) R6 load(1, XDATA, add(CFA_XSP16, literal(-10)))
          CFI (cfiCond129) VB load(1, XDATA, add(CFA_XSP16, literal(-9)))
          CFI (cfiCond129) V0 load(1, XDATA, add(CFA_XSP16, literal(-8)))
          CFI (cfiCond129) V1 load(1, XDATA, add(CFA_XSP16, literal(-7)))
          CFI (cfiCond129) R7 load(1, XDATA, add(CFA_XSP16, literal(-6)))
          CFI (cfiCond129) ?RET_LOW load(1, XDATA, add(CFA_XSP16, literal(-5)))
          CFI (cfiCond129) ?RET_HIGH load(1, XDATA, add(CFA_XSP16, literal(-4)))
          CFI (cfiCond129) ?BRET_EXT load(1, XDATA, add(CFA_XSP16, literal(-3)))
          CFI (cfiCond129) DPL0 load(1, XDATA, add(CFA_XSP16, literal(-2)))
          CFI (cfiCond129) DPH0 load(1, XDATA, add(CFA_XSP16, literal(-1)))
          CFI (cfiCond129) CFA_SP SP+-2
          CFI (cfiCond129) CFA_XSP16 add(XSP16, 10)
          CFI Block cfiPicker130 Using cfiCommon1
          CFI (cfiPicker130) NoFunction
          CFI (cfiPicker130) Picker
        MOV       R0,A
        CLR       A
        RLC       A
        MOV       R1,A
        MOV       DPTR,#tasksEvents
        MOVX      A,@DPTR
        ADD       A,R0
        MOV       R2,A
        INC       DPTR
        MOVX      A,@DPTR
        ADDC      A,R1
        MOV       DPL,R2
        RET
          CFI EndBlock cfiCond128
          CFI EndBlock cfiCond129
          CFI EndBlock cfiPicker130

        RSEG BANKED_CODE:HUGECODE:NOROOT(0)
?Subroutine15:
          CFI Block cfiCond131 Using cfiCommon0
          CFI Function _ltoa
          CFI Conditional ??CrossCallReturnLabel_18
          CFI R6 load(1, XDATA, add(CFA_XSP16, literal(-24)))
          CFI VB load(1, XDATA, add(CFA_XSP16, literal(-23)))
          CFI V0 load(1, XDATA, add(CFA_XSP16, literal(-22)))
          CFI V1 load(1, XDATA, add(CFA_XSP16, literal(-21)))
          CFI V2 load(1, XDATA, add(CFA_XSP16, literal(-20)))
          CFI V3 load(1, XDATA, add(CFA_XSP16, literal(-19)))
          CFI V4 load(1, XDATA, add(CFA_XSP16, literal(-18)))
          CFI V5 load(1, XDATA, add(CFA_XSP16, literal(-17)))
          CFI V6 load(1, XDATA, add(CFA_XSP16, literal(-16)))
          CFI V7 load(1, XDATA, add(CFA_XSP16, literal(-15)))
          CFI V8 load(1, XDATA, add(CFA_XSP16, literal(-14)))
          CFI V9 load(1, XDATA, add(CFA_XSP16, literal(-13)))
          CFI V10 load(1, XDATA, add(CFA_XSP16, literal(-12)))
          CFI V11 load(1, XDATA, add(CFA_XSP16, literal(-11)))
          CFI V12 load(1, XDATA, add(CFA_XSP16, literal(-10)))
          CFI V13 load(1, XDATA, add(CFA_XSP16, literal(-9)))
          CFI V14 load(1, XDATA, add(CFA_XSP16, literal(-8)))
          CFI V15 load(1, XDATA, add(CFA_XSP16, literal(-7)))
          CFI R7 load(1, XDATA, add(CFA_XSP16, literal(-6)))
          CFI ?RET_LOW load(1, XDATA, add(CFA_XSP16, literal(-5)))
          CFI ?RET_HIGH load(1, XDATA, add(CFA_XSP16, literal(-4)))
          CFI ?BRET_EXT load(1, XDATA, add(CFA_XSP16, literal(-3)))
          CFI DPL0 load(1, XDATA, add(CFA_XSP16, literal(-2)))
          CFI DPH0 load(1, XDATA, add(CFA_XSP16, literal(-1)))
          CFI CFA_SP SP+-2
          CFI CFA_XSP16 add(XSP16, 57)
          CFI Block cfiCond132 Using cfiCommon0
          CFI (cfiCond132) Function osal_run_system
          CFI (cfiCond132) Conditional ??CrossCallReturnLabel_19
          CFI (cfiCond132) R6 load(1, XDATA, add(CFA_XSP16, literal(-10)))
          CFI (cfiCond132) VB load(1, XDATA, add(CFA_XSP16, literal(-9)))
          CFI (cfiCond132) V0 load(1, XDATA, add(CFA_XSP16, literal(-8)))
          CFI (cfiCond132) V1 load(1, XDATA, add(CFA_XSP16, literal(-7)))
          CFI (cfiCond132) R7 load(1, XDATA, add(CFA_XSP16, literal(-6)))
          CFI (cfiCond132) ?RET_LOW load(1, XDATA, add(CFA_XSP16, literal(-5)))
          CFI (cfiCond132) ?RET_HIGH load(1, XDATA, add(CFA_XSP16, literal(-4)))
          CFI (cfiCond132) ?BRET_EXT load(1, XDATA, add(CFA_XSP16, literal(-3)))
          CFI (cfiCond132) DPL0 load(1, XDATA, add(CFA_XSP16, literal(-2)))
          CFI (cfiCond132) DPH0 load(1, XDATA, add(CFA_XSP16, literal(-1)))
          CFI (cfiCond132) CFA_SP SP+-2
          CFI (cfiCond132) CFA_XSP16 add(XSP16, 10)
          CFI Block cfiPicker133 Using cfiCommon1
          CFI (cfiPicker133) NoFunction
          CFI (cfiPicker133) Picker
        MOVX      A,@DPTR
        MOV       R0,A
        INC       DPTR
        MOVX      A,@DPTR
        MOV       DPH,A
        MOV       DPL,R0
        RET
          CFI EndBlock cfiCond131
          CFI EndBlock cfiCond132
          CFI EndBlock cfiPicker133

        RSEG BANKED_CODE:HUGECODE:NOROOT(0)
?Subroutine13:
          CFI Block cfiCond134 Using cfiCommon0
          CFI Function osal_memcpy
          CFI Conditional ??CrossCallReturnLabel_63
          CFI R6 load(1, XDATA, add(CFA_XSP16, literal(-9)))
          CFI VB load(1, XDATA, add(CFA_XSP16, literal(-8)))
          CFI V0 load(1, XDATA, add(CFA_XSP16, literal(-7)))
          CFI R7 load(1, XDATA, add(CFA_XSP16, literal(-6)))
          CFI ?RET_LOW load(1, XDATA, add(CFA_XSP16, literal(-5)))
          CFI ?RET_HIGH load(1, XDATA, add(CFA_XSP16, literal(-4)))
          CFI ?BRET_EXT load(1, XDATA, add(CFA_XSP16, literal(-3)))
          CFI DPL0 load(1, XDATA, add(CFA_XSP16, literal(-2)))
          CFI DPH0 load(1, XDATA, add(CFA_XSP16, literal(-1)))
          CFI CFA_SP SP+-2
          CFI CFA_XSP16 add(XSP16, 9)
          CFI Block cfiCond135 Using cfiCommon0
          CFI (cfiCond135) Function osal_revmemcpy
          CFI (cfiCond135) Conditional ??CrossCallReturnLabel_64
          CFI (cfiCond135) R6 load(1, XDATA, add(CFA_XSP16, literal(-9)))
          CFI (cfiCond135) VB load(1, XDATA, add(CFA_XSP16, literal(-8)))
          CFI (cfiCond135) V0 load(1, XDATA, add(CFA_XSP16, literal(-7)))
          CFI (cfiCond135) R7 load(1, XDATA, add(CFA_XSP16, literal(-6)))
          CFI (cfiCond135) ?RET_LOW load(1, XDATA, add(CFA_XSP16, literal(-5)))
          CFI (cfiCond135) ?RET_HIGH load(1, XDATA, add(CFA_XSP16, literal(-4)))
          CFI (cfiCond135) ?BRET_EXT load(1, XDATA, add(CFA_XSP16, literal(-3)))
          CFI (cfiCond135) DPL0 load(1, XDATA, add(CFA_XSP16, literal(-2)))
          CFI (cfiCond135) DPH0 load(1, XDATA, add(CFA_XSP16, literal(-1)))
          CFI (cfiCond135) CFA_SP SP+-2
          CFI (cfiCond135) CFA_XSP16 add(XSP16, 9)
          CFI Block cfiPicker136 Using cfiCommon1
          CFI (cfiPicker136) NoFunction
          CFI (cfiPicker136) Picker
        MOVX      A,@DPTR
        MOV       R1,A
        INC       DPTR
          CFI EndBlock cfiCond134
          CFI EndBlock cfiCond135
          CFI EndBlock cfiPicker136
        REQUIRE ??Subroutine32_0
        ; // Fall through to label ??Subroutine32_0

        RSEG BANKED_CODE:HUGECODE:NOROOT(0)
??Subroutine32_0:
          CFI Block cfiCond137 Using cfiCommon0
          CFI Function _ltoa
          CFI Conditional ??CrossCallReturnLabel_58
          CFI R6 load(1, XDATA, add(CFA_XSP16, literal(-24)))
          CFI VB load(1, XDATA, add(CFA_XSP16, literal(-23)))
          CFI V0 load(1, XDATA, add(CFA_XSP16, literal(-22)))
          CFI V1 load(1, XDATA, add(CFA_XSP16, literal(-21)))
          CFI V2 load(1, XDATA, add(CFA_XSP16, literal(-20)))
          CFI V3 load(1, XDATA, add(CFA_XSP16, literal(-19)))
          CFI V4 load(1, XDATA, add(CFA_XSP16, literal(-18)))
          CFI V5 load(1, XDATA, add(CFA_XSP16, literal(-17)))
          CFI V6 load(1, XDATA, add(CFA_XSP16, literal(-16)))
          CFI V7 load(1, XDATA, add(CFA_XSP16, literal(-15)))
          CFI V8 load(1, XDATA, add(CFA_XSP16, literal(-14)))
          CFI V9 load(1, XDATA, add(CFA_XSP16, literal(-13)))
          CFI V10 load(1, XDATA, add(CFA_XSP16, literal(-12)))
          CFI V11 load(1, XDATA, add(CFA_XSP16, literal(-11)))
          CFI V12 load(1, XDATA, add(CFA_XSP16, literal(-10)))
          CFI V13 load(1, XDATA, add(CFA_XSP16, literal(-9)))
          CFI V14 load(1, XDATA, add(CFA_XSP16, literal(-8)))
          CFI V15 load(1, XDATA, add(CFA_XSP16, literal(-7)))
          CFI R7 load(1, XDATA, add(CFA_XSP16, literal(-6)))
          CFI ?RET_LOW load(1, XDATA, add(CFA_XSP16, literal(-5)))
          CFI ?RET_HIGH load(1, XDATA, add(CFA_XSP16, literal(-4)))
          CFI ?BRET_EXT load(1, XDATA, add(CFA_XSP16, literal(-3)))
          CFI DPL0 load(1, XDATA, add(CFA_XSP16, literal(-2)))
          CFI DPH0 load(1, XDATA, add(CFA_XSP16, literal(-1)))
          CFI CFA_SP SP+-2
          CFI CFA_XSP16 add(XSP16, 57)
          CFI Block cfiCond138 Using cfiCommon0
          CFI (cfiCond138) Function _ltoa
          CFI (cfiCond138) Conditional ??CrossCallReturnLabel_59
          CFI (cfiCond138) R6 load(1, XDATA, add(CFA_XSP16, literal(-24)))
          CFI (cfiCond138) VB load(1, XDATA, add(CFA_XSP16, literal(-23)))
          CFI (cfiCond138) V0 load(1, XDATA, add(CFA_XSP16, literal(-22)))
          CFI (cfiCond138) V1 load(1, XDATA, add(CFA_XSP16, literal(-21)))
          CFI (cfiCond138) V2 load(1, XDATA, add(CFA_XSP16, literal(-20)))
          CFI (cfiCond138) V3 load(1, XDATA, add(CFA_XSP16, literal(-19)))
          CFI (cfiCond138) V4 load(1, XDATA, add(CFA_XSP16, literal(-18)))
          CFI (cfiCond138) V5 load(1, XDATA, add(CFA_XSP16, literal(-17)))
          CFI (cfiCond138) V6 load(1, XDATA, add(CFA_XSP16, literal(-16)))
          CFI (cfiCond138) V7 load(1, XDATA, add(CFA_XSP16, literal(-15)))
          CFI (cfiCond138) V8 load(1, XDATA, add(CFA_XSP16, literal(-14)))
          CFI (cfiCond138) V9 load(1, XDATA, add(CFA_XSP16, literal(-13)))
          CFI (cfiCond138) V10 load(1, XDATA, add(CFA_XSP16, literal(-12)))
          CFI (cfiCond138) V11 load(1, XDATA, add(CFA_XSP16, literal(-11)))
          CFI (cfiCond138) V12 load(1, XDATA, add(CFA_XSP16, literal(-10)))
          CFI (cfiCond138) V13 load(1, XDATA, add(CFA_XSP16, literal(-9)))
          CFI (cfiCond138) V14 load(1, XDATA, add(CFA_XSP16, literal(-8)))
          CFI (cfiCond138) V15 load(1, XDATA, add(CFA_XSP16, literal(-7)))
          CFI (cfiCond138) R7 load(1, XDATA, add(CFA_XSP16, literal(-6)))
          CFI (cfiCond138) ?RET_LOW load(1, XDATA, add(CFA_XSP16, literal(-5)))
          CFI (cfiCond138) ?RET_HIGH load(1, XDATA, add(CFA_XSP16, literal(-4)))
          CFI (cfiCond138) ?BRET_EXT load(1, XDATA, add(CFA_XSP16, literal(-3)))
          CFI (cfiCond138) DPL0 load(1, XDATA, add(CFA_XSP16, literal(-2)))
          CFI (cfiCond138) DPH0 load(1, XDATA, add(CFA_XSP16, literal(-1)))
          CFI (cfiCond138) CFA_SP SP+-2
          CFI (cfiCond138) CFA_XSP16 add(XSP16, 57)
          CFI Block cfiCond139 Using cfiCommon0
          CFI (cfiCond139) Function _ltoa
          CFI (cfiCond139) Conditional ??CrossCallReturnLabel_60
          CFI (cfiCond139) R6 load(1, XDATA, add(CFA_XSP16, literal(-24)))
          CFI (cfiCond139) VB load(1, XDATA, add(CFA_XSP16, literal(-23)))
          CFI (cfiCond139) V0 load(1, XDATA, add(CFA_XSP16, literal(-22)))
          CFI (cfiCond139) V1 load(1, XDATA, add(CFA_XSP16, literal(-21)))
          CFI (cfiCond139) V2 load(1, XDATA, add(CFA_XSP16, literal(-20)))
          CFI (cfiCond139) V3 load(1, XDATA, add(CFA_XSP16, literal(-19)))
          CFI (cfiCond139) V4 load(1, XDATA, add(CFA_XSP16, literal(-18)))
          CFI (cfiCond139) V5 load(1, XDATA, add(CFA_XSP16, literal(-17)))
          CFI (cfiCond139) V6 load(1, XDATA, add(CFA_XSP16, literal(-16)))
          CFI (cfiCond139) V7 load(1, XDATA, add(CFA_XSP16, literal(-15)))
          CFI (cfiCond139) V8 load(1, XDATA, add(CFA_XSP16, literal(-14)))
          CFI (cfiCond139) V9 load(1, XDATA, add(CFA_XSP16, literal(-13)))
          CFI (cfiCond139) V10 load(1, XDATA, add(CFA_XSP16, literal(-12)))
          CFI (cfiCond139) V11 load(1, XDATA, add(CFA_XSP16, literal(-11)))
          CFI (cfiCond139) V12 load(1, XDATA, add(CFA_XSP16, literal(-10)))
          CFI (cfiCond139) V13 load(1, XDATA, add(CFA_XSP16, literal(-9)))
          CFI (cfiCond139) V14 load(1, XDATA, add(CFA_XSP16, literal(-8)))
          CFI (cfiCond139) V15 load(1, XDATA, add(CFA_XSP16, literal(-7)))
          CFI (cfiCond139) R7 load(1, XDATA, add(CFA_XSP16, literal(-6)))
          CFI (cfiCond139) ?RET_LOW load(1, XDATA, add(CFA_XSP16, literal(-5)))
          CFI (cfiCond139) ?RET_HIGH load(1, XDATA, add(CFA_XSP16, literal(-4)))
          CFI (cfiCond139) ?BRET_EXT load(1, XDATA, add(CFA_XSP16, literal(-3)))
          CFI (cfiCond139) DPL0 load(1, XDATA, add(CFA_XSP16, literal(-2)))
          CFI (cfiCond139) DPH0 load(1, XDATA, add(CFA_XSP16, literal(-1)))
          CFI (cfiCond139) CFA_SP SP+-2
          CFI (cfiCond139) CFA_XSP16 add(XSP16, 57)
          CFI Block cfiCond140 Using cfiCommon0
          CFI (cfiCond140) Function osal_msg_find
          CFI (cfiCond140) Conditional ??CrossCallReturnLabel_61
          CFI (cfiCond140) DPL0 Frame(CFA_SP, 4)
          CFI (cfiCond140) DPH0 Frame(CFA_SP, 5)
          CFI (cfiCond140) CFA_SP SP+-7
          CFI Block cfiCond141 Using cfiCommon0
          CFI (cfiCond141) Function osal_run_system
          CFI (cfiCond141) Conditional ??CrossCallReturnLabel_62
          CFI (cfiCond141) R6 load(1, XDATA, add(CFA_XSP16, literal(-10)))
          CFI (cfiCond141) VB load(1, XDATA, add(CFA_XSP16, literal(-9)))
          CFI (cfiCond141) V0 load(1, XDATA, add(CFA_XSP16, literal(-8)))
          CFI (cfiCond141) V1 load(1, XDATA, add(CFA_XSP16, literal(-7)))
          CFI (cfiCond141) R7 load(1, XDATA, add(CFA_XSP16, literal(-6)))
          CFI (cfiCond141) ?RET_LOW load(1, XDATA, add(CFA_XSP16, literal(-5)))
          CFI (cfiCond141) ?RET_HIGH load(1, XDATA, add(CFA_XSP16, literal(-4)))
          CFI (cfiCond141) ?BRET_EXT load(1, XDATA, add(CFA_XSP16, literal(-3)))
          CFI (cfiCond141) DPL0 load(1, XDATA, add(CFA_XSP16, literal(-2)))
          CFI (cfiCond141) DPH0 load(1, XDATA, add(CFA_XSP16, literal(-1)))
          CFI (cfiCond141) CFA_SP SP+-2
          CFI (cfiCond141) CFA_XSP16 add(XSP16, 10)
          CFI Block cfiCond142 Using cfiCommon0
          CFI (cfiCond142) Function osal_memcpy
          CFI (cfiCond142) Conditional ??CrossCallReturnLabel_63
          CFI (cfiCond142) R6 load(1, XDATA, add(CFA_XSP16, literal(-9)))
          CFI (cfiCond142) VB load(1, XDATA, add(CFA_XSP16, literal(-8)))
          CFI (cfiCond142) V0 load(1, XDATA, add(CFA_XSP16, literal(-7)))
          CFI (cfiCond142) R7 load(1, XDATA, add(CFA_XSP16, literal(-6)))
          CFI (cfiCond142) ?RET_LOW load(1, XDATA, add(CFA_XSP16, literal(-5)))
          CFI (cfiCond142) ?RET_HIGH load(1, XDATA, add(CFA_XSP16, literal(-4)))
          CFI (cfiCond142) ?BRET_EXT load(1, XDATA, add(CFA_XSP16, literal(-3)))
          CFI (cfiCond142) DPL0 load(1, XDATA, add(CFA_XSP16, literal(-2)))
          CFI (cfiCond142) DPH0 load(1, XDATA, add(CFA_XSP16, literal(-1)))
          CFI (cfiCond142) CFA_SP SP+-2
          CFI (cfiCond142) CFA_XSP16 add(XSP16, 9)
          CFI Block cfiCond143 Using cfiCommon0
          CFI (cfiCond143) Function osal_revmemcpy
          CFI (cfiCond143) Conditional ??CrossCallReturnLabel_64
          CFI (cfiCond143) R6 load(1, XDATA, add(CFA_XSP16, literal(-9)))
          CFI (cfiCond143) VB load(1, XDATA, add(CFA_XSP16, literal(-8)))
          CFI (cfiCond143) V0 load(1, XDATA, add(CFA_XSP16, literal(-7)))
          CFI (cfiCond143) R7 load(1, XDATA, add(CFA_XSP16, literal(-6)))
          CFI (cfiCond143) ?RET_LOW load(1, XDATA, add(CFA_XSP16, literal(-5)))
          CFI (cfiCond143) ?RET_HIGH load(1, XDATA, add(CFA_XSP16, literal(-4)))
          CFI (cfiCond143) ?BRET_EXT load(1, XDATA, add(CFA_XSP16, literal(-3)))
          CFI (cfiCond143) DPL0 load(1, XDATA, add(CFA_XSP16, literal(-2)))
          CFI (cfiCond143) DPH0 load(1, XDATA, add(CFA_XSP16, literal(-1)))
          CFI (cfiCond143) CFA_SP SP+-2
          CFI (cfiCond143) CFA_XSP16 add(XSP16, 9)
          CFI Block cfiPicker144 Using cfiCommon1
          CFI (cfiPicker144) NoFunction
          CFI (cfiPicker144) Picker
        MOVX      A,@DPTR
        MOV       R2,A
        INC       DPTR
        MOVX      A,@DPTR
        MOV       R3,A
        RET
          CFI EndBlock cfiCond137
          CFI EndBlock cfiCond138
          CFI EndBlock cfiCond139
          CFI EndBlock cfiCond140
          CFI EndBlock cfiCond141
          CFI EndBlock cfiCond142
          CFI EndBlock cfiCond143
          CFI EndBlock cfiPicker144
// 1731 
// 1732 /*********************************************************************
// 1733  * @fn      osal_buffer_uint32
// 1734  *
// 1735  * @brief
// 1736  *
// 1737  *   Buffer an uint32 value - LSB first.
// 1738  *
// 1739  * @param   buf - buffer
// 1740  * @param   val - uint32 value
// 1741  *
// 1742  * @return  pointer to end of destination buffer
// 1743  */

        RSEG BANKED_CODE:HUGECODE:NOROOT(0)
// 1744 uint8* osal_buffer_uint32( uint8 *buf, uint32 val )
osal_buffer_uint32:
          CFI Block cfiBlock145 Using cfiCommon0
          CFI Function osal_buffer_uint32
        CODE
// 1745 {
        REQUIRE ?V0
        REQUIRE ?V1
        REQUIRE ?V2
        REQUIRE ?V3
        REQUIRE ?V4
        REQUIRE ?V5
        REQUIRE ?V6
        REQUIRE ?V7
        MOV       A,#-0x10
        LCALL     ?BANKED_ENTER_XDATA
          CFI DPH0 load(1, XDATA, add(CFA_XSP16, literal(-1)))
          CFI DPL0 load(1, XDATA, add(CFA_XSP16, literal(-2)))
          CFI ?BRET_EXT load(1, XDATA, add(CFA_XSP16, literal(-3)))
          CFI ?RET_HIGH load(1, XDATA, add(CFA_XSP16, literal(-4)))
          CFI ?RET_LOW load(1, XDATA, add(CFA_XSP16, literal(-5)))
          CFI R7 load(1, XDATA, add(CFA_XSP16, literal(-6)))
          CFI V7 load(1, XDATA, add(CFA_XSP16, literal(-7)))
          CFI V6 load(1, XDATA, add(CFA_XSP16, literal(-8)))
          CFI V5 load(1, XDATA, add(CFA_XSP16, literal(-9)))
          CFI V4 load(1, XDATA, add(CFA_XSP16, literal(-10)))
          CFI V3 load(1, XDATA, add(CFA_XSP16, literal(-11)))
          CFI V2 load(1, XDATA, add(CFA_XSP16, literal(-12)))
          CFI V1 load(1, XDATA, add(CFA_XSP16, literal(-13)))
          CFI V0 load(1, XDATA, add(CFA_XSP16, literal(-14)))
          CFI VB load(1, XDATA, add(CFA_XSP16, literal(-15)))
          CFI R6 load(1, XDATA, add(CFA_XSP16, literal(-16)))
          CFI CFA_SP SP+0
          CFI CFA_XSP16 add(XSP16, 16)
        ; Saved register size: 16
        ; Auto size: 0
        MOV       A,#0x10
        LCALL     ?XSTACK_DISP0_8
        MOV       R0,#?V4
        LCALL     ?L_MOV_X
// 1746   *buf++ = BREAK_UINT32( val, 0 );
        MOV       DPL,R2
        MOV       DPH,R3
        MOV       A,?V4
        LCALL     ?Subroutine22 & 0xFFFF
// 1747   *buf++ = BREAK_UINT32( val, 1 );
// 1748   *buf++ = BREAK_UINT32( val, 2 );
??CrossCallReturnLabel_28:
        MOV       ?V0,?V4
        MOV       ?V2,?V6
        MOV       ?V3,?V7
        MOV       A,#0x10
        MOV       R0,#?V0
        LCALL     ?UL_SHR
        MOV       DPL,R2
        MOV       DPH,R3
        INC       DPTR
        INC       DPTR
        MOV       A,?V0
        MOVX      @DPTR,A
// 1749   *buf++ = BREAK_UINT32( val, 3 );
        MOV       A,#0x18
        MOV       R0,#?V4
        LCALL     ?UL_SHR
        MOV       DPL,R2
        MOV       DPH,R3
        INC       DPTR
        INC       DPTR
        INC       DPTR
        MOV       A,?V4
        MOVX      @DPTR,A
// 1750 
// 1751   return buf;
        MOV       A,R2
        ADD       A,#0x4
        MOV       R2,A
        JNC       ??osal_buffer_uint32_0
        INC       R3
??osal_buffer_uint32_0:
        LJMP      ?Subroutine3 & 0xFFFF
// 1752 }
          CFI EndBlock cfiBlock145
// 1753 
// 1754 /*********************************************************************
// 1755  * @fn      osal_buffer_uint24
// 1756  *
// 1757  * @brief
// 1758  *
// 1759  *   Buffer an uint24 value - LSB first. Note that type uint24 is
// 1760  *   typedef to uint32 in comdef.h
// 1761  *
// 1762  * @param   buf - buffer
// 1763  * @param   val - uint24 value
// 1764  *
// 1765  * @return  pointer to end of destination buffer
// 1766  */

        RSEG BANKED_CODE:HUGECODE:NOROOT(0)
// 1767 uint8* osal_buffer_uint24( uint8 *buf, uint24 val )
osal_buffer_uint24:
          CFI Block cfiBlock146 Using cfiCommon0
          CFI Function osal_buffer_uint24
        CODE
// 1768 {
        REQUIRE ?V0
        REQUIRE ?V1
        REQUIRE ?V4
        REQUIRE ?V5
        REQUIRE ?V6
        REQUIRE ?V7
        MOV       A,#-0x10
        LCALL     ?BANKED_ENTER_XDATA
          CFI DPH0 load(1, XDATA, add(CFA_XSP16, literal(-1)))
          CFI DPL0 load(1, XDATA, add(CFA_XSP16, literal(-2)))
          CFI ?BRET_EXT load(1, XDATA, add(CFA_XSP16, literal(-3)))
          CFI ?RET_HIGH load(1, XDATA, add(CFA_XSP16, literal(-4)))
          CFI ?RET_LOW load(1, XDATA, add(CFA_XSP16, literal(-5)))
          CFI R7 load(1, XDATA, add(CFA_XSP16, literal(-6)))
          CFI V7 load(1, XDATA, add(CFA_XSP16, literal(-7)))
          CFI V6 load(1, XDATA, add(CFA_XSP16, literal(-8)))
          CFI V5 load(1, XDATA, add(CFA_XSP16, literal(-9)))
          CFI V4 load(1, XDATA, add(CFA_XSP16, literal(-10)))
          CFI V3 load(1, XDATA, add(CFA_XSP16, literal(-11)))
          CFI V2 load(1, XDATA, add(CFA_XSP16, literal(-12)))
          CFI V1 load(1, XDATA, add(CFA_XSP16, literal(-13)))
          CFI V0 load(1, XDATA, add(CFA_XSP16, literal(-14)))
          CFI VB load(1, XDATA, add(CFA_XSP16, literal(-15)))
          CFI R6 load(1, XDATA, add(CFA_XSP16, literal(-16)))
          CFI CFA_SP SP+0
          CFI CFA_XSP16 add(XSP16, 16)
        ; Saved register size: 16
        ; Auto size: 0
        MOV       A,#0x10
        LCALL     ?XSTACK_DISP0_8
        MOV       R0,#?V4
        LCALL     ?L_MOV_X
// 1769   *buf++ = BREAK_UINT32( val, 0 );
        MOV       ?V0,?V4
        MOV       DPL,R2
        MOV       DPH,R3
        MOV       A,?V0
        LCALL     ?Subroutine22 & 0xFFFF
// 1770   *buf++ = BREAK_UINT32( val, 1 );
// 1771   *buf++ = BREAK_UINT32( val, 2 );
??CrossCallReturnLabel_29:
        MOV       A,#0x10
        MOV       R0,#?V4
        LCALL     ?UL_SHR
        MOV       DPL,R2
        MOV       DPH,R3
        INC       DPTR
        INC       DPTR
        MOV       A,?V4
        MOVX      @DPTR,A
// 1772 
// 1773   return buf;
        MOV       A,R2
        ADD       A,#0x3
        MOV       R2,A
        JNC       ??osal_buffer_uint24_0
        INC       R3
??osal_buffer_uint24_0:
        LJMP      ?Subroutine3 & 0xFFFF
// 1774 }
          CFI EndBlock cfiBlock146

        RSEG BANKED_CODE:HUGECODE:NOROOT(0)
?Subroutine22:
          CFI Block cfiCond147 Using cfiCommon0
          CFI Function osal_buffer_uint32
          CFI Conditional ??CrossCallReturnLabel_28
          CFI R6 load(1, XDATA, add(CFA_XSP16, literal(-16)))
          CFI VB load(1, XDATA, add(CFA_XSP16, literal(-15)))
          CFI V0 load(1, XDATA, add(CFA_XSP16, literal(-14)))
          CFI V1 load(1, XDATA, add(CFA_XSP16, literal(-13)))
          CFI V2 load(1, XDATA, add(CFA_XSP16, literal(-12)))
          CFI V3 load(1, XDATA, add(CFA_XSP16, literal(-11)))
          CFI V4 load(1, XDATA, add(CFA_XSP16, literal(-10)))
          CFI V5 load(1, XDATA, add(CFA_XSP16, literal(-9)))
          CFI V6 load(1, XDATA, add(CFA_XSP16, literal(-8)))
          CFI V7 load(1, XDATA, add(CFA_XSP16, literal(-7)))
          CFI R7 load(1, XDATA, add(CFA_XSP16, literal(-6)))
          CFI ?RET_LOW load(1, XDATA, add(CFA_XSP16, literal(-5)))
          CFI ?RET_HIGH load(1, XDATA, add(CFA_XSP16, literal(-4)))
          CFI ?BRET_EXT load(1, XDATA, add(CFA_XSP16, literal(-3)))
          CFI DPL0 load(1, XDATA, add(CFA_XSP16, literal(-2)))
          CFI DPH0 load(1, XDATA, add(CFA_XSP16, literal(-1)))
          CFI CFA_SP SP+-2
          CFI CFA_XSP16 add(XSP16, 16)
          CFI Block cfiCond148 Using cfiCommon0
          CFI (cfiCond148) Function osal_buffer_uint24
          CFI (cfiCond148) Conditional ??CrossCallReturnLabel_29
          CFI (cfiCond148) R6 load(1, XDATA, add(CFA_XSP16, literal(-16)))
          CFI (cfiCond148) VB load(1, XDATA, add(CFA_XSP16, literal(-15)))
          CFI (cfiCond148) V0 load(1, XDATA, add(CFA_XSP16, literal(-14)))
          CFI (cfiCond148) V1 load(1, XDATA, add(CFA_XSP16, literal(-13)))
          CFI (cfiCond148) V2 load(1, XDATA, add(CFA_XSP16, literal(-12)))
          CFI (cfiCond148) V3 load(1, XDATA, add(CFA_XSP16, literal(-11)))
          CFI (cfiCond148) V4 load(1, XDATA, add(CFA_XSP16, literal(-10)))
          CFI (cfiCond148) V5 load(1, XDATA, add(CFA_XSP16, literal(-9)))
          CFI (cfiCond148) V6 load(1, XDATA, add(CFA_XSP16, literal(-8)))
          CFI (cfiCond148) V7 load(1, XDATA, add(CFA_XSP16, literal(-7)))
          CFI (cfiCond148) R7 load(1, XDATA, add(CFA_XSP16, literal(-6)))
          CFI (cfiCond148) ?RET_LOW load(1, XDATA, add(CFA_XSP16, literal(-5)))
          CFI (cfiCond148) ?RET_HIGH load(1, XDATA, add(CFA_XSP16, literal(-4)))
          CFI (cfiCond148) ?BRET_EXT load(1, XDATA, add(CFA_XSP16, literal(-3)))
          CFI (cfiCond148) DPL0 load(1, XDATA, add(CFA_XSP16, literal(-2)))
          CFI (cfiCond148) DPH0 load(1, XDATA, add(CFA_XSP16, literal(-1)))
          CFI (cfiCond148) CFA_SP SP+-2
          CFI (cfiCond148) CFA_XSP16 add(XSP16, 16)
          CFI Block cfiPicker149 Using cfiCommon1
          CFI (cfiPicker149) NoFunction
          CFI (cfiPicker149) Picker
        MOVX      @DPTR,A
        MOV       ?V1,?V5
        MOV       A,?V1
        INC       DPTR
        MOVX      @DPTR,A
        RET
          CFI EndBlock cfiCond147
          CFI EndBlock cfiCond148
          CFI EndBlock cfiPicker149
// 1775 
// 1776 /*********************************************************************
// 1777  * @fn      osal_isbufset
// 1778  *
// 1779  * @brief
// 1780  *
// 1781  *   Is all of the array elements set to a value?
// 1782  *
// 1783  * @param   buf - buffer to check
// 1784  * @param   val - value to check each array element for
// 1785  * @param   len - length to check
// 1786  *
// 1787  * @return  TRUE if all "val"
// 1788  *          FALSE otherwise
// 1789  */

        RSEG BANKED_CODE:HUGECODE:NOROOT(0)
// 1790 uint8 osal_isbufset( uint8 *buf, uint8 val, uint8 len )
osal_isbufset:
          CFI Block cfiBlock150 Using cfiCommon0
          CFI Function osal_isbufset
        CODE
// 1791 {
        MOV       A,#-0x9
        LCALL     ?BANKED_ENTER_XDATA
          CFI DPH0 load(1, XDATA, add(CFA_XSP16, literal(-1)))
          CFI DPL0 load(1, XDATA, add(CFA_XSP16, literal(-2)))
          CFI ?BRET_EXT load(1, XDATA, add(CFA_XSP16, literal(-3)))
          CFI ?RET_HIGH load(1, XDATA, add(CFA_XSP16, literal(-4)))
          CFI ?RET_LOW load(1, XDATA, add(CFA_XSP16, literal(-5)))
          CFI R7 load(1, XDATA, add(CFA_XSP16, literal(-6)))
          CFI V0 load(1, XDATA, add(CFA_XSP16, literal(-7)))
          CFI VB load(1, XDATA, add(CFA_XSP16, literal(-8)))
          CFI R6 load(1, XDATA, add(CFA_XSP16, literal(-9)))
          CFI CFA_SP SP+0
          CFI CFA_XSP16 add(XSP16, 9)
        ; Saved register size: 9
        ; Auto size: 0
        MOV       A,R1
        MOV       R5,A
// 1792   uint8 x;
// 1793 
// 1794   if ( buf == NULL )
        MOV       A,R2
        ORL       A,R3
        JZ        ??osal_isbufset_0
// 1795   {
// 1796     return ( FALSE );
// 1797   }
// 1798 
// 1799   for ( x = 0; x < len; x++ )
        MOV       R0,#0x0
        SJMP      ??osal_isbufset_1
??osal_isbufset_2:
        INC       R0
??osal_isbufset_1:
        MOV       A,R0
        CLR       C
        SUBB      A,R4
        JNC       ??osal_isbufset_3
// 1800   {
// 1801     // Check for non-initialized value
// 1802     if ( buf[x] != val )
        MOV       A,R0
        MOV       R6,A
        MOV       A,R2
        ADD       A,R6
        MOV       DPL,A
        CLR       A
        ADDC      A,R3
        MOV       DPH,A
        MOVX      A,@DPTR
        XRL       A,R5
        JZ        ??osal_isbufset_2
// 1803     {
// 1804       return ( FALSE );
??osal_isbufset_0:
        MOV       R1,#0x0
        SJMP      ??osal_isbufset_4
// 1805     }
// 1806   }
// 1807   return ( TRUE );
??osal_isbufset_3:
        MOV       R1,#0x1
??osal_isbufset_4:
        LJMP      ??Subroutine27_0 & 0xFFFF
// 1808 }
          CFI EndBlock cfiBlock150
// 1809 
// 1810 /*********************************************************************
// 1811  * @fn      osal_self
// 1812  *
// 1813  * @brief
// 1814  *
// 1815  *   This function returns the task ID of the current (active) task.
// 1816  *
// 1817  * @param   void
// 1818  *
// 1819  * @return   active task ID or TASK_NO_TASK if no task is active
// 1820  */

        RSEG BANKED_CODE:HUGECODE:NOROOT(0)
// 1821 uint8 osal_self( void )
osal_self:
          CFI Block cfiBlock151 Using cfiCommon0
          CFI Function osal_self
        CODE
// 1822 {
        PUSH      DPL
          CFI DPL0 Frame(CFA_SP, 4)
          CFI CFA_SP SP+-4
        PUSH      DPH
          CFI DPH0 Frame(CFA_SP, 5)
          CFI CFA_SP SP+-5
        ; Saved register size: 2
        ; Auto size: 0
// 1823   return ( activeTaskID );
        MOV       DPTR,#activeTaskID
        MOVX      A,@DPTR
        MOV       R1,A
        LJMP      ?Subroutine0 & 0xFFFF
// 1824 }
          CFI EndBlock cfiBlock151

        RSEG XDATA_ID:CODE:NOROOT(0)
`?<Initializer for activeTaskID>`:
        DATA8
        DB 255

        RSEG BANK_RELAYS:CODE:REORDER:NOROOT(0)
`??osal_strlen::?relay`:
        CODE
        LCALL   ?BDISPATCH
        DATA24
        DC24    osal_strlen

        RSEG BANK_RELAYS:CODE:REORDER:NOROOT(0)
`??osal_memcpy::?relay`:
        CODE
        LCALL   ?BDISPATCH
        DATA24
        DC24    osal_memcpy

        RSEG BANK_RELAYS:CODE:REORDER:NOROOT(0)
`??osal_revmemcpy::?relay`:
        CODE
        LCALL   ?BDISPATCH
        DATA24
        DC24    osal_revmemcpy

        RSEG BANK_RELAYS:CODE:REORDER:NOROOT(0)
`??osal_memdup::?relay`:
        CODE
        LCALL   ?BDISPATCH
        DATA24
        DC24    osal_memdup

        RSEG BANK_RELAYS:CODE:REORDER:NOROOT(0)
`??osal_memcmp::?relay`:
        CODE
        LCALL   ?BDISPATCH
        DATA24
        DC24    osal_memcmp

        RSEG BANK_RELAYS:CODE:REORDER:NOROOT(0)
`??osal_memset::?relay`:
        CODE
        LCALL   ?BDISPATCH
        DATA24
        DC24    osal_memset

        RSEG BANK_RELAYS:CODE:REORDER:NOROOT(0)
`??osal_build_uint16::?relay`:
        CODE
        LCALL   ?BDISPATCH
        DATA24
        DC24    osal_build_uint16

        RSEG BANK_RELAYS:CODE:REORDER:NOROOT(0)
`??osal_build_uint32::?relay`:
        CODE
        LCALL   ?BDISPATCH
        DATA24
        DC24    osal_build_uint32

        RSEG BANK_RELAYS:CODE:REORDER:NOROOT(0)
`??_ltoa::?relay`:
        CODE
        LCALL   ?BDISPATCH
        DATA24
        DC24    _ltoa

        RSEG BANK_RELAYS:CODE:REORDER:NOROOT(0)
`??osal_rand::?relay`:
        CODE
        LCALL   ?BDISPATCH
        DATA24
        DC24    osal_rand

        RSEG BANK_RELAYS:CODE:REORDER:NOROOT(0)
`??osal_msg_allocate::?relay`:
        CODE
        LCALL   ?BDISPATCH
        DATA24
        DC24    osal_msg_allocate

        RSEG BANK_RELAYS:CODE:REORDER:NOROOT(0)
`??osal_msg_deallocate::?relay`:
        CODE
        LCALL   ?BDISPATCH
        DATA24
        DC24    osal_msg_deallocate

        RSEG BANK_RELAYS:CODE:REORDER:NOROOT(0)
`??osal_msg_send::?relay`:
        CODE
        LCALL   ?BDISPATCH
        DATA24
        DC24    osal_msg_send

        RSEG BANK_RELAYS:CODE:REORDER:NOROOT(0)
`??osal_msg_push_front::?relay`:
        CODE
        LCALL   ?BDISPATCH
        DATA24
        DC24    osal_msg_push_front

        RSEG BANK_RELAYS:CODE:REORDER:NOROOT(0)
`??osal_msg_enqueue_push::?relay`:
        CODE
        LCALL   ?BDISPATCH
        DATA24
        DC24    osal_msg_enqueue_push

        RSEG BANK_RELAYS:CODE:REORDER:NOROOT(0)
`??osal_msg_receive::?relay`:
        CODE
        LCALL   ?BDISPATCH
        DATA24
        DC24    osal_msg_receive

        RSEG BANK_RELAYS:CODE:REORDER:NOROOT(0)
`??osal_msg_find::?relay`:
        CODE
        LCALL   ?BDISPATCH
        DATA24
        DC24    osal_msg_find

        RSEG BANK_RELAYS:CODE:REORDER:NOROOT(0)
`??osal_msg_count::?relay`:
        CODE
        LCALL   ?BDISPATCH
        DATA24
        DC24    osal_msg_count

        RSEG BANK_RELAYS:CODE:REORDER:NOROOT(0)
`??osal_msg_enqueue::?relay`:
        CODE
        LCALL   ?BDISPATCH
        DATA24
        DC24    osal_msg_enqueue

        RSEG BANK_RELAYS:CODE:REORDER:NOROOT(0)
`??osal_msg_dequeue::?relay`:
        CODE
        LCALL   ?BDISPATCH
        DATA24
        DC24    osal_msg_dequeue

        RSEG BANK_RELAYS:CODE:REORDER:NOROOT(0)
`??osal_msg_push::?relay`:
        CODE
        LCALL   ?BDISPATCH
        DATA24
        DC24    osal_msg_push

        RSEG BANK_RELAYS:CODE:REORDER:NOROOT(0)
`??osal_msg_extract::?relay`:
        CODE
        LCALL   ?BDISPATCH
        DATA24
        DC24    osal_msg_extract

        RSEG BANK_RELAYS:CODE:REORDER:NOROOT(0)
`??osal_msg_enqueue_max::?relay`:
        CODE
        LCALL   ?BDISPATCH
        DATA24
        DC24    osal_msg_enqueue_max

        RSEG BANK_RELAYS:CODE:REORDER:NOROOT(0)
`??osal_set_event::?relay`:
        CODE
        LCALL   ?BDISPATCH
        DATA24
        DC24    osal_set_event

        RSEG BANK_RELAYS:CODE:REORDER:NOROOT(0)
`??osal_clear_event::?relay`:
        CODE
        LCALL   ?BDISPATCH
        DATA24
        DC24    osal_clear_event

        RSEG BANK_RELAYS:CODE:REORDER:NOROOT(0)
`??osal_isr_register::?relay`:
        CODE
        LCALL   ?BDISPATCH
        DATA24
        DC24    osal_isr_register

        RSEG BANK_RELAYS:CODE:REORDER:NOROOT(0)
`??osal_int_enable::?relay`:
        CODE
        LCALL   ?BDISPATCH
        DATA24
        DC24    osal_int_enable

        RSEG BANK_RELAYS:CODE:REORDER:NOROOT(0)
`??osal_int_disable::?relay`:
        CODE
        LCALL   ?BDISPATCH
        DATA24
        DC24    osal_int_disable

        RSEG BANK_RELAYS:CODE:REORDER:NOROOT(0)
`??osal_init_system::?relay`:
        CODE
        LCALL   ?BDISPATCH
        DATA24
        DC24    osal_init_system

        RSEG BANK_RELAYS:CODE:REORDER:NOROOT(0)
`??osal_start_system::?relay`:
        CODE
        LCALL   ?BDISPATCH
        DATA24
        DC24    osal_start_system

        RSEG BANK_RELAYS:CODE:REORDER:NOROOT(0)
`??osal_run_system::?relay`:
        CODE
        LCALL   ?BDISPATCH
        DATA24
        DC24    osal_run_system

        RSEG BANK_RELAYS:CODE:REORDER:NOROOT(0)
`??osal_buffer_uint32::?relay`:
        CODE
        LCALL   ?BDISPATCH
        DATA24
        DC24    osal_buffer_uint32

        RSEG BANK_RELAYS:CODE:REORDER:NOROOT(0)
`??osal_buffer_uint24::?relay`:
        CODE
        LCALL   ?BDISPATCH
        DATA24
        DC24    osal_buffer_uint24

        RSEG BANK_RELAYS:CODE:REORDER:NOROOT(0)
`??osal_isbufset::?relay`:
        CODE
        LCALL   ?BDISPATCH
        DATA24
        DC24    osal_isbufset

        RSEG BANK_RELAYS:CODE:REORDER:NOROOT(0)
`??osal_self::?relay`:
        CODE
        LCALL   ?BDISPATCH
        DATA24
        DC24    osal_self

        RSEG XDATA_ROM_C:CONST:REORDER:NOROOT(0)
        DATA8
`?<Constant "">`:
        DB ""
        DB 0, 0, 0, 0, 0, 0, 0, 0
        DB 0

        RSEG XDATA_ROM_C:CONST:REORDER:NOROOT(0)
        DATA8
`?<Constant "">_1`:
        DB ""
        DB 0, 0, 0, 0, 0, 0, 0, 0
        DB 0

        RSEG XDATA_ROM_C:CONST:REORDER:NOROOT(0)
        DATA8
`?<Constant "">_2`:
        DB ""
        DB 0, 0, 0, 0, 0, 0, 0, 0
        DB 0

        RSEG XDATA_ROM_C:CONST:REORDER:NOROOT(0)
        DATA16
`?<Constant "0">`:
        DB "0"

        RSEG XDATA_ROM_C:CONST:REORDER:NOROOT(0)
        DATA32
__Constant_2710:
        DD 10000

        RSEG XDATA_ROM_C:CONST:REORDER:NOROOT(0)
        DATA32
__Constant_5f5e100:
        DD 100000000

        END
// 1825 
// 1826 /*********************************************************************
// 1827  */
// 
// 2 670 bytes in segment BANKED_CODE
//   210 bytes in segment BANK_RELAYS
//     2 bytes in segment SFR_AN
//     1 byte  in segment XDATA_I
//     1 byte  in segment XDATA_ID
//    40 bytes in segment XDATA_ROM_C
//     2 bytes in segment XDATA_Z
// 
//   211 bytes of CODE     memory
//    32 bytes of CONST    memory (+ 8 bytes shared)
//     0 bytes of DATA     memory (+ 2 bytes shared)
// 2 670 bytes of HUGECODE memory
//     3 bytes of XDATA    memory
//
//Errors: none
//Warnings: none
