###############################################################################
#
# IAR C/C++ Compiler V10.30.1.6000 for 8051               23/Feb/2022  09:35:04
# Copyright 2004-2018 IAR Systems AB.
# PC-locked license - IAR Embedded Workbench for 8051
#
#    Core               =  plain
#    Code model         =  banked
#    Data model         =  large
#    Calling convention =  xdata reentrant
#    Constant location  =  data_rom
#    Dptr setup         =  1,16
#                          
#    Source file        =  
#        D:\A_proj\A_Cproj\Zigbee\ZigBee-DoorLock-2021.09.27\Components\stack\zcl\zcl.c
#    Command line       =  
#        -f C:\Users\Administrator\AppData\Local\Temp\EW4045.tmp
#        (D:\A_proj\A_Cproj\Zigbee\ZigBee-DoorLock-2021.09.27\Components\stack\zcl\zcl.c
#        -D WDT_IN_PM1 -D ZIGBEEPRO -D INTER_PAN -D ZIGBEE_FREQ_AGILITY -D
#        DISABLE_GREENPOWER_BASIC_PROXY -D REFLECTOR -D HAL_UART=FALSE -D
#        HAL_LED=FALSE -D HAL_KEY=FALSE -D SECURE=1 -D TC_LINKKEY_JOIN -D
#        NV_INIT -D NV_RESTORE -D POWER_SAVING -D NWK_AUTO_POLL -D xZTOOL_P1 -D
#        xMT_TASK -D xMT_APP_FUNC -D xMT_SYS_FUNC -D xMT_ZDO_FUNC -D
#        xMT_ZDO_MGMT -D xMT_APP_CNF_FUNC -D xLEGACY_LCD_DEBUG -D
#        xLCD_SUPPORTED=DEBUG -D MULTICAST_ENABLED=FALSE -D ZCL_READ -D
#        ZCL_WRITE -D ZCL_DISCOVER -D ZCL_BASIC -D ZCL_IDENTIFY -D ZCL_SCENES
#        -D ZCL_GROUPS -D BDB_REPORTING -D ZCL_DOORLOCK -D ZCL_DOORLOCK_EXT -D
#        ISR_KEYINTERRUPT -lC
#        D:\A_proj\A_Cproj\Zigbee\ZigBee-DoorLock-2021.09.27\Projects\zstack\AT-command\ATApp\CC2530DB\EndDeviceEB\List
#        -lA
#        D:\A_proj\A_Cproj\Zigbee\ZigBee-DoorLock-2021.09.27\Projects\zstack\AT-command\ATApp\CC2530DB\EndDeviceEB\List
#        --diag_suppress Pe001,Pa010 -o
#        D:\A_proj\A_Cproj\Zigbee\ZigBee-DoorLock-2021.09.27\Projects\zstack\AT-command\ATApp\CC2530DB\EndDeviceEB\Obj
#        -e --debug --core=plain --dptr=16,1 --data_model=large
#        --code_model=banked --calling_convention=xdata_reentrant
#        --place_constants=data_rom --nr_virtual_regs 16 -f
#        D:\A_proj\A_Cproj\Zigbee\ZigBee-DoorLock-2021.09.27\Projects\zstack\AT-command\ATApp\CC2530DB\..\..\..\Tools\CC2530DB\f8wEndev.cfg
#        (-DCPU32MHZ -DROOT=__near_func -DMAC_CFG_TX_DATA_MAX=3
#        -DMAC_CFG_TX_MAX=6 -DMAC_CFG_RX_MAX=3) -f
#        D:\A_proj\A_Cproj\Zigbee\ZigBee-DoorLock-2021.09.27\Projects\zstack\AT-command\ATApp\CC2530DB\..\..\..\Tools\CC2530DB\f8wConfig.cfg
#        (-DZIGBEEPRO -DSECURE=1 -DZG_SECURE_DYNAMIC=0 -DREFLECTOR
#        -DDEFAULT_CHANLIST=0x00000800 -DZDAPP_CONFIG_PAN_ID=0xFFFF
#        -DNWK_START_DELAY=100 -DEXTENDED_JOINING_RANDOM_MASK=0x007F
#        -DBEACON_REQUEST_DELAY=100 -DBEACON_REQ_DELAY_MASK=0x00FF
#        -DLINK_STATUS_JITTER_MASK=0x007F -DROUTE_EXPIRY_TIME=30
#        -DAPSC_ACK_WAIT_DURATION_POLLED=3000 -DNWK_INDIRECT_MSG_TIMEOUT=7
#        -DMAX_RREQ_ENTRIES=8 -DAPSC_MAX_FRAME_RETRIES=3
#        -DNWK_MAX_DATA_RETRIES=2 -DMAX_POLL_FAILURE_RETRIES=2 -DMAX_BCAST=9
#        -DAPS_MAX_GROUPS=10 -DMAX_RTG_ENTRIES=15 -DNWK_MAX_BINDING_ENTRIES=4
#        -DMAX_BINDING_CLUSTER_IDS=4 -DDEFAULT_KEY={0} -DMAC_MAX_FRAME_SIZE=116
#        -DZDNWKMGR_MIN_TRANSMISSIONS=20 "-DCONST=const __code"
#        -DGENERIC=__generic -DRFD_RCVC_ALWAYS_ON=FALSE -DPOLL_RATE=300
#        -DQUEUED_POLL_RATE=100 -DRESPONSE_POLL_RATE=100 -DREJOIN_POLL_RATE=440
#        -DREJOIN_BACKOFF=900000 -DREJOIN_SCAN=900000) -f
#        D:\A_proj\A_Cproj\Zigbee\ZigBee-DoorLock-2021.09.27\Projects\zstack\AT-command\ATApp\CC2530DB\..\..\..\Tools\CC2530DB\f8wZCL.cfg
#        -I
#        D:\A_proj\A_Cproj\Zigbee\ZigBee-DoorLock-2021.09.27\Projects\zstack\AT-command\ATApp\CC2530DB\
#        -I
#        D:\A_proj\A_Cproj\Zigbee\ZigBee-DoorLock-2021.09.27\Projects\zstack\AT-command\ATApp\CC2530DB\..\Source\
#        -I
#        D:\A_proj\A_Cproj\Zigbee\ZigBee-DoorLock-2021.09.27\Projects\zstack\AT-command\ATApp\CC2530DB\..\Source\ZCL\
#        -I
#        D:\A_proj\A_Cproj\Zigbee\ZigBee-DoorLock-2021.09.27\Projects\zstack\AT-command\ATApp\CC2530DB\..\Source\UserAPI\
#        -I
#        D:\A_proj\A_Cproj\Zigbee\ZigBee-DoorLock-2021.09.27\Projects\zstack\AT-command\ATApp\CC2530DB\..\Source\Controller\
#        -I
#        D:\A_proj\A_Cproj\Zigbee\ZigBee-DoorLock-2021.09.27\Projects\zstack\AT-command\ATApp\CC2530DB\..\..\..\ZMain\TI2530DB\
#        -I
#        D:\A_proj\A_Cproj\Zigbee\ZigBee-DoorLock-2021.09.27\Projects\zstack\AT-command\ATApp\CC2530DB\..\..\..\..\..\Components\hal\include\
#        -I
#        D:\A_proj\A_Cproj\Zigbee\ZigBee-DoorLock-2021.09.27\Projects\zstack\AT-command\ATApp\CC2530DB\..\..\..\..\..\Components\hal\target\CC2530EB\
#        -I
#        D:\A_proj\A_Cproj\Zigbee\ZigBee-DoorLock-2021.09.27\Projects\zstack\AT-command\ATApp\CC2530DB\..\..\..\..\..\Components\mac\include\
#        -I
#        D:\A_proj\A_Cproj\Zigbee\ZigBee-DoorLock-2021.09.27\Projects\zstack\AT-command\ATApp\CC2530DB\..\..\..\..\..\Components\mac\high_level\
#        -I
#        D:\A_proj\A_Cproj\Zigbee\ZigBee-DoorLock-2021.09.27\Projects\zstack\AT-command\ATApp\CC2530DB\..\..\..\..\..\Components\mac\low_level\srf04\
#        -I
#        D:\A_proj\A_Cproj\Zigbee\ZigBee-DoorLock-2021.09.27\Projects\zstack\AT-command\ATApp\CC2530DB\..\..\..\..\..\Components\mac\low_level\srf04\single_chip\
#        -I
#        D:\A_proj\A_Cproj\Zigbee\ZigBee-DoorLock-2021.09.27\Projects\zstack\AT-command\ATApp\CC2530DB\..\..\..\..\..\Components\mt\
#        -I
#        D:\A_proj\A_Cproj\Zigbee\ZigBee-DoorLock-2021.09.27\Projects\zstack\AT-command\ATApp\CC2530DB\..\..\..\..\..\Components\osal\include\
#        -I
#        D:\A_proj\A_Cproj\Zigbee\ZigBee-DoorLock-2021.09.27\Projects\zstack\AT-command\ATApp\CC2530DB\..\..\..\..\..\Components\services\saddr\
#        -I
#        D:\A_proj\A_Cproj\Zigbee\ZigBee-DoorLock-2021.09.27\Projects\zstack\AT-command\ATApp\CC2530DB\..\..\..\..\..\Components\services\sdata\
#        -I
#        D:\A_proj\A_Cproj\Zigbee\ZigBee-DoorLock-2021.09.27\Projects\zstack\AT-command\ATApp\CC2530DB\..\..\..\..\..\Components\stack\af\
#        -I
#        D:\A_proj\A_Cproj\Zigbee\ZigBee-DoorLock-2021.09.27\Projects\zstack\AT-command\ATApp\CC2530DB\..\..\..\..\..\Components\stack\bdb\
#        -I
#        D:\A_proj\A_Cproj\Zigbee\ZigBee-DoorLock-2021.09.27\Projects\zstack\AT-command\ATApp\CC2530DB\..\..\..\..\..\Components\stack\gp\
#        -I
#        D:\A_proj\A_Cproj\Zigbee\ZigBee-DoorLock-2021.09.27\Projects\zstack\AT-command\ATApp\CC2530DB\..\..\..\..\..\Components\stack\nwk\
#        -I
#        D:\A_proj\A_Cproj\Zigbee\ZigBee-DoorLock-2021.09.27\Projects\zstack\AT-command\ATApp\CC2530DB\..\..\..\..\..\Components\stack\sapi\
#        -I
#        D:\A_proj\A_Cproj\Zigbee\ZigBee-DoorLock-2021.09.27\Projects\zstack\AT-command\ATApp\CC2530DB\..\..\..\..\..\Components\stack\sec\
#        -I
#        D:\A_proj\A_Cproj\Zigbee\ZigBee-DoorLock-2021.09.27\Projects\zstack\AT-command\ATApp\CC2530DB\..\..\..\..\..\Components\stack\sys\
#        -I
#        D:\A_proj\A_Cproj\Zigbee\ZigBee-DoorLock-2021.09.27\Projects\zstack\AT-command\ATApp\CC2530DB\..\..\..\..\..\Components\stack\zcl\
#        -I
#        D:\A_proj\A_Cproj\Zigbee\ZigBee-DoorLock-2021.09.27\Projects\zstack\AT-command\ATApp\CC2530DB\..\..\..\..\..\Components\stack\zdo\
#        -I
#        D:\A_proj\A_Cproj\Zigbee\ZigBee-DoorLock-2021.09.27\Projects\zstack\AT-command\ATApp\CC2530DB\..\..\..\..\..\Components\zmac\
#        -I
#        D:\A_proj\A_Cproj\Zigbee\ZigBee-DoorLock-2021.09.27\Projects\zstack\AT-command\ATApp\CC2530DB\..\..\..\..\..\Components\zmac\f8w\
#        -Ohz --require_prototypes)
#    Locale             =  Chinese (Simplified)_CHN.936
#    List file          =  
#        D:\A_proj\A_Cproj\Zigbee\ZigBee-DoorLock-2021.09.27\Projects\zstack\AT-command\ATApp\CC2530DB\EndDeviceEB\List\zcl.lst
#    Object file        =  
#        D:\A_proj\A_Cproj\Zigbee\ZigBee-DoorLock-2021.09.27\Projects\zstack\AT-command\ATApp\CC2530DB\EndDeviceEB\Obj\zcl.r51
#
###############################################################################

D:\A_proj\A_Cproj\Zigbee\ZigBee-DoorLock-2021.09.27\Components\stack\zcl\zcl.c
      1          /**************************************************************************************************
      2            Filename:       zcl.c
      3            Revised:        $Date: 2015-09-09 11:51:49 -0700 (Wed, 09 Sep 2015) $
      4            Revision:       $Revision: 44489 $
      5          
      6            Description:    This file contains the Zigbee Cluster Library Foundation functions.
      7          
      8          
      9            Copyright 2006-2015 Texas Instruments Incorporated. All rights reserved.
     10          
     11            IMPORTANT: Your use of this Software is limited to those specific rights
     12            granted under the terms of a software license agreement between the user
     13            who downloaded the software, his/her employer (which must be your employer)
     14            and Texas Instruments Incorporated (the "License").  You may not use this
     15            Software unless you agree to abide by the terms of the License. The License
     16            limits your use, and you acknowledge, that the Software may not be modified,
     17            copied or distributed unless embedded on a Texas Instruments microcontroller
     18            or used solely and exclusively in conjunction with a Texas Instruments radio
     19            frequency transceiver, which is integrated into your product.  Other than for
     20            the foregoing purpose, you may not use, reproduce, copy, prepare derivative
     21            works of, modify, distribute, perform, display or sell this Software and/or
     22            its documentation for any purpose.
     23          
     24            YOU FURTHER ACKNOWLEDGE AND AGREE THAT THE SOFTWARE AND DOCUMENTATION ARE
     25            PROVIDED "AS IS" WITHOUT WARRANTY OF ANY KIND, EITHER EXPRESS OR IMPLIED,
     26            INCLUDING WITHOUT LIMITATION, ANY WARRANTY OF MERCHANTABILITY, TITLE,
     27            NON-INFRINGEMENT AND FITNESS FOR A PARTICULAR PURPOSE. IN NO EVENT SHALL
     28            TEXAS INSTRUMENTS OR ITS LICENSORS BE LIABLE OR OBLIGATED UNDER CONTRACT,
     29            NEGLIGENCE, STRICT LIABILITY, CONTRIBUTION, BREACH OF WARRANTY, OR OTHER
     30            LEGAL EQUITABLE THEORY ANY DIRECT OR INDIRECT DAMAGES OR EXPENSES
     31            INCLUDING BUT NOT LIMITED TO ANY INCIDENTAL, SPECIAL, INDIRECT, PUNITIVE
     32            OR CONSEQUENTIAL DAMAGES, LOST PROFITS OR LOST DATA, COST OF PROCUREMENT
     33            OF SUBSTITUTE GOODS, TECHNOLOGY, SERVICES, OR ANY CLAIMS BY THIRD PARTIES
     34            (INCLUDING BUT NOT LIMITED TO ANY DEFENSE THEREOF), OR OTHER SIMILAR COSTS.
     35          
     36            Should you have any questions regarding your right to use this Software,
     37            contact Texas Instruments Incorporated at www.TI.com.
     38          **************************************************************************************************/
     39          
     40          /*********************************************************************
     41           * INCLUDES
     42           */
     43          #include "ZComDef.h"
     44          #include "AF.h"
     45          #include "APS.h"
     46          #include "zcl.h"
     47          #include "zcl_general.h"
     48          
     49          #if defined ( INTER_PAN )
     50            #include "stub_aps.h"
     51          #endif
     52             
     53          #ifdef BDB_REPORTING
     54            #include "bdb_Reporting.h"
     55          #endif
     56          #include "bdb_interface.h"
     57          
     58          #include "zcl_green_power.h"
     59          
     60             
     61          /*********************************************************************
     62           * MACROS
     63           */
     64          /*** Frame Control ***/
     65          #define zcl_FCType( a )               ( (a) & ZCL_FRAME_CONTROL_TYPE )
     66          #define zcl_FCManuSpecific( a )       ( (a) & ZCL_FRAME_CONTROL_MANU_SPECIFIC )
     67          #define zcl_FCDirection( a )          ( (a) & ZCL_FRAME_CONTROL_DIRECTION )
     68          #define zcl_FCDisableDefaultRsp( a )  ( (a) & ZCL_FRAME_CONTROL_DISABLE_DEFAULT_RSP )
     69          
     70          /*** Attribute Access Control ***/
     71          #define zcl_AccessCtrlRead( a )       ( (a) & ACCESS_CONTROL_READ )
     72          #define zcl_AccessCtrlWrite( a )      ( (a) & ACCESS_CONTROL_WRITE )
     73          #define zcl_AccessCtrlCmd( a )        ( (a) & ACCESS_CONTROL_CMD )
     74          #define zcl_AccessCtrlAuthRead( a )   ( (a) & ACCESS_CONTROL_AUTH_READ )
     75          #define zcl_AccessCtrlAuthWrite( a )  ( (a) & ACCESS_CONTROL_AUTH_WRITE )
     76          #define zcl_AccessClient( a )         ( (a) & ACCESS_CLIENT )
     77          
     78          #define zclParseCmd( a, b )           zclCmdTable[(a)].pfnParseInProfile( (b) )
     79          #define zclProcessCmd( a, b )         zclCmdTable[(a)].pfnProcessInProfile( (b) )
     80          
     81          #define zcl_DefaultRspCmd( zclHdr )   ( zcl_ProfileCmd( (zclHdr).fc.type )     && \
     82                                                  (zclHdr).fc.manuSpecific == 0          && \
     83                                                  (zclHdr).commandID == ZCL_CMD_DEFAULT_RSP )
     84          
     85          // Commands that have corresponding responses (ZCL_CMD_WRITE_NO_RSP, does not have response, but must not send default response)
     86          #define CMD_HAS_RSP( cmd )            ( (cmd) == ZCL_CMD_READ                   || \
     87                                                  (cmd) == ZCL_CMD_WRITE                  || \
     88                                                  (cmd) == ZCL_CMD_WRITE_UNDIVIDED        || \
     89                                                  (cmd) == ZCL_CMD_WRITE_NO_RSP           || \
     90                                                  (cmd) == ZCL_CMD_CONFIG_REPORT          || \
     91                                                  (cmd) == ZCL_CMD_READ_REPORT_CFG        || \
     92                                                  (cmd) == ZCL_CMD_DISCOVER_ATTRS         || \
     93                                                  (cmd) == ZCL_CMD_DISCOVER_CMDS_RECEIVED || \
     94                                                  (cmd) == ZCL_CMD_DISCOVER_CMDS_GEN      || \
     95                                                  (cmd) == ZCL_CMD_DISCOVER_ATTRS_EXT     || \
     96                                                  (cmd) == ZCL_CMD_DEFAULT_RSP ) // exception
     97          #define  ZCL_VALID_MIN_HEADER_LEN  3
     98          
     99          /*********************************************************************
    100           * CONSTANTS
    101           */
    102          
    103          /*********************************************************************
    104           * TYPEDEFS
    105           */
    106          typedef struct zclLibPlugin
    107          {
    108            struct zclLibPlugin *next;
    109            uint16              startClusterID;    // starting cluster ID
    110            uint16              endClusterID;      // ending cluster ID
    111            zclInHdlr_t         pfnIncomingHdlr;    // function to handle incoming message
    112          } zclLibPlugin_t;
    113          
    114          // Command record list
    115          typedef struct zclCmdRecsList
    116          {
    117            struct zclCmdRecsList *pNext;
    118            uint8                 endpoint;
    119            uint8                 numCommands;
    120            CONST zclCommandRec_t *pCmdRecs;
    121          } zclCmdRecsList_t;
    122          
    123          
    124          // Cluster option list item
    125          typedef struct zclClusterOptionList
    126          {
    127            struct zclClusterOptionList *next;
    128            uint8                       endpoint;   // Used to link it into the endpoint descriptor
    129            uint8                       numOptions; // Number of the following records
    130            zclOptionRec_t              *options;   // option records
    131          } zclClusterOptionList;
    132          
    133          typedef void *(*zclParseInProfileCmd_t)( zclParseCmd_t *pCmd );
    134          typedef uint8 (*zclProcessInProfileCmd_t)( zclIncoming_t *pInMsg );
    135          
    136          typedef struct
    137          {
    138            zclParseInProfileCmd_t   pfnParseInProfile;
    139            zclProcessInProfileCmd_t pfnProcessInProfile;
    140          } zclCmdItems_t;
    141          
    142          
    143          // List record for external handler for unhandled ZCL Foundation commands/rsps
    144          typedef struct zclExternalFoundationHandlerList
    145          {
    146              struct zclExternalFoundationHandlerList *next;
    147              uint8 zcl_ExternalTaskID;
    148              uint8 zcl_ExternalEndPoint;
    149          } zclExternalFoundationHandlerList;
    150          
    151          
    152          /*********************************************************************
    153           * GLOBAL VARIABLES
    154           */
    155          
    156          #if !defined ( ZCL_STANDALONE )

   \                                 In  segment XDATA_Z, align 1, keep-with-next
    157            uint8 zcl_TaskID;
   \                     zcl_TaskID:
   \   000000                DS 1
   \   000001                REQUIRE __INIT_XDATA_Z
    158          #endif
    159          
    160          // The Application should register its attribute data validation function

   \                                 In  segment XDATA_Z, align 1, keep-with-next
    161          zclValidateAttrData_t zcl_ValidateAttrDataCB = (zclValidateAttrData_t)NULL;
   \                     zcl_ValidateAttrDataCB:
   \   000000                DS 2
   \   000002                REQUIRE __INIT_XDATA_Z
    162          
    163          // ZCL Sequence number
    164          //uint8 zcl_SeqNum = 0x00;  //Not longer used, refer to bdb_getZCLFrameCounter() in bdb_interface.h

   \                                 In  segment XDATA_Z, align 1, keep-with-next
    165          uint8 zcl_InSeqNum = 0x00;
   \                     zcl_InSeqNum:
   \   000000                DS 1
   \   000001                REQUIRE __INIT_XDATA_Z
    166          

   \                                 In  segment XDATA_I, align 1, keep-with-next
    167          uint8 zcl_radius = AF_DEFAULT_RADIUS;
   \                     zcl_radius:
   \   000000                DS 1
   \   000001                REQUIRE `?<Initializer for zcl_radius>`
   \   000001                REQUIRE __INIT_XDATA_I
    168          

   \                                 In  segment XDATA_Z, align 1, keep-with-next
    169          static uint8 savedZCLTransSeqNum = 0;
   \                     savedZCLTransSeqNum:
   \   000000                DS 1
   \   000001                REQUIRE __INIT_XDATA_Z
    170          
    171          /*********************************************************************
    172           * EXTERNAL VARIABLES
    173           */
    174          
    175          /*********************************************************************
    176           * EXTERNAL FUNCTIONS
    177           */
    178          
    179          /*********************************************************************
    180           * LOCAL VARIABLES
    181           */

   \                                 In  segment XDATA_Z, align 1, keep-with-next
    182          static zclLibPlugin_t *plugins = (zclLibPlugin_t *)NULL;
   \                     plugins:
   \   000000                DS 2
   \   000002                REQUIRE __INIT_XDATA_Z
    183          
    184          #if defined ( ZCL_DISCOVER )

   \                                 In  segment XDATA_Z, align 1, keep-with-next
    185            static zclCmdRecsList_t *gpCmdList = (zclCmdRecsList_t *)NULL;
   \                     gpCmdList:
   \   000000                DS 2
   \   000002                REQUIRE __INIT_XDATA_Z
    186          #endif
    187          

   \                                 In  segment XDATA_Z, align 1, keep-with-next
    188          static zclAttrRecsList *attrList = (zclAttrRecsList *)NULL;
   \                     attrList:
   \   000000                DS 2
   \   000002                REQUIRE __INIT_XDATA_Z

   \                                 In  segment XDATA_Z, align 1, keep-with-next
    189          static zclClusterOptionList *clusterOptionList = (zclClusterOptionList *)NULL;
   \                     clusterOptionList:
   \   000000                DS 2
   \   000002                REQUIRE __INIT_XDATA_Z
    190          

   \                                 In  segment XDATA_Z, align 1, keep-with-next
    191          static afIncomingMSGPacket_t *rawAFMsg = (afIncomingMSGPacket_t *)NULL;
   \                     rawAFMsg:
   \   000000                DS 2
   \   000002                REQUIRE __INIT_XDATA_Z
    192          
    193          #if !defined ( ZCL_STANDALONE )

   \                                 In  segment XDATA_Z, align 1, keep-with-next
    194          static zclExternalFoundationHandlerList *externalEndPointHandlerList = (zclExternalFoundationHandlerList *)NULL;
   \                     externalEndPointHandlerList:
   \   000000                DS 2
   \   000002                REQUIRE __INIT_XDATA_Z
    195          #endif
    196          
    197          /*********************************************************************
    198           * LOCAL FUNCTIONS
    199           */
    200          static uint8 *zclBuildHdr( zclFrameHdr_t *hdr, uint8 *pData );
    201          static uint8 zclCalcHdrSize( zclFrameHdr_t *hdr );
    202          static zclLibPlugin_t *zclFindPlugin( uint16 clusterID, uint16 profileID );
    203          
    204          #if !defined ( ZCL_STANDALONE )
    205          static uint8 zcl_addExternalFoundationHandler( uint8 taskId, uint8 endPointId );
    206          static uint8 zcl_getExternalFoundationHandler( afIncomingMSGPacket_t *pInMsg );
    207          #endif // !defined ( ZCL_STANDALONE )
    208          
    209          #if defined ( ZCL_DISCOVER )
    210            static zclCmdRecsList_t *zclFindCmdRecsList( uint8 endpoint );
    211          #endif
    212          
    213          zclAttrRecsList *zclFindAttrRecsList( uint8 endpoint );
    214          static zclOptionRec_t *zclFindClusterOption( uint8 endpoint, uint16 clusterID );
    215          static uint8 zclGetClusterOption( uint8 endpoint, uint16 clusterID );
    216          static void zclSetSecurityOption( uint8 endpoint, uint16 clusterID, uint8 enable );
    217          
    218          static uint8 zcl_DeviceOperational( uint8 srcEP, uint16 clusterID, uint8 frameType, uint8 cmd, uint16 profileID );
    219          
    220          #if defined ( ZCL_READ ) || defined ( ZCL_WRITE )
    221          static zclReadWriteCB_t zclGetReadWriteCB( uint8 endpoint );
    222          static zclAuthorizeCB_t zclGetAuthorizeCB( uint8 endpoint );
    223          #endif // ZCL_READ || ZCL_WRITE
    224          
    225          #ifdef ZCL_READ
    226          ZStatus_t zclReadAttrData( uint8 *pAttrData, zclAttrRec_t *pAttr, uint16 *pDataLen );
    227          static uint16 zclGetAttrDataLengthUsingCB( uint8 endpoint, uint16 clusterID, uint16 attrId );
    228          static ZStatus_t zclReadAttrDataUsingCB( uint8 endpoint, uint16 clusterId, uint16 attrId,
    229                                                   uint8 *pAttrData, uint16 *pDataLen );
    230          static ZStatus_t zclAuthorizeRead( uint8 endpoint, afAddrType_t *srcAddr, zclAttrRec_t *pAttr );
    231          static void *zclParseInReadRspCmd( zclParseCmd_t *pCmd );
    232          static uint8 zclProcessInReadCmd( zclIncoming_t *pInMsg );
    233          #endif // ZCL_READ
    234          
    235          #ifdef ZCL_WRITE
    236          static ZStatus_t zclWriteAttrData( uint8 endpoint, afAddrType_t *srcAddr,
    237                                             zclAttrRec_t *pAttr, zclWriteRec_t *pWriteRec );
    238          static ZStatus_t zclWriteAttrDataUsingCB( uint8 endpoint, afAddrType_t *srcAddr,
    239                                                    zclAttrRec_t *pAttr, uint8 *pAttrData );
    240          static ZStatus_t zclAuthorizeWrite( uint8 endpoint, afAddrType_t *srcAddr, zclAttrRec_t *pAttr );
    241          static void *zclParseInWriteRspCmd( zclParseCmd_t *pCmd );
    242          static uint8 zclProcessInWriteCmd( zclIncoming_t *pInMsg );
    243          static uint8 zclProcessInWriteUndividedCmd( zclIncoming_t *pInMsg );
    244          #endif // ZCL_WRITE
    245          
    246          #ifdef ZCL_REPORT_CONFIGURING_DEVICE
    247          static void *zclParseInConfigReportRspCmd( zclParseCmd_t *pCmd );
    248          static void *zclParseInReadReportCfgRspCmd( zclParseCmd_t *pCmd );
    249          #endif
    250          
    251          static void *zclParseInDefaultRspCmd( zclParseCmd_t *pCmd );
    252          
    253          #ifdef ZCL_DISCOVER
    254          static uint8 zclFindNextCmdRec( uint8 endpoint, uint16 clusterID, uint8 commandID, uint8 direction, uint8 *pCmdID, zclCommandRec_t *pCmd );
    255          static uint8 zclFindNextAttrRec( uint8 endpoint, uint16 clusterID, uint8 direction, uint16 *attrId, zclAttrRec_t *pAttr );
    256          static void *zclParseInDiscCmdsRspCmd( zclParseCmd_t *pCmd );
    257          static void *zclParseInDiscAttrsRspCmd( zclParseCmd_t *pCmd );
    258          static void *zclParseInDiscAttrsExtRspCmd( zclParseCmd_t *pCmd );
    259          static uint8 zclProcessInDiscCmd( zclIncoming_t *pInMsg );
    260          static uint8 zclProcessInDiscAttrs( zclIncoming_t *pInMsg );
    261          static void zclProcessInDiscAttrsCmd( zclIncoming_t *pInMsg, zclDiscoverAttrsCmd_t *pDiscoverCmd, uint8 attrLenBuf );
    262          static void zclProcessInDiscAttrsExtCmd( zclIncoming_t *pInMsg, zclDiscoverAttrsCmd_t *pDiscoverCmd, uint8 attrLenBuf );
    263          #endif // ZCL_DISCOVER
    264          
    265          /*********************************************************************
    266           * Parse Profile Command Function Table
    267           */
    268          

   \                                 In  segment CODE_C, align 1
    269          static CONST zclCmdItems_t zclCmdTable[] =
   \                     zclCmdTable:
   \   000000   ....         DW `??zclParseInReadCmd::?relay`
   \   000002   ....         DW `??zclProcessInReadCmd::?relay`
   \   000004   ....         DW `??zclParseInReadRspCmd::?relay`
   \   000006   ....         DW `??zcl_HandleExternal::?relay`
   \   000008   ....         DW `??zclParseInWriteCmd::?relay`
   \   00000A   ....         DW `??zclProcessInWriteCmd::?relay`
   \   00000C   ....         DW `??zclParseInWriteCmd::?relay`
   \   00000E   ....         DW `??zclProcessInWriteUndividedCmd::?relay`
   \   000010   ....         DW `??zclParseInWriteRspCmd::?relay`
   \   000012   ....         DW `??zcl_HandleExternal::?relay`
   \   000014   ....         DW `??zclParseInWriteCmd::?relay`
   \   000016   ....         DW `??zclProcessInWriteCmd::?relay`
   \   000018   ....         DW `??zclParseInConfigReportCmd::?relay`
   \   00001A   ....         DW `??zcl_HandleExternal::?relay`
   \   00001C   0000         DW 0H
   \   00001E   0000         DW 0H
   \   000020   ....         DW `??zclParseInReadReportCfgCmd::?relay`
   \   000022   ....         DW `??zcl_HandleExternal::?relay`
   \   000024   0000         DW 0H
   \   000026   0000         DW 0H
   \   000028   0000         DW 0H
   \   00002A   0000         DW 0H
   \   00002C   ....         DW `??zclParseInDefaultRspCmd::?relay`
   \   00002E   ....         DW `??zcl_HandleExternal::?relay`
   \   000030   ....         DW `??zclParseInDiscAttrsCmd::?relay`
   \   000032   ....         DW `??zclProcessInDiscAttrs::?relay`
   \   000034   ....         DW `??zclParseInDiscAttrsRspCmd::?relay`
   \   000036   ....         DW `??zcl_HandleExternal::?relay`
   \   000038   0000         DW 0H
   \   00003A   0000         DW 0H
   \   00003C   0000         DW 0H
   \   00003E   0000         DW 0H
   \   000040   0000         DW 0H
   \   000042   0000         DW 0H
   \   000044   ....         DW `??zclParseInDiscCmdsCmd::?relay`
   \   000046   ....         DW `??zclProcessInDiscCmd::?relay`
   \   000048   ....         DW `??zclParseInDiscCmdsRspCmd::?relay`
   \   00004A   ....         DW `??zcl_HandleExternal::?relay`
   \   00004C   ....         DW `??zclParseInDiscCmdsCmd::?relay`
   \   00004E   ....         DW `??zclProcessInDiscCmd::?relay`
   \   000050   ....         DW `??zclParseInDiscCmdsRspCmd::?relay`
   \   000052   ....         DW `??zcl_HandleExternal::?relay`
   \   000054   ....         DW `??zclParseInDiscAttrsCmd::?relay`
   \   000056   ....         DW `??zclProcessInDiscAttrs::?relay`
   \   000058   ....         DW `??zclParseInDiscAttrsExtRspCmd::?relay`
   \   00005A   ....         DW `??zcl_HandleExternal::?relay`
    270          {
    271          #ifdef ZCL_READ
    272            /* ZCL_CMD_READ */                { zclParseInReadCmd,             zclProcessInReadCmd             },
    273            /* ZCL_CMD_READ_RSP */            { zclParseInReadRspCmd,          zcl_HandleExternal              },
    274          #else
    275            /* ZCL_CMD_READ */                { (zclParseInProfileCmd_t)NULL,  (zclProcessInProfileCmd_t)NULL  },
    276            /* ZCL_CMD_READ_RSP */            { (zclParseInProfileCmd_t)NULL,  (zclProcessInProfileCmd_t)NULL  },
    277          #endif // ZCL_READ
    278          
    279          #ifdef ZCL_WRITE
    280            /* ZCL_CMD_WRITE */               { zclParseInWriteCmd,            zclProcessInWriteCmd            },
    281            /* ZCL_CMD_WRITE_UNDIVIDED */     { zclParseInWriteCmd,            zclProcessInWriteUndividedCmd   },
    282            /* ZCL_CMD_WRITE_RSP */           { zclParseInWriteRspCmd,         zcl_HandleExternal              },
    283            /* ZCL_CMD_WRITE_NO_RSP */        { zclParseInWriteCmd,            zclProcessInWriteCmd            },
    284          #else
    285            /* ZCL_CMD_WRITE */               { (zclParseInProfileCmd_t)NULL,  (zclProcessInProfileCmd_t)NULL  },
    286            /* ZCL_CMD_WRITE_UNDIVIDED */     { (zclParseInProfileCmd_t)NULL,  (zclProcessInProfileCmd_t)NULL  },
    287            /* ZCL_CMD_WRITE_RSP */           { (zclParseInProfileCmd_t)NULL,  (zclProcessInProfileCmd_t)NULL  },
    288            /* ZCL_CMD_WRITE_NO_RSP */        { (zclParseInProfileCmd_t)NULL,  (zclProcessInProfileCmd_t)NULL  },
    289          #endif // ZCL_WRITE
    290          
    291          #ifdef ZCL_REPORTING_DEVICE
    292              /* ZCL_CMD_CONFIG_REPORT */       { zclParseInConfigReportCmd,     zcl_HandleExternal              },
    293          #else
    294              /* ZCL_CMD_CONFIG_REPORT */       { (zclParseInProfileCmd_t)NULL,  (zclProcessInProfileCmd_t)NULL  },
    295          #endif
    296          
    297          #ifdef ZCL_REPORT_CONFIGURING_DEVICE
    298              /* ZCL_CMD_CONFIG_REPORT_RSP */   { zclParseInConfigReportRspCmd,  zcl_HandleExternal              },
    299          #else
    300              /* ZCL_CMD_CONFIG_REPORT_RSP */   { (zclParseInProfileCmd_t)NULL,  (zclProcessInProfileCmd_t)NULL  },
    301          #endif
    302          
    303          #ifdef ZCL_REPORTING_DEVICE
    304              /* ZCL_CMD_READ_REPORT_CFG */     { zclParseInReadReportCfgCmd,    zcl_HandleExternal              },
    305          #else
    306              /* ZCL_CMD_READ_REPORT_CFG */     { (zclParseInProfileCmd_t)NULL,  (zclProcessInProfileCmd_t)NULL  },
    307          #endif
    308          
    309          #ifdef ZCL_REPORT_CONFIGURING_DEVICE
    310              /* ZCL_CMD_READ_REPORT_CFG_RSP */ { zclParseInReadReportCfgRspCmd, zcl_HandleExternal              },
    311          #else
    312              /* ZCL_CMD_READ_REPORT_CFG_RSP */ { (zclParseInProfileCmd_t)NULL,  (zclProcessInProfileCmd_t)NULL  },
    313          #endif
    314          
    315          #ifdef ZCL_REPORT_DESTINATION_DEVICE
    316              /* ZCL_CMD_REPORT */              { zclParseInReportCmd,           zcl_HandleExternal              },
    317          #else
    318              /* ZCL_CMD_REPORT */              { (zclParseInProfileCmd_t)NULL,  (zclProcessInProfileCmd_t)NULL  },
    319          #endif
    320          
    321            /* ZCL_CMD_DEFAULT_RSP */         { zclParseInDefaultRspCmd,       zcl_HandleExternal              },
    322          
    323          #ifdef ZCL_DISCOVER
    324            /* ZCL_CMD_DISCOVER_ATTRS */                { zclParseInDiscAttrsCmd,         zclProcessInDiscAttrs           },
    325            /* ZCL_CMD_DISCOVER_ATTRS_RSP */            { zclParseInDiscAttrsRspCmd,      zcl_HandleExternal              },
    326            /* *not supported* READ_ATTRS_STRCT */      { NULL,                           (zclProcessInProfileCmd_t)NULL  },
    327            /* *not supported* WRITE_ATTRS_STRCT */     { NULL,                           (zclProcessInProfileCmd_t)NULL  },
    328            /* *not supported* WRITE_ATTRS_STRCT_RSP */ { NULL,                           (zclProcessInProfileCmd_t)NULL  },
    329            /* ZCL_CMD_DISCOVER_CMDS_RECEIVED */        { zclParseInDiscCmdsCmd,          zclProcessInDiscCmd             },
    330            /* ZCL_CMD_DISCOVER_CMDS_RECEIVED_RSP */    { zclParseInDiscCmdsRspCmd,       zcl_HandleExternal              },
    331            /* ZCL_CMD_DISCOVER_CMDS_GEN */             { zclParseInDiscCmdsCmd,          zclProcessInDiscCmd             },
    332            /* ZCL_CMD_DISCOVER_CMDS_GEN_RSP */         { zclParseInDiscCmdsRspCmd,       zcl_HandleExternal              },
    333            /* ZCL_CMD_DISCOVER_ATTRS_EXT */            { zclParseInDiscAttrsCmd,         zclProcessInDiscAttrs           },
    334            /* ZCL_CMD_DISCOVER_ATTRS_EXT_RSP */        { zclParseInDiscAttrsExtRspCmd,   zcl_HandleExternal              },
    335          #else
    336            /* ZCL_CMD_DISCOVER_ATTRS */                { (zclParseInProfileCmd_t)NULL,    (zclProcessInProfileCmd_t)NULL  },
    337            /* ZCL_CMD_DISCOVER_ATTRS_RSP */            { (zclParseInProfileCmd_t)NULL,   (zclProcessInProfileCmd_t)NULL  },
    338            /* *not supported* READ_ATTRS_STRCT */      { (zclParseInProfileCmd_t)NULL,   (zclProcessInProfileCmd_t)NULL  },
    339            /* *not supported* WRITE_ATTRS_STRCT */     { (zclParseInProfileCmd_t)NULL,   (zclProcessInProfileCmd_t)NULL  },
    340            /* *not supported* WRITE_ATTRS_STRCT_RSP */ { (zclParseInProfileCmd_t)NULL,   (zclProcessInProfileCmd_t)NULL  },
    341            /* ZCL_CMD_DISCOVER_CMDS_RECEIVED */        { (zclParseInProfileCmd_t)NULL,   (zclProcessInProfileCmd_t)NULL  },
    342            /* ZCL_CMD_DISCOVER_CMDS_RECEIVED_RSP */    { (zclParseInProfileCmd_t)NULL,   (zclProcessInProfileCmd_t)NULL  },
    343            /* ZCL_CMD_DISCOVER_CMDS_GEN */             { (zclParseInProfileCmd_t)NULL,   (zclProcessInProfileCmd_t)NULL  },
    344            /* ZCL_CMD_DISCOVER_CMDS_GEN_RSP */         { (zclParseInProfileCmd_t)NULL,   (zclProcessInProfileCmd_t)NULL  },
    345            /* ZCL_CMD_DISCOVER_ATTRS_EXT */            { (zclParseInProfileCmd_t)NULL,   (zclProcessInProfileCmd_t)NULL  },
    346            /* ZCL_CMD_DISCOVER_ATTRS_EXT_RSP */        { (zclParseInProfileCmd_t)NULL,   (zclProcessInProfileCmd_t)NULL  },
    347          #endif // ZCL_DISCOVER
    348          };
    349          
    350          /*********************************************************************
    351           * PUBLIC FUNCTIONS
    352           *********************************************************************/
    353          
    354          #if !defined ( ZCL_STANDALONE )
    355          /*********************************************************************
    356           * @fn          zcl_Init
    357           *
    358           * @brief       Initialization function for the zcl layer.
    359           *
    360           * @param       task_id - ZCL task id
    361           *
    362           * @return      none
    363           */

   \                                 In  segment BANKED_CODE, align 1, keep-with-next
    364          void zcl_Init( uint8 task_id )
   \                     zcl_Init:
    365          {
   \   000000   C082         PUSH      DPL
   \   000002   C083         PUSH      DPH
   \   000004                ; Saved register size: 2
   \   000004                ; Auto size: 0
    366            zcl_TaskID = task_id;
   \   000004   E9           MOV       A,R1
   \   000005   90....       MOV       DPTR,#zcl_TaskID
   \   000008   F0           MOVX      @DPTR,A
    367          }
   \   000009   02....       LJMP      ?Subroutine0 & 0xFFFF

   \                                 In  segment BANKED_CODE, align 1, keep-with-next
   \                     ?Subroutine0:
   \   000000   D083         POP       DPH
   \   000002   D082         POP       DPL
   \   000004   02....       LJMP      ?BRET
    368          #endif
    369          
    370          #if !defined ( ZCL_STANDALONE )
    371          /*********************************************************************
    372           * @fn          zcl_event_loop
    373           *
    374           * @brief       Event Loop Processor for zcl.
    375           *
    376           * @param       task_id - task id
    377           * @param       events - event bitmap
    378           *
    379           * @return      unprocessed events
    380           */

   \                                 In  segment BANKED_CODE, align 1, keep-with-next
    381          uint16 zcl_event_loop( uint8 task_id, uint16 events )
   \                     zcl_event_loop:
    382          {
   \   000000                REQUIRE ?V0
   \   000000                REQUIRE ?V1
   \   000000                REQUIRE ?V2
   \   000000                REQUIRE ?V3
   \   000000   74F4         MOV       A,#-0xc
   \   000002   12....       LCALL     ?BANKED_ENTER_XDATA
   \   000005                ; Saved register size: 12
   \   000005                ; Auto size: 0
   \   000005   8A..         MOV       ?V0,R2
   \   000007   8B..         MOV       ?V1,R3
    383            uint8 *msgPtr;
    384          
    385            (void)task_id;  // Intentionally unreferenced parameter
    386          
    387            if ( events & SYS_EVENT_MSG )
   \   000009   EB           MOV       A,R3
   \   00000A   5480         ANL       A,#0x80
   \   00000C   6054         JZ        ??zcl_event_loop_0
    388            {
    389              msgPtr = osal_msg_receive( zcl_TaskID );
   \   00000E                ; Setup parameters for call to function osal_msg_receive
   \   00000E   800E         SJMP      ??zcl_event_loop_1
    390              while ( msgPtr != NULL )
    391              {
    392                uint8 dealloc = TRUE;
    393          
    394                if ( *msgPtr == AF_INCOMING_MSG_CMD )
    395                {
    396                  zcl_ProcessMessageMSG( (afIncomingMSGPacket_t *)msgPtr );
   \                     ??zcl_event_loop_2:
   \   000010                ; Setup parameters for call to function zcl_ProcessMessageMSG
   \   000010   EE           MOV       A,R6
   \   000011   FA           MOV       R2,A
   \   000012   EF           MOV       A,R7
   \   000013   FB           MOV       R3,A
   \   000014   12....       LCALL     `??zcl_ProcessMessageMSG::?relay`; Banked call to: zcl_ProcessMessageMSG
    397                }
    398                else if ( *msgPtr == ZDO_STATE_CHANGE )
    399                {
    400                  // ignore ZDO_STATE_CHANGE in zcl
    401                }
    402                else
    403                {
    404                  uint8 taskID;
    405                  taskID = zcl_getExternalFoundationHandler( (afIncomingMSGPacket_t *)msgPtr );
    406          
    407                  if ( taskID != TASK_NO_TASK )
    408                  {
    409                    // send it to another task to process.
    410                    osal_msg_send( taskID, msgPtr );
    411                    dealloc = FALSE;
    412                  }
    413                }
    414          
    415                // Release the memory
    416                if ( dealloc )
    417                {
    418                  osal_msg_deallocate( msgPtr );
   \                     ??zcl_event_loop_3:
   \   000017                ; Setup parameters for call to function osal_msg_deallocate
   \   000017   EE           MOV       A,R6
   \   000018   FA           MOV       R2,A
   \   000019   EF           MOV       A,R7
   \   00001A   FB           MOV       R3,A
   \   00001B   12....       LCALL     `??osal_msg_deallocate::?relay`; Banked call to: osal_msg_deallocate
    419                }
    420          
    421                // Next
    422                msgPtr = osal_msg_receive( zcl_TaskID );
   \                     ??zcl_event_loop_1:
   \   00001E                ; Setup parameters for call to function osal_msg_receive
   \   00001E   90....       MOV       DPTR,#zcl_TaskID
   \   000021   E0           MOVX      A,@DPTR
   \   000022   F9           MOV       R1,A
   \   000023   12....       LCALL     `??osal_msg_receive::?relay`; Banked call to: osal_msg_receive
   \   000026   8A..         MOV       ?V2,R2
   \   000028   8B..         MOV       ?V3,R3
   \   00002A   AE..         MOV       R6,?V2
   \   00002C   AF..         MOV       R7,?V3
   \   00002E   EE           MOV       A,R6
   \   00002F   4F           ORL       A,R7
   \   000030   6027         JZ        ??zcl_event_loop_4
   \   000032   8E82         MOV       DPL,R6
   \   000034   8F83         MOV       DPH,R7
   \   000036   E0           MOVX      A,@DPTR
   \   000037   F8           MOV       R0,A
   \   000038   741A         MOV       A,#0x1a
   \   00003A   68           XRL       A,R0
   \   00003B   60D3         JZ        ??zcl_event_loop_2
   \   00003D   74D1         MOV       A,#-0x2f
   \   00003F   68           XRL       A,R0
   \   000040   60D5         JZ        ??zcl_event_loop_3
   \   000042                ; Setup parameters for call to function zcl_getExternalFoundationHandler
   \   000042   EE           MOV       A,R6
   \   000043   FA           MOV       R2,A
   \   000044   EF           MOV       A,R7
   \   000045   FB           MOV       R3,A
   \   000046   12....       LCALL     `??zcl_getExternalFoundationHandler::?relay`; Banked call to: zcl_getExternalFoundationHandler
   \   000049   E9           MOV       A,R1
   \   00004A   F9           MOV       R1,A
   \   00004B   74FF         MOV       A,#-0x1
   \   00004D   69           XRL       A,R1
   \   00004E   60C7         JZ        ??zcl_event_loop_3
   \   000050                ; Setup parameters for call to function osal_msg_send
   \   000050   EE           MOV       A,R6
   \   000051   FA           MOV       R2,A
   \   000052   EF           MOV       A,R7
   \   000053   FB           MOV       R3,A
   \   000054   12....       LCALL     `??osal_msg_send::?relay`; Banked call to: osal_msg_send
   \   000057   80C5         SJMP      ??zcl_event_loop_1
    423              }
    424          
    425              // return unprocessed events
    426              return (events ^ SYS_EVENT_MSG);
   \                     ??zcl_event_loop_4:
   \   000059   AA..         MOV       R2,?V0
   \   00005B   E5..         MOV       A,?V1
   \   00005D   6480         XRL       A,#0x80
   \   00005F   FB           MOV       R3,A
   \   000060   8004         SJMP      ??zcl_event_loop_5
    427            }
    428          
    429          #if !defined (DISABLE_GREENPOWER_BASIC_PROXY) && (ZG_BUILD_RTR_TYPE)
    430            if ( events & ZCL_DATABUF_SEND )
    431            {
    432              gpNotificationMsg_t *gpNotification = NULL;
    433              gpCmdPayloadMsg_t *pCmdPayloadMsgCurr = NULL;
    434              gpd_ID_t gpd_ID;
    435              uint8 *pgpdid;
    436              uint8 entry[PROXY_TBL_ENTRY_LEN];
    437              uint8 appId;
    438              uint8 nwkSeqNum;
    439              uint8 apsSecNum;
    440              uint16 nwkAddr;
    441              
    442              gpNotification = gp_GetHeadNotificationMsg( );
    443              
    444              if ( gpNotification == NULL )
    445              {
    446                return 0;
    447              }
    448              
    449              pCmdPayloadMsgCurr = ( gpCmdPayloadMsg_t* ) gpNotification->pMsg ;
    450              appId = PROXY_TBL_GET_APPLICTION_ID((uint16)*pCmdPayloadMsgCurr->pMsg);
    451              
    452              // To save the NIB nwk sequense number and use the GP alias nwk sequence number
    453              // for the GP notification
    454              nwkSeqNum = _NIB.SequenceNum;
    455              _NIB.SequenceNum = pCmdPayloadMsgCurr->secNum;
    456              
    457              // To save the NIB nwk address and use the GP alias nwk address for the GP notification
    458              nwkAddr = _NIB.nwkDevAddress;
    459              
    460              if( appId == GP_OPT_APP_ID_GPD )
    461              {
    462                pgpdid = pCmdPayloadMsgCurr->pMsg + sizeof( uint16 );
    463                
    464                osal_memcpy( &_NIB.nwkDevAddress, pgpdid, sizeof(uint16) );
    465                gpd_ID.AppID = GP_OPT_APP_ID_GPD;
    466                osal_memcpy( &gpd_ID.GPDId.SrcID, pgpdid, sizeof( uint32 ) );
    467              }
    468              else if( appId == GP_OPT_APP_ID_IEEE )
    469              {
    470                pgpdid = pCmdPayloadMsgCurr->pMsg + Z_EXTADDR_LEN;
    471                
    472                osal_revmemcpy( &_NIB.nwkDevAddress,(pCmdPayloadMsgCurr->pMsg + Z_EXTADDR_LEN), sizeof(uint16) );
    473                
    474                gpd_ID.AppID = GP_OPT_APP_ID_IEEE;
    475          
    476                pgpdid = pCmdPayloadMsgCurr->pMsg + sizeof( uint16 );
    477                osal_memcpy( gpd_ID.GPDId.GPDExtAddr, pgpdid, Z_EXTADDR_LEN );
    478              }
    479              
    480              gp_getProxyTableByGpId(&gpd_ID, entry, NULL);
    481          
    482              if ( PROXY_TBL_GET_ASSIGNED_ALIAS( entry[PROXY_TBL_ENTRY_OPT + 1] ) )
    483              {
    484                _NIB.nwkDevAddress = 0;
    485                osal_memcpy( (uint8*)&_NIB.nwkDevAddress, &entry[PROXY_TBL_ENTRY_ALIAS], sizeof(uint16));
    486              }
    487              
    488              // save aps sequence number
    489              apsSecNum = APS_Counter;
    490              APS_Counter = pCmdPayloadMsgCurr->secNum;
    491              
    492              // Set nwk radius for zcl frame
    493              if ( entry[PROXY_TBL_ENTRY_GRP_RAD] != 0xFF)
    494              {
    495                zcl_radius =  entry[PROXY_TBL_ENTRY_GRP_RAD];
    496              }
    497              
    498              zcl_SendCommand( GREEN_POWER_INTERNAL_ENDPOINT, &gpNotification->addr, ZCL_CLUSTER_ID_GREEN_POWER,
    499                                    COMMAND_GP_NOTIFICATION, TRUE, ZCL_FRAME_CLIENT_SERVER_DIR,
    500                                    TRUE, 0,  bdb_getZCLFrameCounter(), pCmdPayloadMsgCurr->lenght, pCmdPayloadMsgCurr->pMsg );
    501              
    502              // restore nwk radius
    503              zcl_radius = AF_DEFAULT_RADIUS;
    504              
    505              // restore aps sequence number
    506              APS_Counter = apsSecNum;
    507               
    508              // Restore the NIB nwk sequence number
    509              _NIB.SequenceNum = nwkSeqNum;
    510              
    511              // Restore the NIB nwk address
    512              _NIB.nwkDevAddress = nwkAddr;
    513              
    514              gp_NotificationMsgClean( gp_GetPHeadNotification ( ) );
    515              
    516              if ( gp_GetHeadNotificationMsg ( ) != NULL )
    517              {
    518                osal_start_timerEx( zcl_TaskID, ZCL_DATABUF_SEND, 50 );
    519              }
    520            }
    521          #endif
    522          
    523            // Discard unknown events
    524            return 0;
   \                     ??zcl_event_loop_0:
   \   000062   7A00         MOV       R2,#0x0
   \   000064   7B00         MOV       R3,#0x0
   \                     ??zcl_event_loop_5:
   \   000066   02....       LJMP      ??Subroutine213_0 & 0xFFFF
    525          }

   \                                 In  segment BANKED_CODE, align 1, keep-with-next
   \                     ??Subroutine213_0:
   \   000000   7F04         MOV       R7,#0x4
   \   000002   02....       LJMP      ?BANKED_LEAVE_XDATA
    526          #endif
    527          
    528          #if !defined ( ZCL_STANDALONE )
    529          /*********************************************************************
    530           * @fn      zcl_registerForMsg
    531           *
    532           * @brief   The ZCL is setup to send all incoming Foundation Command/Response
    533           *          messages that aren't processed to one task (if a task is
    534           *          registered).
    535           *
    536           * @param   taskId - task Id of the Application where commands will be sent to
    537           *
    538           * @return  TRUE if task registeration successful, FALSE otherwise
    539           *********************************************************************/

   \                                 In  segment BANKED_CODE, align 1, keep-with-next
    540          uint8 zcl_registerForMsg( uint8 taskId )
   \                     zcl_registerForMsg:
    541          {
   \   000000   74F7         MOV       A,#-0x9
   \   000002   12....       LCALL     ?BANKED_ENTER_XDATA
   \   000005                ; Saved register size: 9
   \   000005                ; Auto size: 0
    542            return zcl_addExternalFoundationHandler( taskId, AF_BROADCAST_ENDPOINT );
   \   000005                ; Setup parameters for call to function zcl_addExternalFoundationHandler
   \   000005   7AFF         MOV       R2,#-0x1
   \   000007   02....       LJMP      ?Subroutine2 & 0xFFFF
    543          }

   \                                 In  segment BANKED_CODE, align 1, keep-with-next
   \                     ?Subroutine2:
   \   000000   12....       LCALL     `??zcl_addExternalFoundationHandler::?relay`; Banked call to: zcl_addExternalFoundationHandler
   \   000003                REQUIRE ??Subroutine232_0
   \   000003                ; // Fall through to label ??Subroutine232_0

   \                                 In  segment BANKED_CODE, align 1, keep-with-next
   \                     ??Subroutine232_0:
   \   000000   7F01         MOV       R7,#0x1
   \   000002   02....       LJMP      ?BANKED_LEAVE_XDATA
    544          
    545          /*********************************************************************
    546           * @fn      zcl_registerForMsgExt
    547           *
    548           * @brief   This function enables a Task to register to recieve all
    549           *          incoming Foundation Command/Response messages, for a particular
    550           *          End Point, that aren't processed by ZCL.
    551           *
    552           *          NOTE: Any Task registered for a unique end point will take
    553           *          priority over any Task registered with the AF_BROADCAST_ENDPOINT
    554           *          value.  ie. If task A registers for End Point 1, task B registers
    555           *          for AF_BROADCAST_ENDPOINT,  commands addressed to End Point 1 will be
    556           *          sent to Task A and NOT Task B.
    557           *
    558           * @param   taskId - task Id of the Application where commands will be sent to
    559           * @param   endPointId - end point Id of interest
    560           *
    561           * @return  TRUE if task registeration successful, FALSE otherwise
    562           *********************************************************************/

   \                                 In  segment BANKED_CODE, align 1, keep-with-next
    563          uint8 zcl_registerForMsgExt( uint8 taskId, uint8 endPointId  )
   \                     zcl_registerForMsgExt:
    564          {
   \   000000   74F7         MOV       A,#-0x9
   \   000002   12....       LCALL     ?BANKED_ENTER_XDATA
   \   000005                ; Saved register size: 9
   \   000005                ; Auto size: 0
    565            return ( zcl_addExternalFoundationHandler( taskId, endPointId  ) );
   \   000005                ; Setup parameters for call to function zcl_addExternalFoundationHandler
   \   000005   02....       LJMP      ?Subroutine2 & 0xFFFF
    566          }
    567          
    568          /*********************************************************************
    569           * @fn      zcl_addExternalFoundationHandler
    570           *
    571           * @brief   This function adds a record to the internal list of external
    572           *          handlers of unhandled incoming Foundation Command/Response messages.
    573           *
    574           * @param   taskId - task Id of the Application where commands will be sent to
    575           * @param   endPointId - end point Id of interest
    576           *
    577           * @return  TRUE if task registeration successful, FALSE otherwise
    578           *********************************************************************/

   \                                 In  segment BANKED_CODE, align 1, keep-with-next
    579          uint8 zcl_addExternalFoundationHandler( uint8 taskId, uint8 endPointId  )
   \                     zcl_addExternalFoundationHandler:
    580          {
   \   000000                REQUIRE ?V0
   \   000000                REQUIRE ?V1
   \   000000   74F6         MOV       A,#-0xa
   \   000002   12....       LCALL     ?BANKED_ENTER_XDATA
   \   000005                ; Saved register size: 10
   \   000005                ; Auto size: 0
   \   000005   E9           MOV       A,R1
   \   000006   FE           MOV       R6,A
   \   000007   EA           MOV       A,R2
   \   000008   FF           MOV       R7,A
    581            zclExternalFoundationHandlerList *pNewItem;
    582            zclExternalFoundationHandlerList *pLoop;
    583            zclExternalFoundationHandlerList *pLoopPrev;
    584          
    585            // Fill in the new endpoint registrant list
    586            pNewItem = zcl_mem_alloc( sizeof( zclExternalFoundationHandlerList ) );
   \   000009                ; Setup parameters for call to function osal_mem_alloc
   \   000009   7A04         MOV       R2,#0x4
   \   00000B   7B00         MOV       R3,#0x0
   \   00000D   12....       LCALL     ??Subroutine246_0 & 0xFFFF
    587            if ( pNewItem == NULL )
   \                     ??CrossCallReturnLabel_526:
   \   000010   6035         JZ        ??zcl_addExternalFoundationHandler_0
    588            {
    589              return ( false );
    590            }
    591          
    592            pNewItem->zcl_ExternalEndPoint = endPointId;
   \   000012   EF           MOV       A,R7
   \   000013   8A82         MOV       DPL,R2
   \   000015   8B83         MOV       DPH,R3
   \   000017   A3           INC       DPTR
   \   000018   A3           INC       DPTR
   \   000019   A3           INC       DPTR
   \   00001A   F0           MOVX      @DPTR,A
    593            pNewItem->zcl_ExternalTaskID = taskId;
   \   00001B   EE           MOV       A,R6
   \   00001C   8A82         MOV       DPL,R2
   \   00001E   8B83         MOV       DPH,R3
   \   000020   A3           INC       DPTR
   \   000021   A3           INC       DPTR
   \   000022   12....       LCALL     ?Subroutine42 & 0xFFFF
    594            pNewItem->next = NULL;
   \                     ??CrossCallReturnLabel_52:
   \   000025   F0           MOVX      @DPTR,A
    595          
    596            // Add to the list
    597            if ( externalEndPointHandlerList == NULL )
   \   000026   90....       MOV       DPTR,#externalEndPointHandlerList
   \   000029   12....       LCALL     ??Subroutine235_0 & 0xFFFF
   \                     ??CrossCallReturnLabel_458:
   \   00002C   7009         JNZ       ??zcl_addExternalFoundationHandler_1
    598            {
    599              externalEndPointHandlerList = pNewItem;
   \   00002E   90....       MOV       DPTR,#externalEndPointHandlerList
   \   000031   EA           MOV       A,R2
   \   000032   F0           MOVX      @DPTR,A
   \   000033   A3           INC       DPTR
   \   000034   EB           MOV       A,R3
   \   000035   8047         SJMP      ??zcl_addExternalFoundationHandler_2
    600            }
    601            else
    602            {
    603              // make sure no one else tried to register for this endpoint
    604              pLoop = externalEndPointHandlerList;
   \                     ??zcl_addExternalFoundationHandler_1:
   \   000037   E0           MOVX      A,@DPTR
   \   000038   F9           MOV       R1,A
    605              pLoopPrev = externalEndPointHandlerList;
    606          
    607              while ( pLoop != NULL )
    608              {
    609                if ( ( pLoop->zcl_ExternalEndPoint ) == endPointId )
   \                     ??zcl_addExternalFoundationHandler_3:
   \   000039   8882         MOV       DPL,R0
   \   00003B   8983         MOV       DPH,R1
   \   00003D   A3           INC       DPTR
   \   00003E   A3           INC       DPTR
   \   00003F   A3           INC       DPTR
   \   000040   E0           MOVX      A,@DPTR
   \   000041   6F           XRL       A,R7
   \   000042   7007         JNZ       ??zcl_addExternalFoundationHandler_4
    610                {
    611                  zcl_mem_free(pNewItem);
   \   000044                ; Setup parameters for call to function osal_mem_free
   \   000044   12....       LCALL     `??osal_mem_free::?relay`; Banked call to: osal_mem_free
    612                  return ( false );
   \                     ??zcl_addExternalFoundationHandler_0:
   \   000047   7900         MOV       R1,#0x0
   \   000049   8036         SJMP      ??zcl_addExternalFoundationHandler_5
    613                }
    614                pLoopPrev = pLoop;
   \                     ??zcl_addExternalFoundationHandler_4:
   \   00004B   E8           MOV       A,R0
   \   00004C   FC           MOV       R4,A
   \   00004D   E9           MOV       A,R1
   \   00004E   FD           MOV       R5,A
    615                pLoop = pLoop->next;
   \   00004F   8882         MOV       DPL,R0
   \   000051   8983         MOV       DPH,R1
   \   000053   12....       LCALL     ??Subroutine235_0 & 0xFFFF
    616              }
   \                     ??CrossCallReturnLabel_453:
   \   000056   70E1         JNZ       ??zcl_addExternalFoundationHandler_3
    617          
    618              if ( endPointId == AF_BROADCAST_ENDPOINT )
   \   000058   74FF         MOV       A,#-0x1
   \   00005A   6F           XRL       A,R7
   \   00005B   700D         JNZ       ??zcl_addExternalFoundationHandler_6
    619              {
    620                // put new registration at the end of the list
    621                pLoopPrev->next = pNewItem;
   \   00005D   8C82         MOV       DPL,R4
   \   00005F   8D83         MOV       DPH,R5
   \   000061   EA           MOV       A,R2
   \   000062   F0           MOVX      @DPTR,A
   \   000063   A3           INC       DPTR
   \   000064   EB           MOV       A,R3
   \   000065   12....       LCALL     ?Subroutine42 & 0xFFFF
    622                pNewItem->next = NULL;
    623              }
   \                     ??CrossCallReturnLabel_53:
   \   000068   8014         SJMP      ??zcl_addExternalFoundationHandler_2
    624              else
    625              {
    626                // put new registration at the front of the list
    627                zclExternalFoundationHandlerList *temp = externalEndPointHandlerList;
   \                     ??zcl_addExternalFoundationHandler_6:
   \   00006A   90....       MOV       DPTR,#externalEndPointHandlerList
   \   00006D   12....       LCALL     ??Subroutine247_0 & 0xFFFF
    628                externalEndPointHandlerList = pNewItem;
   \                     ??CrossCallReturnLabel_528:
   \   000070   90....       MOV       DPTR,#externalEndPointHandlerList
   \   000073   12....       LCALL     ??Subroutine275_0 & 0xFFFF
    629                pNewItem->next = temp;
   \                     ??CrossCallReturnLabel_689:
   \   000076   8A82         MOV       DPL,R2
   \   000078   8B83         MOV       DPH,R3
   \   00007A   E8           MOV       A,R0
   \   00007B   F0           MOVX      @DPTR,A
   \   00007C   A3           INC       DPTR
   \   00007D   E9           MOV       A,R1
   \                     ??zcl_addExternalFoundationHandler_2:
   \   00007E   F0           MOVX      @DPTR,A
    630              }
    631            }
    632          
    633            return ( true );
   \   00007F   7901         MOV       R1,#0x1
   \                     ??zcl_addExternalFoundationHandler_5:
   \   000081   02....       LJMP      ?Subroutine3 & 0xFFFF
    634          
    635          }

   \                                 In  segment BANKED_CODE, align 1, keep-with-next
   \                     ?Subroutine42:
   \   000000   F0           MOVX      @DPTR,A
   \   000001   8A82         MOV       DPL,R2
   \   000003   8B83         MOV       DPH,R3
   \   000005   E4           CLR       A
   \   000006   F0           MOVX      @DPTR,A
   \   000007   A3           INC       DPTR
   \   000008   22           RET

   \                                 In  segment BANKED_CODE, align 1, keep-with-next
   \                     ??Subroutine235_0:
   \   000000   12....       LCALL     ?Subroutine185 & 0xFFFF
   \                     ??CrossCallReturnLabel_542:
   \   000003   E8           MOV       A,R0
   \   000004   49           ORL       A,R1
   \   000005   22           RET

   \                                 In  segment BANKED_CODE, align 1, keep-with-next
   \                     ?Subroutine3:
   \   000000   7F02         MOV       R7,#0x2
   \   000002   02....       LJMP      ?BANKED_LEAVE_XDATA

   \                                 In  segment BANKED_CODE, align 1, keep-with-next
   \                     ?Subroutine205:
   \   000000   E0           MOVX      A,@DPTR
   \   000001   F8           MOV       R0,A
   \   000002   A3           INC       DPTR
   \   000003   E0           MOVX      A,@DPTR
   \   000004   22           RET

   \                                 In  segment BANKED_CODE, align 1, keep-with-next
   \                     ??Subroutine246_0:
   \   000000   12....       LCALL     `??osal_mem_alloc::?relay`; Banked call to: osal_mem_alloc
   \   000003   EA           MOV       A,R2
   \   000004   4B           ORL       A,R3
   \   000005   22           RET

   \                                 In  segment BANKED_CODE, align 1, keep-with-next
   \                     ??Subroutine247_0:
   \   000000   12....       LCALL     ?Subroutine185 & 0xFFFF
   \                     ??CrossCallReturnLabel_543:
   \   000003   22           RET

   \                                 In  segment BANKED_CODE, align 1, keep-with-next
   \                     ?Subroutine185:
   \   000000   12....       LCALL     ?Subroutine205 & 0xFFFF
   \                     ??CrossCallReturnLabel_552:
   \   000003   F9           MOV       R1,A
   \   000004   22           RET

   \                                 In  segment BANKED_CODE, align 1, keep-with-next
   \                     ??Subroutine275_0:
   \   000000   EA           MOV       A,R2
   \   000001   F0           MOVX      @DPTR,A
   \   000002   A3           INC       DPTR
   \   000003   EB           MOV       A,R3
   \   000004   F0           MOVX      @DPTR,A
   \   000005   22           RET
    636          
    637          /*********************************************************************
    638           * @fn      zcl_getExternalFoundationHandler
    639           *
    640           * @brief   This function retrieves the Task ID of the task registered
    641           *          to received unhandled incoming Foundation Command/Response messages
    642           *          for a particular End Point ID.
    643           *
    644           * @param   pInMsg - recevied ZCL command
    645           *
    646           * @return  TASK ID of registered task.  If no task is reigistered, it returns
    647           *          TASK_NO_TASK.
    648           *********************************************************************/

   \                                 In  segment BANKED_CODE, align 1, keep-with-next
    649          static uint8 zcl_getExternalFoundationHandler( afIncomingMSGPacket_t *pInMsg )
   \                     zcl_getExternalFoundationHandler:
    650          {
   \   000000   C082         PUSH      DPL
   \   000002   C083         PUSH      DPH
   \   000004                ; Saved register size: 2
   \   000004                ; Auto size: 0
    651            zclExternalFoundationHandlerList *pLoop;
    652            uint8 addressedEndPointId = pInMsg->endPoint;
   \   000004   EA           MOV       A,R2
   \   000005   12....       LCALL     ??Subroutine260_0 & 0xFFFF
   \                     ??CrossCallReturnLabel_598:
   \   000008   3B           ADDC      A,R3
   \   000009   F583         MOV       DPH,A
   \   00000B   E0           MOVX      A,@DPTR
   \   00000C   FA           MOV       R2,A
    653          
    654            // make sure no one else tried to register for this endpoint
    655            pLoop = externalEndPointHandlerList;
   \   00000D   90....       MOV       DPTR,#externalEndPointHandlerList
   \   000010   8004         SJMP      ??zcl_getExternalFoundationHandler_0
    656          
    657            while ( pLoop != NULL )
    658            {
    659              if ( ( ( pLoop->zcl_ExternalEndPoint ) == addressedEndPointId ) ||
    660                   ( ( pLoop->zcl_ExternalEndPoint ) == AF_BROADCAST_ENDPOINT ) )
    661              {
    662                return ( pLoop->zcl_ExternalTaskID );
    663              }
    664              pLoop = pLoop->next;
   \                     ??zcl_getExternalFoundationHandler_1:
   \   000012   8882         MOV       DPL,R0
   \   000014   8983         MOV       DPH,R1
   \                     ??zcl_getExternalFoundationHandler_0:
   \   000016   12....       LCALL     ??Subroutine235_0 & 0xFFFF
   \                     ??CrossCallReturnLabel_454:
   \   000019   601C         JZ        ??zcl_getExternalFoundationHandler_2
   \   00001B   8882         MOV       DPL,R0
   \   00001D   8983         MOV       DPH,R1
   \   00001F   A3           INC       DPTR
   \   000020   A3           INC       DPTR
   \   000021   A3           INC       DPTR
   \   000022   E0           MOVX      A,@DPTR
   \   000023   FB           MOV       R3,A
   \   000024   EA           MOV       A,R2
   \   000025   6B           XRL       A,R3
   \   000026   6005         JZ        ??zcl_getExternalFoundationHandler_3
   \   000028   74FF         MOV       A,#-0x1
   \   00002A   6B           XRL       A,R3
   \   00002B   70E5         JNZ       ??zcl_getExternalFoundationHandler_1
   \                     ??zcl_getExternalFoundationHandler_3:
   \   00002D   8882         MOV       DPL,R0
   \   00002F   8983         MOV       DPH,R1
   \   000031   A3           INC       DPTR
   \   000032   A3           INC       DPTR
   \   000033   E0           MOVX      A,@DPTR
   \   000034   F9           MOV       R1,A
   \   000035   8002         SJMP      ??zcl_getExternalFoundationHandler_4
    665            }
    666          
    667            return ( TASK_NO_TASK );
   \                     ??zcl_getExternalFoundationHandler_2:
   \   000037   79FF         MOV       R1,#-0x1
   \                     ??zcl_getExternalFoundationHandler_4:
   \   000039   02....       LJMP      ?Subroutine0 & 0xFFFF
    668          }

   \                                 In  segment BANKED_CODE, align 1, keep-with-next
   \                     ??Subroutine260_0:
   \   000000   12....       LCALL     ?Subroutine201 & 0xFFFF
   \                     ??CrossCallReturnLabel_655:
   \   000003   22           RET

   \                                 In  segment BANKED_CODE, align 1, keep-with-next
   \                     ?Subroutine201:
   \   000000   12....       LCALL     ?Subroutine211 & 0xFFFF
   \                     ??CrossCallReturnLabel_663:
   \   000003   22           RET

   \                                 In  segment BANKED_CODE, align 1, keep-with-next
   \                     ?Subroutine211:
   \   000000   2414         ADD       A,#0x14
   \   000002   F582         MOV       DPL,A
   \   000004   E4           CLR       A
   \   000005   22           RET
    669          #endif
    670          
    671          #if !defined ( ZCL_STANDALONE )
    672          /*********************************************************************
    673           * @fn      zcl_HandleExternal
    674           *
    675           * @brief
    676           *
    677           * @param   pInMsg - incoming message to process
    678           *
    679           * @return  TRUE
    680           */

   \                                 In  segment BANKED_CODE, align 1, keep-with-next
    681          uint8 zcl_HandleExternal( zclIncoming_t *pInMsg )
   \                     zcl_HandleExternal:
    682          {
   \   000000                REQUIRE ?V0
   \   000000                REQUIRE ?V1
   \   000000                REQUIRE ?V2
   \   000000                REQUIRE ?V4
   \   000000                REQUIRE ?V5
   \   000000   74F2         MOV       A,#-0xe
   \   000002   12....       LCALL     ?BANKED_ENTER_XDATA
   \   000005                ; Saved register size: 14
   \   000005                ; Auto size: 0
   \   000005   8A..         MOV       ?V0,R2
   \   000007   8B..         MOV       ?V1,R3
    683            zclIncomingMsg_t *pCmd;
    684            uint8 taskID;
    685          
    686            taskID = zcl_getExternalFoundationHandler( pInMsg->msg );
   \   000009                ; Setup parameters for call to function zcl_getExternalFoundationHandler
   \   000009   8A82         MOV       DPL,R2
   \   00000B   8B83         MOV       DPH,R3
   \   00000D   12....       LCALL     ??Subroutine252_0 & 0xFFFF
   \                     ??CrossCallReturnLabel_566:
   \   000010   12....       LCALL     `??zcl_getExternalFoundationHandler::?relay`; Banked call to: zcl_getExternalFoundationHandler
   \   000013   E9           MOV       A,R1
   \   000014   F5..         MOV       ?V2,A
    687          
    688            if ( taskID == TASK_NO_TASK )
   \   000016   74FF         MOV       A,#-0x1
   \   000018   69           XRL       A,R1
   \   000019   7003         JNZ       $+5
   \   00001B   02....       LJMP      ??zcl_HandleExternal_0 & 0xFFFF
    689            {
    690              return ( TRUE );
    691            }
    692          
    693            pCmd = (zclIncomingMsg_t *)osal_msg_allocate( sizeof ( zclIncomingMsg_t ) );
   \   00001E                ; Setup parameters for call to function osal_msg_allocate
   \   00001E   7A19         MOV       R2,#0x19
   \   000020   7B00         MOV       R3,#0x0
   \   000022   12....       LCALL     `??osal_msg_allocate::?relay`; Banked call to: osal_msg_allocate
   \   000025   8A..         MOV       ?V4,R2
   \   000027   8B..         MOV       ?V5,R3
   \   000029   AE..         MOV       R6,?V4
   \   00002B   AF..         MOV       R7,?V5
    694            if ( pCmd != NULL )
   \   00002D   EA           MOV       A,R2
   \   00002E   4F           ORL       A,R7
   \   00002F   7003         JNZ       $+5
   \   000031   02....       LJMP      ??zcl_HandleExternal_0 & 0xFFFF
    695            {
    696              // fill in the message
    697              pCmd->hdr.event = ZCL_INCOMING_MSG;
   \   000034   8A82         MOV       DPL,R2
   \   000036   8B83         MOV       DPH,R3
   \   000038   7434         MOV       A,#0x34
   \   00003A   12....       LCALL     ?Subroutine38 & 0xFFFF
    698              pCmd->zclHdr    = pInMsg->hdr;
   \                     ??CrossCallReturnLabel_45:
   \   00003D   EA           MOV       A,R2
   \   00003E   2402         ADD       A,#0x2
   \   000040   FC           MOV       R4,A
   \   000041   E4           CLR       A
   \   000042   3F           ADDC      A,R7
   \   000043   FD           MOV       R5,A
   \   000044   7406         MOV       A,#0x6
   \   000046   12....       LCALL     ?MOVE_LONG8_XDATA_XDATA
    699              pCmd->clusterId = pInMsg->msg->clusterId;
   \   000049   85..82       MOV       DPL,?V0
   \   00004C   85..83       MOV       DPH,?V1
   \   00004F   12....       LCALL     ?Subroutine105 & 0xFFFF
   \                     ??CrossCallReturnLabel_178:
   \   000052   A3           INC       DPTR
   \   000053   A3           INC       DPTR
   \   000054   A3           INC       DPTR
   \   000055   A3           INC       DPTR
   \   000056   12....       LCALL     ?Subroutine82 & 0xFFFF
   \                     ??CrossCallReturnLabel_138:
   \   000059   A3           INC       DPTR
   \   00005A   A3           INC       DPTR
   \   00005B   12....       LCALL     ??Subroutine274_0 & 0xFFFF
    700              pCmd->srcAddr   = pInMsg->msg->srcAddr;
   \                     ??CrossCallReturnLabel_700:
   \   00005E   8882         MOV       DPL,R0
   \   000060   8983         MOV       DPH,R1
   \   000062   A3           INC       DPTR
   \   000063   A3           INC       DPTR
   \   000064   A3           INC       DPTR
   \   000065   A3           INC       DPTR
   \   000066   A3           INC       DPTR
   \   000067   A3           INC       DPTR
   \   000068   EE           MOV       A,R6
   \   000069   240A         ADD       A,#0xa
   \   00006B   FC           MOV       R4,A
   \   00006C   E4           CLR       A
   \   00006D   3F           ADDC      A,R7
   \   00006E   FD           MOV       R5,A
   \   00006F   740C         MOV       A,#0xc
   \   000071   12....       LCALL     ?MOVE_LONG8_XDATA_XDATA
    701              pCmd->endPoint  = pInMsg->msg->endPoint;
   \   000074   85..82       MOV       DPL,?V0
   \   000077   85..83       MOV       DPH,?V1
   \   00007A   12....       LCALL     ?Subroutine77 & 0xFFFF
   \                     ??CrossCallReturnLabel_128:
   \   00007D   C0E0         PUSH      A
   \   00007F   EE           MOV       A,R6
   \   000080   2416         ADD       A,#0x16
   \   000082   F582         MOV       DPL,A
   \   000084   E4           CLR       A
   \   000085   3F           ADDC      A,R7
   \   000086   F583         MOV       DPH,A
   \   000088   D0E0         POP       A
   \   00008A   F0           MOVX      @DPTR,A
    702              pCmd->attrCmd   = pInMsg->attrCmd;
   \   00008B   E5..         MOV       A,?V0
   \   00008D   240C         ADD       A,#0xc
   \   00008F   F8           MOV       R0,A
   \   000090   E4           CLR       A
   \   000091   35..         ADDC      A,?V1
   \   000093   F9           MOV       R1,A
   \   000094   8882         MOV       DPL,R0
   \   000096   F583         MOV       DPH,A
   \   000098   12....       LCALL     ??Subroutine252_0 & 0xFFFF
   \                     ??CrossCallReturnLabel_567:
   \   00009B   EE           MOV       A,R6
   \   00009C   2417         ADD       A,#0x17
   \   00009E   F582         MOV       DPL,A
   \   0000A0   E4           CLR       A
   \   0000A1   3F           ADDC      A,R7
   \   0000A2   F583         MOV       DPH,A
   \   0000A4   EA           MOV       A,R2
   \   0000A5   F0           MOVX      @DPTR,A
   \   0000A6   A3           INC       DPTR
   \   0000A7   EB           MOV       A,R3
   \   0000A8   12....       LCALL     ?Subroutine39 & 0xFFFF
    703              
    704          #ifdef BDB_REPORTING
    705              if(pCmd->zclHdr.commandID == ZCL_CMD_CONFIG_REPORT)
   \                     ??CrossCallReturnLabel_47:
   \   0000AB   A3           INC       DPTR
   \   0000AC   A3           INC       DPTR
   \   0000AD   A3           INC       DPTR
   \   0000AE   A3           INC       DPTR
   \   0000AF   A3           INC       DPTR
   \   0000B0   A3           INC       DPTR
   \   0000B1   E0           MOVX      A,@DPTR
   \   0000B2   FA           MOV       R2,A
   \   0000B3   7406         MOV       A,#0x6
   \   0000B5   6A           XRL       A,R2
   \   0000B6   600C         JZ        ??zcl_HandleExternal_1
    706              {
    707          //      bdb_ProcessInConfigReportCmd(pCmd);
    708                osal_msg_deallocate((uint8*)pCmd);
   \   0000B8                ; Setup parameters for call to function osal_msg_deallocate
    709                return TRUE;          
    710              }
    711              if(pCmd->zclHdr.commandID == ZCL_CMD_READ_REPORT_CFG)
   \   0000B8   7408         MOV       A,#0x8
   \   0000BA   6A           XRL       A,R2
   \   0000BB   7010         JNZ       ??zcl_HandleExternal_2
    712              {
    713                bdb_ProcessInReadReportCfgCmd(pCmd);
   \   0000BD                ; Setup parameters for call to function bdb_ProcessInReadReportCfgCmd
   \   0000BD   EE           MOV       A,R6
   \   0000BE   FA           MOV       R2,A
   \   0000BF   EF           MOV       A,R7
   \   0000C0   FB           MOV       R3,A
   \   0000C1   12....       LCALL     `??bdb_ProcessInReadReportCfgCmd::?relay`; Banked call to: bdb_ProcessInReadReportCfgCmd
    714                osal_msg_deallocate((uint8*)pCmd);
   \   0000C4                ; Setup parameters for call to function osal_msg_deallocate
   \                     ??zcl_HandleExternal_1:
   \   0000C4   EE           MOV       A,R6
   \   0000C5   FA           MOV       R2,A
   \   0000C6   EF           MOV       A,R7
   \   0000C7   FB           MOV       R3,A
   \   0000C8   12....       LCALL     `??osal_msg_deallocate::?relay`; Banked call to: osal_msg_deallocate
   \   0000CB   8011         SJMP      ??zcl_HandleExternal_0
    715                return TRUE;
    716              }
    717          #endif
    718              // Application will free the attrCmd buffer
    719              pInMsg->attrCmd = NULL;
   \                     ??zcl_HandleExternal_2:
   \   0000CD   8882         MOV       DPL,R0
   \   0000CF   8983         MOV       DPH,R1
   \   0000D1   E4           CLR       A
   \   0000D2   F0           MOVX      @DPTR,A
   \   0000D3   A3           INC       DPTR
   \   0000D4   F0           MOVX      @DPTR,A
    720          
    721              /* send message through task message */
    722              osal_msg_send( taskID, (uint8 *)pCmd );
   \   0000D5                ; Setup parameters for call to function osal_msg_send
   \   0000D5   EE           MOV       A,R6
   \   0000D6   FA           MOV       R2,A
   \   0000D7   EF           MOV       A,R7
   \   0000D8   FB           MOV       R3,A
   \   0000D9   A9..         MOV       R1,?V2
   \   0000DB   12....       LCALL     `??osal_msg_send::?relay`; Banked call to: osal_msg_send
    723            }
    724          
    725            return ( TRUE );
   \                     ??zcl_HandleExternal_0:
   \   0000DE   7901         MOV       R1,#0x1
   \   0000E0   02....       LJMP      ?Subroutine4 & 0xFFFF
    726          }

   \                                 In  segment BANKED_CODE, align 1, keep-with-next
   \                     ?Subroutine105:
   \   000000   12....       LCALL     ?Subroutine183 & 0xFFFF
   \                     ??CrossCallReturnLabel_312:
   \   000003   22           RET

   \                                 In  segment BANKED_CODE, align 1, keep-with-next
   \                     ?Subroutine183:
   \   000000   12....       LCALL     ?Subroutine205 & 0xFFFF
   \                     ??CrossCallReturnLabel_549:
   \   000003   F9           MOV       R1,A
   \   000004   8882         MOV       DPL,R0
   \   000006   F583         MOV       DPH,A
   \   000008   22           RET

   \                                 In  segment BANKED_CODE, align 1, keep-with-next
   \                     ?Subroutine39:
   \   000000   12....       LCALL     ?Subroutine169 & 0xFFFF
   \                     ??CrossCallReturnLabel_287:
   \   000003   A3           INC       DPTR
   \   000004   22           RET

   \                                 In  segment BANKED_CODE, align 1, keep-with-next
   \                     ?Subroutine82:
   \   000000   12....       LCALL     ??Subroutine254_0 & 0xFFFF
   \                     ??CrossCallReturnLabel_665:
   \   000003   8E82         MOV       DPL,R6
   \   000005   8F83         MOV       DPH,R7
   \   000007   A3           INC       DPTR
   \   000008   A3           INC       DPTR
   \   000009   A3           INC       DPTR
   \   00000A   A3           INC       DPTR
   \   00000B   22           RET

   \                                 In  segment BANKED_CODE, align 1, keep-with-next
   \                     ?Subroutine4:
   \   000000   7F06         MOV       R7,#0x6
   \   000002   02....       LJMP      ?BANKED_LEAVE_XDATA

   \                                 In  segment BANKED_CODE, align 1, keep-with-next
   \                     ?Subroutine169:
   \   000000   F0           MOVX      @DPTR,A
   \   000001   8E82         MOV       DPL,R6
   \   000003   8F83         MOV       DPH,R7
   \   000005   22           RET

   \                                 In  segment BANKED_CODE, align 1, keep-with-next
   \                     ??Subroutine252_0:
   \   000000   12....       LCALL     ??Subroutine254_0 & 0xFFFF
   \                     ??CrossCallReturnLabel_669:
   \   000003   22           RET

   \                                 In  segment BANKED_CODE, align 1, keep-with-next
   \                     ??Subroutine254_0:
   \   000000   E0           MOVX      A,@DPTR
   \   000001   FA           MOV       R2,A
   \   000002   A3           INC       DPTR
   \   000003   E0           MOVX      A,@DPTR
   \   000004   FB           MOV       R3,A
   \   000005   22           RET

   \                                 In  segment BANKED_CODE, align 1, keep-with-next
   \                     ?Subroutine77:
   \   000000   E0           MOVX      A,@DPTR
   \   000001   F8           MOV       R0,A
   \   000002   12....       LCALL     ?Subroutine181 & 0xFFFF
   \                     ??CrossCallReturnLabel_310:
   \   000005   22           RET

   \                                 In  segment BANKED_CODE, align 1, keep-with-next
   \                     ?Subroutine181:
   \   000000   A3           INC       DPTR
   \   000001   E0           MOVX      A,@DPTR
   \   000002   C8           XCH       A,R0
   \   000003   12....       LCALL     ?Subroutine211 & 0xFFFF
   \                     ??CrossCallReturnLabel_661:
   \   000006   38           ADDC      A,R0
   \   000007   F583         MOV       DPH,A
   \   000009   E0           MOVX      A,@DPTR
   \   00000A   22           RET

   \                                 In  segment BANKED_CODE, align 1, keep-with-next
   \                     ?Subroutine163:
   \   000000   F0           MOVX      @DPTR,A
   \   000001   85..82       MOV       DPL,?V0
   \   000004   85..83       MOV       DPH,?V1
   \   000007   22           RET

   \                                 In  segment BANKED_CODE, align 1, keep-with-next
   \                     ?Subroutine38:
   \   000000   12....       LCALL     ?Subroutine163 & 0xFFFF
   \                     ??CrossCallReturnLabel_277:
   \   000003   A3           INC       DPTR
   \   000004   A3           INC       DPTR
   \   000005   22           RET

   \                                 In  segment BANKED_CODE, align 1, keep-with-next
   \                     ??Subroutine274_0:
   \   000000   A3           INC       DPTR
   \   000001   A3           INC       DPTR
   \   000002                REQUIRE ??Subroutine275_0
   \   000002                ; // Fall through to label ??Subroutine275_0
    727          #endif
    728          
    729          
    730          /*********************************************************************
    731           * @fn          zcl_getRawAFMsg
    732           *
    733           * @brief       Call to get original unprocessed AF message
    734           *              (not parsed by ZCL).
    735           *
    736           *   NOTE:  This function can only be called during a ZCL callback function
    737           *          and the calling function must NOT change any data in the message.
    738           *
    739           * @param       none
    740           *
    741           * @return      pointer to original AF message, NULL if not processing
    742           *              AF message.
    743           */

   \                                 In  segment BANKED_CODE, align 1, keep-with-next
    744          afIncomingMSGPacket_t *zcl_getRawAFMsg( void )
   \                     zcl_getRawAFMsg:
    745          {
   \   000000   C082         PUSH      DPL
   \   000002   C083         PUSH      DPH
   \   000004                ; Saved register size: 2
   \   000004                ; Auto size: 0
    746            return ( rawAFMsg );
   \   000004   90....       MOV       DPTR,#rawAFMsg
   \   000007   12....       LCALL     ??Subroutine252_0 & 0xFFFF
   \                     ??CrossCallReturnLabel_568:
   \   00000A   02....       LJMP      ?Subroutine0 & 0xFFFF
    747          }
    748          
    749          /*********************************************************************
    750           * @fn          zcl_getParsedTransSeqNum
    751           *
    752           * @brief       Call to the get the transaction sequence number from
    753           *              the incoming message.
    754           *
    755           *   NOTE:  This function can only be called during a ZCL callback function
    756           *          and the calling function must NOT change any data in the message.
    757           *
    758           * @param       none
    759           *
    760           * @return      transaction sequence number.
    761           */

   \                                 In  segment BANKED_CODE, align 1, keep-with-next
    762          uint8 zcl_getParsedTransSeqNum( void )
   \                     zcl_getParsedTransSeqNum:
    763          {
   \   000000   C082         PUSH      DPL
   \   000002   C083         PUSH      DPH
   \   000004                ; Saved register size: 2
   \   000004                ; Auto size: 0
    764            return ( savedZCLTransSeqNum );
   \   000004   90....       MOV       DPTR,#savedZCLTransSeqNum
   \   000007   E0           MOVX      A,@DPTR
   \   000008   F9           MOV       R1,A
   \   000009   02....       LJMP      ?Subroutine0 & 0xFFFF
    765          }
    766          
    767          /*********************************************************************
    768           * @fn          zcl_registerPlugin
    769           *
    770           * @brief       Add a Cluster Library handler
    771           *
    772           * @param       startClusterID - starting cluster ID
    773           * @param       endClusterID - ending cluster ID
    774           * @param       pfnHdlr - function pointer to incoming message handler
    775           *
    776           * @return      ZSuccess if OK
    777           */

   \                                 In  segment BANKED_CODE, align 1, keep-with-next
    778          ZStatus_t zcl_registerPlugin( uint16 startClusterID,
   \                     zcl_registerPlugin:
    779                    uint16 endClusterID, zclInHdlr_t pfnIncomingHdlr )
    780          {
   \   000000                REQUIRE ?V0
   \   000000                REQUIRE ?V1
   \   000000                REQUIRE ?V2
   \   000000                REQUIRE ?V3
   \   000000   74F4         MOV       A,#-0xc
   \   000002   12....       LCALL     ?BANKED_ENTER_XDATA
   \   000005                ; Saved register size: 12
   \   000005                ; Auto size: 0
   \   000005   8A..         MOV       ?V0,R2
   \   000007   8B..         MOV       ?V1,R3
   \   000009   EC           MOV       A,R4
   \   00000A   FE           MOV       R6,A
   \   00000B   ED           MOV       A,R5
   \   00000C   FF           MOV       R7,A
    781            zclLibPlugin_t *pNewItem;
    782            zclLibPlugin_t *pLoop;
    783          
    784            // Fill in the new profile list
    785            pNewItem = zcl_mem_alloc( sizeof( zclLibPlugin_t ) );
   \   00000D                ; Setup parameters for call to function osal_mem_alloc
   \   00000D   7A08         MOV       R2,#0x8
   \   00000F   12....       LCALL     ??Subroutine212_0 & 0xFFFF
    786            if ( pNewItem == NULL )
   \                     ??CrossCallReturnLabel_358:
   \   000012   7004         JNZ       ??zcl_registerPlugin_0
    787            {
    788              return (ZMemError);
   \   000014   7910         MOV       R1,#0x10
   \   000016   8043         SJMP      ??CrossCallReturnLabel_28
    789            }
    790          
    791            // Fill in the plugin record.
    792            pNewItem->next = (zclLibPlugin_t *)NULL;
   \                     ??zcl_registerPlugin_0:
   \   000018   12....       LCALL     ?Subroutine29 & 0xFFFF
    793            pNewItem->startClusterID = startClusterID;
   \                     ??CrossCallReturnLabel_26:
   \   00001B   A3           INC       DPTR
   \   00001C   E5..         MOV       A,?V1
   \   00001E   12....       LCALL     ?Subroutine36 & 0xFFFF
    794            pNewItem->endClusterID = endClusterID;
   \                     ??CrossCallReturnLabel_42:
   \   000021   A3           INC       DPTR
   \   000022   A3           INC       DPTR
   \   000023   A3           INC       DPTR
   \   000024   EE           MOV       A,R6
   \   000025   F0           MOVX      @DPTR,A
   \   000026   A3           INC       DPTR
   \   000027   EF           MOV       A,R7
   \   000028   F0           MOVX      @DPTR,A
    795            pNewItem->pfnIncomingHdlr = pfnIncomingHdlr;
   \   000029   740C         MOV       A,#0xc
   \   00002B   12....       LCALL     ?XSTACK_DISP0_8
   \   00002E   12....       LCALL     ??Subroutine252_0 & 0xFFFF
   \                     ??CrossCallReturnLabel_569:
   \   000031   8882         MOV       DPL,R0
   \   000033   8983         MOV       DPH,R1
   \   000035   A3           INC       DPTR
   \   000036   A3           INC       DPTR
   \   000037   A3           INC       DPTR
   \   000038   A3           INC       DPTR
   \   000039   12....       LCALL     ??Subroutine274_0 & 0xFFFF
    796          
    797            // Find spot in list
    798            if (  plugins == NULL )
   \                     ??CrossCallReturnLabel_701:
   \   00003C   90....       MOV       DPTR,#plugins
   \   00003F   12....       LCALL     ??Subroutine215_0 & 0xFFFF
   \                     ??CrossCallReturnLabel_370:
   \   000042   90....       MOV       DPTR,#plugins
   \   000045   6011         JZ        ??zcl_registerPlugin_1
    799            {
    800              plugins = pNewItem;
    801            }
    802            else
    803            {
    804              // Look for end of list
    805              pLoop = plugins;
   \   000047   12....       LCALL     ?Subroutine125 & 0xFFFF
   \                     ??CrossCallReturnLabel_214:
   \   00004A   8003         SJMP      ??zcl_registerPlugin_2
    806              while ( pLoop->next != NULL )
    807              {
    808                pLoop = pLoop->next;
   \                     ??zcl_registerPlugin_3:
   \   00004C   EA           MOV       A,R2
   \   00004D   FC           MOV       R4,A
   \   00004E   EB           MOV       A,R3
    809              }
   \                     ??zcl_registerPlugin_2:
   \   00004F   12....       LCALL     ?Subroutine51 & 0xFFFF
   \                     ??CrossCallReturnLabel_364:
   \   000052   70F8         JNZ       ??zcl_registerPlugin_3
    810          
    811              // Put new item at end of list
    812              pLoop->next = pNewItem;
   \   000054   8C82         MOV       DPL,R4
   \   000056   8D83         MOV       DPH,R5
    813            }
   \                     ??zcl_registerPlugin_1:
   \   000058   12....       LCALL     ?Subroutine30 & 0xFFFF
    814          
    815            return ( ZSuccess );
   \                     ??CrossCallReturnLabel_28:
   \   00005B   02....       LJMP      ??Subroutine213_0 & 0xFFFF
    816          }

   \                                 In  segment BANKED_CODE, align 1, keep-with-next
   \                     ??Subroutine212_0:
   \   000000   7B00         MOV       R3,#0x0
   \   000002   12....       LCALL     `??osal_mem_alloc::?relay`; Banked call to: osal_mem_alloc
   \   000005   8A..         MOV       ?V2,R2
   \   000007   8B..         MOV       ?V3,R3
   \   000009   A8..         MOV       R0,?V2
   \   00000B   A9..         MOV       R1,?V3
   \   00000D   EA           MOV       A,R2
   \   00000E   49           ORL       A,R1
   \   00000F   22           RET

   \                                 In  segment BANKED_CODE, align 1, keep-with-next
   \                     ?Subroutine30:
   \   000000   E8           MOV       A,R0
   \   000001   F0           MOVX      @DPTR,A
   \   000002   A3           INC       DPTR
   \   000003   E9           MOV       A,R1
   \   000004   F0           MOVX      @DPTR,A
   \   000005   7900         MOV       R1,#0x0
   \   000007   22           RET

   \                                 In  segment BANKED_CODE, align 1, keep-with-next
   \                     ?Subroutine29:
   \   000000   12....       LCALL     ?Subroutine162 & 0xFFFF
   \                     ??CrossCallReturnLabel_273:
   \   000003   22           RET

   \                                 In  segment BANKED_CODE, align 1, keep-with-next
   \                     ?Subroutine162:
   \   000000   8A82         MOV       DPL,R2
   \   000002   8B83         MOV       DPH,R3
   \   000004   E4           CLR       A
   \   000005   F0           MOVX      @DPTR,A
   \   000006   A3           INC       DPTR
   \   000007   12....       LCALL     ?Subroutine203 & 0xFFFF
   \                     ??CrossCallReturnLabel_339:
   \   00000A   A3           INC       DPTR
   \   00000B   E5..         MOV       A,?V0
   \   00000D   F0           MOVX      @DPTR,A
   \   00000E   22           RET

   \                                 In  segment BANKED_CODE, align 1, keep-with-next
   \                     ?Subroutine125:
   \   000000   E0           MOVX      A,@DPTR
   \   000001   FC           MOV       R4,A
   \   000002   A3           INC       DPTR
   \   000003   E0           MOVX      A,@DPTR
   \   000004   22           RET

   \                                 In  segment BANKED_CODE, align 1, keep-with-next
   \                     ?Subroutine51:
   \   000000   FD           MOV       R5,A
   \   000001   8C82         MOV       DPL,R4
   \   000003   8D83         MOV       DPH,R5
   \   000005                REQUIRE ??Subroutine215_0
   \   000005                ; // Fall through to label ??Subroutine215_0

   \                                 In  segment BANKED_CODE, align 1, keep-with-next
   \                     ??Subroutine215_0:
   \   000000   12....       LCALL     ??Subroutine254_0 & 0xFFFF
   \                     ??CrossCallReturnLabel_668:
   \   000003   EA           MOV       A,R2
   \   000004   4B           ORL       A,R3
   \   000005   22           RET

   \                                 In  segment BANKED_CODE, align 1, keep-with-next
   \                     ?Subroutine36:
   \   000000   12....       LCALL     ?Subroutine165 & 0xFFFF
   \                     ??CrossCallReturnLabel_281:
   \   000003   22           RET

   \                                 In  segment BANKED_CODE, align 1, keep-with-next
   \                     ?Subroutine165:
   \   000000   12....       LCALL     ?Subroutine203 & 0xFFFF
   \                     ??CrossCallReturnLabel_340:
   \   000003   22           RET

   \                                 In  segment BANKED_CODE, align 1, keep-with-next
   \                     ?Subroutine203:
   \   000000   F0           MOVX      @DPTR,A
   \   000001   8A82         MOV       DPL,R2
   \   000003   8B83         MOV       DPH,R3
   \   000005   A3           INC       DPTR
   \   000006   22           RET
    817          
    818          #ifdef ZCL_DISCOVER
    819          /*********************************************************************
    820           * @fn          zcl_registerCmdList
    821           *
    822           * @brief       Register a Command List with ZCL Foundation
    823           *
    824           * @param       endpoint - endpoint the attribute list belongs to
    825           * @param       newCmdList - array of command records
    826           *
    827           * @return      ZSuccess if OK
    828           */

   \                                 In  segment BANKED_CODE, align 1, keep-with-next
    829          ZStatus_t zcl_registerCmdList( uint8 endpoint, CONST uint8 cmdListSize, CONST zclCommandRec_t newCmdList[] )
   \                     zcl_registerCmdList:
    830          {
   \   000000                REQUIRE ?V0
   \   000000                REQUIRE ?V1
   \   000000                REQUIRE ?V2
   \   000000                REQUIRE ?V3
   \   000000   74F4         MOV       A,#-0xc
   \   000002   12....       LCALL     ?BANKED_ENTER_XDATA
   \   000005                ; Saved register size: 12
   \   000005                ; Auto size: 0
   \   000005   12....       LCALL     ?Subroutine134 & 0xFFFF
    831            zclCmdRecsList_t *pNewItem;
    832            zclCmdRecsList_t *pLoop;
    833          
    834            // Fill in the new profile list
    835            pNewItem = zcl_mem_alloc( sizeof( zclCmdRecsList_t ) );
    836            if ( pNewItem == NULL )
   \                     ??CrossCallReturnLabel_356:
   \   000008   7004         JNZ       ??zcl_registerCmdList_0
    837            {
    838              return (ZMemError);
   \   00000A   7910         MOV       R1,#0x10
   \   00000C   8022         SJMP      ??CrossCallReturnLabel_29
    839            }
    840          
    841            pNewItem->pNext = (zclCmdRecsList_t *)NULL;
   \                     ??zcl_registerCmdList_0:
   \   00000E   12....       LCALL     ?Subroutine15 & 0xFFFF
    842            pNewItem->endpoint = endpoint;
    843            pNewItem->numCommands = cmdListSize;
    844            pNewItem->pCmdRecs = newCmdList;
    845          
    846            // Find spot in list
    847            if ( gpCmdList == NULL )
   \                     ??CrossCallReturnLabel_2:
   \   000011   90....       MOV       DPTR,#gpCmdList
   \   000014   12....       LCALL     ??Subroutine215_0 & 0xFFFF
   \                     ??CrossCallReturnLabel_371:
   \   000017   90....       MOV       DPTR,#gpCmdList
   \   00001A   6011         JZ        ??zcl_registerCmdList_1
    848            {
    849              gpCmdList = pNewItem;
    850            }
    851            else
    852            {
    853              // Look for end of list
    854              pLoop = gpCmdList;
   \   00001C   12....       LCALL     ?Subroutine125 & 0xFFFF
   \                     ??CrossCallReturnLabel_215:
   \   00001F   8003         SJMP      ??zcl_registerCmdList_2
    855              while ( pLoop->pNext != NULL )
    856              {
    857                pLoop = pLoop->pNext;
   \                     ??zcl_registerCmdList_3:
   \   000021   EA           MOV       A,R2
   \   000022   FC           MOV       R4,A
   \   000023   EB           MOV       A,R3
    858              }
   \                     ??zcl_registerCmdList_2:
   \   000024   12....       LCALL     ?Subroutine51 & 0xFFFF
   \                     ??CrossCallReturnLabel_365:
   \   000027   70F8         JNZ       ??zcl_registerCmdList_3
    859          
    860              // Put new item at end of list
    861              pLoop->pNext = pNewItem;
   \   000029   8C82         MOV       DPL,R4
   \   00002B   8D83         MOV       DPH,R5
    862            }
   \                     ??zcl_registerCmdList_1:
   \   00002D   12....       LCALL     ?Subroutine30 & 0xFFFF
    863          
    864            return ( ZSuccess );
   \                     ??CrossCallReturnLabel_29:
   \   000030   02....       LJMP      ??Subroutine213_0 & 0xFFFF
    865          }

   \                                 In  segment BANKED_CODE, align 1, keep-with-next
   \                     ?Subroutine134:
   \   000000   89..         MOV       ?V0,R1
   \   000002   8A..         MOV       ?V1,R2
   \   000004   EC           MOV       A,R4
   \   000005   FE           MOV       R6,A
   \   000006   ED           MOV       A,R5
   \   000007   FF           MOV       R7,A
   \   000008                ; Setup parameters for call to function osal_mem_alloc
   \   000008                ; Setup parameters for call to function osal_mem_alloc
   \   000008   7A06         MOV       R2,#0x6
   \   00000A                REQUIRE ??Subroutine212_0
   \   00000A                ; // Fall through to label ??Subroutine212_0

   \                                 In  segment BANKED_CODE, align 1, keep-with-next
   \                     ?Subroutine15:
   \   000000   12....       LCALL     ?Subroutine162 & 0xFFFF
   \                     ??CrossCallReturnLabel_274:
   \   000003   8A82         MOV       DPL,R2
   \   000005   8B83         MOV       DPH,R3
   \   000007   A3           INC       DPTR
   \   000008   A3           INC       DPTR
   \   000009   A3           INC       DPTR
   \   00000A   E5..         MOV       A,?V1
   \   00000C   12....       LCALL     ?Subroutine165 & 0xFFFF
   \                     ??CrossCallReturnLabel_280:
   \   00000F   A3           INC       DPTR
   \   000010   A3           INC       DPTR
   \   000011   A3           INC       DPTR
   \   000012   EE           MOV       A,R6
   \   000013   F0           MOVX      @DPTR,A
   \   000014   A3           INC       DPTR
   \   000015   EF           MOV       A,R7
   \   000016   F0           MOVX      @DPTR,A
   \   000017   22           RET
    866          #endif  // ZCL_DISCOVER
    867          
    868          /*********************************************************************
    869           * @fn          zcl_registerAttrList
    870           *
    871           * @brief       Register an Attribute List with ZCL Foundation
    872           *
    873           * @param       endpoint - endpoint the attribute list belongs to
    874           * @param       numAttr - number of attributes in list
    875           * @param       newAttrList - array of Attribute records.
    876           *                            NOTE: THE ATTRIBUTE IDs (FOR A CLUSTER) MUST BE IN
    877           *                            ASCENDING ORDER. OTHERWISE, THE DISCOVERY RESPONSE
    878           *                            COMMAND WILL NOT HAVE THE RIGHT ATTRIBUTE INFO
    879           *
    880           * @return      ZSuccess if OK
    881           */

   \                                 In  segment BANKED_CODE, align 1, keep-with-next
    882          ZStatus_t zcl_registerAttrList( uint8 endpoint, uint8 numAttr, CONST zclAttrRec_t newAttrList[] )
   \                     zcl_registerAttrList:
    883          {
   \   000000                REQUIRE ?V0
   \   000000                REQUIRE ?V1
   \   000000                REQUIRE ?V2
   \   000000                REQUIRE ?V3
   \   000000   74F4         MOV       A,#-0xc
   \   000002   12....       LCALL     ?BANKED_ENTER_XDATA
   \   000005                ; Saved register size: 12
   \   000005                ; Auto size: 0
   \   000005   89..         MOV       ?V0,R1
   \   000007   8A..         MOV       ?V1,R2
   \   000009   EC           MOV       A,R4
   \   00000A   FE           MOV       R6,A
   \   00000B   ED           MOV       A,R5
   \   00000C   FF           MOV       R7,A
    884            zclAttrRecsList *pNewItem;
    885            zclAttrRecsList *pLoop;
    886          
    887            // Fill in the new profile list
    888            pNewItem = zcl_mem_alloc( sizeof( zclAttrRecsList ) );
   \   00000D                ; Setup parameters for call to function osal_mem_alloc
   \   00000D   7A0A         MOV       R2,#0xa
   \   00000F   12....       LCALL     ??Subroutine212_0 & 0xFFFF
    889            if ( pNewItem == NULL )
   \                     ??CrossCallReturnLabel_359:
   \   000012   7004         JNZ       ??zcl_registerAttrList_0
    890            {
    891              return (ZMemError);
   \   000014   7910         MOV       R1,#0x10
   \   000016   803A         SJMP      ??CrossCallReturnLabel_30
    892            }
    893          
    894            pNewItem->next = (zclAttrRecsList *)NULL;
   \                     ??zcl_registerAttrList_0:
   \   000018   12....       LCALL     ?Subroutine29 & 0xFFFF
    895            pNewItem->endpoint = endpoint;
    896            pNewItem->pfnReadWriteCB = NULL;
   \                     ??CrossCallReturnLabel_27:
   \   00001B   8A82         MOV       DPL,R2
   \   00001D   8B83         MOV       DPH,R3
   \   00001F   A3           INC       DPTR
   \   000020   A3           INC       DPTR
   \   000021   A3           INC       DPTR
   \   000022   E4           CLR       A
   \   000023   F0           MOVX      @DPTR,A
   \   000024   A3           INC       DPTR
   \   000025   12....       LCALL     ?Subroutine27 & 0xFFFF
    897            pNewItem->numAttributes = numAttr;
   \                     ??CrossCallReturnLabel_22:
   \   000028   E5..         MOV       A,?V1
   \   00002A   12....       LCALL     ?Subroutine27 & 0xFFFF
    898            pNewItem->attrs = newAttrList;
   \                     ??CrossCallReturnLabel_23:
   \   00002D   A3           INC       DPTR
   \   00002E   EE           MOV       A,R6
   \   00002F   F0           MOVX      @DPTR,A
   \   000030   A3           INC       DPTR
   \   000031   EF           MOV       A,R7
   \   000032   F0           MOVX      @DPTR,A
    899          
    900            // Find spot in list
    901            if ( attrList == NULL )
   \   000033   90....       MOV       DPTR,#attrList
   \   000036   12....       LCALL     ??Subroutine215_0 & 0xFFFF
   \                     ??CrossCallReturnLabel_372:
   \   000039   90....       MOV       DPTR,#attrList
   \   00003C   6011         JZ        ??zcl_registerAttrList_1
    902            {
    903              attrList = pNewItem;
    904            }
    905            else
    906            {
    907              // Look for end of list
    908              pLoop = attrList;
   \   00003E   12....       LCALL     ?Subroutine125 & 0xFFFF
   \                     ??CrossCallReturnLabel_216:
   \   000041   8003         SJMP      ??zcl_registerAttrList_2
    909              while ( pLoop->next != NULL )
    910              {
    911                pLoop = pLoop->next;
   \                     ??zcl_registerAttrList_3:
   \   000043   EA           MOV       A,R2
   \   000044   FC           MOV       R4,A
   \   000045   EB           MOV       A,R3
    912              }
   \                     ??zcl_registerAttrList_2:
   \   000046   12....       LCALL     ?Subroutine51 & 0xFFFF
   \                     ??CrossCallReturnLabel_366:
   \   000049   70F8         JNZ       ??zcl_registerAttrList_3
    913          
    914              // Put new item at end of list
    915              pLoop->next = pNewItem;
   \   00004B   8C82         MOV       DPL,R4
   \   00004D   8D83         MOV       DPH,R5
    916            }
   \                     ??zcl_registerAttrList_1:
   \   00004F   12....       LCALL     ?Subroutine30 & 0xFFFF
    917          
    918            return ( ZSuccess );
   \                     ??CrossCallReturnLabel_30:
   \   000052   80..         SJMP      ??Subroutine213_0
    919          }

   \                                 In  segment BANKED_CODE, align 1, keep-with-next
   \                     ?Subroutine27:
   \   000000   12....       LCALL     ?Subroutine164 & 0xFFFF
   \                     ??CrossCallReturnLabel_278:
   \   000003   A3           INC       DPTR
   \   000004   A3           INC       DPTR
   \   000005   22           RET

   \                                 In  segment BANKED_CODE, align 1, keep-with-next
   \                     ?Subroutine164:
   \   000000   12....       LCALL     ?Subroutine203 & 0xFFFF
   \                     ??CrossCallReturnLabel_341:
   \   000003   A3           INC       DPTR
   \   000004   A3           INC       DPTR
   \   000005   A3           INC       DPTR
   \   000006   A3           INC       DPTR
   \   000007   22           RET
    920          
    921          /*********************************************************************
    922           * @fn          zcl_registerClusterOptionList
    923           *
    924           * @brief       Register a Cluster Option List with ZCL Foundation
    925           *
    926           * @param       endpoint - endpoint the option list belongs to
    927           * @param       numOption - number of options in list
    928           * @param       optionList - array of cluster option records.
    929           *
    930           *              NOTE: This API should be called to enable 'Application
    931           *                    Link Key' security and/or 'APS ACK' for a specific
    932           *                    Cluster. The 'Application Link Key' is discarded
    933           *                    if security isn't enabled on the device.
    934           *                    The default behavior is 'Network Key' when security
    935           *                    is enabled and no 'APS ACK' for the ZCL messages.
    936           *
    937           * @return      ZSuccess if OK
    938           */

   \                                 In  segment BANKED_CODE, align 1, keep-with-next
    939          ZStatus_t zcl_registerClusterOptionList( uint8 endpoint, uint8 numOption, zclOptionRec_t optionList[] )
   \                     zcl_registerClusterOptionList:
    940          {
   \   000000                REQUIRE ?V0
   \   000000                REQUIRE ?V1
   \   000000                REQUIRE ?V2
   \   000000                REQUIRE ?V3
   \   000000   74F4         MOV       A,#-0xc
   \   000002   12....       LCALL     ?BANKED_ENTER_XDATA
   \   000005                ; Saved register size: 12
   \   000005                ; Auto size: 0
   \   000005   12....       LCALL     ?Subroutine134 & 0xFFFF
    941            zclClusterOptionList *pNewItem;
    942            zclClusterOptionList *pLoop;
    943          
    944            // Fill in the new profile list
    945            pNewItem = zcl_mem_alloc( sizeof( zclClusterOptionList ) );
    946            if ( pNewItem == NULL )
   \                     ??CrossCallReturnLabel_357:
   \   000008   7004         JNZ       ??zcl_registerClusterOptionList_0
    947            {
    948              return (ZMemError);
   \   00000A   7910         MOV       R1,#0x10
   \   00000C   8022         SJMP      ??CrossCallReturnLabel_31
    949            }
    950          
    951            pNewItem->next = (zclClusterOptionList *)NULL;
   \                     ??zcl_registerClusterOptionList_0:
   \   00000E   12....       LCALL     ?Subroutine15 & 0xFFFF
    952            pNewItem->endpoint = endpoint;
    953            pNewItem->numOptions = numOption;
    954            pNewItem->options = optionList;
    955          
    956            // Find spot in list
    957            if ( clusterOptionList == NULL )
   \                     ??CrossCallReturnLabel_3:
   \   000011   90....       MOV       DPTR,#clusterOptionList
   \   000014   12....       LCALL     ??Subroutine215_0 & 0xFFFF
   \                     ??CrossCallReturnLabel_373:
   \   000017   90....       MOV       DPTR,#clusterOptionList
   \   00001A   6011         JZ        ??zcl_registerClusterOptionList_1
    958            {
    959              clusterOptionList = pNewItem;
    960            }
    961            else
    962            {
    963              // Look for end of list
    964              pLoop = clusterOptionList;
   \   00001C   12....       LCALL     ?Subroutine125 & 0xFFFF
   \                     ??CrossCallReturnLabel_217:
   \   00001F   8003         SJMP      ??zcl_registerClusterOptionList_2
    965              while ( pLoop->next != NULL )
    966              {
    967                pLoop = pLoop->next;
   \                     ??zcl_registerClusterOptionList_3:
   \   000021   EA           MOV       A,R2
   \   000022   FC           MOV       R4,A
   \   000023   EB           MOV       A,R3
    968              }
   \                     ??zcl_registerClusterOptionList_2:
   \   000024   12....       LCALL     ?Subroutine51 & 0xFFFF
   \                     ??CrossCallReturnLabel_367:
   \   000027   70F8         JNZ       ??zcl_registerClusterOptionList_3
    969          
    970              // Put new item at end of list
    971              pLoop->next = pNewItem;
   \   000029   8C82         MOV       DPL,R4
   \   00002B   8D83         MOV       DPH,R5
    972            }
   \                     ??zcl_registerClusterOptionList_1:
   \   00002D   12....       LCALL     ?Subroutine30 & 0xFFFF
    973          
    974            return ( ZSuccess );
   \                     ??CrossCallReturnLabel_31:
   \   000030   80..         SJMP      ??Subroutine213_0
    975          }
    976          
    977          /*********************************************************************
    978           * @fn          zcl_registerValidateAttrData
    979           *
    980           * @brief       Add a validation function for attribute data
    981           *
    982           * @param       pfnValidateAttrData - function pointer to validate routine
    983           *
    984           * @return      ZSuccess if OK
    985           */

   \                                 In  segment BANKED_CODE, align 1, keep-with-next
    986          ZStatus_t zcl_registerValidateAttrData( zclValidateAttrData_t pfnValidateAttrData )
   \                     zcl_registerValidateAttrData:
    987          {
   \   000000   C082         PUSH      DPL
   \   000002   C083         PUSH      DPH
   \   000004                ; Saved register size: 2
   \   000004                ; Auto size: 0
    988            zcl_ValidateAttrDataCB = pfnValidateAttrData;
   \   000004   90....       MOV       DPTR,#zcl_ValidateAttrDataCB
   \   000007   12....       LCALL     ??Subroutine275_0 & 0xFFFF
    989          
    990            return ( ZSuccess );
   \                     ??CrossCallReturnLabel_690:
   \   00000A   7900         MOV       R1,#0x0
   \   00000C                REQUIRE ?Subroutine0
   \   00000C                ; // Fall through to label ?Subroutine0
    991          }
    992          
    993          /*********************************************************************
    994           * @fn          zcl_registerReadWriteCB
    995           *
    996           * @brief       Register the application's callback function to read/write
    997           *              attribute data, and authorize read/write operation.
    998           *
    999           *              Note: The pfnReadWriteCB callback function is only required
   1000           *                    when the attribute data format is unknown to ZCL. The
   1001           *                    callback function gets called when the pointer 'dataPtr'
   1002           *                    to the attribute value is NULL in the attribute database
   1003           *                    registered with the ZCL.
   1004           *
   1005           *              Note: The pfnAuthorizeCB callback function is only required
   1006           *                    when the Read/Write operation on an attribute requires
   1007           *                    authorization (i.e., attributes with ACCESS_CONTROL_AUTH_READ
   1008           *                    or ACCESS_CONTROL_AUTH_WRITE access permissions).
   1009           *
   1010           * @param       endpoint - application's endpoint
   1011           * @param       pfnReadWriteCB - function pointer to read/write routine
   1012           * @param       pfnAuthorizeCB - function pointer to authorize read/write operation
   1013           *
   1014           * @return      ZSuccess if successful. ZFailure, otherwise.
   1015           */

   \                                 In  segment BANKED_CODE, align 1, keep-with-next
   1016          ZStatus_t zcl_registerReadWriteCB( uint8 endpoint, zclReadWriteCB_t pfnReadWriteCB,
   \                     zcl_registerReadWriteCB:
   1017                                             zclAuthorizeCB_t pfnAuthorizeCB )
   1018          {
   \   000000                REQUIRE ?V0
   \   000000                REQUIRE ?V1
   \   000000                REQUIRE ?V2
   \   000000                REQUIRE ?V4
   \   000000                REQUIRE ?V5
   \   000000   74F2         MOV       A,#-0xe
   \   000002   12....       LCALL     ?BANKED_ENTER_XDATA
   \   000005                ; Saved register size: 14
   \   000005                ; Auto size: 0
   \   000005   EA           MOV       A,R2
   \   000006   FE           MOV       R6,A
   \   000007   EB           MOV       A,R3
   \   000008   FF           MOV       R7,A
   \   000009   8C..         MOV       ?V0,R4
   \   00000B   8D..         MOV       ?V1,R5
   1019            zclAttrRecsList *pRec = zclFindAttrRecsList( endpoint );
   \   00000D                ; Setup parameters for call to function zclFindAttrRecsList
   \   00000D   12....       LCALL     `??zclFindAttrRecsList::?relay`; Banked call to: zclFindAttrRecsList
   \   000010   8B..         MOV       ?V5,R3
   \   000012   A9..         MOV       R1,?V5
   1020          
   1021            if ( pRec != NULL )
   \   000014   EA           MOV       A,R2
   \   000015   49           ORL       A,R1
   \   000016   6019         JZ        ??zcl_registerReadWriteCB_0
   1022            {
   1023              pRec->pfnReadWriteCB = pfnReadWriteCB;
   \   000018   8A82         MOV       DPL,R2
   \   00001A   8B83         MOV       DPH,R3
   \   00001C   A3           INC       DPTR
   \   00001D   A3           INC       DPTR
   \   00001E   A3           INC       DPTR
   \   00001F   EE           MOV       A,R6
   \   000020   F0           MOVX      @DPTR,A
   \   000021   A3           INC       DPTR
   \   000022   EF           MOV       A,R7
   \   000023   12....       LCALL     ?Subroutine34 & 0xFFFF
   1024              pRec->pfnAuthorizeCB = pfnAuthorizeCB;
   \                     ??CrossCallReturnLabel_38:
   \   000026   E5..         MOV       A,?V0
   \   000028   F0           MOVX      @DPTR,A
   \   000029   A3           INC       DPTR
   \   00002A   E5..         MOV       A,?V1
   \   00002C   F0           MOVX      @DPTR,A
   1025          
   1026              return ( ZSuccess );
   \   00002D   7900         MOV       R1,#0x0
   \   00002F   8002         SJMP      ??zcl_registerReadWriteCB_1
   1027            }
   1028          
   1029            return ( ZFailure );
   \                     ??zcl_registerReadWriteCB_0:
   \   000031   7901         MOV       R1,#0x1
   \                     ??zcl_registerReadWriteCB_1:
   \   000033   02....       LJMP      ?Subroutine4 & 0xFFFF
   1030          }

   \                                 In  segment BANKED_CODE, align 1, keep-with-next
   \                     ?Subroutine34:
   \   000000   12....       LCALL     ?Subroutine164 & 0xFFFF
   \                     ??CrossCallReturnLabel_279:
   \   000003   22           RET
   1031          
   1032          /*********************************************************************
   1033           * @fn      zcl_DeviceOperational
   1034           *
   1035           * @brief   Used to see whether or not the device can send or respond
   1036           *          to application level commands.
   1037           *
   1038           * @param   srcEP - source endpoint
   1039           * @param   clusterID - cluster ID
   1040           * @param   frameType - command type
   1041           * @param   cmd - command ID
   1042           *
   1043           * @return  TRUE if device is operational, FALSE otherwise
   1044           */

   \                                 In  segment BANKED_CODE, align 1, keep-with-next
   \                     ?Subroutine1:
   \   000000   12....       LCALL     ?DEALLOC_XSTACK8
   \   000003                REQUIRE ??Subroutine213_0
   \   000003                ; // Fall through to label ??Subroutine213_0

   \                                 In  segment BANKED_CODE, align 1, keep-with-next
   1045          static uint8 zcl_DeviceOperational( uint8 srcEP, uint16 clusterID,
   \                     zcl_DeviceOperational:
   1046                                              uint8 frameType, uint8 cmd, uint16 profileID )
   1047          {
   \   000000                REQUIRE ?V0
   \   000000                REQUIRE ?V2
   \   000000                REQUIRE ?V3
   \   000000   74F4         MOV       A,#-0xc
   \   000002   12....       LCALL     ?BANKED_ENTER_XDATA
   \   000005                ; Saved register size: 12
   \   000005                ; Auto size: 9
   \   000005   74F7         MOV       A,#-0x9
   \   000007   12....       LCALL     ?ALLOC_XSTACK8
   \   00000A   E9           MOV       A,R1
   \   00000B   FE           MOV       R6,A
   1048            zclAttrRec_t attrRec;
   1049            uint8 deviceEnabled = DEVICE_ENABLED; // default value
   \   00000C   85..82       MOV       DPL,?XSP + 0
   \   00000F   85..83       MOV       DPH,?XSP + 1
   \   000012   7401         MOV       A,#0x1
   \   000014   F0           MOVX      @DPTR,A
   1050          
   1051            (void)profileID;  // Intentionally unreferenced parameter
   1052          
   1053            // If the device is Disabled (DeviceEnabled attribute is set to Disabled), it
   1054            // cannot send or respond to application level commands, other than commands
   1055            // to read or write attributes. Note that the Identify cluster cannot be
   1056            // disabled, and remains functional regardless of this setting.
   1057            if ( zcl_ProfileCmd( frameType ) && cmd <= ZCL_CMD_WRITE_NO_RSP )
   \   000015   EC           MOV       A,R4
   \   000016   7006         JNZ       ??zcl_DeviceOperational_0
   \   000018   ED           MOV       A,R5
   \   000019   C3           CLR       C
   \   00001A   9406         SUBB      A,#0x6
   \   00001C   404D         JC        ??zcl_DeviceOperational_1
   1058            {
   1059              return ( TRUE );
   1060            }
   1061          
   1062            if ( clusterID == ZCL_CLUSTER_ID_GEN_IDENTIFY )
   \                     ??zcl_DeviceOperational_0:
   \   00001E   7403         MOV       A,#0x3
   \   000020   6A           XRL       A,R2
   \   000021   4B           ORL       A,R3
   \   000022   6047         JZ        ??zcl_DeviceOperational_1
   1063            {
   1064              return ( TRUE );
   1065            }
   1066          
   1067            // Is device enabled?
   1068            if ( zclFindAttrRec( srcEP, ZCL_CLUSTER_ID_GEN_BASIC,
   1069                                 ATTRID_BASIC_DEVICE_ENABLED, &attrRec ) )
   \   000024                ; Setup parameters for call to function zclFindAttrRec
   \   000024   7401         MOV       A,#0x1
   \   000026   12....       LCALL     ?XSTACK_DISP100_8
   \   000029   88..         MOV       ?V2,R0
   \   00002B   89..         MOV       ?V3,R1
   \   00002D   78..         MOV       R0,#?V2
   \   00002F   12....       LCALL     ?PUSH_XSTACK_I_TWO
   \   000032   7C12         MOV       R4,#0x12
   \   000034   7D00         MOV       R5,#0x0
   \   000036   7A00         MOV       R2,#0x0
   \   000038   7B00         MOV       R3,#0x0
   \   00003A   EE           MOV       A,R6
   \   00003B   12....       LCALL     ?Subroutine147 & 0xFFFF
   \                     ??CrossCallReturnLabel_360:
   \   00003E   12....       LCALL     ?DEALLOC_XSTACK8
   \   000041   E9           MOV       A,R1
   \   000042   601C         JZ        ??zcl_DeviceOperational_2
   1070            {
   1071          #ifdef ZCL_READ
   1072              zclReadAttrData( &deviceEnabled, &attrRec, NULL );
   \   000044                ; Setup parameters for call to function zclReadAttrData
   \   000044   E4           CLR       A
   \   000045   F5..         MOV       ?V2,A
   \   000047   F5..         MOV       ?V3,A
   \   000049   78..         MOV       R0,#?V2
   \   00004B   12....       LCALL     ?PUSH_XSTACK_I_TWO
   \   00004E   7403         MOV       A,#0x3
   \   000050   12....       LCALL     ?XSTACK_DISP102_8
   \   000053   7402         MOV       A,#0x2
   \   000055   12....       LCALL     ?XSTACK_DISP101_8
   \   000058   12....       LCALL     `??zclReadAttrData::?relay`; Banked call to: zclReadAttrData
   \   00005B   7402         MOV       A,#0x2
   \   00005D   12....       LCALL     ?DEALLOC_XSTACK8
   1073          #endif
   1074            }
   1075          
   1076            return ( deviceEnabled == DEVICE_ENABLED ? TRUE : FALSE );
   \                     ??zcl_DeviceOperational_2:
   \   000060   85..82       MOV       DPL,?XSP + 0
   \   000063   85..83       MOV       DPH,?XSP + 1
   \   000066   E0           MOVX      A,@DPTR
   \   000067   6401         XRL       A,#0x1
   \   000069   7004         JNZ       ??zcl_DeviceOperational_3
   \                     ??zcl_DeviceOperational_1:
   \   00006B   7901         MOV       R1,#0x1
   \   00006D   8002         SJMP      ??zcl_DeviceOperational_4
   \                     ??zcl_DeviceOperational_3:
   \   00006F   7900         MOV       R1,#0x0
   \                     ??zcl_DeviceOperational_4:
   \   000071   7409         MOV       A,#0x9
   \   000073   02....       LJMP      ?Subroutine1 & 0xFFFF
   1077          }

   \                                 In  segment BANKED_CODE, align 1, keep-with-next
   \                     ?Subroutine147:
   \   000000   F9           MOV       R1,A
   \   000001                REQUIRE ??Subroutine214_0
   \   000001                ; // Fall through to label ??Subroutine214_0

   \                                 In  segment BANKED_CODE, align 1, keep-with-next
   \                     ??Subroutine214_0:
   \   000000   12....       LCALL     `??zclFindAttrRec::?relay`; Banked call to: zclFindAttrRec
   \   000003   7402         MOV       A,#0x2
   \   000005   22           RET
   1078          
   1079          /*********************************************************************
   1080           * @fn      zcl_SendCommand
   1081           *
   1082           * @brief   Used to send Profile and Cluster Specific Command messages.
   1083           *
   1084           *          NOTE: The calling application is responsible for incrementing
   1085           *                the Sequence Number.
   1086           *
   1087           * @param   srcEp - source endpoint
   1088           * @param   destAddr - destination address
   1089           * @param   clusterID - cluster ID
   1090           * @param   cmd - command ID
   1091           * @param   specific - whether the command is Cluster Specific
   1092           * @param   direction - client/server direction of the command
   1093           * @param   disableDefaultRsp - disable Default Response command
   1094           * @param   manuCode - manufacturer code for proprietary extensions to a profile
   1095           * @param   seqNumber - identification number for the transaction
   1096           * @param   cmdFormatLen - length of the command to be sent
   1097           * @param   cmdFormat - command to be sent
   1098           *
   1099           * @return  ZSuccess if OK
   1100           */

   \                                 In  segment BANKED_CODE, align 1, keep-with-next
   1101          ZStatus_t zcl_SendCommand( uint8 srcEP, afAddrType_t *destAddr,
   \                     zcl_SendCommand:
   1102                                     uint16 clusterID, uint8 cmd, uint8 specific, uint8 direction,
   1103                                     uint8 disableDefaultRsp, uint16 manuCode, uint8 seqNum,
   1104                                     uint16 cmdFormatLen, uint8 *cmdFormat )
   1105          {
   \   000000                REQUIRE ?V0
   \   000000                REQUIRE ?V1
   \   000000                REQUIRE ?V2
   \   000000                REQUIRE ?V3
   \   000000                REQUIRE ?V4
   \   000000                REQUIRE ?V5
   \   000000                REQUIRE ?V6
   \   000000                REQUIRE ?V8
   \   000000                REQUIRE ?V9
   \   000000                REQUIRE ?V10
   \   000000                REQUIRE ?V11
   \   000000                REQUIRE ?V12
   \   000000                REQUIRE ?V13
   \   000000                REQUIRE ?V14
   \   000000                REQUIRE ?V15
   \   000000   74E8         MOV       A,#-0x18
   \   000002   12....       LCALL     ?BANKED_ENTER_XDATA
   \   000005                ; Saved register size: 24
   \   000005                ; Auto size: 6
   \   000005   74FA         MOV       A,#-0x6
   \   000007   12....       LCALL     ?ALLOC_XSTACK8
   \   00000A   89..         MOV       ?V3,R1
   \   00000C   8A..         MOV       ?V14,R2
   \   00000E   8B..         MOV       ?V15,R3
   \   000010   8C..         MOV       ?V0,R4
   \   000012   8D..         MOV       ?V1,R5
   1106            endPointDesc_t *epDesc;
   1107            zclFrameHdr_t hdr;
   1108            uint8 *msgBuf;
   1109            uint16 msgLen;
   1110            uint8 *pBuf;
   1111            uint8 options;
   1112            ZStatus_t status;
   1113          
   1114            epDesc = afFindEndPointDesc( srcEP );
   \   000014                ; Setup parameters for call to function afFindEndPointDesc
   \   000014   12....       LCALL     `??afFindEndPointDesc::?relay`; Banked call to: afFindEndPointDesc
   \   000017   8A..         MOV       ?V12,R2
   \   000019   8B..         MOV       ?V13,R3
   1115            if ( epDesc == NULL )
   \   00001B   EA           MOV       A,R2
   \   00001C   4B           ORL       A,R3
   \   00001D   7005         JNZ       ??zcl_SendCommand_0
   1116            {
   1117              return ( ZInvalidParameter ); // EMBEDDED RETURN
   \   00001F   7902         MOV       R1,#0x2
   \   000021   02....       LJMP      ??zcl_SendCommand_1 & 0xFFFF
   1118            }
   1119          
   1120          #if defined ( INTER_PAN )
   1121            if ( StubAPS_InterPan( destAddr->panId, destAddr->endPoint ) )
   \                     ??zcl_SendCommand_0:
   \   000024                ; Setup parameters for call to function StubAPS_InterPan
   \   000024   85..82       MOV       DPL,?V14
   \   000027   85..83       MOV       DPH,?V15
   \   00002A   A3           INC       DPTR
   \   00002B   A3           INC       DPTR
   \   00002C   A3           INC       DPTR
   \   00002D   A3           INC       DPTR
   \   00002E   A3           INC       DPTR
   \   00002F   A3           INC       DPTR
   \   000030   A3           INC       DPTR
   \   000031   A3           INC       DPTR
   \   000032   A3           INC       DPTR
   \   000033   E0           MOVX      A,@DPTR
   \   000034   F9           MOV       R1,A
   \   000035   85..82       MOV       DPL,?V14
   \   000038   85..83       MOV       DPH,?V15
   \   00003B   A3           INC       DPTR
   \   00003C   A3           INC       DPTR
   \   00003D   A3           INC       DPTR
   \   00003E   A3           INC       DPTR
   \   00003F   A3           INC       DPTR
   \   000040   A3           INC       DPTR
   \   000041   A3           INC       DPTR
   \   000042   A3           INC       DPTR
   \   000043   A3           INC       DPTR
   \   000044   A3           INC       DPTR
   \   000045   12....       LCALL     ?Subroutine108 & 0xFFFF
   \                     ??CrossCallReturnLabel_181:
   \   000048   6005         JZ        ??zcl_SendCommand_2
   1122            {
   1123              options = AF_TX_OPTIONS_NONE;
   \   00004A   75..00       MOV       ?V2,#0x0
   \   00004D   8030         SJMP      ??zcl_SendCommand_3
   1124            }
   1125            else
   1126          #endif
   1127            {
   1128              options = zclGetClusterOption( srcEP, clusterID );
   \                     ??zcl_SendCommand_2:
   \   00004F                ; Setup parameters for call to function zclGetClusterOption
   \   00004F   AA..         MOV       R2,?V0
   \   000051   AB..         MOV       R3,?V1
   \   000053   A9..         MOV       R1,?V3
   \   000055   12....       LCALL     `??zclGetClusterOption::?relay`; Banked call to: zclGetClusterOption
   \   000058   E9           MOV       A,R1
   \   000059   F5..         MOV       ?V2,A
   1129          
   1130          	options |= AF_ACK_REQUEST;
   \   00005B   D2E4         SETB      0xE0 /* A   */.4
   \   00005D   F5..         MOV       ?V2,A
   1131          
   1132              // The cluster might not have been defined to use security but if this message
   1133              // is in response to another message that was using APS security this message
   1134              // will be sent with APS security
   1135              if ( !( options & AF_EN_SECURITY ) )
   \   00005F   A2E6         MOV       C,0xE0 /* A   */.6
   \   000061   401C         JC        ??zcl_SendCommand_3
   1136              {
   1137                afIncomingMSGPacket_t *origPkt = zcl_getRawAFMsg();
   \   000063   90....       MOV       DPTR,#rawAFMsg
   \   000066   12....       LCALL     ??Subroutine235_0 & 0xFFFF
   1138          
   1139                if ( ( origPkt != NULL ) && ( origPkt->SecurityUse == TRUE ) )
   \                     ??CrossCallReturnLabel_455:
   \   000069   6014         JZ        ??zcl_SendCommand_3
   \   00006B   E8           MOV       A,R0
   \   00006C   2419         ADD       A,#0x19
   \   00006E   F582         MOV       DPL,A
   \   000070   E4           CLR       A
   \   000071   39           ADDC      A,R1
   \   000072   F583         MOV       DPH,A
   \   000074   E0           MOVX      A,@DPTR
   \   000075   6401         XRL       A,#0x1
   \   000077   7006         JNZ       ??zcl_SendCommand_3
   1140                {
   1141                  options |= AF_EN_SECURITY;
   \   000079   E5..         MOV       A,?V2
   \   00007B   D2E6         SETB      0xE0 /* A   */.6
   \   00007D   F5..         MOV       ?V2,A
   1142                }
   1143              }
   1144            }
   1145          
   1146            zcl_memset( &hdr, 0, sizeof( zclFrameHdr_t ) );
   \                     ??zcl_SendCommand_3:
   \   00007F                ; Setup parameters for call to function osal_memset
   \   00007F   7C06         MOV       R4,#0x6
   \   000081   7D00         MOV       R5,#0x0
   \   000083   7900         MOV       R1,#0x0
   \   000085   AA..         MOV       R2,?XSP + 0
   \   000087   AB..         MOV       R3,?XSP + 1
   \   000089   12....       LCALL     `??osal_memset::?relay`; Banked call to: osal_memset
   1147          
   1148            // Not Profile wide command (like READ, WRITE)
   1149            if ( specific )
   \   00008C   741F         MOV       A,#0x1f
   \   00008E   12....       LCALL     ?XSTACK_DISP0_8
   \   000091   12....       LCALL     ?Subroutine127 & 0xFFFF
   \                     ??CrossCallReturnLabel_222:
   \   000094   6009         JZ        ??zcl_SendCommand_4
   1150            {
   1151              hdr.fc.type = ZCL_FRAME_TYPE_SPECIFIC_CMD;
   \   000096   E0           MOVX      A,@DPTR
   \   000097   54FC         ANL       A,#0xfc
   \   000099   F0           MOVX      @DPTR,A
   \   00009A   E0           MOVX      A,@DPTR
   \   00009B   4401         ORL       A,#0x1
   \   00009D   8003         SJMP      ??zcl_SendCommand_5
   1152            }
   1153            else
   1154            {
   1155              hdr.fc.type = ZCL_FRAME_TYPE_PROFILE_CMD;
   \                     ??zcl_SendCommand_4:
   \   00009F   E0           MOVX      A,@DPTR
   \   0000A0   54FC         ANL       A,#0xfc
   1156            }
   \                     ??zcl_SendCommand_5:
   \   0000A2   12....       LCALL     ?Subroutine204 & 0xFFFF
   1157          
   1158            if ( ( epDesc->simpleDesc == NULL ) ||
   1159                 ( zcl_DeviceOperational( srcEP, clusterID, hdr.fc.type,
   1160                                          cmd, epDesc->simpleDesc->AppProfId ) == FALSE ) )
   \                     ??CrossCallReturnLabel_342:
   \   0000A5   A3           INC       DPTR
   \   0000A6   12....       LCALL     ??Subroutine234_0 & 0xFFFF
   \                     ??CrossCallReturnLabel_466:
   \   0000A9   602B         JZ        ??zcl_SendCommand_6
   \   0000AB   741E         MOV       A,#0x1e
   \   0000AD   12....       LCALL     ?XSTACK_DISP0_8
   \   0000B0   E0           MOVX      A,@DPTR
   \   0000B1   FE           MOV       R6,A
   \   0000B2                ; Setup parameters for call to function zcl_DeviceOperational
   \   0000B2   8882         MOV       DPL,R0
   \   0000B4   8983         MOV       DPH,R1
   \   0000B6   A3           INC       DPTR
   \   0000B7   12....       LCALL     ?PUSH_XSTACK8_X_TWO
   \   0000BA   EE           MOV       A,R6
   \   0000BB   FD           MOV       R5,A
   \   0000BC   7402         MOV       A,#0x2
   \   0000BE   12....       LCALL     ?XSTACK_DISP0_8
   \   0000C1   E0           MOVX      A,@DPTR
   \   0000C2   5403         ANL       A,#0x3
   \   0000C4   FC           MOV       R4,A
   \   0000C5   AA..         MOV       R2,?V0
   \   0000C7   AB..         MOV       R3,?V1
   \   0000C9   A9..         MOV       R1,?V3
   \   0000CB   12....       LCALL     `??zcl_DeviceOperational::?relay`; Banked call to: zcl_DeviceOperational
   \   0000CE   7402         MOV       A,#0x2
   \   0000D0   12....       LCALL     ?DEALLOC_XSTACK8
   \   0000D3   E9           MOV       A,R1
   \   0000D4   7005         JNZ       ??zcl_SendCommand_7
   1161            {
   1162              return ( ZFailure ); // EMBEDDED RETURN
   \                     ??zcl_SendCommand_6:
   \   0000D6   7901         MOV       R1,#0x1
   \   0000D8   02....       LJMP      ??zcl_SendCommand_1 & 0xFFFF
   1163            }
   \                     ??zcl_SendCommand_7:
   \   0000DB   7422         MOV       A,#0x22
   \   0000DD   12....       LCALL     ?XSTACK_DISP0_8
   \   0000E0   12....       LCALL     ??Subroutine235_0 & 0xFFFF
   1164          
   1165            // Fill in the Maufacturer Code
   1166            if ( manuCode != 0 )
   \                     ??CrossCallReturnLabel_456:
   \   0000E3   6012         JZ        ??CrossCallReturnLabel_472
   1167            {
   1168              hdr.fc.manuSpecific = 1;
   \   0000E5   85..82       MOV       DPL,?XSP + 0
   \   0000E8   85..83       MOV       DPH,?XSP + 1
   \   0000EB   E0           MOVX      A,@DPTR
   \   0000EC   4404         ORL       A,#0x4
   \   0000EE   F0           MOVX      @DPTR,A
   1169              hdr.manuCode = manuCode;
   \   0000EF   7402         MOV       A,#0x2
   \   0000F1   12....       LCALL     ?XSTACK_DISP0_8
   \   0000F4   12....       LCALL     ??Subroutine236_0 & 0xFFFF
   1170            }
   1171          
   1172            // Set the Command Direction
   1173            if ( direction )
   \                     ??CrossCallReturnLabel_472:
   \   0000F7   7420         MOV       A,#0x20
   \   0000F9   12....       LCALL     ?XSTACK_DISP0_8
   \   0000FC   12....       LCALL     ?Subroutine127 & 0xFFFF
   \                     ??CrossCallReturnLabel_223:
   \   0000FF   6005         JZ        ??zcl_SendCommand_8
   1174            {
   1175              hdr.fc.direction = ZCL_FRAME_SERVER_CLIENT_DIR;
   \   000101   E0           MOVX      A,@DPTR
   \   000102   4408         ORL       A,#0x8
   \   000104   8003         SJMP      ??zcl_SendCommand_9
   1176            }
   1177            else
   1178            {
   1179              hdr.fc.direction = ZCL_FRAME_CLIENT_SERVER_DIR;
   \                     ??zcl_SendCommand_8:
   \   000106   E0           MOVX      A,@DPTR
   \   000107   54F7         ANL       A,#0xf7
   \                     ??zcl_SendCommand_9:
   \   000109   F0           MOVX      @DPTR,A
   1180            }
   1181          
   1182            // Set the Disable Default Response field
   1183            if ( disableDefaultRsp )
   \   00010A   7421         MOV       A,#0x21
   \   00010C   12....       LCALL     ?XSTACK_DISP0_8
   \   00010F   12....       LCALL     ?Subroutine127 & 0xFFFF
   \                     ??CrossCallReturnLabel_224:
   \   000112   6005         JZ        ??zcl_SendCommand_10
   1184            {
   1185              hdr.fc.disableDefaultRsp = 1;
   \   000114   E0           MOVX      A,@DPTR
   \   000115   4410         ORL       A,#0x10
   \   000117   8003         SJMP      ??zcl_SendCommand_11
   1186            }
   1187            else
   1188            {
   1189              hdr.fc.disableDefaultRsp = 0;
   \                     ??zcl_SendCommand_10:
   \   000119   E0           MOVX      A,@DPTR
   \   00011A   54EF         ANL       A,#0xef
   \                     ??zcl_SendCommand_11:
   \   00011C   F0           MOVX      @DPTR,A
   1190            }
   1191          
   1192            // Fill in the Transaction Sequence Number
   1193            hdr.transSeqNum = seqNum;
   \   00011D   7424         MOV       A,#0x24
   \   00011F   12....       LCALL     ?XSTACK_DISP0_8
   \   000122   E0           MOVX      A,@DPTR
   \   000123   C0E0         PUSH      A
   \   000125   7404         MOV       A,#0x4
   \   000127   12....       LCALL     ?XSTACK_DISP0_8
   \   00012A   D0E0         POP       A
   \   00012C   F0           MOVX      @DPTR,A
   1194          
   1195            // Fill in the command
   1196            hdr.commandID = cmd;
   \   00012D   7405         MOV       A,#0x5
   \   00012F   12....       LCALL     ?XSTACK_DISP0_8
   \   000132   EE           MOV       A,R6
   \   000133   F0           MOVX      @DPTR,A
   1197          
   1198            // calculate the needed buffer size
   1199            msgLen = zclCalcHdrSize( &hdr );
   \   000134   7803         MOV       R0,#0x3
   \   000136   85..82       MOV       DPL,?XSP + 0
   \   000139   85..83       MOV       DPH,?XSP + 1
   \   00013C   E0           MOVX      A,@DPTR
   \   00013D   5404         ANL       A,#0x4
   \   00013F   6002         JZ        ??zcl_SendCommand_12
   \   000141   7805         MOV       R0,#0x5
   \                     ??zcl_SendCommand_12:
   \   000143   7425         MOV       A,#0x25
   \   000145   12....       LCALL     ?XSTACK_DISP0_8
   \   000148   E0           MOVX      A,@DPTR
   \   000149   F5..         MOV       ?V10,A
   \   00014B   A3           INC       DPTR
   \   00014C   E0           MOVX      A,@DPTR
   \   00014D   F5..         MOV       ?V11,A
   1200            msgLen += cmdFormatLen;
   \   00014F   E8           MOV       A,R0
   \   000150   25..         ADD       A,?V10
   \   000152   FE           MOV       R6,A
   \   000153   E4           CLR       A
   \   000154   35..         ADDC      A,?V11
   \   000156   FF           MOV       R7,A
   1201          
   1202            // Allocate the buffer needed
   1203            msgBuf = zcl_mem_alloc( msgLen );
   \   000157                ; Setup parameters for call to function osal_mem_alloc
   \   000157   EE           MOV       A,R6
   \   000158   FA           MOV       R2,A
   \   000159   EF           MOV       A,R7
   \   00015A   12....       LCALL     ?Subroutine136 & 0xFFFF
   1204            if ( msgBuf != NULL )
   \                     ??CrossCallReturnLabel_233:
   \   00015D   6066         JZ        ??zcl_SendCommand_13
   1205            {
   1206              // Fill in the ZCL Header
   1207              pBuf = zclBuildHdr( &hdr, msgBuf );
   \   00015F                ; Setup parameters for call to function zclBuildHdr
   \   00015F   AC..         MOV       R4,?V8
   \   000161   AD..         MOV       R5,?V9
   \   000163   AA..         MOV       R2,?XSP + 0
   \   000165   AB..         MOV       R3,?XSP + 1
   \   000167   12....       LCALL     `??zclBuildHdr::?relay`; Banked call to: zclBuildHdr
   1208          
   1209              // Fill in the command frame
   1210              zcl_memcpy( pBuf, cmdFormat, cmdFormatLen );
   \   00016A                ; Setup parameters for call to function osal_memcpy
   \   00016A   7427         MOV       A,#0x27
   \   00016C   12....       LCALL     ?XSTACK_DISP0_8
   \   00016F   12....       LCALL     ?Subroutine65 & 0xFFFF
   \                     ??CrossCallReturnLabel_104:
   \   000172   12....       LCALL     ?PUSH_XSTACK_I_THREE
   \   000175   AC..         MOV       R4,?V10
   \   000177   AD..         MOV       R5,?V11
   \   000179   12....       LCALL     ??Subroutine241_0 & 0xFFFF
   \                     ??CrossCallReturnLabel_503:
   \   00017C   12....       LCALL     ?DEALLOC_XSTACK8
   1211          
   1212              status = AF_DataRequest( destAddr, epDesc, clusterID, msgLen, msgBuf,
   1213                                       &APS_Counter, options, zcl_radius );
   \   00017F                ; Setup parameters for call to function AF_DataRequest
   \   00017F   90....       MOV       DPTR,#zcl_radius
   \   000182   E0           MOVX      A,@DPTR
   \   000183   F5..         MOV       ?V4,A
   \   000185   78..         MOV       R0,#?V4
   \   000187   12....       LCALL     ?PUSH_XSTACK_I_ONE
   \   00018A   75....       MOV       ?V4,#APS_Counter & 0xff
   \   00018D   75....       MOV       ?V5,#(APS_Counter >> 8) & 0xff
   \   000190   78..         MOV       R0,#?V4
   \   000192   12....       LCALL     ?PUSH_XSTACK_I_TWO
   \   000195   78..         MOV       R0,#?V8
   \   000197   12....       LCALL     ?PUSH_XSTACK_I_TWO
   \   00019A   8E..         MOV       ?V4,R6
   \   00019C   8F..         MOV       ?V5,R7
   \   00019E   78..         MOV       R0,#?V4
   \   0001A0   12....       LCALL     ?PUSH_XSTACK_I_TWO
   \   0001A3   78..         MOV       R0,#?V0
   \   0001A5   12....       LCALL     ?PUSH_XSTACK_I_TWO
   \   0001A8   A9..         MOV       R1,?V2
   \   0001AA   AC..         MOV       R4,?V12
   \   0001AC   AD..         MOV       R5,?V13
   \   0001AE   AA..         MOV       R2,?V14
   \   0001B0   AB..         MOV       R3,?V15
   \   0001B2   12....       LCALL     `??AF_DataRequest::?relay`; Banked call to: AF_DataRequest
   \   0001B5   7409         MOV       A,#0x9
   \   0001B7   12....       LCALL     ?DEALLOC_XSTACK8
   \   0001BA   E9           MOV       A,R1
   \   0001BB   FE           MOV       R6,A
   1214              zcl_mem_free ( msgBuf );
   \   0001BC                ; Setup parameters for call to function osal_mem_free
   \   0001BC   AA..         MOV       R2,?V8
   \   0001BE   AB..         MOV       R3,?V9
   \   0001C0   12....       LCALL     `??osal_mem_free::?relay`; Banked call to: osal_mem_free
   \   0001C3   8002         SJMP      ??zcl_SendCommand_14
   1215            }
   1216            else
   1217            {
   1218              status = ZMemError;
   \                     ??zcl_SendCommand_13:
   \   0001C5   7E10         MOV       R6,#0x10
   1219            }
   1220          
   1221            return ( status );
   \                     ??zcl_SendCommand_14:
   \   0001C7   EE           MOV       A,R6
   \   0001C8   F9           MOV       R1,A
   \                     ??zcl_SendCommand_1:
   \   0001C9   7406         MOV       A,#0x6
   \   0001CB   02....       LJMP      ?Subroutine5 & 0xFFFF
   1222          }

   \                                 In  segment BANKED_CODE, align 1, keep-with-next
   \                     ?Subroutine127:
   \   000000   12....       LCALL     ?Subroutine206 & 0xFFFF
   \                     ??CrossCallReturnLabel_345:
   \   000003   22           RET

   \                                 In  segment BANKED_CODE, align 1, keep-with-next
   \                     ?Subroutine206:
   \   000000   E0           MOVX      A,@DPTR
   \   000001   85..82       MOV       DPL,?XSP + 0
   \   000004   85..83       MOV       DPH,?XSP + 1
   \   000007   22           RET

   \                                 In  segment BANKED_CODE, align 1, keep-with-next
   \                     ?Subroutine204:
   \   000000   F0           MOVX      @DPTR,A
   \   000001   85..82       MOV       DPL,?V12
   \   000004   85..83       MOV       DPH,?V13
   \   000007   A3           INC       DPTR
   \   000008   22           RET

   \                                 In  segment BANKED_CODE, align 1, keep-with-next
   \                     ?Subroutine108:
   \   000000   12....       LCALL     ??Subroutine254_0 & 0xFFFF
   \                     ??CrossCallReturnLabel_666:
   \   000003   12....       LCALL     `??StubAPS_InterPan::?relay`; Banked call to: StubAPS_InterPan
   \   000006   E9           MOV       A,R1
   \   000007   22           RET

   \                                 In  segment BANKED_CODE, align 1, keep-with-next
   \                     ??Subroutine234_0:
   \   000000   A3           INC       DPTR
   \   000001   A3           INC       DPTR
   \   000002                REQUIRE ??Subroutine235_0
   \   000002                ; // Fall through to label ??Subroutine235_0

   \                                 In  segment BANKED_CODE, align 1, keep-with-next
   \                     ??Subroutine236_0:
   \   000000   E8           MOV       A,R0
   \   000001                REQUIRE ??Subroutine237_0
   \   000001                ; // Fall through to label ??Subroutine237_0

   \                                 In  segment BANKED_CODE, align 1, keep-with-next
   \                     ??Subroutine237_0:
   \   000000   F0           MOVX      @DPTR,A
   \   000001   A3           INC       DPTR
   \   000002   E9           MOV       A,R1
   \   000003   F0           MOVX      @DPTR,A
   \   000004   22           RET

   \                                 In  segment BANKED_CODE, align 1, keep-with-next
   \                     ?Subroutine180:
   \   000000   E0           MOVX      A,@DPTR
   \   000001   F5..         MOV       ?V4,A
   \   000003   A3           INC       DPTR
   \   000004   E0           MOVX      A,@DPTR
   \   000005   F5..         MOV       ?V5,A
   \   000007   22           RET

   \                                 In  segment BANKED_CODE, align 1, keep-with-next
   \                     ?Subroutine65:
   \   000000   12....       LCALL     ?Subroutine180 & 0xFFFF
   \                     ??CrossCallReturnLabel_306:
   \   000003   75..00       MOV       ?V6,#0x0
   \   000006   78..         MOV       R0,#?V4
   \   000008   22           RET

   \                                 In  segment BANKED_CODE, align 1, keep-with-next
   \                     ??Subroutine241_0:
   \   000000   12....       LCALL     `??osal_memcpy::?relay`; Banked call to: osal_memcpy
   \   000003   7403         MOV       A,#0x3
   \   000005   22           RET

   \                                 In  segment BANKED_CODE, align 1, keep-with-next
   \                     ?Subroutine136:
   \   000000   FB           MOV       R3,A
   \   000001   12....       LCALL     `??osal_mem_alloc::?relay`; Banked call to: osal_mem_alloc
   \   000004   8A..         MOV       ?V8,R2
   \   000006   8B..         MOV       ?V9,R3
   \   000008   EA           MOV       A,R2
   \   000009   4B           ORL       A,R3
   \   00000A   22           RET

   \                                 In  segment BANKED_CODE, align 1, keep-with-next
   \                     ?Subroutine5:
   \   000000   12....       LCALL     ?DEALLOC_XSTACK8
   \   000003                REQUIRE ??Subroutine259_0
   \   000003                ; // Fall through to label ??Subroutine259_0

   \                                 In  segment BANKED_CODE, align 1, keep-with-next
   \                     ??Subroutine259_0:
   \   000000   7F10         MOV       R7,#0x10
   \   000002   02....       LJMP      ?BANKED_LEAVE_XDATA
   1223          
   1224          #ifdef ZCL_READ
   1225          /*********************************************************************
   1226           * @fn      zcl_SendRead
   1227           *
   1228           * @brief   Send a Read command
   1229           *
   1230           * @param   srcEP - Application's endpoint
   1231           * @param   dstAddr - destination address
   1232           * @param   clusterID - cluster ID
   1233           * @param   readCmd - read command to be sent
   1234           * @param   direction - direction of the command
   1235           * @param   seqNum - transaction sequence number
   1236           *
   1237           * @return  ZSuccess if OK
   1238           */

   \                                 In  segment BANKED_CODE, align 1, keep-with-next
   1239          ZStatus_t zcl_SendRead( uint8 srcEP, afAddrType_t *dstAddr,
   \                     zcl_SendRead:
   1240                                  uint16 clusterID, zclReadCmd_t *readCmd,
   1241                                  uint8 direction, uint8 disableDefaultRsp, uint8 seqNum)
   1242          {
   \   000000                REQUIRE ?V0
   \   000000                REQUIRE ?V1
   \   000000                REQUIRE ?V2
   \   000000                REQUIRE ?V3
   \   000000                REQUIRE ?V4
   \   000000                REQUIRE ?V5
   \   000000                REQUIRE ?V6
   \   000000                REQUIRE ?V7
   \   000000                REQUIRE ?V8
   \   000000                REQUIRE ?V9
   \   000000                REQUIRE ?V10
   \   000000                REQUIRE ?V11
   \   000000   74EC         MOV       A,#-0x14
   \   000002   12....       LCALL     ?BANKED_ENTER_XDATA
   \   000005                ; Saved register size: 20
   \   000005                ; Auto size: 0
   \   000005   89..         MOV       ?V2,R1
   \   000007   8A..         MOV       ?V8,R2
   \   000009   8B..         MOV       ?V9,R3
   \   00000B   EC           MOV       A,R4
   \   00000C   FE           MOV       R6,A
   \   00000D   ED           MOV       A,R5
   \   00000E   FF           MOV       R7,A
   \   00000F   7414         MOV       A,#0x14
   \   000011   12....       LCALL     ?XSTACK_DISP0_8
   \   000014   12....       LCALL     ?Subroutine61 & 0xFFFF
   1243            uint16 dataLen;
   1244            uint8 *buf;
   1245            uint8 *pBuf;
   1246            ZStatus_t status;
   1247          
   1248            dataLen = readCmd->numAttr * 2; // Attribute ID
   \                     ??CrossCallReturnLabel_90:
   \   000017   25E0         ADD       A,0xE0 /* A   */
   \   000019   F5..         MOV       ?V6,A
   \   00001B   E4           CLR       A
   \   00001C   33           RLC       A
   \   00001D   12....       LCALL     ?Subroutine133 & 0xFFFF
   1249          
   1250            buf = zcl_mem_alloc( dataLen );
   1251            if ( buf != NULL )
   \                     ??CrossCallReturnLabel_629:
   \   000020   7003         JNZ       $+5
   \   000022   02....       LJMP      ??zcl_SendRead_0 & 0xFFFF
   1252            {
   1253              uint8 i;
   1254          
   1255              // Load the buffer - serially
   1256              pBuf = buf;
   \   000025   A8..         MOV       R0,?V0
   \   000027   A9..         MOV       R1,?V1
   1257              for (i = 0; i < readCmd->numAttr; i++)
   \   000029   7C00         MOV       R4,#0x0
   \   00002B   801D         SJMP      ??zcl_SendRead_1
   1258              {
   1259                *pBuf++ = LO_UINT16( readCmd->attrID[i] );
   \                     ??zcl_SendRead_2:
   \   00002D   EC           MOV       A,R4
   \   00002E   25E0         ADD       A,0xE0 /* A   */
   \   000030   FA           MOV       R2,A
   \   000031   E4           CLR       A
   \   000032   33           RLC       A
   \   000033   FB           MOV       R3,A
   \   000034   12....       LCALL     ?Subroutine195 & 0xFFFF
   1260                *pBuf++ = HI_UINT16( readCmd->attrID[i] );
   1261              }
   \                     ??CrossCallReturnLabel_329:
   \   000037   AA82         MOV       R2,DPL
   \   000039   AB83         MOV       R3,DPH
   \   00003B   12....       LCALL     ?Subroutine116 & 0xFFFF
   \                     ??CrossCallReturnLabel_195:
   \   00003E   12....       LCALL     ?Subroutine28 & 0xFFFF
   \                     ??CrossCallReturnLabel_24:
   \   000041   F0           MOVX      @DPTR,A
   \   000042   E8           MOV       A,R0
   \   000043   2402         ADD       A,#0x2
   \   000045   F8           MOV       R0,A
   \   000046   5001         JNC       ??zcl_SendRead_3
   \   000048   09           INC       R1
   \                     ??zcl_SendRead_3:
   \   000049   0C           INC       R4
   \                     ??zcl_SendRead_1:
   \   00004A   85..82       MOV       DPL,?V4
   \   00004D   85..83       MOV       DPH,?V5
   \   000050   E0           MOVX      A,@DPTR
   \   000051   FA           MOV       R2,A
   \   000052   EC           MOV       A,R4
   \   000053   C3           CLR       C
   \   000054   9A           SUBB      A,R2
   \   000055   40D6         JC        ??zcl_SendRead_2
   1262          
   1263              status = zcl_SendCommand( srcEP, dstAddr, clusterID, ZCL_CMD_READ, FALSE,
   1264                                        direction, disableDefaultRsp, 0, seqNum, dataLen, buf );
   \   000057                ; Setup parameters for call to function zcl_SendCommand
   \   000057   78..         MOV       R0,#?V0
   \   000059   12....       LCALL     ?PUSH_XSTACK_I_TWO
   \   00005C   78..         MOV       R0,#?V6
   \   00005E   12....       LCALL     ?PUSH_XSTACK_I_TWO
   \   000061   741C         MOV       A,#0x1c
   \   000063   12....       LCALL     ?XSTACK_DISP0_8
   \   000066   12....       LCALL     ?Subroutine57 & 0xFFFF
   \                     ??CrossCallReturnLabel_72:
   \   000069   12....       LCALL     ?PUSH_XSTACK_I_ONE
   \   00006C   E4           CLR       A
   \   00006D   F5..         MOV       ?V4,A
   \   00006F   F5..         MOV       ?V5,A
   \   000071   78..         MOV       R0,#?V4
   \   000073   12....       LCALL     ?PUSH_XSTACK_I_TWO
   \   000076   741E         MOV       A,#0x1e
   \   000078   12....       LCALL     ?XSTACK_DISP0_8
   \   00007B   12....       LCALL     ?Subroutine57 & 0xFFFF
   \                     ??CrossCallReturnLabel_73:
   \   00007E   12....       LCALL     ?PUSH_XSTACK_I_ONE
   \   000081   741E         MOV       A,#0x1e
   \   000083   12....       LCALL     ?XSTACK_DISP0_8
   \   000086   12....       LCALL     ?Subroutine57 & 0xFFFF
   \                     ??CrossCallReturnLabel_74:
   \   000089   12....       LCALL     ?PUSH_XSTACK_I_ONE
   \   00008C   75..00       MOV       ?V3,#0x0
   \   00008F   78..         MOV       R0,#?V3
   \   000091   12....       LCALL     ?PUSH_XSTACK_I_ONE
   \   000094   78..         MOV       R0,#?V3
   \   000096   12....       LCALL     ?PUSH_XSTACK_I_ONE
   \   000099   12....       LCALL     ?Subroutine154 & 0xFFFF
   \                     ??CrossCallReturnLabel_399:
   \   00009C   12....       LCALL     ?DEALLOC_XSTACK8
   \   00009F   E9           MOV       A,R1
   \   0000A0   FE           MOV       R6,A
   1265              zcl_mem_free( buf );
   \   0000A1                ; Setup parameters for call to function osal_mem_free
   \   0000A1   AA..         MOV       R2,?V0
   \   0000A3   AB..         MOV       R3,?V1
   \   0000A5   12....       LCALL     `??osal_mem_free::?relay`; Banked call to: osal_mem_free
   \   0000A8   8002         SJMP      ??zcl_SendRead_4
   1266            }
   1267            else
   1268            {
   1269              status = ZMemError;
   \                     ??zcl_SendRead_0:
   \   0000AA   7E10         MOV       R6,#0x10
   1270            }
   1271          
   1272            return ( status );
   \                     ??zcl_SendRead_4:
   \   0000AC                REQUIRE ?Subroutine10
   \   0000AC                ; // Fall through to label ?Subroutine10
   1273          }

   \                                 In  segment BANKED_CODE, align 1, keep-with-next
   \                     ?Subroutine10:
   \   000000   EE           MOV       A,R6
   \   000001   F9           MOV       R1,A
   \   000002   02....       LJMP      ??Subroutine258_0 & 0xFFFF

   \                                 In  segment BANKED_CODE, align 1, keep-with-next
   \                     ?Subroutine61:
   \   000000   12....       LCALL     ?Subroutine177 & 0xFFFF
   \                     ??CrossCallReturnLabel_298:
   \   000003   E0           MOVX      A,@DPTR
   \   000004   22           RET

   \                                 In  segment BANKED_CODE, align 1, keep-with-next
   \                     ?Subroutine28:
   \   000000   12....       LCALL     ?Subroutine165 & 0xFFFF
   \                     ??CrossCallReturnLabel_282:
   \   000003   12....       LCALL     ?Subroutine178 & 0xFFFF
   \                     ??CrossCallReturnLabel_302:
   \   000006   22           RET

   \                                 In  segment BANKED_CODE, align 1, keep-with-next
   \                     ?Subroutine178:
   \   000000   12....       LCALL     ?Subroutine208 & 0xFFFF
   \                     ??CrossCallReturnLabel_389:
   \   000003   A3           INC       DPTR
   \   000004   22           RET

   \                                 In  segment BANKED_CODE, align 1, keep-with-next
   \                     ?Subroutine57:
   \   000000   E0           MOVX      A,@DPTR
   \   000001   F5..         MOV       ?V3,A
   \   000003   78..         MOV       R0,#?V3
   \   000005   22           RET

   \                                 In  segment BANKED_CODE, align 1, keep-with-next
   \                     ?Subroutine195:
   \   000000   E5..         MOV       A,?V4
   \   000002   2A           ADD       A,R2
   \   000003   F582         MOV       DPL,A
   \   000005   E5..         MOV       A,?V5
   \   000007   3B           ADDC      A,R3
   \   000008   F583         MOV       DPH,A
   \   00000A   A3           INC       DPTR
   \   00000B   22           RET

   \                                 In  segment BANKED_CODE, align 1, keep-with-next
   \                     ?Subroutine154:
   \   000000   EE           MOV       A,R6
   \   000001   FC           MOV       R4,A
   \   000002   EF           MOV       A,R7
   \   000003   FD           MOV       R5,A
   \   000004   AA..         MOV       R2,?V8
   \   000006   AB..         MOV       R3,?V9
   \   000008                REQUIRE ??Subroutine221_0
   \   000008                ; // Fall through to label ??Subroutine221_0

   \                                 In  segment BANKED_CODE, align 1, keep-with-next
   \                     ??Subroutine221_0:
   \   000000   A9..         MOV       R1,?V2
   \   000002                REQUIRE ??Subroutine222_0
   \   000002                ; // Fall through to label ??Subroutine222_0

   \                                 In  segment BANKED_CODE, align 1, keep-with-next
   \                     ??Subroutine222_0:
   \   000000   12....       LCALL     `??zcl_SendCommand::?relay`; Banked call to: zcl_SendCommand
   \   000003   740B         MOV       A,#0xb
   \   000005   22           RET

   \                                 In  segment BANKED_CODE, align 1, keep-with-next
   \                     ?Subroutine116:
   \   000000   12....       LCALL     ?Subroutine208 & 0xFFFF
   \                     ??CrossCallReturnLabel_388:
   \   000003   22           RET

   \                                 In  segment BANKED_CODE, align 1, keep-with-next
   \                     ?Subroutine208:
   \   000000   E0           MOVX      A,@DPTR
   \   000001   8882         MOV       DPL,R0
   \   000003   8983         MOV       DPH,R1
   \   000005   22           RET

   \                                 In  segment BANKED_CODE, align 1, keep-with-next
   \                     ?Subroutine177:
   \   000000   E0           MOVX      A,@DPTR
   \   000001   F5..         MOV       ?V4,A
   \   000003   A3           INC       DPTR
   \   000004   E0           MOVX      A,@DPTR
   \   000005   F5..         MOV       ?V5,A
   \   000007   85..82       MOV       DPL,?V4
   \   00000A   F583         MOV       DPH,A
   \   00000C   22           RET

   \                                 In  segment BANKED_CODE, align 1, keep-with-next
   \                     ??Subroutine258_0:
   \   000000   7F0C         MOV       R7,#0xc
   \   000002   02....       LJMP      ?BANKED_LEAVE_XDATA

   \                                 In  segment BANKED_CODE, align 1, keep-with-next
   \                     ?Subroutine133:
   \   000000   F5..         MOV       ?V7,A
   \   000002                ; Setup parameters for call to function osal_mem_alloc
   \   000002                ; Setup parameters for call to function osal_mem_alloc
   \   000002                ; Setup parameters for call to function osal_mem_alloc
   \   000002                ; Setup parameters for call to function osal_mem_alloc
   \   000002   AA..         MOV       R2,?V6
   \   000004                REQUIRE ??Subroutine267_0
   \   000004                ; // Fall through to label ??Subroutine267_0

   \                                 In  segment BANKED_CODE, align 1, keep-with-next
   \                     ??Subroutine267_0:
   \   000000   FB           MOV       R3,A
   \   000001                REQUIRE ??Subroutine268_0
   \   000001                ; // Fall through to label ??Subroutine268_0

   \                                 In  segment BANKED_CODE, align 1, keep-with-next
   \                     ??Subroutine268_0:
   \   000000   12....       LCALL     `??osal_mem_alloc::?relay`; Banked call to: osal_mem_alloc
   \   000003   8A..         MOV       ?V0,R2
   \   000005   8B..         MOV       ?V1,R3
   \   000007   EA           MOV       A,R2
   \   000008   4B           ORL       A,R3
   \   000009   22           RET
   1274          
   1275          /*********************************************************************
   1276           * @fn      zcl_SendReadRsp
   1277           *
   1278           * @brief   Send a Read Response command.
   1279           *
   1280           * @param   srcEP - Application's endpoint
   1281           * @param   dstAddr - destination address
   1282           * @param   clusterID - cluster ID
   1283           * @param   readRspCmd - read response command to be sent
   1284           * @param   direction - direction of the command
   1285           * @param   seqNum - transaction sequence number
   1286           *
   1287           * @return  ZSuccess if OK
   1288           */

   \                                 In  segment BANKED_CODE, align 1, keep-with-next
   1289          ZStatus_t zcl_SendReadRsp( uint8 srcEP, afAddrType_t *dstAddr,
   \                     zcl_SendReadRsp:
   1290                                     uint16 clusterID, zclReadRspCmd_t *readRspCmd,
   1291                                     uint8 direction, uint8 disableDefaultRsp, uint8 seqNum )
   1292          {
   \   000000                REQUIRE ?V0
   \   000000                REQUIRE ?V1
   \   000000                REQUIRE ?V2
   \   000000                REQUIRE ?V3
   \   000000                REQUIRE ?V4
   \   000000                REQUIRE ?V5
   \   000000                REQUIRE ?V6
   \   000000                REQUIRE ?V7
   \   000000                REQUIRE ?V8
   \   000000                REQUIRE ?V9
   \   000000                REQUIRE ?V10
   \   000000                REQUIRE ?V11
   \   000000                REQUIRE ?V12
   \   000000                REQUIRE ?V13
   \   000000   74EA         MOV       A,#-0x16
   \   000002   12....       LCALL     ?BANKED_ENTER_XDATA
   \   000005                ; Saved register size: 22
   \   000005                ; Auto size: 2
   \   000005   74FE         MOV       A,#-0x2
   \   000007   12....       LCALL     ?ALLOC_XSTACK8
   \   00000A   89..         MOV       ?V3,R1
   \   00000C   8A..         MOV       ?V12,R2
   \   00000E   8B..         MOV       ?V13,R3
   \   000010   8C..         MOV       ?V6,R4
   \   000012   8D..         MOV       ?V7,R5
   1293            uint8 *buf;
   1294            uint16 len = 0;
   \   000014   7E00         MOV       R6,#0x0
   \   000016   7F00         MOV       R7,#0x0
   1295            ZStatus_t status;
   1296            uint8 i;
   1297          
   1298            // calculate the size of the command
   1299            for ( i = 0; i < readRspCmd->numAttr; i++ )
   \   000018   75..00       MOV       ?V2,#0x0
   \   00001B   7418         MOV       A,#0x18
   \   00001D   12....       LCALL     ?XSTACK_DISP0_8
   \   000020   12....       LCALL     ??Subroutine255_0 & 0xFFFF
   \                     ??CrossCallReturnLabel_587:
   \   000023   8011         SJMP      ??zcl_SendReadRsp_0
   1300            {
   1301              zclReadRspStatus_t *statusRec = &(readRspCmd->attrList[i]);
   1302          
   1303              len += 2 + 1; // Attribute ID + Status
   1304          
   1305              if ( statusRec->status == ZCL_STATUS_SUCCESS )
   1306              {
   1307                len++; // Attribute Data Type length
   1308          
   1309                // Attribute Data length
   1310                if ( statusRec->data != NULL )
   1311                {
   1312                  len += zclGetAttrDataLength( statusRec->dataType, statusRec->data );
   1313                }
   1314                else
   1315                {
   1316                  len += zclGetAttrDataLengthUsingCB( srcEP, clusterID, statusRec->attrID );
   \                     ??zcl_SendReadRsp_1:
   \   000025                ; Setup parameters for call to function zclGetAttrDataLengthUsingCB
   \   000025   12....       LCALL     ?Subroutine95 & 0xFFFF
   1317                }
   \                     ??CrossCallReturnLabel_159:
   \   000028   12....       LCALL     `??zclGetAttrDataLengthUsingCB::?relay`; Banked call to: zclGetAttrDataLengthUsingCB
   \                     ??zcl_SendReadRsp_2:
   \   00002B   8B..         MOV       ?V1,R3
   \   00002D   EE           MOV       A,R6
   \   00002E   2A           ADD       A,R2
   \   00002F   FE           MOV       R6,A
   \   000030   EF           MOV       A,R7
   \   000031   35..         ADDC      A,?V1
   \   000033   FF           MOV       R7,A
   \                     ??zcl_SendReadRsp_3:
   \   000034   05..         INC       ?V2
   \                     ??zcl_SendReadRsp_0:
   \   000036   12....       LCALL     ?Subroutine71 & 0xFFFF
   \                     ??CrossCallReturnLabel_557:
   \   000039   502E         JNC       ??zcl_SendReadRsp_4
   \   00003B   E5..         MOV       A,?V2
   \   00003D   75F006       MOV       B,#0x6
   \   000040   12....       LCALL     ?Subroutine152 & 0xFFFF
   \                     ??CrossCallReturnLabel_257:
   \   000043   2403         ADD       A,#0x3
   \   000045   FE           MOV       R6,A
   \   000046   E4           CLR       A
   \   000047   3F           ADDC      A,R7
   \   000048   FF           MOV       R7,A
   \   000049   A3           INC       DPTR
   \   00004A   A3           INC       DPTR
   \   00004B   E0           MOVX      A,@DPTR
   \   00004C   70E6         JNZ       ??zcl_SendReadRsp_3
   \   00004E   0E           INC       R6
   \   00004F   EE           MOV       A,R6
   \   000050   7001         JNZ       ??zcl_SendReadRsp_5
   \   000052   0F           INC       R7
   \                     ??zcl_SendReadRsp_5:
   \   000053   8882         MOV       DPL,R0
   \   000055   8983         MOV       DPH,R1
   \   000057   A3           INC       DPTR
   \   000058   A3           INC       DPTR
   \   000059   A3           INC       DPTR
   \   00005A   A3           INC       DPTR
   \   00005B   12....       LCALL     ??Subroutine215_0 & 0xFFFF
   \                     ??CrossCallReturnLabel_374:
   \   00005E   8882         MOV       DPL,R0
   \   000060   8983         MOV       DPH,R1
   \   000062   60C1         JZ        ??zcl_SendReadRsp_1
   \   000064                ; Setup parameters for call to function zclGetAttrDataLength
   \   000064   12....       LCALL     ?Subroutine86 & 0xFFFF
   1318              }
   1319            }
   \                     ??CrossCallReturnLabel_593:
   \   000067   80C2         SJMP      ??zcl_SendReadRsp_2
   1320          
   1321            buf = zcl_mem_alloc( len );
   \                     ??zcl_SendReadRsp_4:
   \   000069                ; Setup parameters for call to function osal_mem_alloc
   \   000069   EE           MOV       A,R6
   \   00006A   FA           MOV       R2,A
   \   00006B   EF           MOV       A,R7
   \   00006C   FB           MOV       R3,A
   \   00006D   12....       LCALL     `??osal_mem_alloc::?relay`; Banked call to: osal_mem_alloc
   \   000070   8A..         MOV       ?V0,R2
   \   000072   8B..         MOV       ?V1,R3
   \   000074   8A..         MOV       ?V4,R2
   \   000076   8B..         MOV       ?V5,R3
   1322            if ( buf != NULL )
   \   000078   EA           MOV       A,R2
   \   000079   4B           ORL       A,R3
   \   00007A   7003         JNZ       $+5
   \   00007C   02....       LJMP      ??zcl_SendReadRsp_6 & 0xFFFF
   1323            {
   1324              // Load the buffer - serially
   1325              uint8 *pBuf = buf;
   1326          
   1327              for ( i = 0; i < readRspCmd->numAttr; i++ )
   \   00007F   75..00       MOV       ?V2,#0x0
   \   000082   8030         SJMP      ??zcl_SendReadRsp_7
   1328              {
   1329                zclReadRspStatus_t *statusRec = &(readRspCmd->attrList[i]);
   1330          
   1331                *pBuf++ = LO_UINT16( statusRec->attrID );
   1332                *pBuf++ = HI_UINT16( statusRec->attrID );
   1333                *pBuf++ = statusRec->status;
   1334          
   1335                if ( statusRec->status == ZCL_STATUS_SUCCESS )
   1336                {
   1337                  *pBuf++ = statusRec->dataType;
   1338          
   1339                  if ( statusRec->data != NULL )
   1340                  {
   1341                    // Copy attribute data to the buffer to be sent out
   1342                    pBuf = zclSerializeData( statusRec->dataType, statusRec->data, pBuf );
   1343                  }
   1344                  else
   1345                  {
   1346                    uint16 dataLen;
   1347          
   1348                    // Read attribute data directly into the buffer to be sent out
   1349                    zclReadAttrDataUsingCB( srcEP, clusterID, statusRec->attrID, pBuf, &dataLen );
   \                     ??zcl_SendReadRsp_8:
   \   000084                ; Setup parameters for call to function zclReadAttrDataUsingCB
   \   000084   A8..         MOV       R0,?XSP + 0
   \   000086   A9..         MOV       R1,?XSP + 1
   \   000088   88..         MOV       ?V10,R0
   \   00008A   89..         MOV       ?V11,R1
   \   00008C   78..         MOV       R0,#?V10
   \   00008E   12....       LCALL     ?PUSH_XSTACK_I_TWO
   \   000091   78..         MOV       R0,#?V0
   \   000093   12....       LCALL     ?PUSH_XSTACK_I_TWO
   \   000096   8A82         MOV       DPL,R2
   \   000098   8B83         MOV       DPH,R3
   \   00009A   12....       LCALL     ?Subroutine95 & 0xFFFF
   \                     ??CrossCallReturnLabel_160:
   \   00009D   12....       LCALL     `??zclReadAttrDataUsingCB::?relay`; Banked call to: zclReadAttrDataUsingCB
   \   0000A0   7404         MOV       A,#0x4
   \   0000A2   12....       LCALL     ?DEALLOC_XSTACK8
   1350                    pBuf += dataLen;
   \   0000A5   12....       LCALL     ?Subroutine107 & 0xFFFF
   1351                  }
   \                     ??CrossCallReturnLabel_535:
   \   0000A8   E5..         MOV       A,?V0
   \   0000AA   28           ADD       A,R0
   \   0000AB   F5..         MOV       ?V0,A
   \   0000AD   E5..         MOV       A,?V1
   \   0000AF   39           ADDC      A,R1
   \   0000B0   F5..         MOV       ?V1,A
   \                     ??zcl_SendReadRsp_9:
   \   0000B2   05..         INC       ?V2
   \                     ??zcl_SendReadRsp_7:
   \   0000B4   12....       LCALL     ?Subroutine71 & 0xFFFF
   \                     ??CrossCallReturnLabel_558:
   \   0000B7   506D         JNC       ??zcl_SendReadRsp_10
   \   0000B9   E5..         MOV       A,?V2
   \   0000BB   75F006       MOV       B,#0x6
   \   0000BE   12....       LCALL     ?Subroutine197 & 0xFFFF
   \                     ??CrossCallReturnLabel_333:
   \   0000C1   12....       LCALL     ?Subroutine153 & 0xFFFF
   \                     ??CrossCallReturnLabel_259:
   \   0000C4   12....       LCALL     ?Subroutine207 & 0xFFFF
   \                     ??CrossCallReturnLabel_347:
   \   0000C7   12....       LCALL     ?Subroutine36 & 0xFFFF
   \                     ??CrossCallReturnLabel_43:
   \   0000CA   12....       LCALL     ?Subroutine130 & 0xFFFF
   \                     ??CrossCallReturnLabel_227:
   \   0000CD   F0           MOVX      @DPTR,A
   \   0000CE   12....       LCALL     ?Subroutine142 & 0xFFFF
   \                     ??CrossCallReturnLabel_448:
   \   0000D1   12....       LCALL     ?Subroutine130 & 0xFFFF
   \                     ??CrossCallReturnLabel_228:
   \   0000D4   A3           INC       DPTR
   \   0000D5   F0           MOVX      @DPTR,A
   \   0000D6   E5..         MOV       A,?V0
   \   0000D8   2403         ADD       A,#0x3
   \   0000DA   F5..         MOV       ?V0,A
   \   0000DC   5002         JNC       ??zcl_SendReadRsp_11
   \   0000DE   05..         INC       ?V1
   \                     ??zcl_SendReadRsp_11:
   \   0000E0   8882         MOV       DPL,R0
   \   0000E2   8983         MOV       DPH,R1
   \   0000E4   E0           MOVX      A,@DPTR
   \   0000E5   70CB         JNZ       ??zcl_SendReadRsp_9
   \   0000E7   EA           MOV       A,R2
   \   0000E8   2403         ADD       A,#0x3
   \   0000EA   08           INC       R0
   \   0000EB   12....       LCALL     ??Subroutine230_0 & 0xFFFF
   \                     ??CrossCallReturnLabel_447:
   \   0000EE   12....       LCALL     ?Subroutine207 & 0xFFFF
   \                     ??CrossCallReturnLabel_348:
   \   0000F1   F0           MOVX      @DPTR,A
   \   0000F2   A3           INC       DPTR
   \   0000F3   8582..       MOV       ?V0,DPL
   \   0000F6   8583..       MOV       ?V1,DPH
   \   0000F9   8A82         MOV       DPL,R2
   \   0000FB   8B83         MOV       DPH,R3
   \   0000FD   A3           INC       DPTR
   \   0000FE   A3           INC       DPTR
   \   0000FF   A3           INC       DPTR
   \   000100   A3           INC       DPTR
   \   000101   12....       LCALL     ?Subroutine125 & 0xFFFF
   \                     ??CrossCallReturnLabel_218:
   \   000104   8C82         MOV       DPL,R4
   \   000106   F583         MOV       DPH,A
   \   000108   E582         MOV       A,DPL
   \   00010A   4583         ORL       A,DPH
   \   00010C   7003         JNZ       $+5
   \   00010E   02....       LJMP      ??zcl_SendReadRsp_8 & 0xFFFF
   \   000111                ; Setup parameters for call to function zclSerializeData
   \   000111   AC..         MOV       R4,?V0
   \   000113   AD..         MOV       R5,?V1
   \   000115   AA82         MOV       R2,DPL
   \   000117   AB83         MOV       R3,DPH
   \   000119   8882         MOV       DPL,R0
   \   00011B   8983         MOV       DPH,R1
   \   00011D   12....       LCALL     ??Subroutine217_0 & 0xFFFF
   1352                }
   1353              } // for loop
   \                     ??CrossCallReturnLabel_382:
   \   000120   8A..         MOV       ?V0,R2
   \   000122   8B..         MOV       ?V1,R3
   \   000124   808C         SJMP      ??zcl_SendReadRsp_9
   1354          
   1355              status = zcl_SendCommand( srcEP, dstAddr, clusterID, ZCL_CMD_READ_RSP, FALSE,
   1356                                        direction, disableDefaultRsp, 0, seqNum, len, buf );
   \                     ??zcl_SendReadRsp_10:
   \   000126                ; Setup parameters for call to function zcl_SendCommand
   \   000126   78..         MOV       R0,#?V4
   \   000128   12....       LCALL     ?PUSH_XSTACK_I_TWO
   \   00012B   8E..         MOV       ?V0,R6
   \   00012D   8F..         MOV       ?V1,R7
   \   00012F   78..         MOV       R0,#?V0
   \   000131   12....       LCALL     ?PUSH_XSTACK_I_TWO
   \   000134   7420         MOV       A,#0x20
   \   000136   12....       LCALL     ?XSTACK_DISP0_8
   \   000139   12....       LCALL     ?Subroutine63 & 0xFFFF
   \                     ??CrossCallReturnLabel_93:
   \   00013C   12....       LCALL     ?PUSH_XSTACK_I_ONE
   \   00013F   E4           CLR       A
   \   000140   F5..         MOV       ?V0,A
   \   000142   F5..         MOV       ?V1,A
   \   000144   78..         MOV       R0,#?V0
   \   000146   12....       LCALL     ?PUSH_XSTACK_I_TWO
   \   000149   7422         MOV       A,#0x22
   \   00014B   12....       LCALL     ?XSTACK_DISP0_8
   \   00014E   12....       LCALL     ?Subroutine63 & 0xFFFF
   \                     ??CrossCallReturnLabel_94:
   \   000151   12....       LCALL     ?PUSH_XSTACK_I_ONE
   \   000154   7422         MOV       A,#0x22
   \   000156   12....       LCALL     ?XSTACK_DISP0_8
   \   000159   12....       LCALL     ?Subroutine63 & 0xFFFF
   \                     ??CrossCallReturnLabel_95:
   \   00015C   12....       LCALL     ?PUSH_XSTACK_I_ONE
   \   00015F   75..00       MOV       ?V0,#0x0
   \   000162   78..         MOV       R0,#?V0
   \   000164   12....       LCALL     ?PUSH_XSTACK_I_ONE
   \   000167   75..01       MOV       ?V0,#0x1
   \   00016A   78..         MOV       R0,#?V0
   \   00016C   12....       LCALL     ?PUSH_XSTACK_I_ONE
   \   00016F   AC..         MOV       R4,?V6
   \   000171   AD..         MOV       R5,?V7
   \   000173   AA..         MOV       R2,?V12
   \   000175   AB..         MOV       R3,?V13
   \   000177   A9..         MOV       R1,?V3
   \   000179   12....       LCALL     ??Subroutine222_0 & 0xFFFF
   \                     ??CrossCallReturnLabel_403:
   \   00017C   12....       LCALL     ?DEALLOC_XSTACK8
   \   00017F   E9           MOV       A,R1
   \   000180   FE           MOV       R6,A
   1357              zcl_mem_free( buf );
   \   000181                ; Setup parameters for call to function osal_mem_free
   \   000181   AA..         MOV       R2,?V4
   \   000183   AB..         MOV       R3,?V5
   \   000185   12....       LCALL     `??osal_mem_free::?relay`; Banked call to: osal_mem_free
   \   000188   8002         SJMP      ??zcl_SendReadRsp_12
   1358            }
   1359            else
   1360            {
   1361              status = ZMemError;
   \                     ??zcl_SendReadRsp_6:
   \   00018A   7E10         MOV       R6,#0x10
   1362            }
   1363          
   1364            return ( status );
   \                     ??zcl_SendReadRsp_12:
   \   00018C   EE           MOV       A,R6
   \   00018D   F9           MOV       R1,A
   \   00018E   02....       LJMP      ?Subroutine7 & 0xFFFF
   1365          }

   \                                 In  segment BANKED_CODE, align 1, keep-with-next
   \                     ?Subroutine130:
   \   000000   12....       LCALL     ?Subroutine190 & 0xFFFF
   \                     ??CrossCallReturnLabel_320:
   \   000003   22           RET

   \                                 In  segment BANKED_CODE, align 1, keep-with-next
   \                     ?Subroutine190:
   \   000000   12....       LCALL     ?Subroutine207 & 0xFFFF
   \                     ??CrossCallReturnLabel_349:
   \   000003   A3           INC       DPTR
   \   000004   22           RET

   \                                 In  segment BANKED_CODE, align 1, keep-with-next
   \                     ?Subroutine207:
   \   000000   E0           MOVX      A,@DPTR
   \   000001   85..82       MOV       DPL,?V0
   \   000004   85..83       MOV       DPH,?V1
   \   000007   22           RET

   \                                 In  segment BANKED_CODE, align 1, keep-with-next
   \                     ?Subroutine95:
   \   000000   12....       LCALL     ??Subroutine265_0 & 0xFFFF
   \                     ??CrossCallReturnLabel_618:
   \   000003   AA..         MOV       R2,?V6
   \   000005   AB..         MOV       R3,?V7
   \   000007   A9..         MOV       R1,?V3
   \   000009   22           RET

   \                                 In  segment BANKED_CODE, align 1, keep-with-next
   \                     ??Subroutine217_0:
   \   000000   E0           MOVX      A,@DPTR
   \   000001   F9           MOV       R1,A
   \   000002   12....       LCALL     `??zclSerializeData::?relay`; Banked call to: zclSerializeData
   \   000005   22           RET

   \                                 In  segment BANKED_CODE, align 1, keep-with-next
   \                     ?Subroutine152:
   \   000000   12....       LCALL     ?Subroutine197 & 0xFFFF
   \                     ??CrossCallReturnLabel_336:
   \   000003   12....       LCALL     ?Subroutine196 & 0xFFFF
   \                     ??CrossCallReturnLabel_332:
   \   000006   EE           MOV       A,R6
   \   000007   22           RET

   \                                 In  segment BANKED_CODE, align 1, keep-with-next
   \                     ?Subroutine197:
   \   000000   A4           MUL       AB
   \   000001   F8           MOV       R0,A
   \   000002   A9F0         MOV       R1,B
   \   000004   E5..         MOV       A,?V8
   \   000006   28           ADD       A,R0
   \   000007   F582         MOV       DPL,A
   \   000009   E5..         MOV       A,?V9
   \   00000B   22           RET

   \                                 In  segment BANKED_CODE, align 1, keep-with-next
   \                     ?Subroutine196:
   \   000000   12....       LCALL     ?Subroutine210 & 0xFFFF
   \                     ??CrossCallReturnLabel_355:
   \   000003   A882         MOV       R0,DPL
   \   000005   A983         MOV       R1,DPH
   \   000007   22           RET

   \                                 In  segment BANKED_CODE, align 1, keep-with-next
   \                     ?Subroutine7:
   \   000000   7402         MOV       A,#0x2
   \   000002   12....       LCALL     ?DEALLOC_XSTACK8
   \   000005                REQUIRE ??Subroutine219_0
   \   000005                ; // Fall through to label ??Subroutine219_0

   \                                 In  segment BANKED_CODE, align 1, keep-with-next
   \                     ??Subroutine219_0:
   \   000000   7F0E         MOV       R7,#0xe
   \   000002   02....       LJMP      ?BANKED_LEAVE_XDATA

   \                                 In  segment BANKED_CODE, align 1, keep-with-next
   \                     ?Subroutine63:
   \   000000   E0           MOVX      A,@DPTR
   \   000001   F5..         MOV       ?V0,A
   \   000003   78..         MOV       R0,#?V0
   \   000005   22           RET

   \                                 In  segment BANKED_CODE, align 1, keep-with-next
   \                     ?Subroutine142:
   \   000000   EA           MOV       A,R2
   \   000001   2402         ADD       A,#0x2
   \   000003   F8           MOV       R0,A
   \   000004                REQUIRE ??Subroutine230_0
   \   000004                ; // Fall through to label ??Subroutine230_0

   \                                 In  segment BANKED_CODE, align 1, keep-with-next
   \                     ??Subroutine230_0:
   \   000000   E4           CLR       A
   \   000001   3B           ADDC      A,R3
   \   000002   F9           MOV       R1,A
   \   000003   8882         MOV       DPL,R0
   \   000005   F583         MOV       DPH,A
   \   000007   22           RET

   \                                 In  segment BANKED_CODE, align 1, keep-with-next
   \                     ?Subroutine210:
   \   000000   39           ADDC      A,R1
   \   000001   F583         MOV       DPH,A
   \   000003   A3           INC       DPTR
   \   000004   22           RET

   \                                 In  segment BANKED_CODE, align 1, keep-with-next
   \                     ?Subroutine153:
   \   000000   12....       LCALL     ?Subroutine210 & 0xFFFF
   \                     ??CrossCallReturnLabel_354:
   \   000003   AA82         MOV       R2,DPL
   \   000005   AB83         MOV       R3,DPH
   \   000007   22           RET

   \                                 In  segment BANKED_CODE, align 1, keep-with-next
   \                     ?Subroutine107:
   \   000000   85..82       MOV       DPL,?XSP + 0
   \   000003   85..83       MOV       DPH,?XSP + 1
   \   000006                REQUIRE ??Subroutine247_0
   \   000006                ; // Fall through to label ??Subroutine247_0

   \                                 In  segment BANKED_CODE, align 1, keep-with-next
   \                     ?Subroutine71:
   \   000000   85..82       MOV       DPL,?V8
   \   000003   85..83       MOV       DPH,?V9
   \   000006                REQUIRE ??Subroutine248_0
   \   000006                ; // Fall through to label ??Subroutine248_0

   \                                 In  segment BANKED_CODE, align 1, keep-with-next
   \                     ??Subroutine248_0:
   \   000000   E0           MOVX      A,@DPTR
   \   000001   F8           MOV       R0,A
   \   000002   E5..         MOV       A,?V2
   \   000004   C3           CLR       C
   \   000005   98           SUBB      A,R0
   \   000006   22           RET

   \                                 In  segment BANKED_CODE, align 1, keep-with-next
   \                     ??Subroutine255_0:
   \   000000   E0           MOVX      A,@DPTR
   \   000001   F5..         MOV       ?V8,A
   \   000003   A3           INC       DPTR
   \   000004   E0           MOVX      A,@DPTR
   \   000005   F5..         MOV       ?V9,A
   \   000007   22           RET

   \                                 In  segment BANKED_CODE, align 1, keep-with-next
   \                     ?Subroutine86:
   \   000000   A3           INC       DPTR
   \   000001   A3           INC       DPTR
   \   000002   A3           INC       DPTR
   \   000003                REQUIRE ??Subroutine256_0
   \   000003                ; // Fall through to label ??Subroutine256_0

   \                                 In  segment BANKED_CODE, align 1, keep-with-next
   \                     ??Subroutine256_0:
   \   000000   E0           MOVX      A,@DPTR
   \   000001   F9           MOV       R1,A
   \   000002   12....       LCALL     `??zclGetAttrDataLength::?relay`; Banked call to: zclGetAttrDataLength
   \   000005   22           RET

   \                                 In  segment BANKED_CODE, align 1, keep-with-next
   \                     ??Subroutine265_0:
   \   000000   E0           MOVX      A,@DPTR
   \   000001   FC           MOV       R4,A
   \   000002   A3           INC       DPTR
   \   000003   E0           MOVX      A,@DPTR
   \   000004   FD           MOV       R5,A
   \   000005   22           RET
   1366          #endif // ZCL_READ
   1367          
   1368          #ifdef ZCL_WRITE
   1369          /*********************************************************************
   1370           * @fn      sendWriteRequest
   1371           *
   1372           * @brief   Send a Write command
   1373           *
   1374           * @param   dstAddr - destination address
   1375           * @param   clusterID - cluster ID
   1376           * @param   writeCmd - write command to be sent
   1377           * @param   cmd - ZCL_CMD_WRITE, ZCL_CMD_WRITE_UNDIVIDED or ZCL_CMD_WRITE_NO_RSP
   1378           * @param   direction - direction of the command
   1379           * @param   seqNum - transaction sequence number
   1380           *
   1381           * @return  ZSuccess if OK
   1382           */

   \                                 In  segment BANKED_CODE, align 1, keep-with-next
   1383          ZStatus_t zcl_SendWriteRequest( uint8 srcEP, afAddrType_t *dstAddr, uint16 clusterID,
   \                     zcl_SendWriteRequest:
   1384                                          zclWriteCmd_t *writeCmd, uint8 cmd, uint8 direction,
   1385                                          uint8 disableDefaultRsp, uint8 seqNum )
   1386          {
   \   000000                REQUIRE ?V0
   \   000000                REQUIRE ?V1
   \   000000                REQUIRE ?V2
   \   000000                REQUIRE ?V3
   \   000000                REQUIRE ?V4
   \   000000                REQUIRE ?V5
   \   000000                REQUIRE ?V6
   \   000000                REQUIRE ?V7
   \   000000                REQUIRE ?V8
   \   000000                REQUIRE ?V9
   \   000000                REQUIRE ?V10
   \   000000                REQUIRE ?V11
   \   000000                REQUIRE ?V12
   \   000000                REQUIRE ?V13
   \   000000   74EA         MOV       A,#-0x16
   \   000002   12....       LCALL     ?BANKED_ENTER_XDATA
   \   000005                ; Saved register size: 22
   \   000005                ; Auto size: 0
   \   000005   89..         MOV       ?V3,R1
   \   000007   8A..         MOV       ?V8,R2
   \   000009   8B..         MOV       ?V9,R3
   \   00000B   8C..         MOV       ?V6,R4
   \   00000D   8D..         MOV       ?V7,R5
   1387            uint8 *buf;
   1388            uint16 dataLen = 0;
   \   00000F   7E00         MOV       R6,#0x0
   \   000011   7F00         MOV       R7,#0x0
   1389            ZStatus_t status;
   1390            uint8 i;
   1391          
   1392            for ( i = 0; i < writeCmd->numAttr; i++ )
   \   000013   75..00       MOV       ?V2,#0x0
   \   000016   7416         MOV       A,#0x16
   \   000018   12....       LCALL     ?XSTACK_DISP0_8
   \   00001B   12....       LCALL     ?Subroutine114 & 0xFFFF
   \                     ??CrossCallReturnLabel_189:
   \   00001E   8003         SJMP      ??CrossCallReturnLabel_66
   1393            {
   1394              zclWriteRec_t *statusRec = &(writeCmd->attrList[i]);
   \                     ??zcl_SendWriteRequest_0:
   \   000020   12....       LCALL     ?Subroutine53 & 0xFFFF
   1395          
   1396              dataLen += 2 + 1; // Attribute ID + Attribute Type
   1397          
   1398              // Attribute Data
   1399              dataLen += zclGetAttrDataLength( statusRec->dataType, statusRec->attrData );
   1400            }
   \                     ??CrossCallReturnLabel_66:
   \   000023   85..82       MOV       DPL,?V4
   \   000026   85..83       MOV       DPH,?V5
   \   000029   12....       LCALL     ??Subroutine248_0 & 0xFFFF
   \                     ??CrossCallReturnLabel_553:
   \   00002C   40F2         JC        ??zcl_SendWriteRequest_0
   1401          
   1402            buf = zcl_mem_alloc( dataLen );
   \   00002E                ; Setup parameters for call to function osal_mem_alloc
   \   00002E   EE           MOV       A,R6
   \   00002F   FA           MOV       R2,A
   \   000030   EF           MOV       A,R7
   \   000031   12....       LCALL     ??Subroutine267_0 & 0xFFFF
   1403            if ( buf != NULL )
   \                     ??CrossCallReturnLabel_633:
   \   000034   7003         JNZ       $+5
   \   000036   02....       LJMP      ??zcl_SendWriteRequest_1 & 0xFFFF
   1404            {
   1405              // Load the buffer - serially
   1406              uint8 *pBuf = buf;
   \   000039   A8..         MOV       R0,?V0
   \   00003B   A9..         MOV       R1,?V1
   1407              for ( i = 0; i < writeCmd->numAttr; i++ )
   \   00003D   75..00       MOV       ?V2,#0x0
   \   000040   8003         SJMP      ??CrossCallReturnLabel_0
   1408              {
   1409                zclWriteRec_t *statusRec = &(writeCmd->attrList[i]);
   \                     ??zcl_SendWriteRequest_2:
   \   000042   12....       LCALL     ?Subroutine14 & 0xFFFF
   1410          
   1411                *pBuf++ = LO_UINT16( statusRec->attrID );
   1412                *pBuf++ = HI_UINT16( statusRec->attrID );
   1413                *pBuf++ = statusRec->dataType;
   1414          
   1415                pBuf = zclSerializeData( statusRec->dataType, statusRec->attrData, pBuf );
   1416              }
   \                     ??CrossCallReturnLabel_0:
   \   000045   85..82       MOV       DPL,?V4
   \   000048   85..83       MOV       DPH,?V5
   \   00004B   E0           MOVX      A,@DPTR
   \   00004C   FA           MOV       R2,A
   \   00004D   E5..         MOV       A,?V2
   \   00004F   C3           CLR       C
   \   000050   9A           SUBB      A,R2
   \   000051   40EF         JC        ??zcl_SendWriteRequest_2
   1417          
   1418              status = zcl_SendCommand( srcEP, dstAddr, clusterID, cmd, FALSE,
   1419                                        direction, disableDefaultRsp, 0, seqNum, dataLen, buf );
   \   000053                ; Setup parameters for call to function zcl_SendCommand
   \   000053   78..         MOV       R0,#?V0
   \   000055   12....       LCALL     ?PUSH_XSTACK_I_TWO
   \   000058   8E..         MOV       ?V4,R6
   \   00005A   8F..         MOV       ?V5,R7
   \   00005C   78..         MOV       R0,#?V4
   \   00005E   12....       LCALL     ?PUSH_XSTACK_I_TWO
   \   000061   741F         MOV       A,#0x1f
   \   000063   12....       LCALL     ?XSTACK_DISP0_8
   \   000066   12....       LCALL     ??Subroutine225_0 & 0xFFFF
   \                     ??CrossCallReturnLabel_419:
   \   000069   12....       LCALL     ?PUSH_XSTACK_I_ONE
   \   00006C   E4           CLR       A
   \   00006D   F5..         MOV       ?V4,A
   \   00006F   F5..         MOV       ?V5,A
   \   000071   78..         MOV       R0,#?V4
   \   000073   12....       LCALL     ?PUSH_XSTACK_I_TWO
   \   000076   7421         MOV       A,#0x21
   \   000078   12....       LCALL     ?XSTACK_DISP0_8
   \   00007B   12....       LCALL     ??Subroutine225_0 & 0xFFFF
   \                     ??CrossCallReturnLabel_420:
   \   00007E   12....       LCALL     ?PUSH_XSTACK_I_ONE
   \   000081   7421         MOV       A,#0x21
   \   000083   12....       LCALL     ?XSTACK_DISP0_8
   \   000086   12....       LCALL     ??Subroutine225_0 & 0xFFFF
   \                     ??CrossCallReturnLabel_421:
   \   000089   12....       LCALL     ?PUSH_XSTACK_I_ONE
   \   00008C   75..00       MOV       ?V2,#0x0
   \   00008F   78..         MOV       R0,#?V2
   \   000091   12....       LCALL     ?PUSH_XSTACK_I_ONE
   \   000094   7422         MOV       A,#0x22
   \   000096   12....       LCALL     ?XSTACK_DISP0_8
   \   000099   12....       LCALL     ??Subroutine225_0 & 0xFFFF
   \                     ??CrossCallReturnLabel_422:
   \   00009C   12....       LCALL     ?PUSH_XSTACK_I_ONE
   \   00009F   AC..         MOV       R4,?V6
   \   0000A1   AD..         MOV       R5,?V7
   \   0000A3   AA..         MOV       R2,?V8
   \   0000A5   AB..         MOV       R3,?V9
   \   0000A7   A9..         MOV       R1,?V3
   \   0000A9   12....       LCALL     ??Subroutine222_0 & 0xFFFF
   \                     ??CrossCallReturnLabel_404:
   \   0000AC   12....       LCALL     ?DEALLOC_XSTACK8
   \   0000AF   E9           MOV       A,R1
   \   0000B0   FE           MOV       R6,A
   1420              zcl_mem_free( buf );
   \   0000B1                ; Setup parameters for call to function osal_mem_free
   \   0000B1   AA..         MOV       R2,?V0
   \   0000B3   AB..         MOV       R3,?V1
   \   0000B5   12....       LCALL     `??osal_mem_free::?relay`; Banked call to: osal_mem_free
   \   0000B8   8002         SJMP      ??zcl_SendWriteRequest_3
   1421            }
   1422            else
   1423            {
   1424              status = ZMemError;
   \                     ??zcl_SendWriteRequest_1:
   \   0000BA   7E10         MOV       R6,#0x10
   1425            }
   1426          
   1427            return ( status);
   \                     ??zcl_SendWriteRequest_3:
   \   0000BC                REQUIRE ?Subroutine12
   \   0000BC                ; // Fall through to label ?Subroutine12
   1428          }

   \                                 In  segment BANKED_CODE, align 1, keep-with-next
   \                     ?Subroutine12:
   \   000000   EE           MOV       A,R6
   \   000001   F9           MOV       R1,A
   \   000002   02....       LJMP      ??Subroutine219_0 & 0xFFFF

   \                                 In  segment BANKED_CODE, align 1, keep-with-next
   \                     ?Subroutine188:
   \   000000   85..82       MOV       DPL,?V10
   \   000003   85..83       MOV       DPH,?V11
   \   000006                REQUIRE ??Subroutine217_0
   \   000006                ; // Fall through to label ??Subroutine217_0

   \                                 In  segment BANKED_CODE, align 1, keep-with-next
   \                     ?Subroutine53:
   \   000000   E5..         MOV       A,?V2
   \   000002   75F005       MOV       B,#0x5
   \   000005   A4           MUL       AB
   \   000006   F8           MOV       R0,A
   \   000007   A9F0         MOV       R1,B
   \   000009   E5..         MOV       A,?V4
   \   00000B   28           ADD       A,R0
   \   00000C   F582         MOV       DPL,A
   \   00000E   E5..         MOV       A,?V5
   \   000010   12....       LCALL     ?Subroutine196 & 0xFFFF
   \                     ??CrossCallReturnLabel_331:
   \   000013                ; Setup parameters for call to function zclGetAttrDataLength
   \   000013                ; Setup parameters for call to function zclGetAttrDataLength
   \   000013   A3           INC       DPTR
   \   000014   A3           INC       DPTR
   \   000015   A3           INC       DPTR
   \   000016   12....       LCALL     ?Subroutine186 & 0xFFFF
   \                     ??CrossCallReturnLabel_316:
   \   000019   A3           INC       DPTR
   \   00001A   A3           INC       DPTR
   \   00001B   E0           MOVX      A,@DPTR
   \   00001C   F9           MOV       R1,A
   \   00001D   12....       LCALL     `??zclGetAttrDataLength::?relay`; Banked call to: zclGetAttrDataLength
   \   000020   8B..         MOV       ?V1,R3
   \   000022   EA           MOV       A,R2
   \   000023   2403         ADD       A,#0x3
   \   000025   F8           MOV       R0,A
   \   000026   E4           CLR       A
   \   000027   35..         ADDC      A,?V1
   \   000029   F9           MOV       R1,A
   \   00002A   EE           MOV       A,R6
   \   00002B   28           ADD       A,R0
   \   00002C   FE           MOV       R6,A
   \   00002D   EF           MOV       A,R7
   \   00002E   39           ADDC      A,R1
   \   00002F   FF           MOV       R7,A
   \   000030   05..         INC       ?V2
   \   000032   22           RET

   \                                 In  segment BANKED_CODE, align 1, keep-with-next
   \                     ?Subroutine14:
   \   000000   E5..         MOV       A,?V2
   \   000002   75F005       MOV       B,#0x5
   \   000005   A4           MUL       AB
   \   000006   FA           MOV       R2,A
   \   000007   ABF0         MOV       R3,B
   \   000009   12....       LCALL     ?Subroutine195 & 0xFFFF
   \                     ??CrossCallReturnLabel_330:
   \   00000C   8582..       MOV       ?V12,DPL
   \   00000F   8583..       MOV       ?V13,DPH
   \   000012   12....       LCALL     ?Subroutine208 & 0xFFFF
   \                     ??CrossCallReturnLabel_387:
   \   000015   12....       LCALL     ?Subroutine166 & 0xFFFF
   \                     ??CrossCallReturnLabel_283:
   \   000018   8882         MOV       DPL,R0
   \   00001A   8983         MOV       DPH,R1
   \   00001C   A3           INC       DPTR
   \   00001D   F0           MOVX      @DPTR,A
   \   00001E   E5..         MOV       A,?V12
   \   000020   12....       LCALL     ?Subroutine194 & 0xFFFF
   \                     ??CrossCallReturnLabel_328:
   \   000023   35..         ADDC      A,?V13
   \   000025   8A..         MOV       ?V10,R2
   \   000027   F5..         MOV       ?V11,A
   \   000029   8A82         MOV       DPL,R2
   \   00002B   F583         MOV       DPH,A
   \   00002D   12....       LCALL     ?Subroutine178 & 0xFFFF
   \                     ??CrossCallReturnLabel_300:
   \   000030   A3           INC       DPTR
   \   000031   F0           MOVX      @DPTR,A
   \   000032                ; Setup parameters for call to function zclSerializeData
   \   000032                ; Setup parameters for call to function zclSerializeData
   \   000032   E8           MOV       A,R0
   \   000033   2403         ADD       A,#0x3
   \   000035   FC           MOV       R4,A
   \   000036   E4           CLR       A
   \   000037   39           ADDC      A,R1
   \   000038   FD           MOV       R5,A
   \   000039   85..82       MOV       DPL,?V12
   \   00003C   85..83       MOV       DPH,?V13
   \   00003F   12....       LCALL     ??Subroutine253_0 & 0xFFFF
   \                     ??CrossCallReturnLabel_670:
   \   000042   12....       LCALL     ?Subroutine188 & 0xFFFF
   \                     ??CrossCallReturnLabel_381:
   \   000045   8A..         MOV       ?V10,R2
   \   000047   8B..         MOV       ?V11,R3
   \   000049   A8..         MOV       R0,?V10
   \   00004B   A9..         MOV       R1,?V11
   \   00004D   05..         INC       ?V2
   \   00004F   22           RET

   \                                 In  segment BANKED_CODE, align 1, keep-with-next
   \                     ??Subroutine225_0:
   \   000000   E0           MOVX      A,@DPTR
   \   000001   F5..         MOV       ?V2,A
   \   000003   78..         MOV       R0,#?V2
   \   000005   22           RET

   \                                 In  segment BANKED_CODE, align 1, keep-with-next
   \                     ?Subroutine166:
   \   000000   12....       LCALL     ?Subroutine204 & 0xFFFF
   \                     ??CrossCallReturnLabel_343:
   \   000003   E0           MOVX      A,@DPTR
   \   000004   22           RET

   \                                 In  segment BANKED_CODE, align 1, keep-with-next
   \                     ?Subroutine114:
   \   000000   12....       LCALL     ?Subroutine180 & 0xFFFF
   \                     ??CrossCallReturnLabel_308:
   \   000003   22           RET

   \                                 In  segment BANKED_CODE, align 1, keep-with-next
   \                     ?Subroutine194:
   \   000000   2402         ADD       A,#0x2
   \   000002   FA           MOV       R2,A
   \   000003   E4           CLR       A
   \   000004   22           RET

   \                                 In  segment BANKED_CODE, align 1, keep-with-next
   \                     ??Subroutine253_0:
   \   000000   A3           INC       DPTR
   \   000001   A3           INC       DPTR
   \   000002   A3           INC       DPTR
   \   000003                REQUIRE ??Subroutine254_0
   \   000003                ; // Fall through to label ??Subroutine254_0

   \                                 In  segment BANKED_CODE, align 1, keep-with-next
   \                     ?Subroutine186:
   \   000000   E0           MOVX      A,@DPTR
   \   000001   FA           MOV       R2,A
   \   000002   A3           INC       DPTR
   \   000003   E0           MOVX      A,@DPTR
   \   000004   FB           MOV       R3,A
   \   000005   8882         MOV       DPL,R0
   \   000007   8983         MOV       DPH,R1
   \   000009   22           RET
   1429          
   1430          /*********************************************************************
   1431           * @fn      zcl_SendWriteRsp
   1432           *
   1433           * @brief   Send a Write Response command
   1434           *
   1435           * @param   dstAddr - destination address
   1436           * @param   clusterID - cluster ID
   1437           * @param   wrtieRspCmd - write response command to be sent
   1438           * @param   direction - direction of the command
   1439           * @param   seqNum - transaction sequence number
   1440           *
   1441           * @return  ZSuccess if OK
   1442           */

   \                                 In  segment BANKED_CODE, align 1, keep-with-next
   1443          ZStatus_t zcl_SendWriteRsp( uint8 srcEP, afAddrType_t *dstAddr,
   \                     zcl_SendWriteRsp:
   1444                                      uint16 clusterID, zclWriteRspCmd_t *writeRspCmd,
   1445                                      uint8 direction, uint8 disableDefaultRsp, uint8 seqNum )
   1446          {
   \   000000                REQUIRE ?V0
   \   000000                REQUIRE ?V1
   \   000000                REQUIRE ?V2
   \   000000                REQUIRE ?V3
   \   000000                REQUIRE ?V4
   \   000000                REQUIRE ?V5
   \   000000                REQUIRE ?V6
   \   000000                REQUIRE ?V7
   \   000000                REQUIRE ?V8
   \   000000                REQUIRE ?V9
   \   000000                REQUIRE ?V10
   \   000000                REQUIRE ?V11
   \   000000   74EC         MOV       A,#-0x14
   \   000002   12....       LCALL     ?BANKED_ENTER_XDATA
   \   000005                ; Saved register size: 20
   \   000005                ; Auto size: 0
   \   000005   89..         MOV       ?V2,R1
   \   000007   8A..         MOV       ?V8,R2
   \   000009   8B..         MOV       ?V9,R3
   \   00000B   EC           MOV       A,R4
   \   00000C   FE           MOV       R6,A
   \   00000D   ED           MOV       A,R5
   \   00000E   FF           MOV       R7,A
   \   00000F   7414         MOV       A,#0x14
   \   000011   12....       LCALL     ?XSTACK_DISP0_8
   \   000014   12....       LCALL     ?Subroutine61 & 0xFFFF
   1447            uint16 dataLen;
   1448            uint8 *buf;
   1449            ZStatus_t status;
   1450          
   1451            dataLen = writeRspCmd->numAttr * ( 1 + 2 ); // status + attribute id
   \                     ??CrossCallReturnLabel_91:
   \   000017   75F003       MOV       B,#0x3
   \   00001A   A4           MUL       AB
   \   00001B   F5..         MOV       ?V6,A
   \   00001D   E5F0         MOV       A,B
   \   00001F   12....       LCALL     ?Subroutine133 & 0xFFFF
   1452          
   1453            buf = zcl_mem_alloc( dataLen );
   1454            if ( buf != NULL )
   \                     ??CrossCallReturnLabel_630:
   \   000022   7003         JNZ       $+5
   \   000024   02....       LJMP      ??zcl_SendWriteRsp_0 & 0xFFFF
   1455            {
   1456              // Load the buffer - serially
   1457              uint8 i;
   1458              uint8 *pBuf = buf;
   \   000027   A8..         MOV       R0,?V0
   \   000029   A9..         MOV       R1,?V1
   1459              for ( i = 0; i < writeRspCmd->numAttr; i++ )
   \   00002B   7C00         MOV       R4,#0x0
   \   00002D   8034         SJMP      ??zcl_SendWriteRsp_1
   1460              {
   1461                *pBuf++ = writeRspCmd->attrList[i].status;
   \                     ??zcl_SendWriteRsp_2:
   \   00002F   EC           MOV       A,R4
   \   000030   75F003       MOV       B,#0x3
   \   000033   A4           MUL       AB
   \   000034   FA           MOV       R2,A
   \   000035   ABF0         MOV       R3,B
   \   000037   E5..         MOV       A,?V4
   \   000039   2A           ADD       A,R2
   \   00003A   FA           MOV       R2,A
   \   00003B   E5..         MOV       A,?V5
   \   00003D   3B           ADDC      A,R3
   \   00003E   FB           MOV       R3,A
   \   00003F   8A82         MOV       DPL,R2
   \   000041   F583         MOV       DPH,A
   \   000043   A3           INC       DPTR
   \   000044   12....       LCALL     ??Subroutine218_0 & 0xFFFF
   1462                *pBuf++ = LO_UINT16( writeRspCmd->attrList[i].attrID );
   \                     ??CrossCallReturnLabel_383:
   \   000047   EA           MOV       A,R2
   \   000048   2402         ADD       A,#0x2
   \   00004A   FA           MOV       R2,A
   \   00004B   5001         JNC       ??zcl_SendWriteRsp_3
   \   00004D   0B           INC       R3
   \                     ??zcl_SendWriteRsp_3:
   \   00004E   F582         MOV       DPL,A
   \   000050   8B83         MOV       DPH,R3
   \   000052   12....       LCALL     ?Subroutine116 & 0xFFFF
   1463                *pBuf++ = HI_UINT16( writeRspCmd->attrList[i].attrID );
   1464              }
   \                     ??CrossCallReturnLabel_196:
   \   000055   A3           INC       DPTR
   \   000056   12....       LCALL     ?Subroutine28 & 0xFFFF
   \                     ??CrossCallReturnLabel_25:
   \   000059   A3           INC       DPTR
   \   00005A   F0           MOVX      @DPTR,A
   \   00005B   E8           MOV       A,R0
   \   00005C   2403         ADD       A,#0x3
   \   00005E   F8           MOV       R0,A
   \   00005F   5001         JNC       ??zcl_SendWriteRsp_4
   \   000061   09           INC       R1
   \                     ??zcl_SendWriteRsp_4:
   \   000062   0C           INC       R4
   \                     ??zcl_SendWriteRsp_1:
   \   000063   85..82       MOV       DPL,?V4
   \   000066   85..83       MOV       DPH,?V5
   \   000069   E0           MOVX      A,@DPTR
   \   00006A   FA           MOV       R2,A
   \   00006B   EC           MOV       A,R4
   \   00006C   C3           CLR       C
   \   00006D   9A           SUBB      A,R2
   \   00006E   40BF         JC        ??zcl_SendWriteRsp_2
   1465          
   1466              // If there's only a single status record and its status field is set to
   1467              // SUCCESS then omit the attribute ID field.
   1468              if ( writeRspCmd->numAttr == 1 && writeRspCmd->attrList[0].status == ZCL_STATUS_SUCCESS )
   \   000070   7401         MOV       A,#0x1
   \   000072   6A           XRL       A,R2
   \   000073   700A         JNZ       ??zcl_SendWriteRsp_5
   \   000075   A3           INC       DPTR
   \   000076   E0           MOVX      A,@DPTR
   \   000077   7006         JNZ       ??zcl_SendWriteRsp_5
   1469              {
   1470                dataLen = 1;
   \   000079   75..01       MOV       ?V6,#0x1
   \   00007C   75..00       MOV       ?V7,#0x0
   1471              }
   1472          
   1473              status = zcl_SendCommand( srcEP, dstAddr, clusterID, ZCL_CMD_WRITE_RSP, FALSE,
   1474                                        direction, disableDefaultRsp, 0, seqNum, dataLen, buf );
   \                     ??zcl_SendWriteRsp_5:
   \   00007F                ; Setup parameters for call to function zcl_SendCommand
   \   00007F   78..         MOV       R0,#?V0
   \   000081   12....       LCALL     ?PUSH_XSTACK_I_TWO
   \   000084   78..         MOV       R0,#?V6
   \   000086   12....       LCALL     ?PUSH_XSTACK_I_TWO
   \   000089   741C         MOV       A,#0x1c
   \   00008B   12....       LCALL     ?XSTACK_DISP0_8
   \   00008E   12....       LCALL     ?Subroutine57 & 0xFFFF
   \                     ??CrossCallReturnLabel_75:
   \   000091   12....       LCALL     ?PUSH_XSTACK_I_ONE
   \   000094   E4           CLR       A
   \   000095   F5..         MOV       ?V4,A
   \   000097   F5..         MOV       ?V5,A
   \   000099   78..         MOV       R0,#?V4
   \   00009B   12....       LCALL     ?PUSH_XSTACK_I_TWO
   \   00009E   741E         MOV       A,#0x1e
   \   0000A0   12....       LCALL     ?XSTACK_DISP0_8
   \   0000A3   12....       LCALL     ?Subroutine57 & 0xFFFF
   \                     ??CrossCallReturnLabel_76:
   \   0000A6   12....       LCALL     ?PUSH_XSTACK_I_ONE
   \   0000A9   741E         MOV       A,#0x1e
   \   0000AB   12....       LCALL     ?XSTACK_DISP0_8
   \   0000AE   12....       LCALL     ?Subroutine57 & 0xFFFF
   \                     ??CrossCallReturnLabel_77:
   \   0000B1   12....       LCALL     ?PUSH_XSTACK_I_ONE
   \   0000B4   75..00       MOV       ?V3,#0x0
   \   0000B7   78..         MOV       R0,#?V3
   \   0000B9   12....       LCALL     ?PUSH_XSTACK_I_ONE
   \   0000BC   75..04       MOV       ?V3,#0x4
   \   0000BF   78..         MOV       R0,#?V3
   \   0000C1   12....       LCALL     ?PUSH_XSTACK_I_ONE
   \   0000C4   12....       LCALL     ?Subroutine154 & 0xFFFF
   \                     ??CrossCallReturnLabel_400:
   \   0000C7   12....       LCALL     ?DEALLOC_XSTACK8
   \   0000CA   E9           MOV       A,R1
   \   0000CB   FE           MOV       R6,A
   1475              zcl_mem_free( buf );
   \   0000CC                ; Setup parameters for call to function osal_mem_free
   \   0000CC   AA..         MOV       R2,?V0
   \   0000CE   AB..         MOV       R3,?V1
   \   0000D0   12....       LCALL     `??osal_mem_free::?relay`; Banked call to: osal_mem_free
   \   0000D3   8002         SJMP      ??zcl_SendWriteRsp_6
   1476            }
   1477            else
   1478            {
   1479              status = ZMemError;
   \                     ??zcl_SendWriteRsp_0:
   \   0000D5   7E10         MOV       R6,#0x10
   1480            }
   1481          
   1482            return ( status );
   \                     ??zcl_SendWriteRsp_6:
   \   0000D7   02....       LJMP      ?Subroutine10 & 0xFFFF
   1483          }

   \                                 In  segment BANKED_CODE, align 1, keep-with-next
   \                     ??Subroutine218_0:
   \   000000   12....       LCALL     ?Subroutine208 & 0xFFFF
   \                     ??CrossCallReturnLabel_390:
   \   000003   F0           MOVX      @DPTR,A
   \   000004   22           RET
   1484          #endif // ZCL_WRITE
   1485          
   1486          #ifdef ZCL_REPORT_CONFIGURING_DEVICE
   1487          /*********************************************************************
   1488           * @fn      zcl_SendConfigReportCmd
   1489           *
   1490           * @brief   Send a Configure Reporting command
   1491           *
   1492           * @param   dstAddr - destination address
   1493           * @param   clusterID - cluster ID
   1494           * @param   cfgReportCmd - configure reporting command to be sent
   1495           * @param   direction - direction of the command
   1496           * @param   seqNum - transaction sequence number
   1497           *
   1498           * @return  ZSuccess if OK
   1499           */
   1500          ZStatus_t zcl_SendConfigReportCmd( uint8 srcEP, afAddrType_t *dstAddr,
   1501                                    uint16 clusterID, zclCfgReportCmd_t *cfgReportCmd,
   1502                                    uint8 direction, uint8 disableDefaultRsp, uint8 seqNum )
   1503          {
   1504            uint8 *buf;
   1505            uint16 dataLen = 0;
   1506            ZStatus_t status;
   1507            uint8 i;
   1508          
   1509            // Find out the data length
   1510            for ( i = 0; i < cfgReportCmd->numAttr; i++ )
   1511            {
   1512              zclCfgReportRec_t *reportRec = &(cfgReportCmd->attrList[i]);
   1513          
   1514              dataLen += 1 + 2; // Direction + Attribute ID
   1515          
   1516              if ( reportRec->direction == ZCL_SEND_ATTR_REPORTS )
   1517              {
   1518                dataLen += 1 + 2 + 2; // Data Type + Min + Max Reporting Intervals
   1519          
   1520                // Find out the size of the Reportable Change field (for Analog data types)
   1521                if ( zclAnalogDataType( reportRec->dataType ) )
   1522                {
   1523                  dataLen += zclGetDataTypeLength( reportRec->dataType );
   1524                }
   1525              }
   1526              else
   1527              {
   1528                dataLen += 2; // Timeout Period
   1529              }
   1530            }
   1531          
   1532            buf = zcl_mem_alloc( dataLen );
   1533            if ( buf != NULL )
   1534            {
   1535              // Load the buffer - serially
   1536              uint8 *pBuf = buf;
   1537          
   1538              for ( i = 0; i < cfgReportCmd->numAttr; i++ )
   1539              {
   1540                zclCfgReportRec_t *reportRec = &(cfgReportCmd->attrList[i]);
   1541          
   1542                *pBuf++ = reportRec->direction;
   1543                *pBuf++ = LO_UINT16( reportRec->attrID );
   1544                *pBuf++ = HI_UINT16( reportRec->attrID );
   1545          
   1546                if ( reportRec->direction == ZCL_SEND_ATTR_REPORTS )
   1547                {
   1548                  *pBuf++ = reportRec->dataType;
   1549                  *pBuf++ = LO_UINT16( reportRec->minReportInt );
   1550                  *pBuf++ = HI_UINT16( reportRec->minReportInt );
   1551                  *pBuf++ = LO_UINT16( reportRec->maxReportInt );
   1552                  *pBuf++ = HI_UINT16( reportRec->maxReportInt );
   1553          
   1554                  if ( zclAnalogDataType( reportRec->dataType ) )
   1555                  {
   1556                    pBuf = zclSerializeData( reportRec->dataType, reportRec->reportableChange, pBuf );
   1557                  }
   1558                }
   1559                else
   1560                {
   1561                  *pBuf++ = LO_UINT16( reportRec->timeoutPeriod );
   1562                  *pBuf++ = HI_UINT16( reportRec->timeoutPeriod );
   1563                }
   1564              } // for loop
   1565          
   1566              status = zcl_SendCommand( srcEP, dstAddr, clusterID, ZCL_CMD_CONFIG_REPORT, FALSE,
   1567                                        direction, disableDefaultRsp, 0, seqNum, dataLen, buf );
   1568              zcl_mem_free( buf );
   1569            }
   1570            else
   1571            {
   1572              status = ZMemError;
   1573            }
   1574          
   1575            return ( status );
   1576          }
   1577          #endif
   1578          
   1579          #ifdef ZCL_REPORTING_DEVICE
   1580          /*********************************************************************
   1581           * @fn      zcl_SendConfigReportRspCmd
   1582           *
   1583           * @brief   Send a Configure Reporting Response command
   1584           *
   1585           * @param   dstAddr - destination address
   1586           * @param   clusterID - cluster ID
   1587           * @param   cfgReportRspCmd - configure reporting response command to be sent
   1588           * @param   direction - direction of the command
   1589           * @param   seqNum - transaction sequence number
   1590           *
   1591           * @return  ZSuccess if OK
   1592           */

   \                                 In  segment BANKED_CODE, align 1, keep-with-next
   1593          ZStatus_t zcl_SendConfigReportRspCmd( uint8 srcEP, afAddrType_t *dstAddr,
   \                     zcl_SendConfigReportRspCmd:
   1594                              uint16 clusterID, zclCfgReportRspCmd_t *cfgReportRspCmd,
   1595                              uint8 direction, uint8 disableDefaultRsp, uint8 seqNum )
   1596          {
   \   000000                REQUIRE ?V0
   \   000000                REQUIRE ?V1
   \   000000                REQUIRE ?V2
   \   000000                REQUIRE ?V3
   \   000000                REQUIRE ?V4
   \   000000                REQUIRE ?V5
   \   000000                REQUIRE ?V6
   \   000000                REQUIRE ?V7
   \   000000                REQUIRE ?V8
   \   000000                REQUIRE ?V9
   \   000000                REQUIRE ?V10
   \   000000                REQUIRE ?V11
   \   000000   74EC         MOV       A,#-0x14
   \   000002   12....       LCALL     ?BANKED_ENTER_XDATA
   \   000005                ; Saved register size: 20
   \   000005                ; Auto size: 0
   \   000005   89..         MOV       ?V2,R1
   \   000007   8A..         MOV       ?V8,R2
   \   000009   8B..         MOV       ?V9,R3
   \   00000B   EC           MOV       A,R4
   \   00000C   FE           MOV       R6,A
   \   00000D   ED           MOV       A,R5
   \   00000E   FF           MOV       R7,A
   \   00000F   7414         MOV       A,#0x14
   \   000011   12....       LCALL     ?XSTACK_DISP0_8
   \   000014   12....       LCALL     ?Subroutine61 & 0xFFFF
   1597            uint16 dataLen;
   1598            uint8 *buf;
   1599            ZStatus_t status;
   1600          
   1601            // Atrribute list (Status, Direction and Attribute ID)
   1602            dataLen = cfgReportRspCmd->numAttr * ( 1 + 1 + 2 );
   \                     ??CrossCallReturnLabel_92:
   \   000017   F5..         MOV       ?V0,A
   \   000019   75..00       MOV       ?V1,#0x0
   \   00001C   7402         MOV       A,#0x2
   \   00001E   78..         MOV       R0,#?V0
   \   000020   12....       LCALL     ?S_SHL
   \   000023   85....       MOV       ?V6,?V0
   \   000026   85....       MOV       ?V7,?V1
   1603          
   1604            buf = zcl_mem_alloc( dataLen );
   \   000029                ; Setup parameters for call to function osal_mem_alloc
   \   000029   AA..         MOV       R2,?V6
   \   00002B   AB..         MOV       R3,?V7
   \   00002D   12....       LCALL     ??Subroutine268_0 & 0xFFFF
   1605            if ( buf != NULL )
   \                     ??CrossCallReturnLabel_638:
   \   000030   7003         JNZ       $+5
   \   000032   02....       LJMP      ??zcl_SendConfigReportRspCmd_0 & 0xFFFF
   1606            {
   1607              // Load the buffer - serially
   1608              uint8 *pBuf = buf;
   1609              uint8 i;
   1610          
   1611              for ( i = 0; i < cfgReportRspCmd->numAttr; i++ )
   \   000035   7900         MOV       R1,#0x0
   \   000037   803E         SJMP      ??zcl_SendConfigReportRspCmd_1
   1612              {
   1613                *pBuf++ = cfgReportRspCmd->attrList[i].status;
   \                     ??zcl_SendConfigReportRspCmd_2:
   \   000039   E9           MOV       A,R1
   \   00003A   F5..         MOV       ?V10,A
   \   00003C   75..00       MOV       ?V11,#0x0
   \   00003F   7402         MOV       A,#0x2
   \   000041   78..         MOV       R0,#?V10
   \   000043   12....       LCALL     ?S_SHL
   \   000046   E5..         MOV       A,?V4
   \   000048   25..         ADD       A,?V10
   \   00004A   FC           MOV       R4,A
   \   00004B   E5..         MOV       A,?V5
   \   00004D   35..         ADDC      A,?V11
   \   00004F   FD           MOV       R5,A
   \   000050   8C82         MOV       DPL,R4
   \   000052   F583         MOV       DPH,A
   \   000054   A3           INC       DPTR
   \   000055   12....       LCALL     ??Subroutine223_0 & 0xFFFF
   \                     ??CrossCallReturnLabel_413:
   \   000058   12....       LCALL     ??Subroutine226_0 & 0xFFFF
   1614                *pBuf++ = cfgReportRspCmd->attrList[i].direction;
   \                     ??CrossCallReturnLabel_437:
   \   00005B   A3           INC       DPTR
   \   00005C   12....       LCALL     ??Subroutine223_0 & 0xFFFF
   \                     ??CrossCallReturnLabel_414:
   \   00005F   A3           INC       DPTR
   \   000060   F0           MOVX      @DPTR,A
   1615                *pBuf++ = LO_UINT16( cfgReportRspCmd->attrList[i].attrID );
   \   000061   EC           MOV       A,R4
   \   000062   2403         ADD       A,#0x3
   \   000064   FC           MOV       R4,A
   \   000065   5001         JNC       ??zcl_SendConfigReportRspCmd_3
   \   000067   0D           INC       R5
   \                     ??zcl_SendConfigReportRspCmd_3:
   \   000068   F582         MOV       DPL,A
   \   00006A   8D83         MOV       DPH,R5
   \   00006C   E0           MOVX      A,@DPTR
   \   00006D   12....       LCALL     ?Subroutine41 & 0xFFFF
   1616                *pBuf++ = HI_UINT16( cfgReportRspCmd->attrList[i].attrID );
   1617              }
   \                     ??CrossCallReturnLabel_435:
   \   000070   12....       LCALL     ?Subroutine85 & 0xFFFF
   \                     ??CrossCallReturnLabel_144:
   \   000073   5001         JNC       ??zcl_SendConfigReportRspCmd_4
   \   000075   0B           INC       R3
   \                     ??zcl_SendConfigReportRspCmd_4:
   \   000076   09           INC       R1
   \                     ??zcl_SendConfigReportRspCmd_1:
   \   000077   85..82       MOV       DPL,?V4
   \   00007A   85..83       MOV       DPH,?V5
   \   00007D   E0           MOVX      A,@DPTR
   \   00007E   F8           MOV       R0,A
   \   00007F   E9           MOV       A,R1
   \   000080   C3           CLR       C
   \   000081   98           SUBB      A,R0
   \   000082   40B5         JC        ??zcl_SendConfigReportRspCmd_2
   1618          
   1619              // If there's only a single status record and its status field is set to
   1620              // SUCCESS then omit the attribute ID field.
   1621              if ( cfgReportRspCmd->numAttr == 1 && cfgReportRspCmd->attrList[0].status == ZCL_STATUS_SUCCESS )
   \   000084   7401         MOV       A,#0x1
   \   000086   68           XRL       A,R0
   \   000087   700A         JNZ       ??zcl_SendConfigReportRspCmd_5
   \   000089   A3           INC       DPTR
   \   00008A   E0           MOVX      A,@DPTR
   \   00008B   7006         JNZ       ??zcl_SendConfigReportRspCmd_5
   1622              {
   1623                dataLen = 1;
   \   00008D   75..01       MOV       ?V6,#0x1
   \   000090   75..00       MOV       ?V7,#0x0
   1624              }
   1625          
   1626              status = zcl_SendCommand( srcEP, dstAddr, clusterID,
   1627                                        ZCL_CMD_CONFIG_REPORT_RSP, FALSE, direction,
   1628                                        disableDefaultRsp, 0, seqNum, dataLen, buf );
   \                     ??zcl_SendConfigReportRspCmd_5:
   \   000093                ; Setup parameters for call to function zcl_SendCommand
   \   000093   78..         MOV       R0,#?V0
   \   000095   12....       LCALL     ?PUSH_XSTACK_I_TWO
   \   000098   78..         MOV       R0,#?V6
   \   00009A   12....       LCALL     ?PUSH_XSTACK_I_TWO
   \   00009D   741C         MOV       A,#0x1c
   \   00009F   12....       LCALL     ?XSTACK_DISP0_8
   \   0000A2   12....       LCALL     ?Subroutine57 & 0xFFFF
   \                     ??CrossCallReturnLabel_78:
   \   0000A5   12....       LCALL     ?PUSH_XSTACK_I_ONE
   \   0000A8   E4           CLR       A
   \   0000A9   F5..         MOV       ?V4,A
   \   0000AB   F5..         MOV       ?V5,A
   \   0000AD   78..         MOV       R0,#?V4
   \   0000AF   12....       LCALL     ?PUSH_XSTACK_I_TWO
   \   0000B2   741E         MOV       A,#0x1e
   \   0000B4   12....       LCALL     ?XSTACK_DISP0_8
   \   0000B7   12....       LCALL     ?Subroutine57 & 0xFFFF
   \                     ??CrossCallReturnLabel_79:
   \   0000BA   12....       LCALL     ?PUSH_XSTACK_I_ONE
   \   0000BD   741E         MOV       A,#0x1e
   \   0000BF   12....       LCALL     ?XSTACK_DISP0_8
   \   0000C2   12....       LCALL     ?Subroutine57 & 0xFFFF
   \                     ??CrossCallReturnLabel_80:
   \   0000C5   12....       LCALL     ?PUSH_XSTACK_I_ONE
   \   0000C8   75..00       MOV       ?V3,#0x0
   \   0000CB   78..         MOV       R0,#?V3
   \   0000CD   12....       LCALL     ?PUSH_XSTACK_I_ONE
   \   0000D0   75..07       MOV       ?V3,#0x7
   \   0000D3   78..         MOV       R0,#?V3
   \   0000D5   12....       LCALL     ?PUSH_XSTACK_I_ONE
   \   0000D8   12....       LCALL     ?Subroutine154 & 0xFFFF
   \                     ??CrossCallReturnLabel_401:
   \   0000DB   12....       LCALL     ?DEALLOC_XSTACK8
   \   0000DE   E9           MOV       A,R1
   \   0000DF   FE           MOV       R6,A
   1629              zcl_mem_free( buf );
   \   0000E0                ; Setup parameters for call to function osal_mem_free
   \   0000E0   AA..         MOV       R2,?V0
   \   0000E2   AB..         MOV       R3,?V1
   \   0000E4   12....       LCALL     `??osal_mem_free::?relay`; Banked call to: osal_mem_free
   \   0000E7   8002         SJMP      ??zcl_SendConfigReportRspCmd_6
   1630            }
   1631            else
   1632            {
   1633              status = ZMemError;
   \                     ??zcl_SendConfigReportRspCmd_0:
   \   0000E9   7E10         MOV       R6,#0x10
   1634            }
   1635          
   1636            return ( status );
   \                     ??zcl_SendConfigReportRspCmd_6:
   \   0000EB   02....       LJMP      ?Subroutine10 & 0xFFFF
   1637          }

   \                                 In  segment BANKED_CODE, align 1, keep-with-next
   \                     ??Subroutine223_0:
   \   000000   12....       LCALL     ??Subroutine239_0 & 0xFFFF
   \                     ??CrossCallReturnLabel_493:
   \   000003   22           RET

   \                                 In  segment BANKED_CODE, align 1, keep-with-next
   \                     ?Subroutine85:
   \   000000   12....       LCALL     ??Subroutine239_0 & 0xFFFF
   \                     ??CrossCallReturnLabel_489:
   \   000003   A3           INC       DPTR
   \   000004   A3           INC       DPTR
   \   000005   A3           INC       DPTR
   \   000006   F0           MOVX      @DPTR,A
   \   000007   EA           MOV       A,R2
   \   000008   2404         ADD       A,#0x4
   \   00000A   FA           MOV       R2,A
   \   00000B   22           RET

   \                                 In  segment BANKED_CODE, align 1, keep-with-next
   \                     ?Subroutine41:
   \   000000   8A82         MOV       DPL,R2
   \   000002   8B83         MOV       DPH,R3
   \   000004   A3           INC       DPTR
   \   000005   A3           INC       DPTR
   \   000006                REQUIRE ??Subroutine226_0
   \   000006                ; // Fall through to label ??Subroutine226_0

   \                                 In  segment BANKED_CODE, align 1, keep-with-next
   \                     ??Subroutine226_0:
   \   000000   F0           MOVX      @DPTR,A
   \   000001   8C82         MOV       DPL,R4
   \   000003   8D83         MOV       DPH,R5
   \   000005   A3           INC       DPTR
   \   000006   22           RET

   \                                 In  segment BANKED_CODE, align 1, keep-with-next
   \                     ??Subroutine239_0:
   \   000000   E0           MOVX      A,@DPTR
   \   000001   8A82         MOV       DPL,R2
   \   000003   8B83         MOV       DPH,R3
   \   000005   22           RET
   1638          #endif
   1639          
   1640          #ifdef ZCL_REPORT_CONFIGURING_DEVICE
   1641          /*********************************************************************
   1642           * @fn      zcl_SendReadReportCfgCmd
   1643           *
   1644           * @brief   Send a Read Reporting Configuration command
   1645           *
   1646           * @param   dstAddr - destination address
   1647           * @param   clusterID - cluster ID
   1648           * @param   readReportCfgCmd - read reporting configuration command to be sent
   1649           * @param   direction - direction of the command
   1650           * @param   seqNum - transaction sequence number
   1651           *
   1652           * @return  ZSuccess if OK
   1653           */
   1654          ZStatus_t zcl_SendReadReportCfgCmd( uint8 srcEP, afAddrType_t *dstAddr,
   1655                            uint16 clusterID, zclReadReportCfgCmd_t *readReportCfgCmd,
   1656                            uint8 direction, uint8 disableDefaultRsp, uint8 seqNum )
   1657          {
   1658            uint16 dataLen;
   1659            uint8 *buf;
   1660            ZStatus_t status;
   1661          
   1662            dataLen = readReportCfgCmd->numAttr * ( 1 + 2 ); // Direction + Atrribute ID
   1663          
   1664            buf = zcl_mem_alloc( dataLen );
   1665            if ( buf != NULL )
   1666            {
   1667              // Load the buffer - serially
   1668              uint8 *pBuf = buf;
   1669              uint8 i;
   1670          
   1671              for ( i = 0; i < readReportCfgCmd->numAttr; i++ )
   1672              {
   1673                *pBuf++ = readReportCfgCmd->attrList[i].direction;
   1674                *pBuf++ = LO_UINT16( readReportCfgCmd->attrList[i].attrID );
   1675                *pBuf++ = HI_UINT16( readReportCfgCmd->attrList[i].attrID );
   1676              }
   1677          
   1678              status = zcl_SendCommand( srcEP, dstAddr, clusterID, ZCL_CMD_READ_REPORT_CFG, FALSE,
   1679                                        direction, disableDefaultRsp, 0, seqNum, dataLen, buf );
   1680              zcl_mem_free( buf );
   1681            }
   1682            else
   1683            {
   1684              status = ZMemError;
   1685            }
   1686          
   1687            return ( status );
   1688          }
   1689          #endif
   1690          
   1691          #ifdef ZCL_REPORTING_DEVICE
   1692          /*********************************************************************
   1693           * @fn      zcl_SendReadReportCfgRspCmd
   1694           *
   1695           * @brief   Send a Read Reporting Configuration Response command
   1696           *
   1697           * @param   dstAddr - destination address
   1698           * @param   clusterID - cluster ID
   1699           * @param   readReportCfgRspCmd - read reporting configuration response command to be sent
   1700           * @param   direction - direction of the command
   1701           * @param   seqNum - transaction sequence number
   1702           *
   1703           * @return  ZSuccess if OK
   1704           */

   \                                 In  segment BANKED_CODE, align 1, keep-with-next
   1705          ZStatus_t zcl_SendReadReportCfgRspCmd( uint8 srcEP, afAddrType_t *dstAddr,
   \                     zcl_SendReadReportCfgRspCmd:
   1706                       uint16 clusterID, zclReadReportCfgRspCmd_t *readReportCfgRspCmd,
   1707                       uint8 direction, uint8 disableDefaultRsp, uint8 seqNum )
   1708          {
   \   000000                REQUIRE ?V0
   \   000000                REQUIRE ?V1
   \   000000                REQUIRE ?V2
   \   000000                REQUIRE ?V3
   \   000000                REQUIRE ?V4
   \   000000                REQUIRE ?V5
   \   000000                REQUIRE ?V6
   \   000000                REQUIRE ?V7
   \   000000                REQUIRE ?V8
   \   000000                REQUIRE ?V9
   \   000000                REQUIRE ?V10
   \   000000                REQUIRE ?V11
   \   000000                REQUIRE ?V12
   \   000000                REQUIRE ?V13
   \   000000                REQUIRE ?V14
   \   000000                REQUIRE ?V15
   \   000000   74E8         MOV       A,#-0x18
   \   000002   12....       LCALL     ?BANKED_ENTER_XDATA
   \   000005                ; Saved register size: 24
   \   000005                ; Auto size: 2
   \   000005   74FE         MOV       A,#-0x2
   \   000007   12....       LCALL     ?ALLOC_XSTACK8
   \   00000A   85..82       MOV       DPL,?XSP + 0
   \   00000D   85..83       MOV       DPH,?XSP + 1
   \   000010   12....       LCALL     ??Subroutine275_0 & 0xFFFF
   \                     ??CrossCallReturnLabel_691:
   \   000013   89..         MOV       ?V1,R1
   \   000015   8C..         MOV       ?V12,R4
   \   000017   8D..         MOV       ?V13,R5
   1709            uint8 *buf;
   1710            uint16 dataLen = 0;
   \   000019   7E00         MOV       R6,#0x0
   \   00001B   7F00         MOV       R7,#0x0
   1711            ZStatus_t status;
   1712            uint8 i;
   1713          
   1714            // Find out the data length
   1715            for ( i = 0; i < readReportCfgRspCmd->numAttr; i++ )
   \   00001D   75..00       MOV       ?V0,#0x0
   \   000020   741A         MOV       A,#0x1a
   \   000022   12....       LCALL     ?XSTACK_DISP0_8
   \   000025   12....       LCALL     ??Subroutine255_0 & 0xFFFF
   \                     ??CrossCallReturnLabel_588:
   \   000028   8009         SJMP      ??zcl_SendReadReportCfgRspCmd_0
   1716            {
   1717              zclReportCfgRspRec_t *reportRspRec = &(readReportCfgRspCmd->attrList[i]);
   1718          
   1719              dataLen += 1 + 1 + 2 ; // Status, Direction and Atrribute ID
   1720          
   1721              if ( reportRspRec->status == ZCL_STATUS_SUCCESS )
   1722              {
   1723                if ( reportRspRec->direction == ZCL_SEND_ATTR_REPORTS )
   1724                {
   1725                  dataLen += 1 + 2 + 2; // Data Type + Min + Max Reporting Intervals
   1726          
   1727                  // Find out the size of the Reportable Change field (for Analog data types)
   1728                  if ( zclAnalogDataType( reportRspRec->dataType ) )
   1729                  {
   1730                    dataLen += zclGetDataTypeLength( reportRspRec->dataType );
   1731                  }
   1732                }
   1733                else
   1734                {
   1735                  dataLen += 2; // Timeout Period
   \                     ??zcl_SendReadReportCfgRspCmd_1:
   \   00002A   EE           MOV       A,R6
   \   00002B   2402         ADD       A,#0x2
   \                     ??zcl_SendReadReportCfgRspCmd_2:
   \   00002D   FE           MOV       R6,A
   \   00002E   E4           CLR       A
   \   00002F   3F           ADDC      A,R7
   \   000030   FF           MOV       R7,A
   1736                }
   \                     ??zcl_SendReadReportCfgRspCmd_3:
   \   000031   05..         INC       ?V0
   \                     ??zcl_SendReadReportCfgRspCmd_0:
   \   000033   12....       LCALL     ?Subroutine89 & 0xFFFF
   \                     ??CrossCallReturnLabel_687:
   \   000036   5041         JNC       ??zcl_SendReadReportCfgRspCmd_4
   \   000038   E5..         MOV       A,?V0
   \   00003A   75F00D       MOV       B,#0xd
   \   00003D   12....       LCALL     ?Subroutine152 & 0xFFFF
   \                     ??CrossCallReturnLabel_258:
   \   000040   2404         ADD       A,#0x4
   \   000042   FE           MOV       R6,A
   \   000043   E4           CLR       A
   \   000044   3F           ADDC      A,R7
   \   000045   FF           MOV       R7,A
   \   000046   E0           MOVX      A,@DPTR
   \   000047   70E8         JNZ       ??zcl_SendReadReportCfgRspCmd_3
   \   000049   A3           INC       DPTR
   \   00004A   E0           MOVX      A,@DPTR
   \   00004B   70DD         JNZ       ??zcl_SendReadReportCfgRspCmd_1
   \   00004D   EE           MOV       A,R6
   \   00004E   2405         ADD       A,#0x5
   \   000050   FE           MOV       R6,A
   \   000051   E4           CLR       A
   \   000052   3F           ADDC      A,R7
   \   000053   FF           MOV       R7,A
   \   000054   E8           MOV       A,R0
   \   000055   2404         ADD       A,#0x4
   \   000057   F5..         MOV       ?V2,A
   \   000059   E4           CLR       A
   \   00005A   39           ADDC      A,R1
   \   00005B   F5..         MOV       ?V3,A
   \   00005D                ; Setup parameters for call to function zclAnalogDataType
   \   00005D   85..82       MOV       DPL,?V2
   \   000060   F583         MOV       DPH,A
   \   000062   E0           MOVX      A,@DPTR
   \   000063   F9           MOV       R1,A
   \   000064   12....       LCALL     `??zclAnalogDataType::?relay`; Banked call to: zclAnalogDataType
   \   000067   E9           MOV       A,R1
   \   000068   60C7         JZ        ??zcl_SendReadReportCfgRspCmd_3
   \   00006A                ; Setup parameters for call to function zclGetDataTypeLength
   \   00006A   85..82       MOV       DPL,?V2
   \   00006D   85..83       MOV       DPH,?V3
   \   000070   E0           MOVX      A,@DPTR
   \   000071   F9           MOV       R1,A
   \   000072   12....       LCALL     `??zclGetDataTypeLength::?relay`; Banked call to: zclGetDataTypeLength
   \   000075   EE           MOV       A,R6
   \   000076   29           ADD       A,R1
   \   000077   80B4         SJMP      ??zcl_SendReadReportCfgRspCmd_2
   1737              }
   1738            }
   1739          
   1740            buf = zcl_mem_alloc( dataLen );
   \                     ??zcl_SendReadReportCfgRspCmd_4:
   \   000079                ; Setup parameters for call to function osal_mem_alloc
   \   000079   EE           MOV       A,R6
   \   00007A   FA           MOV       R2,A
   \   00007B   EF           MOV       A,R7
   \   00007C   FB           MOV       R3,A
   \   00007D   12....       LCALL     `??osal_mem_alloc::?relay`; Banked call to: osal_mem_alloc
   \   000080   8A..         MOV       ?V2,R2
   \   000082   8B..         MOV       ?V3,R3
   1741            if ( buf != NULL )
   \   000084   EA           MOV       A,R2
   \   000085   4B           ORL       A,R3
   \   000086   7003         JNZ       $+5
   \   000088   02....       LJMP      ??zcl_SendReadReportCfgRspCmd_5 & 0xFFFF
   1742            {
   1743              // Load the buffer - serially
   1744              uint8 *pBuf = buf;
   \   00008B   8A..         MOV       ?V6,R2
   \   00008D   8B..         MOV       ?V7,R3
   1745          
   1746              for ( i = 0; i < readReportCfgRspCmd->numAttr; i++ )
   \   00008F   75..00       MOV       ?V0,#0x0
   \   000092   801A         SJMP      ??zcl_SendReadReportCfgRspCmd_6
   1747              {
   1748                zclReportCfgRspRec_t *reportRspRec = &(readReportCfgRspCmd->attrList[i]);
   1749          
   1750                *pBuf++ = reportRspRec->status;
   1751                *pBuf++ = reportRspRec->direction;
   1752                *pBuf++ = LO_UINT16( reportRspRec->attrID );
   1753                *pBuf++ = HI_UINT16( reportRspRec->attrID );
   1754          
   1755                if ( reportRspRec->status == ZCL_STATUS_SUCCESS )
   1756                {
   1757                  if ( reportRspRec->direction == ZCL_SEND_ATTR_REPORTS )
   1758                  {
   1759                    *pBuf++ = reportRspRec->dataType;
   1760                    *pBuf++ = LO_UINT16( reportRspRec->minReportInt );
   1761                    *pBuf++ = HI_UINT16( reportRspRec->minReportInt );
   1762                    *pBuf++ = LO_UINT16( reportRspRec->maxReportInt );
   1763                    *pBuf++ = HI_UINT16( reportRspRec->maxReportInt );
   1764          
   1765                    if ( zclAnalogDataType( reportRspRec->dataType ) )
   1766                    {
   1767                      pBuf = zclSerializeData( reportRspRec->dataType,
   1768                                               reportRspRec->reportableChange, pBuf );
   1769                    }
   1770                  }
   1771                  else
   1772                  {
   1773                    *pBuf++ = LO_UINT16( reportRspRec->timeoutPeriod );
   \                     ??zcl_SendReadReportCfgRspCmd_7:
   \   000094   E5..         MOV       A,?V4
   \   000096   2409         ADD       A,#0x9
   \   000098   FA           MOV       R2,A
   \   000099   E4           CLR       A
   \   00009A   35..         ADDC      A,?V5
   \   00009C   FB           MOV       R3,A
   \   00009D   8A82         MOV       DPL,R2
   \   00009F   12....       LCALL     ?Subroutine192 & 0xFFFF
   1774                    *pBuf++ = HI_UINT16( reportRspRec->timeoutPeriod );
   1775                  }
   \                     ??CrossCallReturnLabel_378:
   \   0000A2   12....       LCALL     ?Subroutine36 & 0xFFFF
   \                     ??CrossCallReturnLabel_44:
   \   0000A5   12....       LCALL     ??Subroutine218_0 & 0xFFFF
   \                     ??CrossCallReturnLabel_384:
   \   0000A8   8C..         MOV       ?V6,R4
   \   0000AA   8D..         MOV       ?V7,R5
   \                     ??zcl_SendReadReportCfgRspCmd_8:
   \   0000AC   05..         INC       ?V0
   \                     ??zcl_SendReadReportCfgRspCmd_6:
   \   0000AE   12....       LCALL     ?Subroutine89 & 0xFFFF
   \                     ??CrossCallReturnLabel_688:
   \   0000B1   4003         JC        $+5
   \   0000B3   02....       LJMP      ??zcl_SendReadReportCfgRspCmd_9 & 0xFFFF
   \   0000B6   E5..         MOV       A,?V0
   \   0000B8   75F00D       MOV       B,#0xd
   \   0000BB   12....       LCALL     ?Subroutine197 & 0xFFFF
   \                     ??CrossCallReturnLabel_334:
   \   0000BE   12....       LCALL     ?Subroutine210 & 0xFFFF
   \                     ??CrossCallReturnLabel_350:
   \   0000C1   8582..       MOV       ?V4,DPL
   \   0000C4   8583..       MOV       ?V5,DPH
   \   0000C7   12....       LCALL     ?Subroutine131 & 0xFFFF
   \                     ??CrossCallReturnLabel_229:
   \   0000CA   85..82       MOV       DPL,?V4
   \   0000CD   85..83       MOV       DPH,?V5
   \   0000D0   A3           INC       DPTR
   \   0000D1   AA82         MOV       R2,DPL
   \   0000D3   AB83         MOV       R3,DPH
   \   0000D5   12....       LCALL     ?Subroutine132 & 0xFFFF
   \                     ??CrossCallReturnLabel_231:
   \   0000D8   F0           MOVX      @DPTR,A
   \   0000D9   E5..         MOV       A,?V4
   \   0000DB   2402         ADD       A,#0x2
   \   0000DD   F8           MOV       R0,A
   \   0000DE   E4           CLR       A
   \   0000DF   35..         ADDC      A,?V5
   \   0000E1   F9           MOV       R1,A
   \   0000E2   8882         MOV       DPL,R0
   \   0000E4   12....       LCALL     ?Subroutine192 & 0xFFFF
   \                     ??CrossCallReturnLabel_379:
   \   0000E7   12....       LCALL     ?Subroutine23 & 0xFFFF
   \                     ??CrossCallReturnLabel_18:
   \   0000EA   F0           MOVX      @DPTR,A
   \   0000EB   E5..         MOV       A,?V6
   \   0000ED   2404         ADD       A,#0x4
   \   0000EF   F5..         MOV       ?V6,A
   \   0000F1   5002         JNC       ??zcl_SendReadReportCfgRspCmd_10
   \   0000F3   05..         INC       ?V7
   \                     ??zcl_SendReadReportCfgRspCmd_10:
   \   0000F5   85..82       MOV       DPL,?V4
   \   0000F8   85..83       MOV       DPH,?V5
   \   0000FB   E0           MOVX      A,@DPTR
   \   0000FC   70AE         JNZ       ??zcl_SendReadReportCfgRspCmd_8
   \   0000FE   E5..         MOV       A,?V6
   \   000100   2402         ADD       A,#0x2
   \   000102   FC           MOV       R4,A
   \   000103   E4           CLR       A
   \   000104   35..         ADDC      A,?V7
   \   000106   FD           MOV       R5,A
   \   000107   85..82       MOV       DPL,?V6
   \   00010A   85..83       MOV       DPH,?V7
   \   00010D   A3           INC       DPTR
   \   00010E   A882         MOV       R0,DPL
   \   000110   A983         MOV       R1,DPH
   \   000112   8A82         MOV       DPL,R2
   \   000114   8B83         MOV       DPH,R3
   \   000116   E0           MOVX      A,@DPTR
   \   000117   6003         JZ        $+5
   \   000119   02....       LJMP      ??zcl_SendReadReportCfgRspCmd_7 & 0xFFFF
   \   00011C   E5..         MOV       A,?V4
   \   00011E   2404         ADD       A,#0x4
   \   000120   F5..         MOV       ?V10,A
   \   000122   E4           CLR       A
   \   000123   35..         ADDC      A,?V5
   \   000125   F5..         MOV       ?V11,A
   \   000127   85..82       MOV       DPL,?V10
   \   00012A   F583         MOV       DPH,A
   \   00012C   12....       LCALL     ?Subroutine131 & 0xFFFF
   \                     ??CrossCallReturnLabel_230:
   \   00012F   E5..         MOV       A,?V4
   \   000131   2405         ADD       A,#0x5
   \   000133   F5..         MOV       ?V14,A
   \   000135   E4           CLR       A
   \   000136   35..         ADDC      A,?V5
   \   000138   F5..         MOV       ?V15,A
   \   00013A   85..82       MOV       DPL,?V14
   \   00013D   12....       LCALL     ?Subroutine91 & 0xFFFF
   \                     ??CrossCallReturnLabel_385:
   \   000140   85..82       MOV       DPL,?V14
   \   000143   85..83       MOV       DPH,?V15
   \   000146   12....       LCALL     ?Subroutine98 & 0xFFFF
   \                     ??CrossCallReturnLabel_485:
   \   000149   F0           MOVX      @DPTR,A
   \   00014A   E5..         MOV       A,?V4
   \   00014C   2407         ADD       A,#0x7
   \   00014E   F8           MOV       R0,A
   \   00014F   E4           CLR       A
   \   000150   35..         ADDC      A,?V5
   \   000152   F9           MOV       R1,A
   \   000153   8882         MOV       DPL,R0
   \   000155   F583         MOV       DPH,A
   \   000157   12....       LCALL     ?Subroutine132 & 0xFFFF
   \                     ??CrossCallReturnLabel_232:
   \   00015A   12....       LCALL     ?Subroutine23 & 0xFFFF
   \                     ??CrossCallReturnLabel_19:
   \   00015D   A3           INC       DPTR
   \   00015E   F0           MOVX      @DPTR,A
   \   00015F   E5..         MOV       A,?V6
   \   000161   2405         ADD       A,#0x5
   \   000163   F5..         MOV       ?V6,A
   \   000165   5002         JNC       ??zcl_SendReadReportCfgRspCmd_11
   \   000167   05..         INC       ?V7
   \                     ??zcl_SendReadReportCfgRspCmd_11:
   \   000169                ; Setup parameters for call to function zclAnalogDataType
   \   000169   85..82       MOV       DPL,?V10
   \   00016C   85..83       MOV       DPH,?V11
   \   00016F   E0           MOVX      A,@DPTR
   \   000170   F9           MOV       R1,A
   \   000171   12....       LCALL     `??zclAnalogDataType::?relay`; Banked call to: zclAnalogDataType
   \   000174   E9           MOV       A,R1
   \   000175   7003         JNZ       $+5
   \   000177   02....       LJMP      ??zcl_SendReadReportCfgRspCmd_8 & 0xFFFF
   \   00017A                ; Setup parameters for call to function zclSerializeData
   \   00017A   AC..         MOV       R4,?V6
   \   00017C   AD..         MOV       R5,?V7
   \   00017E   E5..         MOV       A,?V4
   \   000180   240B         ADD       A,#0xb
   \   000182   F582         MOV       DPL,A
   \   000184   E4           CLR       A
   \   000185   35..         ADDC      A,?V5
   \   000187   F583         MOV       DPH,A
   \   000189   12....       LCALL     ??Subroutine252_0 & 0xFFFF
   1776                }
   1777              }
   \                     ??CrossCallReturnLabel_570:
   \   00018C   12....       LCALL     ?Subroutine188 & 0xFFFF
   \                     ??CrossCallReturnLabel_380:
   \   00018F   8A..         MOV       ?V6,R2
   \   000191   8B..         MOV       ?V7,R3
   \   000193   02....       LJMP      ??zcl_SendReadReportCfgRspCmd_8 & 0xFFFF
   1778          
   1779              status = zcl_SendCommand( srcEP, dstAddr, clusterID,
   1780                                        ZCL_CMD_READ_REPORT_CFG_RSP, FALSE,
   1781                                        direction, disableDefaultRsp, 0, seqNum, dataLen, buf );
   \                     ??zcl_SendReadReportCfgRspCmd_9:
   \   000196                ; Setup parameters for call to function zcl_SendCommand
   \   000196   78..         MOV       R0,#?V2
   \   000198   12....       LCALL     ?PUSH_XSTACK_I_TWO
   \   00019B   8E..         MOV       ?V4,R6
   \   00019D   8F..         MOV       ?V5,R7
   \   00019F   78..         MOV       R0,#?V4
   \   0001A1   12....       LCALL     ?PUSH_XSTACK_I_TWO
   \   0001A4   7422         MOV       A,#0x22
   \   0001A6   12....       LCALL     ?XSTACK_DISP0_8
   \   0001A9   12....       LCALL     ?Subroutine63 & 0xFFFF
   \                     ??CrossCallReturnLabel_96:
   \   0001AC   12....       LCALL     ?PUSH_XSTACK_I_ONE
   \   0001AF   E4           CLR       A
   \   0001B0   F5..         MOV       ?V4,A
   \   0001B2   F5..         MOV       ?V5,A
   \   0001B4   78..         MOV       R0,#?V4
   \   0001B6   12....       LCALL     ?PUSH_XSTACK_I_TWO
   \   0001B9   7424         MOV       A,#0x24
   \   0001BB   12....       LCALL     ?XSTACK_DISP0_8
   \   0001BE   12....       LCALL     ?Subroutine63 & 0xFFFF
   \                     ??CrossCallReturnLabel_97:
   \   0001C1   12....       LCALL     ?PUSH_XSTACK_I_ONE
   \   0001C4   7424         MOV       A,#0x24
   \   0001C6   12....       LCALL     ?XSTACK_DISP0_8
   \   0001C9   12....       LCALL     ?Subroutine63 & 0xFFFF
   \                     ??CrossCallReturnLabel_98:
   \   0001CC   12....       LCALL     ?PUSH_XSTACK_I_ONE
   \   0001CF   75..00       MOV       ?V0,#0x0
   \   0001D2   78..         MOV       R0,#?V0
   \   0001D4   12....       LCALL     ?PUSH_XSTACK_I_ONE
   \   0001D7   75..09       MOV       ?V0,#0x9
   \   0001DA   78..         MOV       R0,#?V0
   \   0001DC   12....       LCALL     ?PUSH_XSTACK_I_ONE
   \   0001DF   AC..         MOV       R4,?V12
   \   0001E1   AD..         MOV       R5,?V13
   \   0001E3   740B         MOV       A,#0xb
   \   0001E5   12....       LCALL     ?XSTACK_DISP0_8
   \   0001E8   12....       LCALL     ??Subroutine252_0 & 0xFFFF
   \                     ??CrossCallReturnLabel_571:
   \   0001EB   A9..         MOV       R1,?V1
   \   0001ED   12....       LCALL     ??Subroutine222_0 & 0xFFFF
   \                     ??CrossCallReturnLabel_405:
   \   0001F0   12....       LCALL     ?DEALLOC_XSTACK8
   \   0001F3   E9           MOV       A,R1
   \   0001F4   FE           MOV       R6,A
   1782              zcl_mem_free( buf );
   \   0001F5                ; Setup parameters for call to function osal_mem_free
   \   0001F5   AA..         MOV       R2,?V2
   \   0001F7   AB..         MOV       R3,?V3
   \   0001F9   12....       LCALL     `??osal_mem_free::?relay`; Banked call to: osal_mem_free
   \   0001FC   8002         SJMP      ??zcl_SendReadReportCfgRspCmd_12
   1783            }
   1784            else
   1785            {
   1786              status = ZMemError;
   \                     ??zcl_SendReadReportCfgRspCmd_5:
   \   0001FE   7E10         MOV       R6,#0x10
   1787            }
   1788          
   1789            return ( status );
   \                     ??zcl_SendReadReportCfgRspCmd_12:
   \   000200   EE           MOV       A,R6
   \   000201   F9           MOV       R1,A
   \   000202   7402         MOV       A,#0x2
   \   000204   02....       LJMP      ?Subroutine5 & 0xFFFF
   1790          }

   \                                 In  segment BANKED_CODE, align 1, keep-with-next
   \                     ?Subroutine192:
   \   000000   F583         MOV       DPH,A
   \   000002                REQUIRE ??Subroutine216_0
   \   000002                ; // Fall through to label ??Subroutine216_0

   \                                 In  segment BANKED_CODE, align 1, keep-with-next
   \                     ??Subroutine216_0:
   \   000000   E0           MOVX      A,@DPTR
   \   000001   85..82       MOV       DPL,?V6
   \   000004   85..83       MOV       DPH,?V7
   \   000007   22           RET

   \                                 In  segment BANKED_CODE, align 1, keep-with-next
   \                     ?Subroutine132:
   \   000000   12....       LCALL     ?Subroutine191 & 0xFFFF
   \                     ??CrossCallReturnLabel_322:
   \   000003   22           RET

   \                                 In  segment BANKED_CODE, align 1, keep-with-next
   \                     ?Subroutine191:
   \   000000   E0           MOVX      A,@DPTR
   \   000001   85..82       MOV       DPL,?V6
   \   000004   85..83       MOV       DPH,?V7
   \   000007   A3           INC       DPTR
   \   000008   22           RET

   \                                 In  segment BANKED_CODE, align 1, keep-with-next
   \                     ?Subroutine131:
   \   000000   12....       LCALL     ??Subroutine216_0 & 0xFFFF
   \                     ??CrossCallReturnLabel_377:
   \   000003   F0           MOVX      @DPTR,A
   \   000004   22           RET

   \                                 In  segment BANKED_CODE, align 1, keep-with-next
   \                     ?Subroutine91:
   \   000000   F583         MOV       DPH,A
   \   000002                REQUIRE ??Subroutine218_0
   \   000002                ; // Fall through to label ??Subroutine218_0

   \                                 In  segment BANKED_CODE, align 1, keep-with-next
   \                     ?Subroutine23:
   \   000000   A3           INC       DPTR
   \   000001   A3           INC       DPTR
   \   000002   12....       LCALL     ?Subroutine167 & 0xFFFF
   \                     ??CrossCallReturnLabel_396:
   \   000005   12....       LCALL     ?Subroutine191 & 0xFFFF
   \                     ??CrossCallReturnLabel_321:
   \   000008   A3           INC       DPTR
   \   000009   A3           INC       DPTR
   \   00000A   22           RET

   \                                 In  segment BANKED_CODE, align 1, keep-with-next
   \                     ?Subroutine167:
   \   000000   F0           MOVX      @DPTR,A
   \   000001   8882         MOV       DPL,R0
   \   000003   8983         MOV       DPH,R1
   \   000005   A3           INC       DPTR
   \   000006   22           RET

   \                                 In  segment BANKED_CODE, align 1, keep-with-next
   \                     ?Subroutine98:
   \   000000   A3           INC       DPTR
   \   000001                REQUIRE ??Subroutine238_0
   \   000001                ; // Fall through to label ??Subroutine238_0

   \                                 In  segment BANKED_CODE, align 1, keep-with-next
   \                     ??Subroutine238_0:
   \   000000   E0           MOVX      A,@DPTR
   \   000001   8C82         MOV       DPL,R4
   \   000003   8D83         MOV       DPH,R5
   \   000005   22           RET

   \                                 In  segment BANKED_CODE, align 1, keep-with-next
   \                     ?Subroutine89:
   \   000000   85..82       MOV       DPL,?V8
   \   000003   85..83       MOV       DPH,?V9
   \   000006                REQUIRE ??Subroutine273_0
   \   000006                ; // Fall through to label ??Subroutine273_0

   \                                 In  segment BANKED_CODE, align 1, keep-with-next
   \                     ??Subroutine273_0:
   \   000000   E0           MOVX      A,@DPTR
   \   000001   F8           MOV       R0,A
   \   000002   E5..         MOV       A,?V0
   \   000004   C3           CLR       C
   \   000005   98           SUBB      A,R0
   \   000006   22           RET
   1791          
   1792          /*********************************************************************
   1793           * @fn      zcl_SendReportCmd
   1794           *
   1795           * @brief   Send a Report command
   1796           *
   1797           * @param   dstAddr - destination address
   1798           * @param   clusterID - cluster ID
   1799           * @param   reportCmd - report command to be sent
   1800           * @param   direction - direction of the command
   1801           * @param   seqNum - transaction sequence number
   1802           *
   1803           * @return  ZSuccess if OK
   1804           */

   \                                 In  segment BANKED_CODE, align 1, keep-with-next
   1805          ZStatus_t zcl_SendReportCmd( uint8 srcEP, afAddrType_t *dstAddr,
   \                     zcl_SendReportCmd:
   1806                                       uint16 clusterID, zclReportCmd_t *reportCmd,
   1807                                       uint8 direction, uint8 disableDefaultRsp, uint8 seqNum )
   1808          {
   \   000000                REQUIRE ?V0
   \   000000                REQUIRE ?V1
   \   000000                REQUIRE ?V2
   \   000000                REQUIRE ?V3
   \   000000                REQUIRE ?V4
   \   000000                REQUIRE ?V5
   \   000000                REQUIRE ?V6
   \   000000                REQUIRE ?V7
   \   000000                REQUIRE ?V8
   \   000000                REQUIRE ?V9
   \   000000                REQUIRE ?V10
   \   000000                REQUIRE ?V11
   \   000000                REQUIRE ?V12
   \   000000                REQUIRE ?V13
   \   000000   74EA         MOV       A,#-0x16
   \   000002   12....       LCALL     ?BANKED_ENTER_XDATA
   \   000005                ; Saved register size: 22
   \   000005                ; Auto size: 0
   \   000005   89..         MOV       ?V3,R1
   \   000007   8A..         MOV       ?V8,R2
   \   000009   8B..         MOV       ?V9,R3
   \   00000B   8C..         MOV       ?V6,R4
   \   00000D   8D..         MOV       ?V7,R5
   1809            uint16 dataLen = 0;
   \   00000F   7E00         MOV       R6,#0x0
   \   000011   7F00         MOV       R7,#0x0
   1810            uint8 *buf;
   1811            ZStatus_t status;
   1812            uint8 i;
   1813          
   1814            // calculate the size of the command
   1815            for ( i = 0; i < reportCmd->numAttr; i++ )
   \   000013   75..00       MOV       ?V2,#0x0
   \   000016   7416         MOV       A,#0x16
   \   000018   12....       LCALL     ?XSTACK_DISP0_8
   \   00001B   12....       LCALL     ?Subroutine114 & 0xFFFF
   \                     ??CrossCallReturnLabel_190:
   \   00001E   8003         SJMP      ??CrossCallReturnLabel_67
   1816            {
   1817              zclReport_t *reportRec = &(reportCmd->attrList[i]);
   \                     ??zcl_SendReportCmd_0:
   \   000020   12....       LCALL     ?Subroutine53 & 0xFFFF
   1818          
   1819              dataLen += 2 + 1; // Attribute ID + data type
   1820          
   1821              // Attribute Data
   1822              dataLen += zclGetAttrDataLength( reportRec->dataType, reportRec->attrData );
   1823            }
   \                     ??CrossCallReturnLabel_67:
   \   000023   85..82       MOV       DPL,?V4
   \   000026   85..83       MOV       DPH,?V5
   \   000029   12....       LCALL     ??Subroutine248_0 & 0xFFFF
   \                     ??CrossCallReturnLabel_554:
   \   00002C   40F2         JC        ??zcl_SendReportCmd_0
   1824          
   1825            buf = zcl_mem_alloc( dataLen );
   \   00002E                ; Setup parameters for call to function osal_mem_alloc
   \   00002E   EE           MOV       A,R6
   \   00002F   FA           MOV       R2,A
   \   000030   EF           MOV       A,R7
   \   000031   12....       LCALL     ??Subroutine267_0 & 0xFFFF
   1826            if ( buf != NULL )
   \                     ??CrossCallReturnLabel_634:
   \   000034   607E         JZ        ??zcl_SendReportCmd_1
   1827            {
   1828              // Load the buffer - serially
   1829              uint8 *pBuf = buf;
   \   000036   A8..         MOV       R0,?V0
   \   000038   A9..         MOV       R1,?V1
   1830          
   1831              for ( i = 0; i < reportCmd->numAttr; i++ )
   \   00003A   75..00       MOV       ?V2,#0x0
   \   00003D   8003         SJMP      ??CrossCallReturnLabel_1
   1832              {
   1833                zclReport_t *reportRec = &(reportCmd->attrList[i]);
   \                     ??zcl_SendReportCmd_2:
   \   00003F   12....       LCALL     ?Subroutine14 & 0xFFFF
   1834          
   1835                *pBuf++ = LO_UINT16( reportRec->attrID );
   1836                *pBuf++ = HI_UINT16( reportRec->attrID );
   1837                *pBuf++ = reportRec->dataType;
   1838          
   1839                pBuf = zclSerializeData( reportRec->dataType, reportRec->attrData, pBuf );
   1840              }
   \                     ??CrossCallReturnLabel_1:
   \   000042   85..82       MOV       DPL,?V4
   \   000045   85..83       MOV       DPH,?V5
   \   000048   E0           MOVX      A,@DPTR
   \   000049   FA           MOV       R2,A
   \   00004A   E5..         MOV       A,?V2
   \   00004C   C3           CLR       C
   \   00004D   9A           SUBB      A,R2
   \   00004E   40EF         JC        ??zcl_SendReportCmd_2
   1841          
   1842              status = zcl_SendCommand( srcEP, dstAddr, clusterID, ZCL_CMD_REPORT, FALSE,
   1843                                        direction, disableDefaultRsp, 0, seqNum, dataLen, buf );
   \   000050                ; Setup parameters for call to function zcl_SendCommand
   \   000050   78..         MOV       R0,#?V0
   \   000052   12....       LCALL     ?PUSH_XSTACK_I_TWO
   \   000055   8E..         MOV       ?V4,R6
   \   000057   8F..         MOV       ?V5,R7
   \   000059   78..         MOV       R0,#?V4
   \   00005B   12....       LCALL     ?PUSH_XSTACK_I_TWO
   \   00005E   741E         MOV       A,#0x1e
   \   000060   12....       LCALL     ?XSTACK_DISP0_8
   \   000063   12....       LCALL     ??Subroutine225_0 & 0xFFFF
   \                     ??CrossCallReturnLabel_423:
   \   000066   12....       LCALL     ?PUSH_XSTACK_I_ONE
   \   000069   E4           CLR       A
   \   00006A   F5..         MOV       ?V4,A
   \   00006C   F5..         MOV       ?V5,A
   \   00006E   78..         MOV       R0,#?V4
   \   000070   12....       LCALL     ?PUSH_XSTACK_I_TWO
   \   000073   7420         MOV       A,#0x20
   \   000075   12....       LCALL     ?XSTACK_DISP0_8
   \   000078   12....       LCALL     ??Subroutine225_0 & 0xFFFF
   \                     ??CrossCallReturnLabel_424:
   \   00007B   12....       LCALL     ?PUSH_XSTACK_I_ONE
   \   00007E   7420         MOV       A,#0x20
   \   000080   12....       LCALL     ?XSTACK_DISP0_8
   \   000083   12....       LCALL     ??Subroutine225_0 & 0xFFFF
   \                     ??CrossCallReturnLabel_425:
   \   000086   12....       LCALL     ?PUSH_XSTACK_I_ONE
   \   000089   75..00       MOV       ?V2,#0x0
   \   00008C   78..         MOV       R0,#?V2
   \   00008E   12....       LCALL     ?PUSH_XSTACK_I_ONE
   \   000091   75..0A       MOV       ?V2,#0xa
   \   000094   78..         MOV       R0,#?V2
   \   000096   12....       LCALL     ?PUSH_XSTACK_I_ONE
   \   000099   AC..         MOV       R4,?V6
   \   00009B   AD..         MOV       R5,?V7
   \   00009D   AA..         MOV       R2,?V8
   \   00009F   AB..         MOV       R3,?V9
   \   0000A1   A9..         MOV       R1,?V3
   \   0000A3   12....       LCALL     ??Subroutine222_0 & 0xFFFF
   \                     ??CrossCallReturnLabel_406:
   \   0000A6   12....       LCALL     ?DEALLOC_XSTACK8
   \   0000A9   E9           MOV       A,R1
   \   0000AA   FE           MOV       R6,A
   1844              zcl_mem_free( buf );
   \   0000AB                ; Setup parameters for call to function osal_mem_free
   \   0000AB   AA..         MOV       R2,?V0
   \   0000AD   AB..         MOV       R3,?V1
   \   0000AF   12....       LCALL     `??osal_mem_free::?relay`; Banked call to: osal_mem_free
   \   0000B2   8002         SJMP      ??zcl_SendReportCmd_3
   1845            }
   1846            else
   1847            {
   1848              status = ZMemError;
   \                     ??zcl_SendReportCmd_1:
   \   0000B4   7E10         MOV       R6,#0x10
   1849            }
   1850          
   1851            return ( status );
   \                     ??zcl_SendReportCmd_3:
   \   0000B6   02....       LJMP      ?Subroutine12 & 0xFFFF
   1852          }
   1853          #endif
   1854          
   1855          /*********************************************************************
   1856           * @fn      zcl_SendDefaultRspCmd
   1857           *
   1858           * @brief   Send a Default Response command
   1859           *
   1860           *          Note: The manufacturer code field should be set if this
   1861           *          command is being sent in response to a manufacturer specific
   1862           *          command.
   1863           *
   1864           * @param   dstAddr - destination address
   1865           * @param   clusterID - cluster ID
   1866           * @param   defaultRspCmd - default response command to be sent
   1867           * @param   direction - direction of the command
   1868           * @param   manuCode - manufacturer code for proprietary extensions to a profile
   1869           * @param   seqNum - transaction sequence number
   1870           *
   1871           * @return  ZSuccess if OK
   1872           */

   \                                 In  segment BANKED_CODE, align 1, keep-with-next
   1873          ZStatus_t zcl_SendDefaultRspCmd( uint8 srcEP, afAddrType_t *dstAddr, uint16 clusterID,
   \                     zcl_SendDefaultRspCmd:
   1874                                           zclDefaultRspCmd_t *defaultRspCmd, uint8 direction,
   1875                                           uint8 disableDefaultRsp, uint16 manuCode, uint8 seqNum )
   1876          {
   \   000000                REQUIRE ?V0
   \   000000                REQUIRE ?V1
   \   000000   74F6         MOV       A,#-0xa
   \   000002   12....       LCALL     ?BANKED_ENTER_XDATA
   \   000005                ; Saved register size: 10
   \   000005                ; Auto size: 2
   \   000005   74FE         MOV       A,#-0x2
   \   000007   12....       LCALL     ?ALLOC_XSTACK8
   \   00000A   E9           MOV       A,R1
   \   00000B   FE           MOV       R6,A
   \   00000C   740C         MOV       A,#0xc
   \   00000E   12....       LCALL     ?XSTACK_DISP0_8
   \   000011   12....       LCALL     ?Subroutine24 & 0xFFFF
   1877            uint8 buf[2]; // Command ID and Status;
   1878          
   1879            // Load the buffer - serially
   1880            buf[0] = defaultRspCmd->commandID;
   1881            buf[1] = defaultRspCmd->statusCode;
   \                     ??CrossCallReturnLabel_391:
   \   000014   C0E0         PUSH      A
   \   000016   7401         MOV       A,#0x1
   \   000018   12....       LCALL     ?XSTACK_DISP0_8
   \   00001B   D0E0         POP       A
   \   00001D   F0           MOVX      @DPTR,A
   1882          
   1883            return ( zcl_SendCommand( srcEP, dstAddr, clusterID, ZCL_CMD_DEFAULT_RSP, FALSE,
   1884                                      direction, disableDefaultRsp, manuCode, seqNum, 2, buf ) );
   \   00001E                ; Setup parameters for call to function zcl_SendCommand
   \   00001E   A8..         MOV       R0,?XSP + 0
   \   000020   A9..         MOV       R1,?XSP + 1
   \   000022   88..         MOV       ?V0,R0
   \   000024   89..         MOV       ?V1,R1
   \   000026   78..         MOV       R0,#?V0
   \   000028   12....       LCALL     ?PUSH_XSTACK_I_TWO
   \   00002B   75..02       MOV       ?V0,#0x2
   \   00002E   75..00       MOV       ?V1,#0x0
   \   000031   78..         MOV       R0,#?V0
   \   000033   12....       LCALL     ?PUSH_XSTACK_I_TWO
   \   000036   7416         MOV       A,#0x16
   \   000038   12....       LCALL     ?XSTACK_DISP0_8
   \   00003B   12....       LCALL     ?Subroutine63 & 0xFFFF
   \                     ??CrossCallReturnLabel_99:
   \   00003E   12....       LCALL     ?PUSH_XSTACK_I_ONE
   \   000041   7415         MOV       A,#0x15
   \   000043   12....       LCALL     ?XSTACK_DISP0_8
   \   000046   12....       LCALL     ?PUSH_XSTACK8_X_TWO
   \   000049   7416         MOV       A,#0x16
   \   00004B   12....       LCALL     ?XSTACK_DISP0_8
   \   00004E   12....       LCALL     ?Subroutine63 & 0xFFFF
   \                     ??CrossCallReturnLabel_100:
   \   000051   12....       LCALL     ?PUSH_XSTACK_I_ONE
   \   000054   7416         MOV       A,#0x16
   \   000056   12....       LCALL     ?XSTACK_DISP0_8
   \   000059   12....       LCALL     ?Subroutine63 & 0xFFFF
   \                     ??CrossCallReturnLabel_101:
   \   00005C   12....       LCALL     ?PUSH_XSTACK_I_ONE
   \   00005F   75..00       MOV       ?V0,#0x0
   \   000062   78..         MOV       R0,#?V0
   \   000064   12....       LCALL     ?PUSH_XSTACK_I_ONE
   \   000067   75..0B       MOV       ?V0,#0xb
   \   00006A   78..         MOV       R0,#?V0
   \   00006C   12....       LCALL     ?PUSH_XSTACK_I_ONE
   \   00006F   EE           MOV       A,R6
   \   000070   F9           MOV       R1,A
   \   000071   12....       LCALL     ??Subroutine222_0 & 0xFFFF
   \                     ??CrossCallReturnLabel_407:
   \   000074   12....       LCALL     ?DEALLOC_XSTACK8
   \   000077   7402         MOV       A,#0x2
   \   000079   12....       LCALL     ?DEALLOC_XSTACK8
   \   00007C   02....       LJMP      ?Subroutine3 & 0xFFFF
   1885          }

   \                                 In  segment BANKED_CODE, align 1, keep-with-next
   \                     ?Subroutine24:
   \   000000   12....       LCALL     ?Subroutine183 & 0xFFFF
   \                     ??CrossCallReturnLabel_311:
   \   000003   12....       LCALL     ?Subroutine206 & 0xFFFF
   \                     ??CrossCallReturnLabel_344:
   \   000006                REQUIRE ??Subroutine220_0
   \   000006                ; // Fall through to label ??Subroutine220_0

   \                                 In  segment BANKED_CODE, align 1, keep-with-next
   \                     ??Subroutine220_0:
   \   000000   12....       LCALL     ?Subroutine167 & 0xFFFF
   \                     ??CrossCallReturnLabel_397:
   \   000003   E0           MOVX      A,@DPTR
   \   000004   22           RET
   1886          
   1887          #ifdef ZCL_DISCOVER
   1888          /*********************************************************************
   1889           * @fn      zcl_SendDiscoverCmdsCmd
   1890           *
   1891           * @brief   Send a Discover Commands command
   1892           *
   1893           * @param   dstAddr - destination address
   1894           * @param   clusterID - cluster ID
   1895           * @param   cmdType - requesting command ID
   1896           * @param   pDiscoverCmd - discover command to be sent
   1897           * @param   direction - direction of the command
   1898           * @param   seqNum - transaction sequence number
   1899           *
   1900           * @return  ZSuccess if OK
   1901           */

   \                                 In  segment BANKED_CODE, align 1, keep-with-next
   1902          ZStatus_t zcl_SendDiscoverCmdsCmd( uint8 srcEP, afAddrType_t *dstAddr, uint16 clusterID,
   \                     zcl_SendDiscoverCmdsCmd:
   1903                                            uint8 cmdType, zclDiscoverCmdsCmd_t *pDiscoverCmd,
   1904                                            uint8 direction, uint8 disableDefaultRsp, uint8 seqNum )
   1905          {
   \   000000                REQUIRE ?V0
   \   000000                REQUIRE ?V1
   \   000000                REQUIRE ?V2
   \   000000                REQUIRE ?V3
   \   000000   74F4         MOV       A,#-0xc
   \   000002   12....       LCALL     ?BANKED_ENTER_XDATA
   \   000005                ; Saved register size: 12
   \   000005                ; Auto size: 2
   \   000005   74FE         MOV       A,#-0x2
   \   000007   12....       LCALL     ?ALLOC_XSTACK8
   \   00000A   E9           MOV       A,R1
   \   00000B   FE           MOV       R6,A
   \   00000C   740F         MOV       A,#0xf
   \   00000E   12....       LCALL     ?XSTACK_DISP0_8
   \   000011   12....       LCALL     ?Subroutine24 & 0xFFFF
   1906            uint8 payload[2]; // size of startCmdID and maxCmdID
   1907            ZStatus_t status;
   1908          
   1909            payload[0] = pDiscoverCmd->startCmdID;
   1910            payload[1] = pDiscoverCmd->maxCmdID;
   \                     ??CrossCallReturnLabel_392:
   \   000014   C0E0         PUSH      A
   \   000016   7401         MOV       A,#0x1
   \   000018   12....       LCALL     ?XSTACK_DISP0_8
   \   00001B   D0E0         POP       A
   \   00001D   F0           MOVX      @DPTR,A
   \   00001E   7411         MOV       A,#0x11
   \   000020   12....       LCALL     ?XSTACK_DISP0_8
   \   000023   E0           MOVX      A,@DPTR
   \   000024   FF           MOV       R7,A
   \   000025   7412         MOV       A,#0x12
   \   000027   12....       LCALL     ?XSTACK_DISP0_8
   \   00002A   E0           MOVX      A,@DPTR
   \   00002B   F5..         MOV       ?V0,A
   \   00002D   7413         MOV       A,#0x13
   \   00002F   12....       LCALL     ?XSTACK_DISP0_8
   \   000032   E0           MOVX      A,@DPTR
   \   000033   F5..         MOV       ?V1,A
   1911          
   1912            // Send message for either commands received or generated
   1913            if ( cmdType == ZCL_CMD_DISCOVER_CMDS_RECEIVED )
   \   000035   740E         MOV       A,#0xe
   \   000037   12....       LCALL     ?XSTACK_DISP0_8
   \   00003A   E0           MOVX      A,@DPTR
   \   00003B   6411         XRL       A,#0x11
   \   00003D   A8..         MOV       R0,?XSP + 0
   \   00003F   A9..         MOV       R1,?XSP + 1
   \   000041   88..         MOV       ?V2,R0
   \   000043   89..         MOV       ?V3,R1
   \   000045   78..         MOV       R0,#?V2
   \   000047   7035         JNZ       ??zcl_SendDiscoverCmdsCmd_0
   1914            {
   1915              status = zcl_SendCommand( srcEP, dstAddr, clusterID, ZCL_CMD_DISCOVER_CMDS_RECEIVED, FALSE,
   1916                                          direction, disableDefaultRsp, 0, seqNum, sizeof(payload), payload );
   \   000049                ; Setup parameters for call to function zcl_SendCommand
   \   000049   12....       LCALL     ?PUSH_XSTACK_I_TWO
   \   00004C   75..02       MOV       ?V2,#0x2
   \   00004F   75..00       MOV       ?V3,#0x0
   \   000052   78..         MOV       R0,#?V2
   \   000054   12....       LCALL     ?PUSH_XSTACK_I_TWO
   \   000057   78..         MOV       R0,#?V1
   \   000059   12....       LCALL     ?PUSH_XSTACK_I_ONE
   \   00005C   E4           CLR       A
   \   00005D   F5..         MOV       ?V2,A
   \   00005F   78..         MOV       R0,#?V2
   \   000061   12....       LCALL     ?PUSH_XSTACK_I_TWO
   \   000064   78..         MOV       R0,#?V0
   \   000066   12....       LCALL     ?PUSH_XSTACK_I_ONE
   \   000069   EF           MOV       A,R7
   \   00006A   F5..         MOV       ?V0,A
   \   00006C   78..         MOV       R0,#?V0
   \   00006E   12....       LCALL     ?PUSH_XSTACK_I_ONE
   \   000071   75..00       MOV       ?V0,#0x0
   \   000074   78..         MOV       R0,#?V0
   \   000076   12....       LCALL     ?PUSH_XSTACK_I_ONE
   \   000079   75..11       MOV       ?V0,#0x11
   \   00007C   8033         SJMP      ??zcl_SendDiscoverCmdsCmd_1
   1917            }
   1918            else  // generated
   1919            {
   1920              status = zcl_SendCommand( srcEP, dstAddr, clusterID, ZCL_CMD_DISCOVER_CMDS_GEN, FALSE,
   1921                                          direction, disableDefaultRsp, 0, seqNum, sizeof(payload), payload );
   \                     ??zcl_SendDiscoverCmdsCmd_0:
   \   00007E                ; Setup parameters for call to function zcl_SendCommand
   \   00007E   12....       LCALL     ?PUSH_XSTACK_I_TWO
   \   000081   75..02       MOV       ?V2,#0x2
   \   000084   75..00       MOV       ?V3,#0x0
   \   000087   78..         MOV       R0,#?V2
   \   000089   12....       LCALL     ?PUSH_XSTACK_I_TWO
   \   00008C   78..         MOV       R0,#?V1
   \   00008E   12....       LCALL     ?PUSH_XSTACK_I_ONE
   \   000091   E4           CLR       A
   \   000092   F5..         MOV       ?V2,A
   \   000094   78..         MOV       R0,#?V2
   \   000096   12....       LCALL     ?PUSH_XSTACK_I_TWO
   \   000099   78..         MOV       R0,#?V0
   \   00009B   12....       LCALL     ?PUSH_XSTACK_I_ONE
   \   00009E   EF           MOV       A,R7
   \   00009F   F5..         MOV       ?V0,A
   \   0000A1   78..         MOV       R0,#?V0
   \   0000A3   12....       LCALL     ?PUSH_XSTACK_I_ONE
   \   0000A6   75..00       MOV       ?V0,#0x0
   \   0000A9   78..         MOV       R0,#?V0
   \   0000AB   12....       LCALL     ?PUSH_XSTACK_I_ONE
   \   0000AE   75..13       MOV       ?V0,#0x13
   \                     ??zcl_SendDiscoverCmdsCmd_1:
   \   0000B1   78..         MOV       R0,#?V0
   \   0000B3   12....       LCALL     ?PUSH_XSTACK_I_ONE
   \   0000B6   EE           MOV       A,R6
   \   0000B7   F9           MOV       R1,A
   1922            }
   \   0000B8   12....       LCALL     ??Subroutine222_0 & 0xFFFF
   \                     ??CrossCallReturnLabel_408:
   \   0000BB   12....       LCALL     ?DEALLOC_XSTACK8
   \   0000BE   E9           MOV       A,R1
   \   0000BF   F9           MOV       R1,A
   1923          
   1924            return ( status );
   \   0000C0   7402         MOV       A,#0x2
   \   0000C2   02....       LJMP      ?Subroutine1 & 0xFFFF
   1925          }
   1926          
   1927          /*********************************************************************
   1928           * @fn      zcl_SendDiscoverCmdsRspCmd
   1929           *
   1930           * @brief   Send a Discover Commands Response command
   1931           *
   1932           * @param   dstAddr - destination address
   1933           * @param   clusterID - cluster ID
   1934           * @param   pDiscoverRspCmd - response command to be sent
   1935           * @param   direction - direction of the command
   1936           * @param   seqNum - transaction sequence number
   1937           *
   1938           * @return  ZSuccess if OK
   1939           */

   \                                 In  segment BANKED_CODE, align 1, keep-with-next
   1940          ZStatus_t zcl_SendDiscoverCmdsRspCmd( uint8 srcEP, afAddrType_t *dstAddr,
   \                     zcl_SendDiscoverCmdsRspCmd:
   1941                                                uint16 clusterID, zclDiscoverCmdsCmdRsp_t *pDiscoverRspCmd,
   1942                                                uint8 direction, uint8 disableDefaultRsp, uint8 seqNum )
   1943          {
   \   000000                REQUIRE ?V0
   \   000000                REQUIRE ?V1
   \   000000                REQUIRE ?V2
   \   000000                REQUIRE ?V3
   \   000000                REQUIRE ?V4
   \   000000                REQUIRE ?V5
   \   000000                REQUIRE ?V6
   \   000000                REQUIRE ?V7
   \   000000                REQUIRE ?V8
   \   000000                REQUIRE ?V9
   \   000000                REQUIRE ?V10
   \   000000                REQUIRE ?V11
   \   000000                REQUIRE ?V12
   \   000000                REQUIRE ?V13
   \   000000   74EA         MOV       A,#-0x16
   \   000002   12....       LCALL     ?BANKED_ENTER_XDATA
   \   000005                ; Saved register size: 22
   \   000005                ; Auto size: 0
   \   000005   89..         MOV       ?V11,R1
   \   000007   8A..         MOV       ?V8,R2
   \   000009   8B..         MOV       ?V9,R3
   \   00000B   EC           MOV       A,R4
   \   00000C   FE           MOV       R6,A
   \   00000D   ED           MOV       A,R5
   \   00000E   FF           MOV       R7,A
   \   00000F   7416         MOV       A,#0x16
   \   000011   12....       LCALL     ?XSTACK_DISP0_8
   \   000014   12....       LCALL     ??Subroutine271_0 & 0xFFFF
   1944            uint8 payloadSize = ( 1 + pDiscoverRspCmd->numCmd );  // size of discovery complete field plus cmds
   \                     ??CrossCallReturnLabel_673:
   \   000017   E5..         MOV       A,?V2
   \   000019   2402         ADD       A,#0x2
   \   00001B   F5..         MOV       ?V4,A
   \   00001D   E4           CLR       A
   \   00001E   35..         ADDC      A,?V3
   \   000020   F5..         MOV       ?V5,A
   \   000022   85..82       MOV       DPL,?V4
   \   000025   F583         MOV       DPH,A
   \   000027   E0           MOVX      A,@DPTR
   \   000028   04           INC       A
   1945            uint8 *pCmdBuf;
   1946            uint8 i;
   1947            ZStatus_t status = ZSuccess;
   \   000029   75..00       MOV       ?V10,#0x0
   1948          
   1949            // allocate memory
   1950            pCmdBuf = zcl_mem_alloc( payloadSize );
   \   00002C   F5..         MOV       ?V6,A
   \   00002E   75..00       MOV       ?V7,#0x0
   \   000031                ; Setup parameters for call to function osal_mem_alloc
   \   000031   FA           MOV       R2,A
   \   000032   AB..         MOV       R3,?V7
   \   000034   12....       LCALL     ??Subroutine268_0 & 0xFFFF
   1951            if ( pCmdBuf != NULL )
   \                     ??CrossCallReturnLabel_639:
   \   000037   7003         JNZ       $+5
   \   000039   02....       LJMP      ??zcl_SendDiscoverCmdsRspCmd_0 & 0xFFFF
   1952            {
   1953              uint8 *pBuf = pCmdBuf;
   1954          
   1955              // Load the buffer - serially
   1956              *pBuf++ = pDiscoverRspCmd->discComplete;
   \   00003C   85..82       MOV       DPL,?V2
   \   00003F   85..83       MOV       DPH,?V3
   \   000042   12....       LCALL     ?Subroutine45 & 0xFFFF
   1957              for ( i = 0; i < pDiscoverRspCmd->numCmd; i++ )
   \                     ??CrossCallReturnLabel_57:
   \   000045   801D         SJMP      ??zcl_SendDiscoverCmdsRspCmd_1
   1958              {
   1959                *pBuf++ = pDiscoverRspCmd->pCmdID[i];
   \                     ??zcl_SendDiscoverCmdsRspCmd_2:
   \   000047   EA           MOV       A,R2
   \   000048   FC           MOV       R4,A
   \   000049   85..82       MOV       DPL,?V2
   \   00004C   85..83       MOV       DPH,?V3
   \   00004F   A3           INC       DPTR
   \   000050   A3           INC       DPTR
   \   000051   A3           INC       DPTR
   \   000052   E0           MOVX      A,@DPTR
   \   000053   2C           ADD       A,R4
   \   000054   FB           MOV       R3,A
   \   000055   A3           INC       DPTR
   \   000056   E0           MOVX      A,@DPTR
   \   000057   3400         ADDC      A,#0x0
   \   000059   8B82         MOV       DPL,R3
   \   00005B   12....       LCALL     ?Subroutine91 & 0xFFFF
   1960              }
   \                     ??CrossCallReturnLabel_386:
   \   00005E   A3           INC       DPTR
   \   00005F   A882         MOV       R0,DPL
   \   000061   A983         MOV       R1,DPH
   \   000063   0A           INC       R2
   \                     ??zcl_SendDiscoverCmdsRspCmd_1:
   \   000064   85..82       MOV       DPL,?V4
   \   000067   85..83       MOV       DPH,?V5
   \   00006A   E0           MOVX      A,@DPTR
   \   00006B   FB           MOV       R3,A
   \   00006C   EA           MOV       A,R2
   \   00006D   C3           CLR       C
   \   00006E   9B           SUBB      A,R3
   \   00006F   40D6         JC        ??zcl_SendDiscoverCmdsRspCmd_2
   1961          
   1962              // Send response message for either commands received or generated
   1963              if( pDiscoverRspCmd->cmdType == ZCL_CMD_DISCOVER_CMDS_RECEIVED )
   \   000071   85..82       MOV       DPL,?V2
   \   000074   85..83       MOV       DPH,?V3
   \   000077   A3           INC       DPTR
   \   000078   E0           MOVX      A,@DPTR
   \   000079   F8           MOV       R0,A
   \   00007A   7418         MOV       A,#0x18
   \   00007C   12....       LCALL     ?XSTACK_DISP0_8
   \   00007F   E0           MOVX      A,@DPTR
   \   000080   F9           MOV       R1,A
   \   000081   7419         MOV       A,#0x19
   \   000083   12....       LCALL     ?XSTACK_DISP0_8
   \   000086   E0           MOVX      A,@DPTR
   \   000087   FA           MOV       R2,A
   \   000088   741A         MOV       A,#0x1a
   \   00008A   12....       LCALL     ?XSTACK_DISP0_8
   \   00008D   E0           MOVX      A,@DPTR
   \   00008E   FB           MOV       R3,A
   \   00008F   7411         MOV       A,#0x11
   \   000091   68           XRL       A,R0
   \   000092   7039         JNZ       ??zcl_SendDiscoverCmdsRspCmd_3
   1964              {
   1965                status = zcl_SendCommand( srcEP, dstAddr, clusterID, ZCL_CMD_DISCOVER_CMDS_RECEIVED_RSP, FALSE,
   1966                                          direction, disableDefaultRsp, 0, seqNum, payloadSize, pCmdBuf );
   \   000094                ; Setup parameters for call to function zcl_SendCommand
   \   000094   78..         MOV       R0,#?V0
   \   000096   12....       LCALL     ?PUSH_XSTACK_I_TWO
   \   000099   78..         MOV       R0,#?V6
   \   00009B   12....       LCALL     ?PUSH_XSTACK_I_TWO
   \   00009E   EB           MOV       A,R3
   \   00009F   F5..         MOV       ?V2,A
   \   0000A1   78..         MOV       R0,#?V2
   \   0000A3   12....       LCALL     ?PUSH_XSTACK_I_ONE
   \   0000A6   E4           CLR       A
   \   0000A7   F5..         MOV       ?V2,A
   \   0000A9   F5..         MOV       ?V3,A
   \   0000AB   78..         MOV       R0,#?V2
   \   0000AD   12....       LCALL     ?PUSH_XSTACK_I_TWO
   \   0000B0   EA           MOV       A,R2
   \   0000B1   F5..         MOV       ?V2,A
   \   0000B3   78..         MOV       R0,#?V2
   \   0000B5   12....       LCALL     ?PUSH_XSTACK_I_ONE
   \   0000B8   E9           MOV       A,R1
   \   0000B9   F5..         MOV       ?V2,A
   \   0000BB   78..         MOV       R0,#?V2
   \   0000BD   12....       LCALL     ?PUSH_XSTACK_I_ONE
   \   0000C0   75..00       MOV       ?V2,#0x0
   \   0000C3   78..         MOV       R0,#?V2
   \   0000C5   12....       LCALL     ?PUSH_XSTACK_I_ONE
   \   0000C8   75..12       MOV       ?V2,#0x12
   \   0000CB   803C         SJMP      ??zcl_SendDiscoverCmdsRspCmd_4
   1967              }
   1968              else if ( pDiscoverRspCmd->cmdType == ZCL_CMD_DISCOVER_CMDS_GEN )
   \                     ??zcl_SendDiscoverCmdsRspCmd_3:
   \   0000CD   7413         MOV       A,#0x13
   \   0000CF   68           XRL       A,R0
   \   0000D0   704F         JNZ       ??zcl_SendDiscoverCmdsRspCmd_5
   1969              {
   1970                status = zcl_SendCommand( srcEP, dstAddr, clusterID, ZCL_CMD_DISCOVER_CMDS_GEN_RSP, FALSE,
   1971                                          direction, disableDefaultRsp, 0, seqNum, payloadSize, pCmdBuf );
   \   0000D2                ; Setup parameters for call to function zcl_SendCommand
   \   0000D2   78..         MOV       R0,#?V0
   \   0000D4   12....       LCALL     ?PUSH_XSTACK_I_TWO
   \   0000D7   78..         MOV       R0,#?V6
   \   0000D9   12....       LCALL     ?PUSH_XSTACK_I_TWO
   \   0000DC   EB           MOV       A,R3
   \   0000DD   F5..         MOV       ?V2,A
   \   0000DF   78..         MOV       R0,#?V2
   \   0000E1   12....       LCALL     ?PUSH_XSTACK_I_ONE
   \   0000E4   E4           CLR       A
   \   0000E5   F5..         MOV       ?V2,A
   \   0000E7   F5..         MOV       ?V3,A
   \   0000E9   78..         MOV       R0,#?V2
   \   0000EB   12....       LCALL     ?PUSH_XSTACK_I_TWO
   \   0000EE   EA           MOV       A,R2
   \   0000EF   F5..         MOV       ?V2,A
   \   0000F1   78..         MOV       R0,#?V2
   \   0000F3   12....       LCALL     ?PUSH_XSTACK_I_ONE
   \   0000F6   E9           MOV       A,R1
   \   0000F7   F5..         MOV       ?V2,A
   \   0000F9   78..         MOV       R0,#?V2
   \   0000FB   12....       LCALL     ?PUSH_XSTACK_I_ONE
   \   0000FE   75..00       MOV       ?V2,#0x0
   \   000101   78..         MOV       R0,#?V2
   \   000103   12....       LCALL     ?PUSH_XSTACK_I_ONE
   \   000106   75..14       MOV       ?V2,#0x14
   \                     ??zcl_SendDiscoverCmdsRspCmd_4:
   \   000109   78..         MOV       R0,#?V2
   \   00010B   12....       LCALL     ?PUSH_XSTACK_I_ONE
   \   00010E   EE           MOV       A,R6
   \   00010F   FC           MOV       R4,A
   \   000110   EF           MOV       A,R7
   \   000111   FD           MOV       R5,A
   \   000112   AA..         MOV       R2,?V8
   \   000114   AB..         MOV       R3,?V9
   \   000116   A9..         MOV       R1,?V11
   1972              }
   \   000118   12....       LCALL     ??Subroutine222_0 & 0xFFFF
   \                     ??CrossCallReturnLabel_409:
   \   00011B   12....       LCALL     ?DEALLOC_XSTACK8
   \   00011E   E9           MOV       A,R1
   \   00011F   F5..         MOV       ?V10,A
   1973          
   1974              zcl_mem_free( pCmdBuf );
   \                     ??zcl_SendDiscoverCmdsRspCmd_5:
   \   000121                ; Setup parameters for call to function osal_mem_free
   \   000121   AA..         MOV       R2,?V0
   \   000123   AB..         MOV       R3,?V1
   \   000125   12....       LCALL     `??osal_mem_free::?relay`; Banked call to: osal_mem_free
   \   000128   8003         SJMP      ??zcl_SendDiscoverCmdsRspCmd_6
   1975            }
   1976            else
   1977            {
   1978              status = ZMemError;
   \                     ??zcl_SendDiscoverCmdsRspCmd_0:
   \   00012A   75..10       MOV       ?V10,#0x10
   1979            }
   1980          
   1981            return ( status );
   \                     ??zcl_SendDiscoverCmdsRspCmd_6:
   \   00012D   A9..         MOV       R1,?V10
   \   00012F   02....       LJMP      ??Subroutine219_0 & 0xFFFF
   1982          }

   \                                 In  segment BANKED_CODE, align 1, keep-with-next
   \                     ?Subroutine45:
   \   000000   12....       LCALL     ??Subroutine239_0 & 0xFFFF
   \                     ??CrossCallReturnLabel_488:
   \   000003   F0           MOVX      @DPTR,A
   \   000004   A3           INC       DPTR
   \   000005   A882         MOV       R0,DPL
   \   000007   A983         MOV       R1,DPH
   \   000009   7A00         MOV       R2,#0x0
   \   00000B   22           RET

   \                                 In  segment BANKED_CODE, align 1, keep-with-next
   \                     ??Subroutine271_0:
   \   000000   E0           MOVX      A,@DPTR
   \   000001   F5..         MOV       ?V2,A
   \   000003   A3           INC       DPTR
   \   000004   E0           MOVX      A,@DPTR
   \   000005   F5..         MOV       ?V3,A
   \   000007   22           RET
   1983          
   1984          /*********************************************************************
   1985           * @fn      zcl_SendDiscoverAttrsCmd
   1986           *
   1987           * @brief   Send a Discover Attributes command
   1988           *
   1989           * @param   dstAddr - destination address
   1990           * @param   clusterID - cluster ID
   1991           * @param   pDiscoverCmd - discover command to be sent
   1992           * @param   direction - direction of the command
   1993           * @param   seqNum - transaction sequence number
   1994           *
   1995           * @return  ZSuccess if OK
   1996           */

   \                                 In  segment BANKED_CODE, align 1, keep-with-next
   1997          ZStatus_t zcl_SendDiscoverAttrsCmd( uint8 srcEP, afAddrType_t *dstAddr,
   \                     zcl_SendDiscoverAttrsCmd:
   1998                                      uint16 clusterID, zclDiscoverAttrsCmd_t *pDiscoverCmd,
   1999                                      uint8 direction, uint8 disableDefaultRsp, uint8 seqNum )
   2000          {
   \   000000                REQUIRE ?V0
   \   000000                REQUIRE ?V1
   \   000000                REQUIRE ?V2
   \   000000                REQUIRE ?V3
   \   000000                REQUIRE ?V4
   \   000000                REQUIRE ?V5
   \   000000                REQUIRE ?V6
   \   000000                REQUIRE ?V7
   \   000000   74F0         MOV       A,#-0x10
   \   000002   12....       LCALL     ?BANKED_ENTER_XDATA
   \   000005                ; Saved register size: 16
   \   000005                ; Auto size: 0
   \   000005   89..         MOV       ?V2,R1
   \   000007   EA           MOV       A,R2
   \   000008   FE           MOV       R6,A
   \   000009   EB           MOV       A,R3
   \   00000A   FF           MOV       R7,A
   \   00000B   8C..         MOV       ?V0,R4
   \   00000D   8D..         MOV       ?V1,R5
   2001            uint8 dataLen = 2 + 1; // Start Attribute ID and Max Attribute IDs
   2002            uint8 *buf;
   2003            ZStatus_t status;
   2004          
   2005            buf = zcl_mem_alloc( dataLen );
   \   00000F                ; Setup parameters for call to function osal_mem_alloc
   \   00000F   7A03         MOV       R2,#0x3
   \   000011   7B00         MOV       R3,#0x0
   \   000013   12....       LCALL     `??osal_mem_alloc::?relay`; Banked call to: osal_mem_alloc
   \   000016   8A..         MOV       ?V4,R2
   \   000018   8B..         MOV       ?V5,R3
   2006            if ( buf != NULL )
   \   00001A   EA           MOV       A,R2
   \   00001B   4B           ORL       A,R3
   \   00001C   607F         JZ        ??zcl_SendDiscoverAttrsCmd_0
   \   00001E   7410         MOV       A,#0x10
   \   000020   12....       LCALL     ?XSTACK_DISP0_8
   \   000023   12....       LCALL     ?Subroutine105 & 0xFFFF
   2007            {
   2008              // Load the buffer - serially
   2009              uint8 *pBuf = buf;
   2010              *pBuf++ = LO_UINT16(pDiscoverCmd->startAttr);
   \                     ??CrossCallReturnLabel_177:
   \   000026   12....       LCALL     ??Subroutine223_0 & 0xFFFF
   \                     ??CrossCallReturnLabel_415:
   \   000029   12....       LCALL     ??Subroutine220_0 & 0xFFFF
   2011              *pBuf++ = HI_UINT16(pDiscoverCmd->startAttr);
   \                     ??CrossCallReturnLabel_394:
   \   00002C   8A82         MOV       DPL,R2
   \   00002E   8B83         MOV       DPH,R3
   \   000030   A3           INC       DPTR
   \   000031   12....       LCALL     ?Subroutine46 & 0xFFFF
   2012              *pBuf++ = pDiscoverCmd->maxAttrIDs;
   \                     ??CrossCallReturnLabel_59:
   \   000034   8A82         MOV       DPL,R2
   \   000036   8B83         MOV       DPH,R3
   \   000038   A3           INC       DPTR
   \   000039   A3           INC       DPTR
   \   00003A   F0           MOVX      @DPTR,A
   2013          
   2014              status = zcl_SendCommand( srcEP, dstAddr, clusterID, ZCL_CMD_DISCOVER_ATTRS, FALSE,
   2015                                        direction, disableDefaultRsp, 0, seqNum, dataLen, buf );
   \   00003B                ; Setup parameters for call to function zcl_SendCommand
   \   00003B   78..         MOV       R0,#?V4
   \   00003D   12....       LCALL     ?PUSH_XSTACK_I_TWO
   \   000040   75..03       MOV       ?V6,#0x3
   \   000043   75..00       MOV       ?V7,#0x0
   \   000046   78..         MOV       R0,#?V6
   \   000048   12....       LCALL     ?PUSH_XSTACK_I_TWO
   \   00004B   7418         MOV       A,#0x18
   \   00004D   12....       LCALL     ?XSTACK_DISP0_8
   \   000050   12....       LCALL     ?Subroutine57 & 0xFFFF
   \                     ??CrossCallReturnLabel_81:
   \   000053   12....       LCALL     ?PUSH_XSTACK_I_ONE
   \   000056   E4           CLR       A
   \   000057   F5..         MOV       ?V6,A
   \   000059   78..         MOV       R0,#?V6
   \   00005B   12....       LCALL     ?PUSH_XSTACK_I_TWO
   \   00005E   741A         MOV       A,#0x1a
   \   000060   12....       LCALL     ?XSTACK_DISP0_8
   \   000063   12....       LCALL     ?Subroutine57 & 0xFFFF
   \                     ??CrossCallReturnLabel_82:
   \   000066   12....       LCALL     ?PUSH_XSTACK_I_ONE
   \   000069   741A         MOV       A,#0x1a
   \   00006B   12....       LCALL     ?XSTACK_DISP0_8
   \   00006E   12....       LCALL     ?Subroutine57 & 0xFFFF
   \                     ??CrossCallReturnLabel_83:
   \   000071   12....       LCALL     ?PUSH_XSTACK_I_ONE
   \   000074   75..00       MOV       ?V3,#0x0
   \   000077   78..         MOV       R0,#?V3
   \   000079   12....       LCALL     ?PUSH_XSTACK_I_ONE
   \   00007C   75..0C       MOV       ?V3,#0xc
   \   00007F   78..         MOV       R0,#?V3
   \   000081   12....       LCALL     ?PUSH_XSTACK_I_ONE
   \   000084   AC..         MOV       R4,?V0
   \   000086   AD..         MOV       R5,?V1
   \   000088   EE           MOV       A,R6
   \   000089   FA           MOV       R2,A
   \   00008A   EF           MOV       A,R7
   \   00008B   FB           MOV       R3,A
   \   00008C   12....       LCALL     ??Subroutine221_0 & 0xFFFF
   \                     ??CrossCallReturnLabel_402:
   \   00008F   12....       LCALL     ?DEALLOC_XSTACK8
   \   000092   E9           MOV       A,R1
   \   000093   FE           MOV       R6,A
   2016              zcl_mem_free( buf );
   \   000094                ; Setup parameters for call to function osal_mem_free
   \   000094   AA..         MOV       R2,?V4
   \   000096   AB..         MOV       R3,?V5
   \   000098   12....       LCALL     `??osal_mem_free::?relay`; Banked call to: osal_mem_free
   \   00009B   8002         SJMP      ??zcl_SendDiscoverAttrsCmd_1
   2017            }
   2018            else
   2019            {
   2020              status = ZMemError;
   \                     ??zcl_SendDiscoverAttrsCmd_0:
   \   00009D   7E10         MOV       R6,#0x10
   2021            }
   2022          
   2023            return ( status );
   \                     ??zcl_SendDiscoverAttrsCmd_1:
   \   00009F   EE           MOV       A,R6
   \   0000A0   F9           MOV       R1,A
   \   0000A1   02....       LJMP      ??Subroutine233_0 & 0xFFFF
   2024          }

   \                                 In  segment BANKED_CODE, align 1, keep-with-next
   \                     ?Subroutine46:
   \   000000   12....       LCALL     ?Subroutine167 & 0xFFFF
   \                     ??CrossCallReturnLabel_398:
   \   000003   A3           INC       DPTR
   \   000004   E0           MOVX      A,@DPTR
   \   000005   22           RET

   \                                 In  segment BANKED_CODE, align 1, keep-with-next
   \                     ??Subroutine233_0:
   \   000000   7F08         MOV       R7,#0x8
   \   000002   02....       LJMP      ?BANKED_LEAVE_XDATA
   2025          
   2026          /*********************************************************************
   2027           * @fn      zcl_SendDiscoverAttrsRspCmd
   2028           *
   2029           * @brief   Send a Discover Attributes Response command
   2030           *
   2031           * @param   dstAddr - destination address
   2032           * @param   clusterID - cluster ID
   2033           * @param   reportRspCmd - report response command to be sent
   2034           * @param   direction - direction of the command
   2035           * @param   seqNum - transaction sequence number
   2036           *
   2037           * @return  ZSuccess if OK
   2038           */

   \                                 In  segment BANKED_CODE, align 1, keep-with-next
   2039          ZStatus_t zcl_SendDiscoverAttrsRspCmd( uint8 srcEP, afAddrType_t *dstAddr,
   \                     zcl_SendDiscoverAttrsRspCmd:
   2040                                    uint16 clusterID, zclDiscoverAttrsRspCmd_t *pDiscoverRspCmd,
   2041                                    uint8 direction, uint8 disableDefaultRsp, uint8 seqNum )
   2042          {
   \   000000                REQUIRE ?V0
   \   000000                REQUIRE ?V1
   \   000000                REQUIRE ?V2
   \   000000                REQUIRE ?V3
   \   000000                REQUIRE ?V4
   \   000000                REQUIRE ?V5
   \   000000                REQUIRE ?V6
   \   000000                REQUIRE ?V7
   \   000000                REQUIRE ?V8
   \   000000                REQUIRE ?V10
   \   000000                REQUIRE ?V11
   \   000000                REQUIRE ?V12
   \   000000                REQUIRE ?V13
   \   000000                REQUIRE ?V14
   \   000000                REQUIRE ?V15
   \   000000   74E8         MOV       A,#-0x18
   \   000002   12....       LCALL     ?BANKED_ENTER_XDATA
   \   000005                ; Saved register size: 24
   \   000005                ; Auto size: 0
   \   000005   89..         MOV       ?V8,R1
   \   000007   8A..         MOV       ?V10,R2
   \   000009   8B..         MOV       ?V11,R3
   \   00000B   EC           MOV       A,R4
   \   00000C   FE           MOV       R6,A
   \   00000D   ED           MOV       A,R5
   \   00000E   FF           MOV       R7,A
   \   00000F   7418         MOV       A,#0x18
   \   000011   12....       LCALL     ?XSTACK_DISP0_8
   \   000014   12....       LCALL     ?Subroutine67 & 0xFFFF
   2043            uint16 dataLen = 1; // Discovery complete
   2044            uint8 *buf;
   2045            ZStatus_t status;
   2046          
   2047            // calculate the size of the command
   2048            dataLen += pDiscoverRspCmd->numAttr * (2 + 1); // Attribute ID and Data Type
   \                     ??CrossCallReturnLabel_110:
   \   000017   75F003       MOV       B,#0x3
   \   00001A   A4           MUL       AB
   \   00001B   A9F0         MOV       R1,B
   \   00001D   2401         ADD       A,#0x1
   \   00001F   F5..         MOV       ?V6,A
   \   000021   E4           CLR       A
   \   000022   39           ADDC      A,R1
   \   000023   12....       LCALL     ?Subroutine133 & 0xFFFF
   2049          
   2050            buf = zcl_mem_alloc( dataLen );
   2051            if ( buf != NULL )
   \                     ??CrossCallReturnLabel_631:
   \   000026   7003         JNZ       $+5
   \   000028   02....       LJMP      ??zcl_SendDiscoverAttrsRspCmd_0 & 0xFFFF
   2052            {
   2053              // Load the buffer - serially
   2054              uint8 i;
   2055              uint8 *pBuf = buf;
   2056          
   2057              *pBuf++ = pDiscoverRspCmd->discComplete;
   \   00002B   85..82       MOV       DPL,?V4
   \   00002E   85..83       MOV       DPH,?V5
   \   000031   12....       LCALL     ?Subroutine45 & 0xFFFF
   2058          
   2059              for ( i = 0; i < pDiscoverRspCmd->numAttr; i++ )
   \                     ??CrossCallReturnLabel_58:
   \   000034   802E         SJMP      ??zcl_SendDiscoverAttrsRspCmd_1
   2060              {
   2061                *pBuf++ = LO_UINT16(pDiscoverRspCmd->attrList[i].attrID);
   \                     ??zcl_SendDiscoverAttrsRspCmd_2:
   \   000036   EA           MOV       A,R2
   \   000037   75F003       MOV       B,#0x3
   \   00003A   A4           MUL       AB
   \   00003B   FC           MOV       R4,A
   \   00003C   ADF0         MOV       R5,B
   \   00003E   E5..         MOV       A,?V4
   \   000040   2C           ADD       A,R4
   \   000041   FC           MOV       R4,A
   \   000042   E5..         MOV       A,?V5
   \   000044   3D           ADDC      A,R5
   \   000045   12....       LCALL     ?Subroutine143 & 0xFFFF
   2062                *pBuf++ = HI_UINT16(pDiscoverRspCmd->attrList[i].attrID);
   2063                *pBuf++ = pDiscoverRspCmd->attrList[i].dataType;
   2064              }
   \                     ??CrossCallReturnLabel_243:
   \   000048   12....       LCALL     ?Subroutine116 & 0xFFFF
   \                     ??CrossCallReturnLabel_197:
   \   00004B   12....       LCALL     ?Subroutine40 & 0xFFFF
   \                     ??CrossCallReturnLabel_50:
   \   00004E   8882         MOV       DPL,R0
   \   000050   8983         MOV       DPH,R1
   \   000052   12....       LCALL     ?Subroutine35 & 0xFFFF
   \                     ??CrossCallReturnLabel_40:
   \   000055   8882         MOV       DPL,R0
   \   000057   8983         MOV       DPH,R1
   \   000059   A3           INC       DPTR
   \   00005A   A3           INC       DPTR
   \   00005B   F0           MOVX      @DPTR,A
   \   00005C   E8           MOV       A,R0
   \   00005D   2403         ADD       A,#0x3
   \   00005F   F8           MOV       R0,A
   \   000060   5001         JNC       ??zcl_SendDiscoverAttrsRspCmd_3
   \   000062   09           INC       R1
   \                     ??zcl_SendDiscoverAttrsRspCmd_3:
   \   000063   0A           INC       R2
   \                     ??zcl_SendDiscoverAttrsRspCmd_1:
   \   000064   85..82       MOV       DPL,?V2
   \   000067   85..83       MOV       DPH,?V3
   \   00006A   E0           MOVX      A,@DPTR
   \   00006B   FB           MOV       R3,A
   \   00006C   EA           MOV       A,R2
   \   00006D   C3           CLR       C
   \   00006E   9B           SUBB      A,R3
   \   00006F   40C5         JC        ??zcl_SendDiscoverAttrsRspCmd_2
   2065          
   2066              status = zcl_SendCommand( srcEP, dstAddr, clusterID, ZCL_CMD_DISCOVER_ATTRS_RSP, FALSE,
   2067                                        direction, disableDefaultRsp, 0, seqNum, dataLen, buf );
   \   000071                ; Setup parameters for call to function zcl_SendCommand
   \   000071   78..         MOV       R0,#?V0
   \   000073   12....       LCALL     ?PUSH_XSTACK_I_TWO
   \   000076   78..         MOV       R0,#?V6
   \   000078   12....       LCALL     ?PUSH_XSTACK_I_TWO
   \   00007B   7420         MOV       A,#0x20
   \   00007D   12....       LCALL     ?XSTACK_DISP0_8
   \   000080   12....       LCALL     ??Subroutine225_0 & 0xFFFF
   \                     ??CrossCallReturnLabel_426:
   \   000083   12....       LCALL     ?PUSH_XSTACK_I_ONE
   \   000086   E4           CLR       A
   \   000087   F5..         MOV       ?V2,A
   \   000089   F5..         MOV       ?V3,A
   \   00008B   78..         MOV       R0,#?V2
   \   00008D   12....       LCALL     ?PUSH_XSTACK_I_TWO
   \   000090   7422         MOV       A,#0x22
   \   000092   12....       LCALL     ?XSTACK_DISP0_8
   \   000095   12....       LCALL     ??Subroutine225_0 & 0xFFFF
   \                     ??CrossCallReturnLabel_427:
   \   000098   12....       LCALL     ?PUSH_XSTACK_I_ONE
   \   00009B   7422         MOV       A,#0x22
   \   00009D   12....       LCALL     ?XSTACK_DISP0_8
   \   0000A0   12....       LCALL     ??Subroutine225_0 & 0xFFFF
   \                     ??CrossCallReturnLabel_428:
   \   0000A3   12....       LCALL     ?PUSH_XSTACK_I_ONE
   \   0000A6   75..00       MOV       ?V2,#0x0
   \   0000A9   78..         MOV       R0,#?V2
   \   0000AB   12....       LCALL     ?PUSH_XSTACK_I_ONE
   \   0000AE   75..0D       MOV       ?V2,#0xd
   \   0000B1   78..         MOV       R0,#?V2
   \   0000B3   12....       LCALL     ?PUSH_XSTACK_I_ONE
   \   0000B6   EE           MOV       A,R6
   \   0000B7   FC           MOV       R4,A
   \   0000B8   EF           MOV       A,R7
   \   0000B9   FD           MOV       R5,A
   \   0000BA   AA..         MOV       R2,?V10
   \   0000BC   AB..         MOV       R3,?V11
   \   0000BE   A9..         MOV       R1,?V8
   \   0000C0   12....       LCALL     ??Subroutine222_0 & 0xFFFF
   \                     ??CrossCallReturnLabel_410:
   \   0000C3   12....       LCALL     ?DEALLOC_XSTACK8
   \   0000C6   E9           MOV       A,R1
   \   0000C7   FE           MOV       R6,A
   2068              zcl_mem_free( buf );
   \   0000C8                ; Setup parameters for call to function osal_mem_free
   \   0000C8   AA..         MOV       R2,?V0
   \   0000CA   AB..         MOV       R3,?V1
   \   0000CC   12....       LCALL     `??osal_mem_free::?relay`; Banked call to: osal_mem_free
   \   0000CF   8002         SJMP      ??zcl_SendDiscoverAttrsRspCmd_4
   2069            }
   2070            else
   2071            {
   2072              status = ZMemError;
   \                     ??zcl_SendDiscoverAttrsRspCmd_0:
   \   0000D1   7E10         MOV       R6,#0x10
   2073            }
   2074          
   2075            return ( status );
   \                     ??zcl_SendDiscoverAttrsRspCmd_4:
   \   0000D3                REQUIRE ?Subroutine13
   \   0000D3                ; // Fall through to label ?Subroutine13
   2076          }

   \                                 In  segment BANKED_CODE, align 1, keep-with-next
   \                     ?Subroutine13:
   \   000000   EE           MOV       A,R6
   \   000001   F9           MOV       R1,A
   \   000002   02....       LJMP      ??Subroutine259_0 & 0xFFFF

   \                                 In  segment BANKED_CODE, align 1, keep-with-next
   \                     ?Subroutine143:
   \   000000   FD           MOV       R5,A
   \   000001   EC           MOV       A,R4
   \   000002   2402         ADD       A,#0x2
   \   000004   F5..         MOV       ?V12,A
   \   000006   E4           CLR       A
   \   000007   3D           ADDC      A,R5
   \   000008   F5..         MOV       ?V13,A
   \   00000A   85..82       MOV       DPL,?V12
   \   00000D   F583         MOV       DPH,A
   \   00000F   22           RET

   \                                 In  segment BANKED_CODE, align 1, keep-with-next
   \                     ?Subroutine67:
   \   000000   12....       LCALL     ?Subroutine177 & 0xFFFF
   \                     ??CrossCallReturnLabel_299:
   \   000003   A3           INC       DPTR
   \   000004   8582..       MOV       ?V2,DPL
   \   000007   8583..       MOV       ?V3,DPH
   \   00000A   E0           MOVX      A,@DPTR
   \   00000B   22           RET

   \                                 In  segment BANKED_CODE, align 1, keep-with-next
   \                     ?Subroutine40:
   \   000000   12....       LCALL     ?Subroutine166 & 0xFFFF
   \                     ??CrossCallReturnLabel_284:
   \   000003   22           RET

   \                                 In  segment BANKED_CODE, align 1, keep-with-next
   \                     ?Subroutine35:
   \   000000   A3           INC       DPTR
   \   000001   F0           MOVX      @DPTR,A
   \   000002   8C82         MOV       DPL,R4
   \   000004   8D83         MOV       DPH,R5
   \   000006   A3           INC       DPTR
   \   000007   A3           INC       DPTR
   \   000008   A3           INC       DPTR
   \   000009   A3           INC       DPTR
   \   00000A   E0           MOVX      A,@DPTR
   \   00000B   22           RET
   2077          
   2078          /*********************************************************************
   2079           * @fn      zcl_SendDiscoverAttrsExt
   2080           *
   2081           * @brief   Send a Discover Attributes Extended command
   2082           *
   2083           * @param   dstAddr - destination address
   2084           * @param   clusterID - cluster ID
   2085           * @param   pDiscoverAttrsExt:
   2086           *            - startAttrID: the first attribute to be selected
   2087           *            - maxAttrIDs: maximum number of returned attributes
   2088           * @param   direction - direction of the command
   2089           * @param   seqNum - transaction sequence number
   2090           *
   2091           * @return  ZSuccess if OK
   2092           */

   \                                 In  segment BANKED_CODE, align 1, keep-with-next
   2093          ZStatus_t zcl_SendDiscoverAttrsExt( uint8 srcEP, afAddrType_t *dstAddr,
   \                     zcl_SendDiscoverAttrsExt:
   2094                                      uint16 clusterID, zclDiscoverAttrsCmd_t *pDiscoverAttrsExt,
   2095                                      uint8 direction, uint8 disableDefaultRsp, uint8 seqNum )
   2096          {
   \   000000                REQUIRE ?V0
   \   000000                REQUIRE ?V1
   \   000000                REQUIRE ?V2
   \   000000                REQUIRE ?V3
   \   000000   74F4         MOV       A,#-0xc
   \   000002   12....       LCALL     ?BANKED_ENTER_XDATA
   \   000005                ; Saved register size: 12
   \   000005                ; Auto size: 3
   \   000005   74FD         MOV       A,#-0x3
   \   000007   12....       LCALL     ?ALLOC_XSTACK8
   \   00000A   89..         MOV       ?V0,R1
   \   00000C   740F         MOV       A,#0xf
   \   00000E   12....       LCALL     ?XSTACK_DISP0_8
   \   000011   12....       LCALL     ?Subroutine24 & 0xFFFF
   2097            uint8 buf[3];  // Buffer size equal to Start Attribute ID and Max Attribute IDs
   2098            ZStatus_t status;
   2099          
   2100            // Load the buffer - serially
   2101            buf[0] = LO_UINT16(pDiscoverAttrsExt->startAttr);
   2102            buf[1] = HI_UINT16(pDiscoverAttrsExt->startAttr);
   \                     ??CrossCallReturnLabel_393:
   \   000014   C0E0         PUSH      A
   \   000016   7401         MOV       A,#0x1
   \   000018   12....       LCALL     ?XSTACK_DISP0_8
   \   00001B   D0E0         POP       A
   \   00001D   12....       LCALL     ?Subroutine46 & 0xFFFF
   2103            buf[2] = pDiscoverAttrsExt->maxAttrIDs;
   \                     ??CrossCallReturnLabel_60:
   \   000020   C0E0         PUSH      A
   \   000022   7402         MOV       A,#0x2
   \   000024   12....       LCALL     ?XSTACK_DISP0_8
   \   000027   D0E0         POP       A
   \   000029   F0           MOVX      @DPTR,A
   2104          
   2105            status = zcl_SendCommand( srcEP, dstAddr, clusterID, ZCL_CMD_DISCOVER_ATTRS_EXT, FALSE,
   2106                                      direction, disableDefaultRsp, 0, seqNum, sizeof( buf ), buf );
   2107          
   2108            return ( status );
   \   00002A                ; Setup parameters for call to function zcl_SendCommand
   \   00002A   A8..         MOV       R0,?XSP + 0
   \   00002C   A9..         MOV       R1,?XSP + 1
   \   00002E   88..         MOV       ?V2,R0
   \   000030   89..         MOV       ?V3,R1
   \   000032   78..         MOV       R0,#?V2
   \   000034   12....       LCALL     ?PUSH_XSTACK_I_TWO
   \   000037   75..03       MOV       ?V2,#0x3
   \   00003A   75..00       MOV       ?V3,#0x0
   \   00003D   78..         MOV       R0,#?V2
   \   00003F   12....       LCALL     ?PUSH_XSTACK_I_TWO
   \   000042   7417         MOV       A,#0x17
   \   000044   12....       LCALL     ?XSTACK_DISP0_8
   \   000047   E0           MOVX      A,@DPTR
   \   000048   F5..         MOV       ?V1,A
   \   00004A   78..         MOV       R0,#?V1
   \   00004C   12....       LCALL     ?PUSH_XSTACK_I_ONE
   \   00004F   E4           CLR       A
   \   000050   F5..         MOV       ?V2,A
   \   000052   78..         MOV       R0,#?V2
   \   000054   12....       LCALL     ?PUSH_XSTACK_I_TWO
   \   000057   7419         MOV       A,#0x19
   \   000059   12....       LCALL     ?XSTACK_DISP0_8
   \   00005C   E0           MOVX      A,@DPTR
   \   00005D   F5..         MOV       ?V1,A
   \   00005F   78..         MOV       R0,#?V1
   \   000061   12....       LCALL     ?PUSH_XSTACK_I_ONE
   \   000064   7419         MOV       A,#0x19
   \   000066   12....       LCALL     ?XSTACK_DISP0_8
   \   000069   E0           MOVX      A,@DPTR
   \   00006A   F5..         MOV       ?V1,A
   \   00006C   78..         MOV       R0,#?V1
   \   00006E   12....       LCALL     ?PUSH_XSTACK_I_ONE
   \   000071   75..00       MOV       ?V1,#0x0
   \   000074   78..         MOV       R0,#?V1
   \   000076   12....       LCALL     ?PUSH_XSTACK_I_ONE
   \   000079   75..15       MOV       ?V1,#0x15
   \   00007C   78..         MOV       R0,#?V1
   \   00007E   12....       LCALL     ?PUSH_XSTACK_I_ONE
   \   000081   A9..         MOV       R1,?V0
   \   000083   12....       LCALL     ??Subroutine222_0 & 0xFFFF
   \                     ??CrossCallReturnLabel_411:
   \   000086   12....       LCALL     ?DEALLOC_XSTACK8
   \   000089   7403         MOV       A,#0x3
   \   00008B   02....       LJMP      ?Subroutine1 & 0xFFFF
   2109          }
   2110          
   2111          /*********************************************************************
   2112           * @fn      zcl_SendDiscoverAttrsExtRsp
   2113           *
   2114           * @brief   Send a Discover Attributes Extended Response command
   2115           *
   2116           * @param   dstAddr - destination address
   2117           * @param   clusterID - cluster ID
   2118           * @param   pDiscoverRspCmd:
   2119           *            - discComplete: indicates whether all requested attributes returned
   2120           *            - attrID: attribute ID
   2121           *            - attrDataType: data type of the given attribute
   2122           *            - attrAccessControl: access control of the given attribute
   2123           * @param   direction - direction of the command
   2124           * @param   seqNum - transaction sequence number
   2125           *
   2126           * @return  ZSuccess if OK
   2127           */

   \                                 In  segment BANKED_CODE, align 1, keep-with-next
   2128          ZStatus_t zcl_SendDiscoverAttrsExtRsp( uint8 srcEP, afAddrType_t *dstAddr,
   \                     zcl_SendDiscoverAttrsExtRsp:
   2129                                                uint16 clusterID, zclDiscoverAttrsExtRsp_t *pDiscoverRspCmd,
   2130                                                uint8 direction, uint8 disableDefaultRsp, uint8 seqNum )
   2131          {
   \   000000                REQUIRE ?V0
   \   000000                REQUIRE ?V1
   \   000000                REQUIRE ?V2
   \   000000                REQUIRE ?V3
   \   000000                REQUIRE ?V4
   \   000000                REQUIRE ?V5
   \   000000                REQUIRE ?V6
   \   000000                REQUIRE ?V7
   \   000000                REQUIRE ?V8
   \   000000                REQUIRE ?V9
   \   000000                REQUIRE ?V10
   \   000000                REQUIRE ?V12
   \   000000                REQUIRE ?V13
   \   000000                REQUIRE ?V14
   \   000000                REQUIRE ?V15
   \   000000   74E8         MOV       A,#-0x18
   \   000002   12....       LCALL     ?BANKED_ENTER_XDATA
   \   000005                ; Saved register size: 24
   \   000005                ; Auto size: 0
   \   000005   89..         MOV       ?V10,R1
   \   000007   8A..         MOV       ?V8,R2
   \   000009   8B..         MOV       ?V9,R3
   \   00000B   EC           MOV       A,R4
   \   00000C   FE           MOV       R6,A
   \   00000D   ED           MOV       A,R5
   \   00000E   FF           MOV       R7,A
   \   00000F   7418         MOV       A,#0x18
   \   000011   12....       LCALL     ?XSTACK_DISP0_8
   \   000014   12....       LCALL     ?Subroutine67 & 0xFFFF
   2132            uint8 *buf;
   2133            uint8 i;
   2134            uint16 dataLen = 1; // Discovery complete
   2135            ZStatus_t status;
   2136          
   2137            // calculate the size of the command
   2138            dataLen += pDiscoverRspCmd->numAttr * (2 + 1 + 1); // Attribute ID, Data Type, and Access Control
   \                     ??CrossCallReturnLabel_111:
   \   000017   F5..         MOV       ?V0,A
   \   000019   75..00       MOV       ?V1,#0x0
   \   00001C   7402         MOV       A,#0x2
   \   00001E   78..         MOV       R0,#?V0
   \   000020   12....       LCALL     ?S_SHL
   \   000023   E5..         MOV       A,?V0
   \   000025   2401         ADD       A,#0x1
   \   000027   F5..         MOV       ?V6,A
   \   000029   E4           CLR       A
   \   00002A   35..         ADDC      A,?V1
   \   00002C   12....       LCALL     ?Subroutine133 & 0xFFFF
   2139          
   2140            buf = zcl_mem_alloc( dataLen );
   2141            if ( buf != NULL )
   \                     ??CrossCallReturnLabel_632:
   \   00002F   7003         JNZ       $+5
   \   000031   02....       LJMP      ??zcl_SendDiscoverAttrsExtRsp_0 & 0xFFFF
   2142            {
   2143              // Load the buffer - serially
   2144              uint8 *pBuf = buf;
   2145              *pBuf++ = pDiscoverRspCmd->discComplete;
   \   000034   85..82       MOV       DPL,?V4
   \   000037   85..83       MOV       DPH,?V5
   \   00003A   12....       LCALL     ?Subroutine92 & 0xFFFF
   \                     ??CrossCallReturnLabel_153:
   \   00003D   A3           INC       DPTR
   \   00003E   AA82         MOV       R2,DPL
   \   000040   AB83         MOV       R3,DPH
   2146              for ( i = 0; i < pDiscoverRspCmd->numAttr; i++ )
   \   000042   7900         MOV       R1,#0x0
   \   000044   8034         SJMP      ??zcl_SendDiscoverAttrsExtRsp_1
   2147              {
   2148                *pBuf++ = LO_UINT16(pDiscoverRspCmd->aExtAttrInfo[i].attrID);
   \                     ??zcl_SendDiscoverAttrsExtRsp_2:
   \   000046   E9           MOV       A,R1
   \   000047   F5..         MOV       ?V12,A
   \   000049   75..00       MOV       ?V13,#0x0
   \   00004C   7402         MOV       A,#0x2
   \   00004E   78..         MOV       R0,#?V12
   \   000050   12....       LCALL     ?S_SHL
   \   000053   E5..         MOV       A,?V4
   \   000055   25..         ADD       A,?V12
   \   000057   FC           MOV       R4,A
   \   000058   E5..         MOV       A,?V5
   \   00005A   35..         ADDC      A,?V13
   \   00005C   12....       LCALL     ?Subroutine143 & 0xFFFF
   2149                *pBuf++ = HI_UINT16(pDiscoverRspCmd->aExtAttrInfo[i].attrID);
   2150                *pBuf++ = pDiscoverRspCmd->aExtAttrInfo[i].attrDataType;
   2151                *pBuf++ = pDiscoverRspCmd->aExtAttrInfo[i].attrAccessControl;
   2152              }
   \                     ??CrossCallReturnLabel_244:
   \   00005F   12....       LCALL     ??Subroutine223_0 & 0xFFFF
   \                     ??CrossCallReturnLabel_416:
   \   000062   12....       LCALL     ?Subroutine40 & 0xFFFF
   \                     ??CrossCallReturnLabel_51:
   \   000065   8A82         MOV       DPL,R2
   \   000067   8B83         MOV       DPH,R3
   \   000069   12....       LCALL     ?Subroutine35 & 0xFFFF
   \                     ??CrossCallReturnLabel_41:
   \   00006C   12....       LCALL     ?Subroutine41 & 0xFFFF
   \                     ??CrossCallReturnLabel_436:
   \   00006F   A3           INC       DPTR
   \   000070   A3           INC       DPTR
   \   000071   A3           INC       DPTR
   \   000072   A3           INC       DPTR
   \   000073   12....       LCALL     ?Subroutine85 & 0xFFFF
   \                     ??CrossCallReturnLabel_145:
   \   000076   5001         JNC       ??zcl_SendDiscoverAttrsExtRsp_3
   \   000078   0B           INC       R3
   \                     ??zcl_SendDiscoverAttrsExtRsp_3:
   \   000079   09           INC       R1
   \                     ??zcl_SendDiscoverAttrsExtRsp_1:
   \   00007A   85..82       MOV       DPL,?V2
   \   00007D   85..83       MOV       DPH,?V3
   \   000080   E0           MOVX      A,@DPTR
   \   000081   F8           MOV       R0,A
   \   000082   E9           MOV       A,R1
   \   000083   C3           CLR       C
   \   000084   98           SUBB      A,R0
   \   000085   40BF         JC        ??zcl_SendDiscoverAttrsExtRsp_2
   2153          
   2154              status = zcl_SendCommand( srcEP, dstAddr, clusterID, ZCL_CMD_DISCOVER_ATTRS_EXT_RSP, FALSE,
   2155                                        direction, disableDefaultRsp, 0, seqNum, dataLen, buf );
   \   000087                ; Setup parameters for call to function zcl_SendCommand
   \   000087   78..         MOV       R0,#?V0
   \   000089   12....       LCALL     ?PUSH_XSTACK_I_TWO
   \   00008C   78..         MOV       R0,#?V6
   \   00008E   12....       LCALL     ?PUSH_XSTACK_I_TWO
   \   000091   7420         MOV       A,#0x20
   \   000093   12....       LCALL     ?XSTACK_DISP0_8
   \   000096   12....       LCALL     ??Subroutine225_0 & 0xFFFF
   \                     ??CrossCallReturnLabel_429:
   \   000099   12....       LCALL     ?PUSH_XSTACK_I_ONE
   \   00009C   E4           CLR       A
   \   00009D   F5..         MOV       ?V2,A
   \   00009F   F5..         MOV       ?V3,A
   \   0000A1   78..         MOV       R0,#?V2
   \   0000A3   12....       LCALL     ?PUSH_XSTACK_I_TWO
   \   0000A6   7422         MOV       A,#0x22
   \   0000A8   12....       LCALL     ?XSTACK_DISP0_8
   \   0000AB   12....       LCALL     ??Subroutine225_0 & 0xFFFF
   \                     ??CrossCallReturnLabel_430:
   \   0000AE   12....       LCALL     ?PUSH_XSTACK_I_ONE
   \   0000B1   7422         MOV       A,#0x22
   \   0000B3   12....       LCALL     ?XSTACK_DISP0_8
   \   0000B6   12....       LCALL     ??Subroutine225_0 & 0xFFFF
   \                     ??CrossCallReturnLabel_431:
   \   0000B9   12....       LCALL     ?PUSH_XSTACK_I_ONE
   \   0000BC   75..00       MOV       ?V2,#0x0
   \   0000BF   78..         MOV       R0,#?V2
   \   0000C1   12....       LCALL     ?PUSH_XSTACK_I_ONE
   \   0000C4   75..16       MOV       ?V2,#0x16
   \   0000C7   78..         MOV       R0,#?V2
   \   0000C9   12....       LCALL     ?PUSH_XSTACK_I_ONE
   \   0000CC   EE           MOV       A,R6
   \   0000CD   FC           MOV       R4,A
   \   0000CE   EF           MOV       A,R7
   \   0000CF   FD           MOV       R5,A
   \   0000D0   AA..         MOV       R2,?V8
   \   0000D2   AB..         MOV       R3,?V9
   \   0000D4   A9..         MOV       R1,?V10
   \   0000D6   12....       LCALL     ??Subroutine222_0 & 0xFFFF
   \                     ??CrossCallReturnLabel_412:
   \   0000D9   12....       LCALL     ?DEALLOC_XSTACK8
   \   0000DC   E9           MOV       A,R1
   \   0000DD   FE           MOV       R6,A
   2156              zcl_mem_free( buf );
   \   0000DE                ; Setup parameters for call to function osal_mem_free
   \   0000DE   AA..         MOV       R2,?V0
   \   0000E0   AB..         MOV       R3,?V1
   \   0000E2   12....       LCALL     `??osal_mem_free::?relay`; Banked call to: osal_mem_free
   \   0000E5   8002         SJMP      ??zcl_SendDiscoverAttrsExtRsp_4
   2157            }
   2158            else
   2159            {
   2160              status = ZMemError;
   \                     ??zcl_SendDiscoverAttrsExtRsp_0:
   \   0000E7   7E10         MOV       R6,#0x10
   2161            }
   2162          
   2163            return ( status );
   \                     ??zcl_SendDiscoverAttrsExtRsp_4:
   \   0000E9   02....       LJMP      ?Subroutine13 & 0xFFFF
   2164          }

   \                                 In  segment BANKED_CODE, align 1, keep-with-next
   \                     ?Subroutine92:
   \   000000   12....       LCALL     ??Subroutine239_0 & 0xFFFF
   \                     ??CrossCallReturnLabel_490:
   \   000003   F0           MOVX      @DPTR,A
   \   000004   22           RET
   2165          #endif // ZCL_DISCOVER
   2166          
   2167          /*********************************************************************
   2168           * @fn      zcl_ProcessMessageMSG
   2169           *
   2170           * @brief   Data message processor callback.  This function processes
   2171           *          any incoming data - probably from other devices.  So, based
   2172           *          on cluster ID, perform the intended action.
   2173           *
   2174           * @param   pkt - incoming message
   2175           *
   2176           * @return  zclProcMsgStatus_t
   2177           */

   \                                 In  segment BANKED_CODE, align 1, keep-with-next
   2178          zclProcMsgStatus_t zcl_ProcessMessageMSG( afIncomingMSGPacket_t *pkt )
   \                     zcl_ProcessMessageMSG:
   2179          {
   \   000000                REQUIRE ?V0
   \   000000                REQUIRE ?V1
   \   000000                REQUIRE ?V2
   \   000000                REQUIRE ?V3
   \   000000                REQUIRE ?V4
   \   000000                REQUIRE ?V5
   \   000000                REQUIRE ?V6
   \   000000                REQUIRE ?V7
   \   000000   74F0         MOV       A,#-0x10
   \   000002   12....       LCALL     ?BANKED_ENTER_XDATA
   \   000005                ; Saved register size: 16
   \   000005                ; Auto size: 21
   \   000005   74EB         MOV       A,#-0x15
   \   000007   12....       LCALL     ?ALLOC_XSTACK8
   \   00000A   EA           MOV       A,R2
   \   00000B   FE           MOV       R6,A
   \   00000C   EB           MOV       A,R3
   \   00000D   FF           MOV       R7,A
   2180            endPointDesc_t *epDesc;
   2181            zclIncoming_t inMsg;
   2182            zclLibPlugin_t *pInPlugin;
   2183            zclDefaultRspCmd_t defautlRspCmd;
   2184            uint8 options;
   2185            uint8 securityEnable;
   2186            uint8 interPanMsg;
   2187            ZStatus_t status = ZFailure;
   2188            uint8 defaultResponseSent = FALSE;
   \   00000E   C2..         CLR       ?VB.0
   2189          
   2190            if ( pkt->cmd.DataLength < ZCL_VALID_MIN_HEADER_LEN  )
   \   000010   EA           MOV       A,R2
   \   000011   2420         ADD       A,#0x20
   \   000013   F8           MOV       R0,A
   \   000014   E4           CLR       A
   \   000015   3F           ADDC      A,R7
   \   000016   88..         MOV       ?V0,R0
   \   000018   F5..         MOV       ?V1,A
   \   00001A   8882         MOV       DPL,R0
   \   00001C   F583         MOV       DPH,A
   \   00001E   C3           CLR       C
   \   00001F   E0           MOVX      A,@DPTR
   \   000020   9403         SUBB      A,#0x3
   \   000022   A3           INC       DPTR
   \   000023   E0           MOVX      A,@DPTR
   \   000024   9400         SUBB      A,#0x0
   \   000026   5005         JNC       ??zcl_ProcessMessageMSG_0
   2191            {
   2192              return ( ZCL_PROC_INVALID );   // Error, ignore the message
   \   000028   7901         MOV       R1,#0x1
   \   00002A   02....       LJMP      ??zcl_ProcessMessageMSG_1 & 0xFFFF
   2193            }
   2194          
   2195            // Initialize
   2196            rawAFMsg = (afIncomingMSGPacket_t *)pkt;
   \                     ??zcl_ProcessMessageMSG_0:
   \   00002D   90....       MOV       DPTR,#rawAFMsg
   \   000030   12....       LCALL     ??Subroutine275_0 & 0xFFFF
   2197            inMsg.msg = pkt;
   \                     ??CrossCallReturnLabel_692:
   \   000033   7402         MOV       A,#0x2
   \   000035   12....       LCALL     ?XSTACK_DISP0_8
   \   000038   12....       LCALL     ??Subroutine275_0 & 0xFFFF
   2198            inMsg.attrCmd = NULL;
   \                     ??CrossCallReturnLabel_693:
   \   00003B   740E         MOV       A,#0xe
   \   00003D   12....       LCALL     ?XSTACK_DISP0_8
   \   000040   E4           CLR       A
   \   000041   F0           MOVX      @DPTR,A
   \   000042   A3           INC       DPTR
   \   000043   F0           MOVX      @DPTR,A
   2199            inMsg.pData = NULL;
   \   000044   740A         MOV       A,#0xa
   \   000046   12....       LCALL     ?XSTACK_DISP0_8
   \   000049   E4           CLR       A
   \   00004A   F0           MOVX      @DPTR,A
   \   00004B   A3           INC       DPTR
   \   00004C   F0           MOVX      @DPTR,A
   2200            inMsg.pDataLen = 0;
   \   00004D   740C         MOV       A,#0xc
   \   00004F   12....       LCALL     ?XSTACK_DISP0_8
   \   000052   E4           CLR       A
   \   000053   F0           MOVX      @DPTR,A
   \   000054   A3           INC       DPTR
   \   000055   F0           MOVX      @DPTR,A
   2201          
   2202            inMsg.pData = zclParseHdr( &(inMsg.hdr), pkt->cmd.Data );
   \   000056   EA           MOV       A,R2
   \   000057   2422         ADD       A,#0x22
   \   000059   F8           MOV       R0,A
   \   00005A   E4           CLR       A
   \   00005B   3F           ADDC      A,R7
   \   00005C   88..         MOV       ?V2,R0
   \   00005E   F5..         MOV       ?V3,A
   \   000060                ; Setup parameters for call to function zclParseHdr
   \   000060   8882         MOV       DPL,R0
   \   000062   F583         MOV       DPH,A
   \   000064   12....       LCALL     ??Subroutine263_0 & 0xFFFF
   \                     ??CrossCallReturnLabel_605:
   \   000067   7404         MOV       A,#0x4
   \   000069   12....       LCALL     ?XSTACK_DISP0_8
   \   00006C   AA82         MOV       R2,DPL
   \   00006E   AB83         MOV       R3,DPH
   \   000070   12....       LCALL     `??zclParseHdr::?relay`; Banked call to: zclParseHdr
   \   000073   8A..         MOV       ?V4,R2
   \   000075   8B..         MOV       ?V5,R3
   \   000077   A8..         MOV       R0,?V4
   \   000079   A9..         MOV       R1,?V5
   \   00007B   740A         MOV       A,#0xa
   \   00007D   12....       LCALL     ?XSTACK_DISP0_8
   \   000080   12....       LCALL     ??Subroutine275_0 & 0xFFFF
   2203            inMsg.pDataLen = pkt->cmd.DataLength;
   2204            inMsg.pDataLen -= (uint16)(inMsg.pData - pkt->cmd.Data);
   \                     ??CrossCallReturnLabel_694:
   \   000083   85..82       MOV       DPL,?V0
   \   000086   85..83       MOV       DPH,?V1
   \   000089   12....       LCALL     ??Subroutine252_0 & 0xFFFF
   \                     ??CrossCallReturnLabel_572:
   \   00008C   EA           MOV       A,R2
   \   00008D   C3           CLR       C
   \   00008E   98           SUBB      A,R0
   \   00008F   F8           MOV       R0,A
   \   000090   EB           MOV       A,R3
   \   000091   99           SUBB      A,R1
   \   000092   F9           MOV       R1,A
   \   000093   85..82       MOV       DPL,?V2
   \   000096   85..83       MOV       DPH,?V3
   \   000099   12....       LCALL     ?Subroutine198 & 0xFFFF
   \                     ??CrossCallReturnLabel_439:
   \   00009C   740C         MOV       A,#0xc
   \   00009E   12....       LCALL     ?XSTACK_DISP0_8
   \   0000A1   12....       LCALL     ??Subroutine236_0 & 0xFFFF
   2205          
   2206            // Temporary workaround to allow callback functions access to the
   2207            // transaction sequence number.  Callback functions will call
   2208            // zcl_getParsedTransSeqNum() to retrieve this number.
   2209            savedZCLTransSeqNum = inMsg.hdr.transSeqNum;
   \                     ??CrossCallReturnLabel_473:
   \   0000A4   7408         MOV       A,#0x8
   \   0000A6   12....       LCALL     ?XSTACK_DISP0_8
   \   0000A9   E0           MOVX      A,@DPTR
   \   0000AA   90....       MOV       DPTR,#savedZCLTransSeqNum
   \   0000AD   F0           MOVX      @DPTR,A
   2210          
   2211            // Find the wanted endpoint
   2212            epDesc = afFindEndPointDesc( pkt->endPoint );
   \   0000AE   EE           MOV       A,R6
   \   0000AF   2414         ADD       A,#0x14
   \   0000B1   F5..         MOV       ?V0,A
   \   0000B3   E4           CLR       A
   \   0000B4   3F           ADDC      A,R7
   \   0000B5   F5..         MOV       ?V1,A
   \   0000B7                ; Setup parameters for call to function afFindEndPointDesc
   \   0000B7   85..82       MOV       DPL,?V0
   \   0000BA   F583         MOV       DPH,A
   \   0000BC   E0           MOVX      A,@DPTR
   \   0000BD   F9           MOV       R1,A
   \   0000BE   12....       LCALL     `??afFindEndPointDesc::?relay`; Banked call to: afFindEndPointDesc
   \   0000C1   8A82         MOV       DPL,R2
   \   0000C3   8B83         MOV       DPH,R3
   2213            if ( epDesc == NULL )
   \   0000C5   E582         MOV       A,DPL
   \   0000C7   4583         ORL       A,DPH
   \   0000C9   700C         JNZ       ??zcl_ProcessMessageMSG_2
   2214            {
   2215              rawAFMsg = NULL;
   \   0000CB   90....       MOV       DPTR,#rawAFMsg
   \   0000CE   E4           CLR       A
   \   0000CF   F0           MOVX      @DPTR,A
   \   0000D0   A3           INC       DPTR
   \   0000D1   F0           MOVX      @DPTR,A
   2216              return ( ZCL_PROC_EP_NOT_FOUND );   // Error, ignore the message
   \   0000D2   7902         MOV       R1,#0x2
   \   0000D4   02....       LJMP      ??zcl_ProcessMessageMSG_1 & 0xFFFF
   2217            }
   2218          
   2219            if ( ( epDesc->simpleDesc == NULL ) ||
   2220                 ( zcl_DeviceOperational( pkt->endPoint, pkt->clusterId, inMsg.hdr.fc.type,
   2221                                          inMsg.hdr.commandID, epDesc->simpleDesc->AppProfId ) == FALSE ) )
   \                     ??zcl_ProcessMessageMSG_2:
   \   0000D7   12....       LCALL     ?Subroutine64 & 0xFFFF
   \                     ??CrossCallReturnLabel_442:
   \   0000DA   602B         JZ        ??zcl_ProcessMessageMSG_3
   \   0000DC   EE           MOV       A,R6
   \   0000DD   2404         ADD       A,#0x4
   \   0000DF   F5..         MOV       ?V2,A
   \   0000E1   E4           CLR       A
   \   0000E2   3F           ADDC      A,R7
   \   0000E3   F5..         MOV       ?V3,A
   \   0000E5                ; Setup parameters for call to function zcl_DeviceOperational
   \   0000E5   A3           INC       DPTR
   \   0000E6   12....       LCALL     ?PUSH_XSTACK8_X_TWO
   \   0000E9   740B         MOV       A,#0xb
   \   0000EB   12....       LCALL     ?XSTACK_DISP0_8
   \   0000EE   E0           MOVX      A,@DPTR
   \   0000EF   FD           MOV       R5,A
   \   0000F0   7406         MOV       A,#0x6
   \   0000F2   12....       LCALL     ?XSTACK_DISP0_8
   \   0000F5   E0           MOVX      A,@DPTR
   \   0000F6   5403         ANL       A,#0x3
   \   0000F8   FC           MOV       R4,A
   \   0000F9   12....       LCALL     ?Subroutine60 & 0xFFFF
   \                     ??CrossCallReturnLabel_87:
   \   0000FC   12....       LCALL     `??zcl_DeviceOperational::?relay`; Banked call to: zcl_DeviceOperational
   \   0000FF   7402         MOV       A,#0x2
   \   000101   12....       LCALL     ?DEALLOC_XSTACK8
   \   000104   E9           MOV       A,R1
   \   000105   700C         JNZ       ??zcl_ProcessMessageMSG_4
   2222            {
   2223              rawAFMsg = NULL;
   \                     ??zcl_ProcessMessageMSG_3:
   \   000107   90....       MOV       DPTR,#rawAFMsg
   \   00010A   E4           CLR       A
   \   00010B   F0           MOVX      @DPTR,A
   \   00010C   A3           INC       DPTR
   \   00010D   F0           MOVX      @DPTR,A
   2224              return ( ZCL_PROC_NOT_OPERATIONAL ); // Error, ignore the message
   \   00010E   7903         MOV       R1,#0x3
   \   000110   02....       LJMP      ??zcl_ProcessMessageMSG_1 & 0xFFFF
   2225            }
   2226          
   2227          #if defined ( INTER_PAN )
   2228            if ( StubAPS_InterPan( pkt->srcAddr.panId, pkt->srcAddr.endPoint ) )
   \                     ??zcl_ProcessMessageMSG_4:
   \   000113                ; Setup parameters for call to function StubAPS_InterPan
   \   000113   EE           MOV       A,R6
   \   000114   240F         ADD       A,#0xf
   \   000116   F582         MOV       DPL,A
   \   000118   E4           CLR       A
   \   000119   3F           ADDC      A,R7
   \   00011A   F583         MOV       DPH,A
   \   00011C   E0           MOVX      A,@DPTR
   \   00011D   F9           MOV       R1,A
   \   00011E   EE           MOV       A,R6
   \   00011F   2410         ADD       A,#0x10
   \   000121   F582         MOV       DPL,A
   \   000123   E4           CLR       A
   \   000124   3F           ADDC      A,R7
   \   000125   F583         MOV       DPH,A
   \   000127   12....       LCALL     ?Subroutine108 & 0xFFFF
   \                     ??CrossCallReturnLabel_182:
   \   00012A   601D         JZ        ??zcl_ProcessMessageMSG_5
   2229            {
   2230              // No foundation command is supported thru Inter-PAN communication.
   2231              // But the Light Link cluster uses a different Frame Control format
   2232              // for it's Inter-PAN messages, where the messages could be confused
   2233              // with the foundation commands.
   2234              if ( zcl_ProfileCmd( inMsg.hdr.fc.type ) )
   \   00012C   7404         MOV       A,#0x4
   \   00012E   12....       LCALL     ?XSTACK_DISP0_8
   \   000131   E0           MOVX      A,@DPTR
   \   000132   5403         ANL       A,#0x3
   \   000134   700C         JNZ       ??zcl_ProcessMessageMSG_6
   2235              {
   2236                rawAFMsg = NULL;
   \   000136   90....       MOV       DPTR,#rawAFMsg
   \   000139   E4           CLR       A
   \   00013A   F0           MOVX      @DPTR,A
   \   00013B   A3           INC       DPTR
   \   00013C   F0           MOVX      @DPTR,A
   2237                return ( ZCL_PROC_INTERPAN_FOUNDATION_CMD );
   \   00013D   7904         MOV       R1,#0x4
   \   00013F   02....       LJMP      ??zcl_ProcessMessageMSG_1 & 0xFFFF
   2238              }
   2239          
   2240              interPanMsg = TRUE;
   \                     ??zcl_ProcessMessageMSG_6:
   \   000142   D2..         SETB      ?VB.1
   2241              options = AF_TX_OPTIONS_NONE;
   \   000144   75..00       MOV       ?V4,#0x0
   \   000147   800D         SJMP      ??zcl_ProcessMessageMSG_7
   2242            }
   2243            else
   2244          #endif
   2245            {
   2246              interPanMsg = FALSE;
   \                     ??zcl_ProcessMessageMSG_5:
   \   000149   C2..         CLR       ?VB.1
   2247              options = zclGetClusterOption( pkt->endPoint, pkt->clusterId );
   \   00014B                ; Setup parameters for call to function zclGetClusterOption
   \   00014B   12....       LCALL     ?Subroutine60 & 0xFFFF
   2248            }
   \                     ??CrossCallReturnLabel_88:
   \   00014E   12....       LCALL     `??zclGetClusterOption::?relay`; Banked call to: zclGetClusterOption
   \   000151   E9           MOV       A,R1
   \   000152   5440         ANL       A,#0x40
   \   000154   F5..         MOV       ?V4,A
   2249          
   2250            // Find the appropriate plugin
   2251            pInPlugin = zclFindPlugin( pkt->clusterId, epDesc->simpleDesc->AppProfId );
   \                     ??zcl_ProcessMessageMSG_7:
   \   000156   85..82       MOV       DPL,?V2
   \   000159   85..83       MOV       DPH,?V3
   \   00015C   12....       LCALL     ??Subroutine252_0 & 0xFFFF
   \                     ??CrossCallReturnLabel_573:
   \   00015F   EA           MOV       A,R2
   \   000160   FC           MOV       R4,A
   \   000161   EB           MOV       A,R3
   \   000162   FD           MOV       R5,A
   \   000163   90....       MOV       DPTR,#plugins
   \   000166   8004         SJMP      ??zcl_ProcessMessageMSG_8
   \                     ??zcl_ProcessMessageMSG_9:
   \   000168   8882         MOV       DPL,R0
   \   00016A   8983         MOV       DPH,R1
   \                     ??zcl_ProcessMessageMSG_8:
   \   00016C   12....       LCALL     ??Subroutine235_0 & 0xFFFF
   \                     ??CrossCallReturnLabel_459:
   \   00016F   7003         JNZ       $+5
   \   000171   02....       LJMP      ??zcl_ProcessMessageMSG_10 & 0xFFFF
   \   000174   8882         MOV       DPL,R0
   \   000176   8983         MOV       DPH,R1
   \   000178   A3           INC       DPTR
   \   000179   A3           INC       DPTR
   \   00017A   12....       LCALL     ??Subroutine240_0 & 0xFFFF
   \                     ??CrossCallReturnLabel_494:
   \   00017D   C3           CLR       C
   \   00017E   EA           MOV       A,R2
   \   00017F   95..         SUBB      A,?V6
   \   000181   EB           MOV       A,R3
   \   000182   95..         SUBB      A,?V7
   \   000184   40E2         JC        ??zcl_ProcessMessageMSG_9
   \   000186   8882         MOV       DPL,R0
   \   000188   8983         MOV       DPH,R1
   \   00018A   A3           INC       DPTR
   \   00018B   A3           INC       DPTR
   \   00018C   A3           INC       DPTR
   \   00018D   A3           INC       DPTR
   \   00018E   C3           CLR       C
   \   00018F   E0           MOVX      A,@DPTR
   \   000190   9C           SUBB      A,R4
   \   000191   A3           INC       DPTR
   \   000192   E0           MOVX      A,@DPTR
   \   000193   9D           SUBB      A,R5
   \   000194   40D2         JC        ??zcl_ProcessMessageMSG_9
   \   000196   E8           MOV       A,R0
   \   000197   FC           MOV       R4,A
   \   000198   E9           MOV       A,R1
   \   000199   FD           MOV       R5,A
   \   00019A   7404         MOV       A,#0x4
   \   00019C   12....       LCALL     ?XSTACK_DISP0_8
   \   00019F   E0           MOVX      A,@DPTR
   \   0001A0   5407         ANL       A,#0x7
   \   0001A2   700D         JNZ       ??zcl_ProcessMessageMSG_11
   \   0001A4   7409         MOV       A,#0x9
   \   0001A6   12....       LCALL     ?XSTACK_DISP0_8
   \   0001A9   E0           MOVX      A,@DPTR
   \   0001AA   640B         XRL       A,#0xb
   \   0001AC   7003         JNZ       $+5
   \   0001AE   02....       LJMP      ??zcl_ProcessMessageMSG_12 & 0xFFFF
   2252          
   2253            // Local and remote Security options must match except for Default Response command
   2254            if ( ( pInPlugin != NULL ) && !zcl_DefaultRspCmd( inMsg.hdr ) )
   2255            {
   2256              securityEnable = ( options & AF_EN_SECURITY ) ? TRUE : FALSE;
   \                     ??zcl_ProcessMessageMSG_11:
   \   0001B1   E5..         MOV       A,?V4
   \   0001B3   7003         JNZ       $+5
   \   0001B5   02....       LJMP      ??zcl_ProcessMessageMSG_12 & 0xFFFF
   \   0001B8   EE           MOV       A,R6
   \   0001B9   2419         ADD       A,#0x19
   \   0001BB   F582         MOV       DPL,A
   \   0001BD   E4           CLR       A
   \   0001BE   3F           ADDC      A,R7
   \   0001BF   F583         MOV       DPH,A
   \   0001C1   E0           MOVX      A,@DPTR
   \   0001C2   6003         JZ        $+5
   \   0001C4   02....       LJMP      ??zcl_ProcessMessageMSG_12 & 0xFFFF
   2257          
   2258              // Make sure that Clusters specifically defined to use security are received secure,
   2259              // any other cluster that wants to use APS security will be allowed
   2260              if ( ( securityEnable == TRUE ) && ( pkt->SecurityUse == FALSE ) )
   2261              {
   2262                if ( UNICAST_MSG( inMsg.msg ) )
   \   0001C7   7402         MOV       A,#0x2
   \   0001C9   12....       LCALL     ?XSTACK_DISP0_8
   \   0001CC   12....       LCALL     ?Subroutine78 & 0xFFFF
   \                     ??CrossCallReturnLabel_130:
   \   0001CF   707A         JNZ       ??zcl_ProcessMessageMSG_13
   \   0001D1   7402         MOV       A,#0x2
   \   0001D3   12....       LCALL     ?XSTACK_DISP0_8
   \   0001D6   12....       LCALL     ?Subroutine50 & 0xFFFF
   \                     ??CrossCallReturnLabel_467:
   \   0001D9   7070         JNZ       ??zcl_ProcessMessageMSG_13
   2263                {
   2264                  // Send a Default Response command back with no Application Link Key security
   2265                  zclSetSecurityOption( pkt->endPoint, pkt->clusterId, FALSE );
   \   0001DB                ; Setup parameters for call to function zclSetSecurityOption
   \   0001DB   7C00         MOV       R4,#0x0
   \   0001DD   85..82       MOV       DPL,?V0
   \   0001E0   85..83       MOV       DPH,?V1
   \   0001E3   E0           MOVX      A,@DPTR
   \   0001E4   F9           MOV       R1,A
   \   0001E5   12....       LCALL     `??zclSetSecurityOption::?relay`; Banked call to: zclSetSecurityOption
   2266          
   2267                  defautlRspCmd.statusCode = status;
   \   0001E8   7401         MOV       A,#0x1
   \   0001EA   12....       LCALL     ?XSTACK_DISP0_8
   \   0001ED   7401         MOV       A,#0x1
   \   0001EF   F0           MOVX      @DPTR,A
   2268                  defautlRspCmd.commandID = inMsg.hdr.commandID;
   \   0001F0   7409         MOV       A,#0x9
   \   0001F2   12....       LCALL     ?XSTACK_DISP0_8
   \   0001F5   12....       LCALL     ?Subroutine101 & 0xFFFF
   2269                  zcl_SendDefaultRspCmd( inMsg.msg->endPoint, &(inMsg.msg->srcAddr),
   2270                                         inMsg.msg->clusterId, &defautlRspCmd,
   2271                                         !inMsg.hdr.fc.direction, true,
   2272                                         inMsg.hdr.manuCode, inMsg.hdr.transSeqNum );
   \                     ??CrossCallReturnLabel_169:
   \   0001F8   12....       LCALL     ?XSTACK_DISP0_8
   \   0001FB   E0           MOVX      A,@DPTR
   \   0001FC   F5..         MOV       ?V4,A
   \   0001FE   78..         MOV       R0,#?V4
   \   000200   12....       LCALL     ?PUSH_XSTACK_I_ONE
   \   000203   7407         MOV       A,#0x7
   \   000205   12....       LCALL     ?XSTACK_DISP0_8
   \   000208   12....       LCALL     ?PUSH_XSTACK8_X_TWO
   \   00020B   75..01       MOV       ?V4,#0x1
   \   00020E   78..         MOV       R0,#?V4
   \   000210   12....       LCALL     ?PUSH_XSTACK_I_ONE
   \   000213   7408         MOV       A,#0x8
   \   000215   12....       LCALL     ?XSTACK_DISP0_8
   \   000218   12....       LCALL     ??Subroutine269_0 & 0xFFFF
   \                     ??CrossCallReturnLabel_640:
   \   00021B   12....       LCALL     ?PUSH_XSTACK_I_ONE
   \   00021E   7405         MOV       A,#0x5
   \   000220   12....       LCALL     ?XSTACK_DISP100_8
   \   000223   88..         MOV       ?V4,R0
   \   000225   89..         MOV       ?V5,R1
   \   000227   78..         MOV       R0,#?V4
   \   000229   12....       LCALL     ?PUSH_XSTACK_I_TWO
   \   00022C   7409         MOV       A,#0x9
   \   00022E   12....       LCALL     ?XSTACK_DISP0_8
   \   000231   12....       LCALL     ?Subroutine69 & 0xFFFF
   \                     ??CrossCallReturnLabel_115:
   \   000234   12....       LCALL     ?XSTACK_DISP0_8
   \   000237   12....       LCALL     ?Subroutine99 & 0xFFFF
   \                     ??CrossCallReturnLabel_165:
   \   00023A   12....       LCALL     ?XSTACK_DISP0_8
   \   00023D   12....       LCALL     ?Subroutine72 & 0xFFFF
   \                     ??CrossCallReturnLabel_119:
   \   000240   12....       LCALL     ?DEALLOC_XSTACK8
   2273          
   2274                  zclSetSecurityOption( pkt->endPoint, pkt->clusterId, TRUE );
   \   000243                ; Setup parameters for call to function zclSetSecurityOption
   \   000243   7C01         MOV       R4,#0x1
   \   000245   12....       LCALL     ?Subroutine60 & 0xFFFF
   2275                }
   \                     ??CrossCallReturnLabel_89:
   \   000248   12....       LCALL     `??zclSetSecurityOption::?relay`; Banked call to: zclSetSecurityOption
   2276          
   2277                rawAFMsg = NULL;
   \                     ??zcl_ProcessMessageMSG_13:
   \   00024B   90....       MOV       DPTR,#rawAFMsg
   \   00024E   E4           CLR       A
   \   00024F   F0           MOVX      @DPTR,A
   \   000250   A3           INC       DPTR
   \   000251   F0           MOVX      @DPTR,A
   2278                return ( ZCL_PROC_NOT_SECURE );   // Error, ignore the message
   \   000252   7905         MOV       R1,#0x5
   \   000254   02....       LJMP      ??zcl_ProcessMessageMSG_1 & 0xFFFF
   2279              }
   2280            }
   \                     ??zcl_ProcessMessageMSG_10:
   \   000257   7C00         MOV       R4,#0x0
   \   000259   7D00         MOV       R5,#0x0
   2281          
   2282            // Is this a foundation type message
   2283            if ( !interPanMsg && zcl_ProfileCmd( inMsg.hdr.fc.type ) )
   \                     ??zcl_ProcessMessageMSG_12:
   \   00025B   A2..         MOV       C,?VB.1
   \   00025D   5003         JNC       $+5
   \   00025F   02....       LJMP      ??zcl_ProcessMessageMSG_14 & 0xFFFF
   \   000262   7404         MOV       A,#0x4
   \   000264   12....       LCALL     ?XSTACK_DISP0_8
   \   000267   E0           MOVX      A,@DPTR
   \   000268   F8           MOV       R0,A
   \   000269   5403         ANL       A,#0x3
   \   00026B   6003         JZ        $+5
   \   00026D   02....       LJMP      ??zcl_ProcessMessageMSG_14 & 0xFFFF
   2284            {
   2285              if ( inMsg.hdr.fc.manuSpecific )
   \   000270   E8           MOV       A,R0
   \   000271   5404         ANL       A,#0x4
   \   000273   6005         JZ        ??zcl_ProcessMessageMSG_15
   2286              {
   2287                // We don't support any manufacturer specific command
   2288                status = ZCL_STATUS_UNSUP_MANU_GENERAL_COMMAND;
   \   000275   7E84         MOV       R6,#-0x7c
   \   000277   02....       LJMP      ??zcl_ProcessMessageMSG_16 & 0xFFFF
   2289              }
   2290              else if ( ( inMsg.hdr.commandID <= ZCL_CMD_MAX ) &&
   2291                        ( zclCmdTable[inMsg.hdr.commandID].pfnParseInProfile != NULL ) )
   \                     ??zcl_ProcessMessageMSG_15:
   \   00027A   7409         MOV       A,#0x9
   \   00027C   12....       LCALL     ?XSTACK_DISP0_8
   \   00027F   E0           MOVX      A,@DPTR
   \   000280   F8           MOV       R0,A
   \   000281   C3           CLR       C
   \   000282   9417         SUBB      A,#0x17
   \   000284   4003         JC        $+5
   \   000286   02....       LJMP      ??zcl_ProcessMessageMSG_17 & 0xFFFF
   \   000289   E8           MOV       A,R0
   \   00028A   F5..         MOV       ?V2,A
   \   00028C   75..00       MOV       ?V3,#0x0
   \   00028F   7402         MOV       A,#0x2
   \   000291   78..         MOV       R0,#?V2
   \   000293   12....       LCALL     ?S_SHL
   \   000296   74..         MOV       A,#zclCmdTable & 0xff
   \   000298   25..         ADD       A,?V2
   \   00029A   F582         MOV       DPL,A
   \   00029C   74..         MOV       A,#(zclCmdTable >> 8) & 0xff
   \   00029E   35..         ADDC      A,?V3
   \   0002A0   F583         MOV       DPH,A
   \   0002A2   E4           CLR       A
   \   0002A3   93           MOVC      A,@A+DPTR
   \   0002A4   F8           MOV       R0,A
   \   0002A5   7401         MOV       A,#0x1
   \   0002A7   93           MOVC      A,@A+DPTR
   \   0002A8   F9           MOV       R1,A
   \   0002A9   E8           MOV       A,R0
   \   0002AA   49           ORL       A,R1
   \   0002AB   7003         JNZ       $+5
   \   0002AD   02....       LJMP      ??zcl_ProcessMessageMSG_17 & 0xFFFF
   2292              {
   2293                zclParseCmd_t parseCmd;
   2294          
   2295                parseCmd.endpoint = pkt->endPoint;
   \   0002B0   85..82       MOV       DPL,?V0
   \   0002B3   85..83       MOV       DPH,?V1
   \   0002B6   E0           MOVX      A,@DPTR
   \   0002B7   C0E0         PUSH      A
   \   0002B9   7410         MOV       A,#0x10
   \   0002BB   12....       LCALL     ?XSTACK_DISP0_8
   \   0002BE   D0E0         POP       A
   \   0002C0   F0           MOVX      @DPTR,A
   2296                parseCmd.dataLen = inMsg.pDataLen;
   \   0002C1   740C         MOV       A,#0xc
   \   0002C3   12....       LCALL     ?XSTACK_DISP0_8
   \   0002C6   12....       LCALL     ??Subroutine252_0 & 0xFFFF
   \                     ??CrossCallReturnLabel_574:
   \   0002C9   7411         MOV       A,#0x11
   \   0002CB   12....       LCALL     ?XSTACK_DISP0_8
   \   0002CE   12....       LCALL     ??Subroutine275_0 & 0xFFFF
   2297                parseCmd.pData = inMsg.pData;
   \                     ??CrossCallReturnLabel_695:
   \   0002D1   740A         MOV       A,#0xa
   \   0002D3   12....       LCALL     ?XSTACK_DISP0_8
   \   0002D6   12....       LCALL     ??Subroutine252_0 & 0xFFFF
   \                     ??CrossCallReturnLabel_575:
   \   0002D9   7413         MOV       A,#0x13
   \   0002DB   12....       LCALL     ?XSTACK_DISP0_8
   \   0002DE   12....       LCALL     ??Subroutine275_0 & 0xFFFF
   2298          
   2299                // Parse the command, remember that the return value is a pointer to allocated memory
   2300                inMsg.attrCmd = zclParseCmd( inMsg.hdr.commandID, &parseCmd );
   \                     ??CrossCallReturnLabel_696:
   \   0002E1                ; Setup parameters for indirect call
   \   0002E1   7410         MOV       A,#0x10
   \   0002E3   12....       LCALL     ?XSTACK_DISP101_8
   \   0002E6   8882         MOV       DPL,R0
   \   0002E8   8983         MOV       DPH,R1
   \   0002EA   12....       LCALL     ?CALL_IND
   \   0002ED   8B..         MOV       ?V1,R3
   \   0002EF   A9..         MOV       R1,?V1
   \   0002F1   740E         MOV       A,#0xe
   \   0002F3   12....       LCALL     ?XSTACK_DISP0_8
   \   0002F6   12....       LCALL     ??Subroutine275_0 & 0xFFFF
   2301                if ( (inMsg.attrCmd != NULL) && (zclCmdTable[inMsg.hdr.commandID].pfnProcessInProfile != NULL) )
   \                     ??CrossCallReturnLabel_697:
   \   0002F9   EA           MOV       A,R2
   \   0002FA   49           ORL       A,R1
   \   0002FB   6048         JZ        ??CrossCallReturnLabel_183
   \   0002FD   7409         MOV       A,#0x9
   \   0002FF   12....       LCALL     ?XSTACK_DISP0_8
   \   000302   E0           MOVX      A,@DPTR
   \   000303   F5..         MOV       ?V0,A
   \   000305   75..00       MOV       ?V1,#0x0
   \   000308   7402         MOV       A,#0x2
   \   00030A   78..         MOV       R0,#?V0
   \   00030C   12....       LCALL     ?S_SHL
   \   00030F   74..         MOV       A,#(zclCmdTable + 2) & 0xff
   \   000311   25..         ADD       A,?V0
   \   000313   F582         MOV       DPL,A
   \   000315   74..         MOV       A,#((zclCmdTable + 2) >> 8) & 0xff
   \   000317   35..         ADDC      A,?V1
   \   000319   F583         MOV       DPH,A
   \   00031B   E4           CLR       A
   \   00031C   93           MOVC      A,@A+DPTR
   \   00031D   F8           MOV       R0,A
   \   00031E   7401         MOV       A,#0x1
   \   000320   93           MOVC      A,@A+DPTR
   \   000321   8882         MOV       DPL,R0
   \   000323   F583         MOV       DPH,A
   \   000325   E582         MOV       A,DPL
   \   000327   4583         ORL       A,DPH
   \   000329   6012         JZ        ??zcl_ProcessMessageMSG_18
   2302                {
   2303                  // Process the command
   2304                  if ( zclProcessCmd( inMsg.hdr.commandID, &inMsg ) == FALSE )
   \   00032B                ; Setup parameters for indirect call
   \   00032B   7402         MOV       A,#0x2
   \   00032D   12....       LCALL     ?XSTACK_DISP101_8
   \   000330   12....       LCALL     ?CALL_IND
   2305                  {
   2306                    // Couldn't find attribute in the table.
   2307                  }
   2308                }
   2309          
   2310                // Free the buffer
   2311                if ( inMsg.attrCmd )
   \   000333   740E         MOV       A,#0xe
   \   000335   12....       LCALL     ?XSTACK_DISP0_8
   \   000338   12....       LCALL     ??Subroutine235_0 & 0xFFFF
   \                     ??CrossCallReturnLabel_460:
   \   00033B   6008         JZ        ??CrossCallReturnLabel_183
   2312                {
   2313                  zcl_mem_free( inMsg.attrCmd );
   \                     ??zcl_ProcessMessageMSG_18:
   \   00033D                ; Setup parameters for call to function osal_mem_free
   \   00033D   740E         MOV       A,#0xe
   \   00033F   12....       LCALL     ?XSTACK_DISP0_8
   \   000342   12....       LCALL     ?Subroutine109 & 0xFFFF
   2314                }
   2315          
   2316                if ( CMD_HAS_RSP( inMsg.hdr.commandID ) )
   \                     ??CrossCallReturnLabel_183:
   \   000345   7409         MOV       A,#0x9
   \   000347   12....       LCALL     ?XSTACK_DISP0_8
   \   00034A   E0           MOVX      A,@DPTR
   \   00034B   F8           MOV       R0,A
   \   00034C   605F         JZ        ??zcl_ProcessMessageMSG_19
   \   00034E   7402         MOV       A,#0x2
   \   000350   68           XRL       A,R0
   \   000351   605A         JZ        ??zcl_ProcessMessageMSG_19
   \   000353   7403         MOV       A,#0x3
   \   000355   68           XRL       A,R0
   \   000356   6055         JZ        ??zcl_ProcessMessageMSG_19
   \   000358   7405         MOV       A,#0x5
   \   00035A   68           XRL       A,R0
   \   00035B   6050         JZ        ??zcl_ProcessMessageMSG_19
   \   00035D   7406         MOV       A,#0x6
   \   00035F   68           XRL       A,R0
   \   000360   604B         JZ        ??zcl_ProcessMessageMSG_19
   \   000362   7408         MOV       A,#0x8
   \   000364   68           XRL       A,R0
   \   000365   6046         JZ        ??zcl_ProcessMessageMSG_19
   \   000367   740C         MOV       A,#0xc
   \   000369   68           XRL       A,R0
   \   00036A   6041         JZ        ??zcl_ProcessMessageMSG_19
   \   00036C   7411         MOV       A,#0x11
   \   00036E   68           XRL       A,R0
   \   00036F   603C         JZ        ??zcl_ProcessMessageMSG_19
   \   000371   7413         MOV       A,#0x13
   \   000373   68           XRL       A,R0
   \   000374   6037         JZ        ??zcl_ProcessMessageMSG_19
   \   000376   7415         MOV       A,#0x15
   \   000378   68           XRL       A,R0
   \   000379   6032         JZ        ??zcl_ProcessMessageMSG_19
   \   00037B   740B         MOV       A,#0xb
   \   00037D   68           XRL       A,R0
   \   00037E   602D         JZ        ??zcl_ProcessMessageMSG_19
   2317                {
   2318                  rawAFMsg = NULL;
   2319                  return ( ZCL_PROC_SUCCESS ); // We're done
   2320                }
   2321          
   2322                status = ZSuccess;
   \   000380   7E00         MOV       R6,#0x0
   \   000382   8049         SJMP      ??zcl_ProcessMessageMSG_16
   2323              }
   2324              else
   2325              {
   2326                // Unsupported message
   2327                status = ZCL_STATUS_UNSUP_GENERAL_COMMAND;
   \                     ??zcl_ProcessMessageMSG_17:
   \   000384   7E82         MOV       R6,#-0x7e
   \   000386   8045         SJMP      ??zcl_ProcessMessageMSG_16
   2328              }
   2329            }
   2330            else  // Not a foundation type message, so it must be specific to the cluster ID.
   2331            {
   2332              if ( pInPlugin && pInPlugin->pfnIncomingHdlr )
   \                     ??zcl_ProcessMessageMSG_14:
   \   000388   EC           MOV       A,R4
   \   000389   4D           ORL       A,R5
   \   00038A   6031         JZ        ??zcl_ProcessMessageMSG_20
   \   00038C   8C82         MOV       DPL,R4
   \   00038E   8D83         MOV       DPH,R5
   \   000390   A3           INC       DPTR
   \   000391   A3           INC       DPTR
   \   000392   12....       LCALL     ?Subroutine64 & 0xFFFF
   \                     ??CrossCallReturnLabel_443:
   \   000395   6026         JZ        ??zcl_ProcessMessageMSG_20
   2333              {
   2334                // The return value of the plugin function will be
   2335                //  ZSuccess - Supported and need default response
   2336                //  ZFailure - Unsupported
   2337                //  ZCL_STATUS_CMD_HAS_RSP - Supported and do not need default rsp
   2338                //  ZCL_STATUS_INVALID_FIELD - Supported, but the incoming msg is wrong formatted
   2339                //  ZCL_STATUS_INVALID_VALUE - Supported, but the request not achievable by the h/w
   2340                //  ZCL_STATUS_SOFTWARE_FAILURE - Supported but ZStack memory allocation fails
   2341                status = pInPlugin->pfnIncomingHdlr( &inMsg );
   \   000397                ; Setup parameters for indirect call
   \   000397   7402         MOV       A,#0x2
   \   000399   12....       LCALL     ?XSTACK_DISP101_8
   \   00039C   12....       LCALL     ?CALL_IND
   \   00039F   E9           MOV       A,R1
   \   0003A0   FE           MOV       R6,A
   2342                if ( status == ZCL_STATUS_CMD_HAS_RSP || ( interPanMsg && status == ZSuccess ) )
   \   0003A1   74FF         MOV       A,#-0x1
   \   0003A3   6E           XRL       A,R6
   \   0003A4   6007         JZ        ??zcl_ProcessMessageMSG_19
   \   0003A6   A2..         MOV       C,?VB.1
   \   0003A8   500E         JNC       ??zcl_ProcessMessageMSG_21
   \   0003AA   E9           MOV       A,R1
   \   0003AB   700B         JNZ       ??zcl_ProcessMessageMSG_21
   2343                {
   2344                  rawAFMsg = NULL;
   \                     ??zcl_ProcessMessageMSG_19:
   \   0003AD   90....       MOV       DPTR,#rawAFMsg
   \   0003B0   E4           CLR       A
   \   0003B1   F0           MOVX      @DPTR,A
   \   0003B2   A3           INC       DPTR
   \   0003B3   F0           MOVX      @DPTR,A
   2345                  return ( ZCL_PROC_SUCCESS ); // We're done
   \   0003B4   F9           MOV       R1,A
   \   0003B5   02....       LJMP      ??zcl_ProcessMessageMSG_1 & 0xFFFF
   2346                }
   2347              }
   2348          
   2349              if ( status == ZFailure )
   \                     ??zcl_ProcessMessageMSG_21:
   \   0003B8   7401         MOV       A,#0x1
   \   0003BA   6E           XRL       A,R6
   \   0003BB   7010         JNZ       ??zcl_ProcessMessageMSG_16
   2350              {
   2351                // Unsupported message
   2352                if ( inMsg.hdr.fc.manuSpecific )
   \                     ??zcl_ProcessMessageMSG_20:
   \   0003BD   7404         MOV       A,#0x4
   \   0003BF   12....       LCALL     ?XSTACK_DISP0_8
   \   0003C2   E0           MOVX      A,@DPTR
   \   0003C3   5404         ANL       A,#0x4
   \   0003C5   6004         JZ        ??zcl_ProcessMessageMSG_22
   2353                {
   2354                  status = ZCL_STATUS_UNSUP_MANU_CLUSTER_COMMAND;
   \   0003C7   7E83         MOV       R6,#-0x7d
   \   0003C9   8002         SJMP      ??zcl_ProcessMessageMSG_16
   2355                }
   2356                else
   2357                {
   2358                  status = ZCL_STATUS_UNSUP_CLUSTER_COMMAND;
   \                     ??zcl_ProcessMessageMSG_22:
   \   0003CB   7E81         MOV       R6,#-0x7f
   2359                }
   2360              }
   2361            }
   2362          
   2363            if ( UNICAST_MSG( inMsg.msg ) && inMsg.hdr.fc.disableDefaultRsp == 0 )
   \                     ??zcl_ProcessMessageMSG_16:
   \   0003CD   7402         MOV       A,#0x2
   \   0003CF   12....       LCALL     ?XSTACK_DISP0_8
   \   0003D2   12....       LCALL     ?Subroutine78 & 0xFFFF
   \                     ??CrossCallReturnLabel_131:
   \   0003D5   706B         JNZ       ??zcl_ProcessMessageMSG_23
   \   0003D7   7402         MOV       A,#0x2
   \   0003D9   12....       LCALL     ?XSTACK_DISP0_8
   \   0003DC   12....       LCALL     ?Subroutine50 & 0xFFFF
   \                     ??CrossCallReturnLabel_468:
   \   0003DF   7061         JNZ       ??zcl_ProcessMessageMSG_23
   \   0003E1   7404         MOV       A,#0x4
   \   0003E3   12....       LCALL     ?XSTACK_DISP0_8
   \   0003E6   E0           MOVX      A,@DPTR
   \   0003E7   FA           MOV       R2,A
   \   0003E8   5410         ANL       A,#0x10
   \   0003EA   7056         JNZ       ??zcl_ProcessMessageMSG_23
   2364            {
   2365              // Send a Default Response command back
   2366              defautlRspCmd.statusCode = status;
   \   0003EC   7401         MOV       A,#0x1
   \   0003EE   12....       LCALL     ?XSTACK_DISP0_8
   \   0003F1   EE           MOV       A,R6
   \   0003F2   F0           MOVX      @DPTR,A
   2367              defautlRspCmd.commandID = inMsg.hdr.commandID;
   \   0003F3   7409         MOV       A,#0x9
   \   0003F5   12....       LCALL     ?XSTACK_DISP0_8
   \   0003F8   12....       LCALL     ?Subroutine101 & 0xFFFF
   2368              zcl_SendDefaultRspCmd( inMsg.msg->endPoint, &(inMsg.msg->srcAddr),
   2369                                     inMsg.msg->clusterId, &defautlRspCmd,
   2370                                     !inMsg.hdr.fc.direction, true,
   2371                                     inMsg.hdr.manuCode, inMsg.hdr.transSeqNum );
   \                     ??CrossCallReturnLabel_170:
   \   0003FB   12....       LCALL     ?XSTACK_DISP0_8
   \   0003FE   12....       LCALL     ?Subroutine63 & 0xFFFF
   \                     ??CrossCallReturnLabel_102:
   \   000401   12....       LCALL     ?PUSH_XSTACK_I_ONE
   \   000404   7407         MOV       A,#0x7
   \   000406   12....       LCALL     ?XSTACK_DISP0_8
   \   000409   12....       LCALL     ?PUSH_XSTACK8_X_TWO
   \   00040C   75..01       MOV       ?V0,#0x1
   \   00040F   78..         MOV       R0,#?V0
   \   000411   12....       LCALL     ?PUSH_XSTACK_I_ONE
   \   000414   EA           MOV       A,R2
   \   000415   12....       LCALL     ?Subroutine148 & 0xFFFF
   \                     ??CrossCallReturnLabel_251:
   \   000418   12....       LCALL     ?PUSH_XSTACK_I_ONE
   \   00041B   7405         MOV       A,#0x5
   \   00041D   12....       LCALL     ?XSTACK_DISP100_8
   \   000420   88..         MOV       ?V0,R0
   \   000422   89..         MOV       ?V1,R1
   \   000424   78..         MOV       R0,#?V0
   \   000426   12....       LCALL     ?PUSH_XSTACK_I_TWO
   \   000429   7409         MOV       A,#0x9
   \   00042B   12....       LCALL     ?XSTACK_DISP0_8
   \   00042E   12....       LCALL     ?Subroutine69 & 0xFFFF
   \                     ??CrossCallReturnLabel_116:
   \   000431   12....       LCALL     ?XSTACK_DISP0_8
   \   000434   12....       LCALL     ?Subroutine99 & 0xFFFF
   \                     ??CrossCallReturnLabel_166:
   \   000437   12....       LCALL     ?XSTACK_DISP0_8
   \   00043A   12....       LCALL     ?Subroutine72 & 0xFFFF
   \                     ??CrossCallReturnLabel_120:
   \   00043D   12....       LCALL     ?DEALLOC_XSTACK8
   2372              defaultResponseSent = TRUE;
   \   000440   D2..         SETB      ?VB.0
   2373            }
   2374          
   2375            rawAFMsg = NULL;
   \                     ??zcl_ProcessMessageMSG_23:
   \   000442   90....       MOV       DPTR,#rawAFMsg
   \   000445   E4           CLR       A
   \   000446   F0           MOVX      @DPTR,A
   \   000447   A3           INC       DPTR
   \   000448   F0           MOVX      @DPTR,A
   2376            if ( status == ZSuccess )
   \   000449   EE           MOV       A,R6
   \   00044A   7004         JNZ       ??zcl_ProcessMessageMSG_24
   2377            {
   2378              return ( ZCL_PROC_SUCCESS );
   \   00044C   7900         MOV       R1,#0x0
   \   00044E   8019         SJMP      ??zcl_ProcessMessageMSG_1
   2379            }
   2380            else if ( status == ZCL_STATUS_UNSUP_MANU_GENERAL_COMMAND )
   \                     ??zcl_ProcessMessageMSG_24:
   \   000450   7484         MOV       A,#-0x7c
   \   000452   6E           XRL       A,R6
   \   000453   A2..         MOV       C,?VB.0
   \   000455   700A         JNZ       ??zcl_ProcessMessageMSG_25
   2381            {
   2382              if ( defaultResponseSent )
   \   000457   5004         JNC       ??zcl_ProcessMessageMSG_26
   2383              {
   2384                return ( ZCL_PROC_MANUFACTURER_SPECIFIC_DR );
   \   000459   7907         MOV       R1,#0x7
   \   00045B   800C         SJMP      ??zcl_ProcessMessageMSG_1
   2385              }
   2386              else
   2387              {
   2388                return ( ZCL_PROC_MANUFACTURER_SPECIFIC );
   \                     ??zcl_ProcessMessageMSG_26:
   \   00045D   7906         MOV       R1,#0x6
   \   00045F   8008         SJMP      ??zcl_ProcessMessageMSG_1
   2389              }
   2390            }
   2391            else
   2392            {
   2393              if ( defaultResponseSent )
   \                     ??zcl_ProcessMessageMSG_25:
   \   000461   5004         JNC       ??zcl_ProcessMessageMSG_27
   2394              {
   2395                return ( ZCL_PROC_NOT_HANDLED_DR );
   \   000463   7909         MOV       R1,#0x9
   \   000465   8002         SJMP      ??zcl_ProcessMessageMSG_1
   2396              }
   2397              else
   2398              {
   2399                return ( ZCL_PROC_NOT_HANDLED );
   \                     ??zcl_ProcessMessageMSG_27:
   \   000467   7908         MOV       R1,#0x8
   \                     ??zcl_ProcessMessageMSG_1:
   \   000469   7415         MOV       A,#0x15
   2400              }
   2401            }
   \   00046B   02....       LJMP      ?Subroutine8 & 0xFFFF
   2402          }

   \                                 In  segment BANKED_CODE, align 1, keep-with-next
   \                     ?Subroutine198:
   \   000000   E0           MOVX      A,@DPTR
   \   000001                REQUIRE ??Subroutine227_0
   \   000001                ; // Fall through to label ??Subroutine227_0

   \                                 In  segment BANKED_CODE, align 1, keep-with-next
   \                     ??Subroutine227_0:
   \   000000   28           ADD       A,R0
   \   000001   F8           MOV       R0,A
   \   000002   A3           INC       DPTR
   \   000003   E0           MOVX      A,@DPTR
   \   000004   39           ADDC      A,R1
   \   000005   F9           MOV       R1,A
   \   000006   22           RET

   \                                 In  segment BANKED_CODE, align 1, keep-with-next
   \                     ?Subroutine101:
   \   000000   12....       LCALL     ?Subroutine189 & 0xFFFF
   \                     ??CrossCallReturnLabel_317:
   \   000003                ; Setup parameters for call to function zcl_SendDefaultRspCmd
   \   000003                ; Setup parameters for call to function zcl_SendDefaultRspCmd
   \   000003   7408         MOV       A,#0x8
   \   000005   22           RET

   \                                 In  segment BANKED_CODE, align 1, keep-with-next
   \                     ?Subroutine99:
   \   000000   E0           MOVX      A,@DPTR
   \   000001   2406         ADD       A,#0x6
   \   000003   FA           MOV       R2,A
   \   000004   A3           INC       DPTR
   \   000005   E0           MOVX      A,@DPTR
   \   000006   3400         ADDC      A,#0x0
   \   000008   FB           MOV       R3,A
   \   000009   7409         MOV       A,#0x9
   \   00000B   22           RET

   \                                 In  segment BANKED_CODE, align 1, keep-with-next
   \                     ?Subroutine78:
   \   000000   12....       LCALL     ?Subroutine205 & 0xFFFF
   \                     ??CrossCallReturnLabel_546:
   \   000003   C8           XCH       A,R0
   \   000004   2415         ADD       A,#0x15
   \   000006   F582         MOV       DPL,A
   \   000008   E4           CLR       A
   \   000009   38           ADDC      A,R0
   \   00000A   F583         MOV       DPH,A
   \   00000C   E0           MOVX      A,@DPTR
   \   00000D   22           RET

   \                                 In  segment BANKED_CODE, align 1, keep-with-next
   \                     ?Subroutine72:
   \   000000   12....       LCALL     ?Subroutine181 & 0xFFFF
   \                     ??CrossCallReturnLabel_309:
   \   000003   F9           MOV       R1,A
   \   000004   12....       LCALL     `??zcl_SendDefaultRspCmd::?relay`; Banked call to: zcl_SendDefaultRspCmd
   \   000007   7407         MOV       A,#0x7
   \   000009   22           RET

   \                                 In  segment BANKED_CODE, align 1, keep-with-next
   \                     ?Subroutine69:
   \   000000   12....       LCALL     ?Subroutine170 & 0xFFFF
   \                     ??CrossCallReturnLabel_294:
   \   000003   12....       LCALL     ?Subroutine172 & 0xFFFF
   \                     ??CrossCallReturnLabel_622:
   \   000006   7409         MOV       A,#0x9
   \   000008   22           RET

   \                                 In  segment BANKED_CODE, align 1, keep-with-next
   \                     ?Subroutine64:
   \   000000   A3           INC       DPTR
   \   000001   A3           INC       DPTR
   \   000002   A3           INC       DPTR
   \   000003   A3           INC       DPTR
   \   000004                REQUIRE ??Subroutine228_0
   \   000004                ; // Fall through to label ??Subroutine228_0

   \                                 In  segment BANKED_CODE, align 1, keep-with-next
   \                     ??Subroutine228_0:
   \   000000   12....       LCALL     ?Subroutine205 & 0xFFFF
   \                     ??CrossCallReturnLabel_551:
   \   000003   8882         MOV       DPL,R0
   \   000005   F583         MOV       DPH,A
   \   000007   E582         MOV       A,DPL
   \   000009   4583         ORL       A,DPH
   \   00000B   22           RET

   \                                 In  segment BANKED_CODE, align 1, keep-with-next
   \                     ?Subroutine60:
   \   000000   85..82       MOV       DPL,?V2
   \   000003   85..83       MOV       DPH,?V3
   \   000006   12....       LCALL     ??Subroutine254_0 & 0xFFFF
   \                     ??CrossCallReturnLabel_664:
   \   000009   85..82       MOV       DPL,?V0
   \   00000C   85..83       MOV       DPH,?V1
   \   00000F   E0           MOVX      A,@DPTR
   \   000010   F9           MOV       R1,A
   \   000011   22           RET

   \                                 In  segment BANKED_CODE, align 1, keep-with-next
   \                     ?Subroutine8:
   \   000000   12....       LCALL     ?DEALLOC_XSTACK8
   \   000003                REQUIRE ??Subroutine233_0
   \   000003                ; // Fall through to label ??Subroutine233_0

   \                                 In  segment BANKED_CODE, align 1, keep-with-next
   \                     ?Subroutine50:
   \   000000   12....       LCALL     ?Subroutine170 & 0xFFFF
   \                     ??CrossCallReturnLabel_293:
   \   000003                REQUIRE ??Subroutine234_0
   \   000003                ; // Fall through to label ??Subroutine234_0

   \                                 In  segment BANKED_CODE, align 1, keep-with-next
   \                     ??Subroutine240_0:
   \   000000   E0           MOVX      A,@DPTR
   \   000001   F5..         MOV       ?V6,A
   \   000003   A3           INC       DPTR
   \   000004   E0           MOVX      A,@DPTR
   \   000005   F5..         MOV       ?V7,A
   \   000007   22           RET

   \                                 In  segment BANKED_CODE, align 1, keep-with-next
   \                     ?Subroutine148:
   \   000000   13           RRC       A
   \   000001   13           RRC       A
   \   000002   13           RRC       A
   \   000003   541F         ANL       A,#0x1f
   \   000005   6401         XRL       A,#0x1
   \   000007   5401         ANL       A,#0x1
   \   000009   F5..         MOV       ?V0,A
   \   00000B   78..         MOV       R0,#?V0
   \   00000D   22           RET

   \                                 In  segment BANKED_CODE, align 1, keep-with-next
   \                     ?Subroutine170:
   \   000000   12....       LCALL     ?Subroutine205 & 0xFFFF
   \                     ??CrossCallReturnLabel_548:
   \   000003   F583         MOV       DPH,A
   \   000005   8882         MOV       DPL,R0
   \   000007   22           RET

   \                                 In  segment BANKED_CODE, align 1, keep-with-next
   \                     ??Subroutine263_0:
   \   000000   12....       LCALL     ??Subroutine265_0 & 0xFFFF
   \                     ??CrossCallReturnLabel_623:
   \   000003   22           RET

   \                                 In  segment BANKED_CODE, align 1, keep-with-next
   \                     ?Subroutine172:
   \   000000   A3           INC       DPTR
   \   000001   A3           INC       DPTR
   \   000002   A3           INC       DPTR
   \   000003   A3           INC       DPTR
   \   000004                REQUIRE ??Subroutine265_0
   \   000004                ; // Fall through to label ??Subroutine265_0

   \                                 In  segment BANKED_CODE, align 1, keep-with-next
   \                     ??Subroutine269_0:
   \   000000   12....       LCALL     ?Subroutine182 & 0xFFFF
   \                     ??CrossCallReturnLabel_644:
   \   000003   F5..         MOV       ?V4,A
   \   000005   78..         MOV       R0,#?V4
   \   000007   22           RET

   \                                 In  segment BANKED_CODE, align 1, keep-with-next
   \                     ?Subroutine182:
   \   000000   12....       LCALL     ?Subroutine209 & 0xFFFF
   \                     ??CrossCallReturnLabel_658:
   \   000003   6401         XRL       A,#0x1
   \   000005   5401         ANL       A,#0x1
   \   000007   22           RET

   \                                 In  segment BANKED_CODE, align 1, keep-with-next
   \                     ?Subroutine209:
   \   000000   E0           MOVX      A,@DPTR
   \   000001   13           RRC       A
   \   000002   13           RRC       A
   \   000003   13           RRC       A
   \   000004   541F         ANL       A,#0x1f
   \   000006   22           RET

   \                                 In  segment BANKED_CODE, align 1, keep-with-next
   \                     ?Subroutine189:
   \   000000   12....       LCALL     ?Subroutine206 & 0xFFFF
   \                     ??CrossCallReturnLabel_346:
   \   000003   F0           MOVX      @DPTR,A
   \   000004   22           RET

   \                                 In  segment BANKED_CODE, align 1, keep-with-next
   \                     ?Subroutine109:
   \   000000   12....       LCALL     ??Subroutine254_0 & 0xFFFF
   \                     ??CrossCallReturnLabel_667:
   \   000003   12....       LCALL     `??osal_mem_free::?relay`; Banked call to: osal_mem_free
   \   000006   22           RET
   2403          
   2404          /*********************************************************************
   2405           * PRIVATE FUNCTIONS
   2406           *********************************************************************/
   2407          
   2408          /*********************************************************************
   2409           * @fn      zclParseHdr
   2410           *
   2411           * @brief   Parse header of the ZCL format
   2412           *
   2413           * @param   hdr - place to put the frame control information
   2414           * @param   pData - incoming buffer to parse
   2415           *
   2416           * @return  pointer past the header
   2417           */

   \                                 In  segment BANKED_CODE, align 1, keep-with-next
   2418          uint8 *zclParseHdr( zclFrameHdr_t *hdr, uint8 *pData )
   \                     zclParseHdr:
   2419          {
   \   000000                REQUIRE ?V0
   \   000000                REQUIRE ?V1
   \   000000                REQUIRE ?V2
   \   000000                REQUIRE ?V3
   \   000000   74F4         MOV       A,#-0xc
   \   000002   12....       LCALL     ?BANKED_ENTER_XDATA
   \   000005                ; Saved register size: 12
   \   000005                ; Auto size: 0
   \   000005   8A..         MOV       ?V0,R2
   \   000007   8B..         MOV       ?V1,R3
   \   000009   EC           MOV       A,R4
   \   00000A   FE           MOV       R6,A
   \   00000B   ED           MOV       A,R5
   \   00000C   FF           MOV       R7,A
   2420            // Clear the header
   2421            zcl_memset( (uint8 *)hdr, 0, sizeof ( zclFrameHdr_t ) );
   \   00000D                ; Setup parameters for call to function osal_memset
   \   00000D   7C06         MOV       R4,#0x6
   \   00000F   7D00         MOV       R5,#0x0
   \   000011   7900         MOV       R1,#0x0
   \   000013   12....       LCALL     `??osal_memset::?relay`; Banked call to: osal_memset
   2422          
   2423            // Parse the Frame Control
   2424            hdr->fc.type = zcl_FCType( *pData );
   \   000016   85..82       MOV       DPL,?V0
   \   000019   85..83       MOV       DPH,?V1
   \   00001C   E0           MOVX      A,@DPTR
   \   00001D   54FC         ANL       A,#0xfc
   \   00001F   F8           MOV       R0,A
   \   000020   A3           INC       DPTR
   \   000021   E0           MOVX      A,@DPTR
   \   000022   F9           MOV       R1,A
   \   000023   8E82         MOV       DPL,R6
   \   000025   8F83         MOV       DPH,R7
   \   000027   E0           MOVX      A,@DPTR
   \   000028   5403         ANL       A,#0x3
   \   00002A   FA           MOV       R2,A
   \   00002B   E8           MOV       A,R0
   \   00002C   4A           ORL       A,R2
   \   00002D   85..82       MOV       DPL,?V0
   \   000030   85..83       MOV       DPH,?V1
   \   000033   F0           MOVX      @DPTR,A
   \   000034   A3           INC       DPTR
   \   000035   E9           MOV       A,R1
   \   000036   12....       LCALL     ?Subroutine31 & 0xFFFF
   2425            hdr->fc.manuSpecific = zcl_FCManuSpecific( *pData ) ? 1 : 0;
   \                     ??CrossCallReturnLabel_32:
   \   000039   A2E2         MOV       C,0xE0 /* A   */.2
   \   00003B   5004         JNC       ??zclParseHdr_0
   \   00003D   D2F0         SETB      B.0
   \   00003F   8002         SJMP      ??zclParseHdr_1
   \                     ??zclParseHdr_0:
   \   000041   C2F0         CLR       B.0
   \                     ??zclParseHdr_1:
   \   000043   85..82       MOV       DPL,?V0
   \   000046   85..83       MOV       DPH,?V1
   \   000049   E0           MOVX      A,@DPTR
   \   00004A   54FB         ANL       A,#0xfb
   \   00004C   F0           MOVX      @DPTR,A
   \   00004D   A2F0         MOV       C,B.0
   \   00004F   E4           CLR       A
   \   000050   33           RLC       A
   \   000051   F5..         MOV       ?V2,A
   \   000053   75..00       MOV       ?V3,#0x0
   \   000056   7402         MOV       A,#0x2
   \   000058   78..         MOV       R0,#?V2
   \   00005A   12....       LCALL     ?S_SHL
   \   00005D   E0           MOVX      A,@DPTR
   \   00005E   45..         ORL       A,?V2
   \   000060   12....       LCALL     ?Subroutine31 & 0xFFFF
   2426            if ( zcl_FCDirection( *pData ) )
   \                     ??CrossCallReturnLabel_33:
   \   000063   A2E3         MOV       C,0xE0 /* A   */.3
   \   000065   85..82       MOV       DPL,?V0
   \   000068   85..83       MOV       DPH,?V1
   \   00006B   E0           MOVX      A,@DPTR
   \   00006C   5004         JNC       ??zclParseHdr_2
   2427            {
   2428              hdr->fc.direction = ZCL_FRAME_SERVER_CLIENT_DIR;
   \   00006E   4408         ORL       A,#0x8
   \   000070   8002         SJMP      ??zclParseHdr_3
   2429            }
   2430            else
   2431            {
   2432              hdr->fc.direction = ZCL_FRAME_CLIENT_SERVER_DIR;
   \                     ??zclParseHdr_2:
   \   000072   54F7         ANL       A,#0xf7
   2433            }
   \                     ??zclParseHdr_3:
   \   000074   12....       LCALL     ?Subroutine31 & 0xFFFF
   2434          
   2435            hdr->fc.disableDefaultRsp = zcl_FCDisableDefaultRsp( *pData ) ? 1 : 0;
   \                     ??CrossCallReturnLabel_34:
   \   000077   A2E4         MOV       C,0xE0 /* A   */.4
   \   000079   5004         JNC       ??zclParseHdr_4
   \   00007B   D2F0         SETB      B.0
   \   00007D   8002         SJMP      ??zclParseHdr_5
   \                     ??zclParseHdr_4:
   \   00007F   C2F0         CLR       B.0
   \                     ??zclParseHdr_5:
   \   000081   85..82       MOV       DPL,?V0
   \   000084   85..83       MOV       DPH,?V1
   \   000087   E0           MOVX      A,@DPTR
   \   000088   54EF         ANL       A,#0xef
   \   00008A   F0           MOVX      @DPTR,A
   \   00008B   A2F0         MOV       C,B.0
   \   00008D   E4           CLR       A
   \   00008E   33           RLC       A
   \   00008F   F5..         MOV       ?V2,A
   \   000091   7404         MOV       A,#0x4
   \   000093   78..         MOV       R0,#?V2
   \   000095   12....       LCALL     ?S_SHL
   \   000098   E0           MOVX      A,@DPTR
   \   000099   45..         ORL       A,?V2
   \   00009B   12....       LCALL     ?Subroutine22 & 0xFFFF
   2436            pData++;  // move past the frame control field
   2437          
   2438            // parse the manfacturer code
   2439            if ( hdr->fc.manuSpecific )
   \                     ??CrossCallReturnLabel_15:
   \   00009E   85..82       MOV       DPL,?V0
   \   0000A1   85..83       MOV       DPH,?V1
   \   0000A4   E0           MOVX      A,@DPTR
   \   0000A5   5404         ANL       A,#0x4
   \   0000A7   6010         JZ        ??zclParseHdr_6
   2440            {
   2441              hdr->manuCode = BUILD_UINT16( pData[0], pData[1] );
   \   0000A9   8E82         MOV       DPL,R6
   \   0000AB   8F83         MOV       DPH,R7
   \   0000AD   E0           MOVX      A,@DPTR
   \   0000AE   FA           MOV       R2,A
   \   0000AF   A3           INC       DPTR
   \   0000B0   12....       LCALL     ?Subroutine103 & 0xFFFF
   2442              pData += 2;
   2443            }
   \                     ??CrossCallReturnLabel_173:
   \   0000B3   12....       LCALL     ?Subroutine25 & 0xFFFF
   \                     ??CrossCallReturnLabel_444:
   \   0000B6   5001         JNC       ??zclParseHdr_6
   \   0000B8   0F           INC       R7
   2444          
   2445            // parse the Transaction Sequence Number
   2446            hdr->transSeqNum = *pData++;
   \                     ??zclParseHdr_6:
   \   0000B9   8E82         MOV       DPL,R6
   \   0000BB   8F83         MOV       DPH,R7
   \   0000BD   12....       LCALL     ?Subroutine97 & 0xFFFF
   \                     ??CrossCallReturnLabel_163:
   \   0000C0   12....       LCALL     ?Subroutine39 & 0xFFFF
   2447          
   2448            // parse the Cluster's command ID
   2449            hdr->commandID = *pData++;
   \                     ??CrossCallReturnLabel_48:
   \   0000C3   12....       LCALL     ?Subroutine97 & 0xFFFF
   \                     ??CrossCallReturnLabel_164:
   \   0000C6   A3           INC       DPTR
   \   0000C7   F0           MOVX      @DPTR,A
   2450          
   2451            // Should point to the frame payload
   2452            return ( pData );
   \   0000C8   EE           MOV       A,R6
   \   0000C9   12....       LCALL     ?Subroutine194 & 0xFFFF
   \                     ??CrossCallReturnLabel_323:
   \   0000CC   3F           ADDC      A,R7
   \   0000CD   FB           MOV       R3,A
   \   0000CE   02....       LJMP      ??Subroutine213_0 & 0xFFFF
   2453          }

   \                                 In  segment BANKED_CODE, align 1, keep-with-next
   \                     ?Subroutine97:
   \   000000   12....       LCALL     ?Subroutine190 & 0xFFFF
   \                     ??CrossCallReturnLabel_319:
   \   000003   A3           INC       DPTR
   \   000004   A3           INC       DPTR
   \   000005   A3           INC       DPTR
   \   000006   22           RET

   \                                 In  segment BANKED_CODE, align 1, keep-with-next
   \                     ?Subroutine25:
   \   000000   A3           INC       DPTR
   \   000001                REQUIRE ??Subroutine229_0
   \   000001                ; // Fall through to label ??Subroutine229_0

   \                                 In  segment BANKED_CODE, align 1, keep-with-next
   \                     ??Subroutine229_0:
   \   000000   A3           INC       DPTR
   \   000001   F0           MOVX      @DPTR,A
   \   000002   A3           INC       DPTR
   \   000003   E9           MOV       A,R1
   \   000004   F0           MOVX      @DPTR,A
   \   000005   EE           MOV       A,R6
   \   000006   2402         ADD       A,#0x2
   \   000008   FE           MOV       R6,A
   \   000009   22           RET

   \                                 In  segment BANKED_CODE, align 1, keep-with-next
   \                     ?Subroutine22:
   \   000000   12....       LCALL     ?Subroutine161 & 0xFFFF
   \                     ??CrossCallReturnLabel_519:
   \   000003   22           RET

   \                                 In  segment BANKED_CODE, align 1, keep-with-next
   \                     ?Subroutine161:
   \   000000   F0           MOVX      @DPTR,A
   \   000001   8E82         MOV       DPL,R6
   \   000003   8F83         MOV       DPH,R7
   \   000005   A3           INC       DPTR
   \   000006   AE82         MOV       R6,DPL
   \   000008   AF83         MOV       R7,DPH
   \   00000A   22           RET

   \                                 In  segment BANKED_CODE, align 1, keep-with-next
   \                     ?Subroutine103:
   \   000000   E0           MOVX      A,@DPTR
   \   000001   F9           MOV       R1,A
   \   000002   EA           MOV       A,R2
   \   000003   85..82       MOV       DPL,?V0
   \   000006   85..83       MOV       DPH,?V1
   \   000009   22           RET

   \                                 In  segment BANKED_CODE, align 1, keep-with-next
   \                     ?Subroutine31:
   \   000000   12....       LCALL     ?Subroutine169 & 0xFFFF
   \                     ??CrossCallReturnLabel_291:
   \   000003   E0           MOVX      A,@DPTR
   \   000004   22           RET
   2454          
   2455          /*********************************************************************
   2456           * @fn      zclBuildHdr
   2457           *
   2458           * @brief   Build header of the ZCL format
   2459           *
   2460           * @param   hdr - outgoing header information
   2461           * @param   pData - outgoing header space
   2462           *
   2463           * @return  pointer past the header
   2464           */

   \                                 In  segment BANKED_CODE, align 1, keep-with-next
   2465          static uint8 *zclBuildHdr( zclFrameHdr_t *hdr, uint8 *pData )
   \                     zclBuildHdr:
   2466          {
   \   000000   74F7         MOV       A,#-0x9
   \   000002   12....       LCALL     ?BANKED_ENTER_XDATA
   \   000005                ; Saved register size: 9
   \   000005                ; Auto size: 0
   2467            // Build the Frame Control byte
   2468            *pData = hdr->fc.type;
   \   000005   8A82         MOV       DPL,R2
   \   000007   8B83         MOV       DPH,R3
   \   000009   E0           MOVX      A,@DPTR
   \   00000A   5403         ANL       A,#0x3
   \   00000C   8C82         MOV       DPL,R4
   \   00000E   8D83         MOV       DPH,R5
   \   000010   12....       LCALL     ??Subroutine231_0 & 0xFFFF
   2469            *pData |= hdr->fc.manuSpecific << 2;
   \                     ??CrossCallReturnLabel_452:
   \   000013   5404         ANL       A,#0x4
   \   000015   12....       LCALL     ?Subroutine37 & 0xFFFF
   2470            *pData |= hdr->fc.direction << 3;
   \                     ??CrossCallReturnLabel_450:
   \   000018   5408         ANL       A,#0x8
   \   00001A   12....       LCALL     ?Subroutine37 & 0xFFFF
   2471            *pData |= hdr->fc.disableDefaultRsp << 4;
   \                     ??CrossCallReturnLabel_451:
   \   00001D   5410         ANL       A,#0x10
   \   00001F   F8           MOV       R0,A
   \   000020   8C82         MOV       DPL,R4
   \   000022   8D83         MOV       DPH,R5
   \   000024   E0           MOVX      A,@DPTR
   \   000025   48           ORL       A,R0
   \   000026   F0           MOVX      @DPTR,A
   2472            pData++;  // move past the frame control field
   \   000027   A3           INC       DPTR
   \   000028   AC82         MOV       R4,DPL
   \   00002A   AD83         MOV       R5,DPH
   2473          
   2474            // Add the manfacturer code
   2475            if ( hdr->fc.manuSpecific )
   \   00002C   8A82         MOV       DPL,R2
   \   00002E   8B83         MOV       DPH,R3
   \   000030   E0           MOVX      A,@DPTR
   \   000031   5404         ANL       A,#0x4
   \   000033   6016         JZ        ??zclBuildHdr_0
   2476            {
   2477              *pData++ = LO_UINT16( hdr->manuCode );
   \   000035   12....       LCALL     ?Subroutine142 & 0xFFFF
   2478              *pData++ = HI_UINT16( hdr->manuCode );
   2479            }
   \                     ??CrossCallReturnLabel_449:
   \   000038   12....       LCALL     ??Subroutine238_0 & 0xFFFF
   \                     ??CrossCallReturnLabel_482:
   \   00003B   12....       LCALL     ??Subroutine220_0 & 0xFFFF
   \                     ??CrossCallReturnLabel_395:
   \   00003E   8C82         MOV       DPL,R4
   \   000040   8D83         MOV       DPH,R5
   \   000042   A3           INC       DPTR
   \   000043   F0           MOVX      @DPTR,A
   \   000044   EC           MOV       A,R4
   \   000045   2402         ADD       A,#0x2
   \   000047   FC           MOV       R4,A
   \   000048   5001         JNC       ??zclBuildHdr_0
   \   00004A   0D           INC       R5
   2480          
   2481            // Add the Transaction Sequence Number
   2482            *pData++ = hdr->transSeqNum;
   \                     ??zclBuildHdr_0:
   \   00004B   8A82         MOV       DPL,R2
   \   00004D   8B83         MOV       DPH,R3
   \   00004F   A3           INC       DPTR
   \   000050   A3           INC       DPTR
   \   000051   A3           INC       DPTR
   \   000052   12....       LCALL     ?Subroutine98 & 0xFFFF
   \                     ??CrossCallReturnLabel_486:
   \   000055   12....       LCALL     ?Subroutine34 & 0xFFFF
   2483          
   2484            // Add the Cluster's command ID
   2485            *pData++ = hdr->commandID;
   \                     ??CrossCallReturnLabel_39:
   \   000058   12....       LCALL     ??Subroutine238_0 & 0xFFFF
   \                     ??CrossCallReturnLabel_483:
   \   00005B   A3           INC       DPTR
   \   00005C   F0           MOVX      @DPTR,A
   2486          
   2487            // Should point to the frame payload
   2488            return ( pData );
   \   00005D   EC           MOV       A,R4
   \   00005E   12....       LCALL     ?Subroutine194 & 0xFFFF
   \                     ??CrossCallReturnLabel_324:
   \   000061   3D           ADDC      A,R5
   \   000062   FB           MOV       R3,A
   \   000063   80..         SJMP      ??Subroutine232_0
   2489          }

   \                                 In  segment BANKED_CODE, align 1, keep-with-next
   \                     ?Subroutine37:
   \   000000   F8           MOV       R0,A
   \   000001   8C82         MOV       DPL,R4
   \   000003   8D83         MOV       DPH,R5
   \   000005   E0           MOVX      A,@DPTR
   \   000006   48           ORL       A,R0
   \   000007                REQUIRE ??Subroutine231_0
   \   000007                ; // Fall through to label ??Subroutine231_0

   \                                 In  segment BANKED_CODE, align 1, keep-with-next
   \                     ??Subroutine231_0:
   \   000000   F0           MOVX      @DPTR,A
   \   000001   8A82         MOV       DPL,R2
   \   000003   8B83         MOV       DPH,R3
   \   000005   E0           MOVX      A,@DPTR
   \   000006   22           RET
   2490          
   2491          /*********************************************************************
   2492           * @fn      zclCalcHdrSize
   2493           *
   2494           * @brief   Calculate the number of bytes needed for an outgoing
   2495           *          ZCL header.
   2496           *
   2497           * @param   hdr - outgoing header information
   2498           *
   2499           * @return  returns the number of bytes needed
   2500           */
   2501          static uint8 zclCalcHdrSize( zclFrameHdr_t *hdr )
   2502          {
   2503            uint8 needed = (1 + 1 + 1); // frame control + transaction seq num + cmd ID
   2504          
   2505            // Add the manfacturer code
   2506            if ( hdr->fc.manuSpecific )
   2507            {
   2508              needed += 2;
   2509            }
   2510          
   2511            return ( needed );
   2512          }
   2513          
   2514          /*********************************************************************
   2515           * @fn      zclFindPlugin
   2516           *
   2517           * @brief   Find the right plugin for a cluster ID
   2518           *
   2519           * @param   clusterID - cluster ID to look for
   2520           * @param   profileID - profile ID
   2521           *
   2522           * @return  pointer to plugin, NULL if not found
   2523           */
   2524          static zclLibPlugin_t *zclFindPlugin( uint16 clusterID, uint16 profileID )
   2525          {
   2526            zclLibPlugin_t *pLoop = plugins;
   2527          
   2528            (void)profileID;  // Intentionally unreferenced parameter
   2529          
   2530            while ( pLoop != NULL )
   2531            {
   2532              if ( ( clusterID >= pLoop->startClusterID ) && ( clusterID <= pLoop->endClusterID ) )
   2533              {
   2534                return ( pLoop );
   2535              }
   2536          
   2537              pLoop = pLoop->next;
   2538            }
   2539          
   2540            return ( (zclLibPlugin_t *)NULL );
   2541          }
   2542          
   2543          #ifdef ZCL_DISCOVER
   2544          /*********************************************************************
   2545           * @fn      zclFindCmdRecsList
   2546           *
   2547           * @brief   Find the right command record list for an endpoint
   2548           *
   2549           * @param   endpoint - endpoint to look for
   2550           *
   2551           * @return  pointer to record list, NULL if not found
   2552           */

   \                                 In  segment BANKED_CODE, align 1, keep-with-next
   2553          static zclCmdRecsList_t *zclFindCmdRecsList( uint8 endpoint )
   \                     zclFindCmdRecsList:
   2554          {
   \   000000   C082         PUSH      DPL
   \   000002   C083         PUSH      DPH
   \   000004                ; Saved register size: 2
   \   000004                ; Auto size: 0
   2555            zclCmdRecsList_t *pLoop = gpCmdList;
   \   000004   90....       MOV       DPTR,#gpCmdList
   \   000007   8004         SJMP      ??zclFindCmdRecsList_0
   2556          
   2557            while ( pLoop != NULL )
   2558            {
   2559              if ( pLoop->endpoint == endpoint )
   2560              {
   2561                return ( pLoop );
   2562              }
   2563          
   2564              pLoop = pLoop->pNext;
   \                     ??zclFindCmdRecsList_1:
   \   000009   8A82         MOV       DPL,R2
   \   00000B   8B83         MOV       DPH,R3
   \                     ??zclFindCmdRecsList_0:
   \   00000D   12....       LCALL     ??Subroutine215_0 & 0xFFFF
   \                     ??CrossCallReturnLabel_368:
   \   000010   600C         JZ        ??zclFindCmdRecsList_2
   \   000012   8A82         MOV       DPL,R2
   \   000014   8B83         MOV       DPH,R3
   \   000016   A3           INC       DPTR
   \   000017   A3           INC       DPTR
   \   000018   E0           MOVX      A,@DPTR
   \   000019   69           XRL       A,R1
   \   00001A   70ED         JNZ       ??zclFindCmdRecsList_1
   \   00001C   8004         SJMP      ??zclFindCmdRecsList_3
   2565            }
   2566          
   2567            return ( NULL );
   \                     ??zclFindCmdRecsList_2:
   \   00001E   7A00         MOV       R2,#0x0
   \   000020   7B00         MOV       R3,#0x0
   \                     ??zclFindCmdRecsList_3:
   \   000022   02....       LJMP      ?Subroutine0 & 0xFFFF
   2568          }
   2569          
   2570          /*********************************************************************
   2571           * @fn      zclFindCmdRec
   2572           *
   2573           * @brief   Find the command record that matchs the parameters
   2574           *
   2575           * @param   endpoint - Application's endpoint
   2576           * @param   clusterID - cluster ID
   2577           * @param   attrId - attribute looking for
   2578           * @param   pAttr - attribute record to be returned
   2579           *
   2580           * @return  TRUE if record found. FALSE, otherwise.
   2581           */

   \                                 In  segment BANKED_CODE, align 1, keep-with-next
   2582          uint8 zclFindCmdRec( uint8 endpoint, uint16 clusterID, uint8 cmdID, zclCommandRec_t *pCmd )
   \                     zclFindCmdRec:
   2583          {
   \   000000                REQUIRE ?V0
   \   000000                REQUIRE ?V1
   \   000000                REQUIRE ?V2
   \   000000                REQUIRE ?V3
   \   000000                REQUIRE ?V4
   \   000000                REQUIRE ?V5
   \   000000   74F2         MOV       A,#-0xe
   \   000002   12....       LCALL     ?BANKED_ENTER_XDATA
   \   000005                ; Saved register size: 14
   \   000005                ; Auto size: 0
   \   000005   EA           MOV       A,R2
   \   000006   FE           MOV       R6,A
   \   000007   EB           MOV       A,R3
   \   000008   FF           MOV       R7,A
   \   000009   8C..         MOV       ?V1,R4
   2584            uint8 i;
   2585            zclCmdRecsList_t *pRec = zclFindCmdRecsList( endpoint );
   \   00000B                ; Setup parameters for call to function zclFindCmdRecsList
   \   00000B   12....       LCALL     `??zclFindCmdRecsList::?relay`; Banked call to: zclFindCmdRecsList
   \   00000E   8A..         MOV       ?V2,R2
   \   000010   8B..         MOV       ?V3,R3
   2586          
   2587            if ( pRec != NULL )
   \   000012   EA           MOV       A,R2
   \   000013   4B           ORL       A,R3
   \   000014   6051         JZ        ??zclFindCmdRec_0
   2588            {
   2589              for ( i = 0; i < pRec->numCommands; i++ )
   \   000016   7C00         MOV       R4,#0x0
   \   000018   8001         SJMP      ??zclFindCmdRec_1
   \                     ??zclFindCmdRec_2:
   \   00001A   0C           INC       R4
   \                     ??zclFindCmdRec_1:
   \   00001B   85..82       MOV       DPL,?V2
   \   00001E   85..83       MOV       DPH,?V3
   \   000021   A3           INC       DPTR
   \   000022   A3           INC       DPTR
   \   000023   A3           INC       DPTR
   \   000024   E0           MOVX      A,@DPTR
   \   000025   F8           MOV       R0,A
   \   000026   EC           MOV       A,R4
   \   000027   C3           CLR       C
   \   000028   98           SUBB      A,R0
   \   000029   503C         JNC       ??zclFindCmdRec_0
   2590              {
   2591                if ( pRec->pCmdRecs[i].clusterID == clusterID && pRec->pCmdRecs[i].cmdID == cmdID )
   \   00002B   EC           MOV       A,R4
   \   00002C   F5..         MOV       ?V4,A
   \   00002E   75..00       MOV       ?V5,#0x0
   \   000031   7402         MOV       A,#0x2
   \   000033   78..         MOV       R0,#?V4
   \   000035   12....       LCALL     ?S_SHL
   \   000038   85..82       MOV       DPL,?V2
   \   00003B   85..83       MOV       DPH,?V3
   \   00003E   12....       LCALL     ?Subroutine120 & 0xFFFF
   \                     ??CrossCallReturnLabel_203:
   \   000041   8882         MOV       DPL,R0
   \   000043   F583         MOV       DPH,A
   \   000045   12....       LCALL     ?Subroutine159 & 0xFFFF
   \                     ??CrossCallReturnLabel_269:
   \   000048   7002         JNZ       ??zclFindCmdRec_3
   \   00004A   EF           MOV       A,R7
   \   00004B   6B           XRL       A,R3
   \                     ??zclFindCmdRec_3:
   \   00004C   70CC         JNZ       ??zclFindCmdRec_2
   \   00004E   A3           INC       DPTR
   \   00004F   A3           INC       DPTR
   \   000050   E4           CLR       A
   \   000051   93           MOVC      A,@A+DPTR
   \   000052   65..         XRL       A,?V1
   \   000054   70C4         JNZ       ??zclFindCmdRec_2
   2592                {
   2593                  *pCmd = pRec->pCmdRecs[i];
   \   000056   740E         MOV       A,#0xe
   \   000058   12....       LCALL     ?XSTACK_DISP0_8
   \   00005B   12....       LCALL     ?Subroutine111 & 0xFFFF
   \                     ??CrossCallReturnLabel_185:
   \   00005E   7404         MOV       A,#0x4
   \   000060   12....       LCALL     ?MOVE_LONG8_XDATA_CODE
   2594          
   2595                  return ( TRUE ); // EMBEDDED RETURN
   \   000063   7901         MOV       R1,#0x1
   \   000065   8002         SJMP      ??zclFindCmdRec_4
   2596                }
   2597              }
   2598            }
   2599          
   2600            return ( FALSE );
   \                     ??zclFindCmdRec_0:
   \   000067   7900         MOV       R1,#0x0
   \                     ??zclFindCmdRec_4:
   \   000069   02....       LJMP      ?Subroutine4 & 0xFFFF
   2601          }

   \                                 In  segment BANKED_CODE, align 1, keep-with-next
   \                     ?Subroutine159:
   \   000000   E4           CLR       A
   \   000001   93           MOVC      A,@A+DPTR
   \   000002   FA           MOV       R2,A
   \   000003   7401         MOV       A,#0x1
   \   000005   93           MOVC      A,@A+DPTR
   \   000006   FB           MOV       R3,A
   \   000007   EE           MOV       A,R6
   \   000008   6A           XRL       A,R2
   \   000009   22           RET

   \                                 In  segment BANKED_CODE, align 1, keep-with-next
   \                     ?Subroutine111:
   \   000000   12....       LCALL     ??Subroutine265_0 & 0xFFFF
   \                     ??CrossCallReturnLabel_619:
   \   000003   8983         MOV       DPH,R1
   \   000005   8882         MOV       DPL,R0
   \   000007   22           RET

   \                                 In  segment BANKED_CODE, align 1, keep-with-next
   \                     ?Subroutine120:
   \   000000   A3           INC       DPTR
   \   000001   A3           INC       DPTR
   \   000002   A3           INC       DPTR
   \   000003   A3           INC       DPTR
   \   000004   E0           MOVX      A,@DPTR
   \   000005   25..         ADD       A,?V4
   \   000007   F8           MOV       R0,A
   \   000008   A3           INC       DPTR
   \   000009   E0           MOVX      A,@DPTR
   \   00000A   35..         ADDC      A,?V5
   \   00000C   F9           MOV       R1,A
   \   00000D   22           RET
   2602          #endif // ZCL_DISCOVER
   2603          
   2604          /*********************************************************************
   2605           * @fn      zclFindAttrRecsList
   2606           *
   2607           * @brief   Find the right attribute record list for an endpoint
   2608           *
   2609           * @param   clusterID - endpointto look for
   2610           *
   2611           * @return  pointer to record list, NULL if not found
   2612           */

   \                                 In  segment BANKED_CODE, align 1, keep-with-next
   2613          zclAttrRecsList *zclFindAttrRecsList( uint8 endpoint )
   \                     zclFindAttrRecsList:
   2614          {
   \   000000   C082         PUSH      DPL
   \   000002   C083         PUSH      DPH
   \   000004                ; Saved register size: 2
   \   000004                ; Auto size: 0
   2615            zclAttrRecsList *pLoop = attrList;
   \   000004   90....       MOV       DPTR,#attrList
   \   000007   8004         SJMP      ??zclFindAttrRecsList_0
   2616          
   2617            while ( pLoop != NULL )
   2618            {
   2619              if ( pLoop->endpoint == endpoint )
   2620              {
   2621                return ( pLoop );
   2622              }
   2623          
   2624              pLoop = pLoop->next;
   \                     ??zclFindAttrRecsList_1:
   \   000009   8A82         MOV       DPL,R2
   \   00000B   8B83         MOV       DPH,R3
   \                     ??zclFindAttrRecsList_0:
   \   00000D   12....       LCALL     ??Subroutine215_0 & 0xFFFF
   \                     ??CrossCallReturnLabel_369:
   \   000010   600C         JZ        ??zclFindAttrRecsList_2
   \   000012   8A82         MOV       DPL,R2
   \   000014   8B83         MOV       DPH,R3
   \   000016   A3           INC       DPTR
   \   000017   A3           INC       DPTR
   \   000018   E0           MOVX      A,@DPTR
   \   000019   69           XRL       A,R1
   \   00001A   70ED         JNZ       ??zclFindAttrRecsList_1
   \   00001C   8004         SJMP      ??zclFindAttrRecsList_3
   2625            }
   2626          
   2627            return ( NULL );
   \                     ??zclFindAttrRecsList_2:
   \   00001E   7A00         MOV       R2,#0x0
   \   000020   7B00         MOV       R3,#0x0
   \                     ??zclFindAttrRecsList_3:
   \   000022   02....       LJMP      ?Subroutine0 & 0xFFFF
   2628          }
   2629          
   2630          /*********************************************************************
   2631           * @fn      zclFindAttrRec
   2632           *
   2633           * @brief   Find the attribute record that matchs the parameters
   2634           *
   2635           * @param   endpoint - Application's endpoint
   2636           * @param   clusterID - cluster ID
   2637           * @param   attrId - attribute looking for
   2638           * @param   pAttr - attribute record to be returned
   2639           *
   2640           * @return  TRUE if record found. FALSE, otherwise.
   2641           */

   \                                 In  segment BANKED_CODE, align 1, keep-with-next
   2642          uint8 zclFindAttrRec( uint8 endpoint, uint16 clusterID, uint16 attrId, zclAttrRec_t *pAttr )
   \                     zclFindAttrRec:
   2643          {
   \   000000                REQUIRE ?V0
   \   000000                REQUIRE ?V1
   \   000000                REQUIRE ?V2
   \   000000                REQUIRE ?V4
   \   000000                REQUIRE ?V5
   \   000000                REQUIRE ?V6
   \   000000                REQUIRE ?V7
   \   000000   74F0         MOV       A,#-0x10
   \   000002   12....       LCALL     ?BANKED_ENTER_XDATA
   \   000005                ; Saved register size: 16
   \   000005                ; Auto size: 0
   \   000005   8A..         MOV       ?V0,R2
   \   000007   8B..         MOV       ?V1,R3
   \   000009   EC           MOV       A,R4
   \   00000A   FE           MOV       R6,A
   \   00000B   ED           MOV       A,R5
   \   00000C   FF           MOV       R7,A
   2644            uint8 x;
   2645            zclAttrRecsList *pRec = zclFindAttrRecsList( endpoint );
   \   00000D                ; Setup parameters for call to function zclFindAttrRecsList
   \   00000D   12....       LCALL     `??zclFindAttrRecsList::?relay`; Banked call to: zclFindAttrRecsList
   \   000010   8A..         MOV       ?V4,R2
   \   000012   8B..         MOV       ?V5,R3
   2646          
   2647            if ( pRec != NULL )
   \   000014   EA           MOV       A,R2
   \   000015   4B           ORL       A,R3
   \   000016   6064         JZ        ??zclFindAttrRec_0
   2648            {
   2649              for ( x = 0; x < pRec->numAttributes; x++ )
   \   000018   7C00         MOV       R4,#0x0
   \   00001A   8001         SJMP      ??zclFindAttrRec_1
   \                     ??zclFindAttrRec_2:
   \   00001C   0C           INC       R4
   \                     ??zclFindAttrRec_1:
   \   00001D   85..82       MOV       DPL,?V4
   \   000020   85..83       MOV       DPH,?V5
   \   000023   A3           INC       DPTR
   \   000024   A3           INC       DPTR
   \   000025   A3           INC       DPTR
   \   000026   A3           INC       DPTR
   \   000027   A3           INC       DPTR
   \   000028   A3           INC       DPTR
   \   000029   A3           INC       DPTR
   \   00002A   E0           MOVX      A,@DPTR
   \   00002B   F8           MOV       R0,A
   \   00002C   EC           MOV       A,R4
   \   00002D   C3           CLR       C
   \   00002E   98           SUBB      A,R0
   \   00002F   504B         JNC       ??zclFindAttrRec_0
   2650              {
   2651                if ( pRec->attrs[x].clusterID == clusterID && pRec->attrs[x].attr.attrId == attrId )
   \   000031   EC           MOV       A,R4
   \   000032   F5..         MOV       ?V6,A
   \   000034   75..00       MOV       ?V7,#0x0
   \   000037   7403         MOV       A,#0x3
   \   000039   78..         MOV       R0,#?V6
   \   00003B   12....       LCALL     ?S_SHL
   \   00003E   85..82       MOV       DPL,?V4
   \   000041   85..83       MOV       DPH,?V5
   \   000044   A3           INC       DPTR
   \   000045   A3           INC       DPTR
   \   000046   A3           INC       DPTR
   \   000047   A3           INC       DPTR
   \   000048   12....       LCALL     ?Subroutine121 & 0xFFFF
   \                     ??CrossCallReturnLabel_205:
   \   00004B   8882         MOV       DPL,R0
   \   00004D   F583         MOV       DPH,A
   \   00004F   E4           CLR       A
   \   000050   93           MOVC      A,@A+DPTR
   \   000051   FA           MOV       R2,A
   \   000052   7401         MOV       A,#0x1
   \   000054   93           MOVC      A,@A+DPTR
   \   000055   FB           MOV       R3,A
   \   000056   E5..         MOV       A,?V0
   \   000058   6A           XRL       A,R2
   \   000059   7003         JNZ       ??zclFindAttrRec_3
   \   00005B   E5..         MOV       A,?V1
   \   00005D   6B           XRL       A,R3
   \                     ??zclFindAttrRec_3:
   \   00005E   70BC         JNZ       ??zclFindAttrRec_2
   \   000060   A3           INC       DPTR
   \   000061   A3           INC       DPTR
   \   000062   12....       LCALL     ?Subroutine159 & 0xFFFF
   \                     ??CrossCallReturnLabel_270:
   \   000065   7002         JNZ       ??zclFindAttrRec_4
   \   000067   EF           MOV       A,R7
   \   000068   6B           XRL       A,R3
   \                     ??zclFindAttrRec_4:
   \   000069   70B1         JNZ       ??zclFindAttrRec_2
   2652                {
   2653                  *pAttr = pRec->attrs[x];
   \   00006B   7410         MOV       A,#0x10
   \   00006D   12....       LCALL     ?XSTACK_DISP0_8
   \   000070   12....       LCALL     ?Subroutine111 & 0xFFFF
   \                     ??CrossCallReturnLabel_186:
   \   000073   7408         MOV       A,#0x8
   \   000075   12....       LCALL     ?MOVE_LONG8_XDATA_CODE
   2654          
   2655                  return ( TRUE ); // EMBEDDED RETURN
   \   000078   7901         MOV       R1,#0x1
   \   00007A   8002         SJMP      ??zclFindAttrRec_5
   2656                }
   2657              }
   2658            }
   2659          
   2660            return ( FALSE );
   \                     ??zclFindAttrRec_0:
   \   00007C   7900         MOV       R1,#0x0
   \                     ??zclFindAttrRec_5:
   \   00007E   80..         SJMP      ??Subroutine233_0
   2661          }

   \                                 In  segment BANKED_CODE, align 1, keep-with-next
   \                     ?Subroutine121:
   \   000000   A3           INC       DPTR
   \   000001   A3           INC       DPTR
   \   000002   A3           INC       DPTR
   \   000003   A3           INC       DPTR
   \   000004   E0           MOVX      A,@DPTR
   \   000005   25..         ADD       A,?V6
   \   000007   F8           MOV       R0,A
   \   000008   A3           INC       DPTR
   \   000009   E0           MOVX      A,@DPTR
   \   00000A   35..         ADDC      A,?V7
   \   00000C   F9           MOV       R1,A
   \   00000D   22           RET
   2662          
   2663          #if defined ( ZCL_STANDALONE )
   2664          /*********************************************************************
   2665           * @fn      zclSetAttrRecList
   2666           *
   2667           * @brief   Set attribute record list for end point
   2668           *
   2669           * @param   endpoint - endpoint the attribute list belongs to
   2670           * @param   numAttr - number of attributes in list
   2671           * @param   attrList - array of attribute records.
   2672           *                     NOTE: THE ATTRIBUTE IDs (FOR A CLUSTER) MUST BE
   2673           *                     IN ASCENDING ORDER. OTHERWISE, THE DISCOVERY
   2674           *                     RESPONSE COMMAND WILL NOT HAVE THE RIGHT
   2675           *                     ATTRIBUTE INFO
   2676           *
   2677           * @return  TRUE if successful, FALSE otherwise.
   2678           */
   2679          uint8 zclSetAttrRecList( uint8 endpoint, uint8 numAttr, CONST zclAttrRec_t attrList[] )
   2680          {
   2681            zclAttrRecsList *pRecsList = zclFindAttrRecsList( endpoint );
   2682          
   2683            if ( pRecsList != NULL )
   2684            {
   2685              pRecsList->numAttributes = numAttr;
   2686              pRecsList->attrs = attrList;
   2687              return ( TRUE );
   2688            }
   2689          
   2690            return ( FALSE );
   2691          }
   2692          
   2693          #endif // ZCL_STANDALONE
   2694          
   2695          #if defined ( ZCL_READ ) || defined ( ZCL_WRITE )
   2696          /*********************************************************************
   2697           * @fn      zclGetReadWriteCB
   2698           *
   2699           * @brief   Get the Read/Write callback function pointer for a given endpoint.
   2700           *
   2701           * @param   endpoint - Application's endpoint
   2702           *
   2703           * @return  Read/Write CB, NULL if not found
   2704           */

   \                                 In  segment BANKED_CODE, align 1, keep-with-next
   2705          static zclReadWriteCB_t zclGetReadWriteCB( uint8 endpoint )
   \                     zclGetReadWriteCB:
   2706          {
   \   000000                REQUIRE ?V0
   \   000000                REQUIRE ?V1
   \   000000   74F6         MOV       A,#-0xa
   \   000002   12....       LCALL     ?BANKED_ENTER_XDATA
   \   000005                ; Saved register size: 10
   \   000005                ; Auto size: 0
   2707            zclAttrRecsList *pRec = zclFindAttrRecsList( endpoint );
   \   000005                ; Setup parameters for call to function zclFindAttrRecsList
   \   000005   12....       LCALL     ?Subroutine146 & 0xFFFF
   2708          
   2709            if ( pRec != NULL )
   \                     ??CrossCallReturnLabel_249:
   \   000008   6005         JZ        ??zclGetReadWriteCB_0
   2710            {
   2711              return ( pRec->pfnReadWriteCB );
   \   00000A   12....       LCALL     ??Subroutine251_0 & 0xFFFF
   2712            }
   \                     ??CrossCallReturnLabel_580:
   \   00000D   8004         SJMP      ??zclGetReadWriteCB_1
   2713          
   2714            return ( NULL );
   \                     ??zclGetReadWriteCB_0:
   \   00000F   7A00         MOV       R2,#0x0
   \   000011   7B00         MOV       R3,#0x0
   \                     ??zclGetReadWriteCB_1:
   \   000013   02....       LJMP      ?Subroutine3 & 0xFFFF
   2715          }

   \                                 In  segment BANKED_CODE, align 1, keep-with-next
   \                     ?Subroutine146:
   \   000000   12....       LCALL     `??zclFindAttrRecsList::?relay`; Banked call to: zclFindAttrRecsList
   \   000003   8A82         MOV       DPL,R2
   \   000005   8B83         MOV       DPH,R3
   \   000007   E582         MOV       A,DPL
   \   000009   4583         ORL       A,DPH
   \   00000B   22           RET

   \                                 In  segment BANKED_CODE, align 1, keep-with-next
   \                     ??Subroutine251_0:
   \   000000   A3           INC       DPTR
   \   000001   A3           INC       DPTR
   \   000002   A3           INC       DPTR
   \   000003                REQUIRE ??Subroutine252_0
   \   000003                ; // Fall through to label ??Subroutine252_0
   2716          
   2717          /*********************************************************************
   2718           * @fn      zclGetAuthorizeCB
   2719           *
   2720           * @brief   Get the Read/Write Authorization callback function pointer
   2721           *          for a given endpoint.
   2722           *
   2723           * @param   endpoint - Application's endpoint
   2724           *
   2725           * @return  Authorization CB, NULL if not found
   2726           */

   \                                 In  segment BANKED_CODE, align 1, keep-with-next
   2727          static zclAuthorizeCB_t zclGetAuthorizeCB( uint8 endpoint )
   \                     zclGetAuthorizeCB:
   2728          {
   \   000000                REQUIRE ?V0
   \   000000                REQUIRE ?V1
   \   000000   74F6         MOV       A,#-0xa
   \   000002   12....       LCALL     ?BANKED_ENTER_XDATA
   \   000005                ; Saved register size: 10
   \   000005                ; Auto size: 0
   2729            zclAttrRecsList *pRec = zclFindAttrRecsList( endpoint );
   \   000005                ; Setup parameters for call to function zclFindAttrRecsList
   \   000005   12....       LCALL     ?Subroutine146 & 0xFFFF
   2730          
   2731            if ( pRec != NULL )
   \                     ??CrossCallReturnLabel_250:
   \   000008   6005         JZ        ??zclGetAuthorizeCB_0
   2732            {
   2733              return ( pRec->pfnAuthorizeCB );
   \   00000A   12....       LCALL     ?Subroutine110 & 0xFFFF
   2734            }
   \                     ??CrossCallReturnLabel_585:
   \   00000D   8004         SJMP      ??zclGetAuthorizeCB_1
   2735          
   2736            return ( NULL );
   \                     ??zclGetAuthorizeCB_0:
   \   00000F   7A00         MOV       R2,#0x0
   \   000011   7B00         MOV       R3,#0x0
   \                     ??zclGetAuthorizeCB_1:
   \   000013   02....       LJMP      ?Subroutine3 & 0xFFFF
   2737          }

   \                                 In  segment BANKED_CODE, align 1, keep-with-next
   \                     ?Subroutine110:
   \   000000   A3           INC       DPTR
   \   000001                REQUIRE ??Subroutine250_0
   \   000001                ; // Fall through to label ??Subroutine250_0

   \                                 In  segment BANKED_CODE, align 1, keep-with-next
   \                     ??Subroutine250_0:
   \   000000   A3           INC       DPTR
   \   000001                REQUIRE ??Subroutine251_0
   \   000001                ; // Fall through to label ??Subroutine251_0
   2738          #endif // ZCL_READ || ZCL_WRITE
   2739          
   2740          /*********************************************************************
   2741           * @fn      zclFindClusterOption
   2742           *
   2743           * @brief   Find the option record that matchs the cluster id
   2744           *
   2745           * @param   endpoint - Application's endpoint
   2746           * @param   clusterID - cluster ID looking for
   2747           *
   2748           * @return  pointer to clutser option, NULL if not found
   2749           */

   \                                 In  segment BANKED_CODE, align 1, keep-with-next
   2750          static zclOptionRec_t *zclFindClusterOption( uint8 endpoint, uint16 clusterID )
   \                     zclFindClusterOption:
   2751          {
   \   000000                REQUIRE ?V0
   \   000000   74F7         MOV       A,#-0x9
   \   000002   12....       LCALL     ?BANKED_ENTER_XDATA
   \   000005                ; Saved register size: 9
   \   000005                ; Auto size: 0
   \   000005   E9           MOV       A,R1
   \   000006   FF           MOV       R7,A
   \   000007   EA           MOV       A,R2
   \   000008   FC           MOV       R4,A
   \   000009   EB           MOV       A,R3
   \   00000A   FD           MOV       R5,A
   2752            zclClusterOptionList *pLoop;
   2753          
   2754            pLoop = clusterOptionList;
   \   00000B   90....       MOV       DPTR,#clusterOptionList
   \   00000E   8004         SJMP      ??zclFindClusterOption_0
   2755            while ( pLoop != NULL )
   2756            {
   2757              if ( pLoop->endpoint == endpoint )
   2758              {
   2759                uint8 x;
   2760                for ( x = 0; x < pLoop->numOptions; x++ )
   2761                {
   2762                  if ( pLoop->options[x].clusterID == clusterID )
   2763                  {
   2764                    return ( &(pLoop->options[x]) ); // EMBEDDED RETURN
   2765                  }
   2766                }
   2767              }
   2768          
   2769              pLoop = pLoop->next;
   \                     ??zclFindClusterOption_1:
   \   000010   8882         MOV       DPL,R0
   \   000012   8983         MOV       DPH,R1
   \                     ??zclFindClusterOption_0:
   \   000014   12....       LCALL     ??Subroutine235_0 & 0xFFFF
   \                     ??CrossCallReturnLabel_457:
   \   000017   6046         JZ        ??zclFindClusterOption_2
   \   000019   8882         MOV       DPL,R0
   \   00001B   8983         MOV       DPH,R1
   \   00001D   A3           INC       DPTR
   \   00001E   A3           INC       DPTR
   \   00001F   E0           MOVX      A,@DPTR
   \   000020   6F           XRL       A,R7
   \   000021   70ED         JNZ       ??zclFindClusterOption_1
   \   000023   7E00         MOV       R6,#0x0
   \   000025   8001         SJMP      ??zclFindClusterOption_3
   \                     ??zclFindClusterOption_4:
   \   000027   0E           INC       R6
   \                     ??zclFindClusterOption_3:
   \   000028   8882         MOV       DPL,R0
   \   00002A   8983         MOV       DPH,R1
   \   00002C   A3           INC       DPTR
   \   00002D   A3           INC       DPTR
   \   00002E   A3           INC       DPTR
   \   00002F   E0           MOVX      A,@DPTR
   \   000030   FA           MOV       R2,A
   \   000031   EE           MOV       A,R6
   \   000032   C3           CLR       C
   \   000033   9A           SUBB      A,R2
   \   000034   50DA         JNC       ??zclFindClusterOption_1
   \   000036   EE           MOV       A,R6
   \   000037   75F003       MOV       B,#0x3
   \   00003A   A4           MUL       AB
   \   00003B   FA           MOV       R2,A
   \   00003C   85F0..       MOV       ?V0,B
   \   00003F   AB..         MOV       R3,?V0
   \   000041   8882         MOV       DPL,R0
   \   000043   8983         MOV       DPH,R1
   \   000045   A3           INC       DPTR
   \   000046   A3           INC       DPTR
   \   000047   A3           INC       DPTR
   \   000048   A3           INC       DPTR
   \   000049   E0           MOVX      A,@DPTR
   \   00004A   2A           ADD       A,R2
   \   00004B   FA           MOV       R2,A
   \   00004C   A3           INC       DPTR
   \   00004D   E0           MOVX      A,@DPTR
   \   00004E   3B           ADDC      A,R3
   \   00004F   FB           MOV       R3,A
   \   000050   8A82         MOV       DPL,R2
   \   000052   F583         MOV       DPH,A
   \   000054   E0           MOVX      A,@DPTR
   \   000055   6C           XRL       A,R4
   \   000056   7003         JNZ       ??zclFindClusterOption_5
   \   000058   A3           INC       DPTR
   \   000059   E0           MOVX      A,@DPTR
   \   00005A   6D           XRL       A,R5
   \                     ??zclFindClusterOption_5:
   \   00005B   70CA         JNZ       ??zclFindClusterOption_4
   \   00005D   8004         SJMP      ??zclFindClusterOption_6
   2770            }
   2771          
   2772            return ( NULL );
   \                     ??zclFindClusterOption_2:
   \   00005F   7A00         MOV       R2,#0x0
   \   000061   7B00         MOV       R3,#0x0
   \                     ??zclFindClusterOption_6:
   \   000063   02....       LJMP      ??Subroutine232_0 & 0xFFFF
   2773          }
   2774          
   2775          /*********************************************************************
   2776           * @fn      zclGetClusterOption
   2777           *
   2778           * @brief   Get the option record that matchs the cluster id
   2779           *
   2780           * @param   endpoint - Application's endpoint
   2781           * @param   clusterID - cluster ID looking for
   2782           *
   2783           * @return  clutser option, AF_TX_OPTIONS_NONE if not found
   2784           */

   \                                 In  segment BANKED_CODE, align 1, keep-with-next
   2785          static uint8 zclGetClusterOption( uint8 endpoint, uint16 clusterID )
   \                     zclGetClusterOption:
   2786          {
   \   000000                REQUIRE ?V0
   \   000000                REQUIRE ?V1
   \   000000   74F6         MOV       A,#-0xa
   \   000002   12....       LCALL     ?BANKED_ENTER_XDATA
   \   000005                ; Saved register size: 10
   \   000005                ; Auto size: 0
   2787            uint8 option;
   2788            zclOptionRec_t *pOption;
   2789          
   2790            pOption = zclFindClusterOption( endpoint, clusterID );
   \   000005                ; Setup parameters for call to function zclFindClusterOption
   \   000005   12....       LCALL     `??zclFindClusterOption::?relay`; Banked call to: zclFindClusterOption
   \   000008   8A82         MOV       DPL,R2
   \   00000A   8B83         MOV       DPH,R3
   2791            if ( pOption != NULL )
   \   00000C   E582         MOV       A,DPL
   \   00000E   4583         ORL       A,DPH
   \   000010   6006         JZ        ??zclGetClusterOption_0
   2792            {
   2793              option = pOption->option;
   2794              if ( !ZG_SECURE_ENABLED )
   2795              {
   2796                option &= (AF_EN_SECURITY ^ 0xFF); // make sure Application Link Key security is off
   2797              }
   2798          
   2799              return ( option ); // EMBEDDED RETURN
   \   000012   A3           INC       DPTR
   \   000013   A3           INC       DPTR
   \   000014   E0           MOVX      A,@DPTR
   \   000015   F9           MOV       R1,A
   \   000016   8002         SJMP      ??zclGetClusterOption_1
   2800            }
   2801          
   2802            return ( AF_TX_OPTIONS_NONE );
   \                     ??zclGetClusterOption_0:
   \   000018   7900         MOV       R1,#0x0
   \                     ??zclGetClusterOption_1:
   \   00001A                REQUIRE ?Subroutine3
   \   00001A                ; // Fall through to label ?Subroutine3
   2803          }
   2804          
   2805          /*********************************************************************
   2806           * @fn      zclSetSecurityOption
   2807           *
   2808           * @brief   Set the security option for the cluster id
   2809           *
   2810           * @param   endpoint - Application's endpoint
   2811           * @param   clusterID - cluster ID looking for
   2812           * @param   enable - whether to enable (TRUE) or disable (FALSE) security option
   2813           *
   2814           * @return  none
   2815           */

   \                                 In  segment BANKED_CODE, align 1, keep-with-next
   2816          static void zclSetSecurityOption( uint8 endpoint, uint16 clusterID, uint8 enable )
   \                     zclSetSecurityOption:
   2817          {
   \   000000                REQUIRE ?V0
   \   000000                REQUIRE ?V1
   \   000000   74F6         MOV       A,#-0xa
   \   000002   12....       LCALL     ?BANKED_ENTER_XDATA
   \   000005                ; Saved register size: 10
   \   000005                ; Auto size: 0
   \   000005   EC           MOV       A,R4
   \   000006   FF           MOV       R7,A
   2818            zclOptionRec_t *pOption;
   2819          
   2820            pOption = zclFindClusterOption( endpoint, clusterID );
   \   000007                ; Setup parameters for call to function zclFindClusterOption
   \   000007   12....       LCALL     `??zclFindClusterOption::?relay`; Banked call to: zclFindClusterOption
   \   00000A   8B..         MOV       ?V1,R3
   \   00000C   A9..         MOV       R1,?V1
   2821            if ( pOption != NULL )
   \   00000E   EA           MOV       A,R2
   \   00000F   49           ORL       A,R1
   \   000010   6015         JZ        ??zclSetSecurityOption_0
   2822            {
   2823              if ( enable )
   \   000012   EA           MOV       A,R2
   \   000013   2402         ADD       A,#0x2
   \   000015   F582         MOV       DPL,A
   \   000017   E4           CLR       A
   \   000018   39           ADDC      A,R1
   \   000019   F583         MOV       DPH,A
   \   00001B   EF           MOV       A,R7
   \   00001C   6005         JZ        ??zclSetSecurityOption_1
   2824              {
   2825                pOption->option |= AF_EN_SECURITY;
   \   00001E   E0           MOVX      A,@DPTR
   \   00001F   D2E6         SETB      0xE0 /* A   */.6
   \   000021   8003         SJMP      ??zclSetSecurityOption_2
   2826              }
   2827              else
   2828              {
   2829                pOption->option &= (AF_EN_SECURITY ^ 0xFF);
   \                     ??zclSetSecurityOption_1:
   \   000023   E0           MOVX      A,@DPTR
   \   000024   C2E6         CLR       0xE0 /* A   */.6
   \                     ??zclSetSecurityOption_2:
   \   000026   F0           MOVX      @DPTR,A
   2830              }
   2831            }
   2832          }
   \                     ??zclSetSecurityOption_0:
   \   000027   80..         SJMP      ?Subroutine3
   2833          
   2834          #ifdef ZCL_DISCOVER
   2835          /*********************************************************************
   2836           * @fn      zclFindNextCmdRec
   2837           *
   2838           * @brief   Find the command (or next) record that matchs the parameters
   2839           *
   2840           * @param   endpoint - Application's endpoint
   2841           * @param   clusterID - cluster ID
   2842           * @param   commandID - command ID from requesting command
   2843           * @param   direction- direction of received command
   2844           * @param   pCmdID - command looking for
   2845           * @param   pCmd - command information within command record list
   2846           *
   2847           * @return  pointer to command record, NULL no more records of this cluster
   2848           */

   \                                 In  segment BANKED_CODE, align 1, keep-with-next
   2849          static uint8 zclFindNextCmdRec( uint8 endpoint, uint16 clusterID, uint8 commandID,
   \                     zclFindNextCmdRec:
   2850                                          uint8 direction, uint8 *pCmdID, zclCommandRec_t *pCmd )
   2851          {
   \   000000                REQUIRE ?V0
   \   000000                REQUIRE ?V1
   \   000000                REQUIRE ?V2
   \   000000                REQUIRE ?V3
   \   000000                REQUIRE ?V4
   \   000000                REQUIRE ?V5
   \   000000                REQUIRE ?V6
   \   000000                REQUIRE ?V7
   \   000000   74F0         MOV       A,#-0x10
   \   000002   12....       LCALL     ?BANKED_ENTER_XDATA
   \   000005                ; Saved register size: 16
   \   000005                ; Auto size: 0
   \   000005   EA           MOV       A,R2
   \   000006   FE           MOV       R6,A
   \   000007   EB           MOV       A,R3
   \   000008   FF           MOV       R7,A
   \   000009   8C..         MOV       ?V1,R4
   \   00000B   8D..         MOV       ?V2,R5
   2852            zclCmdRecsList_t *pRec = zclFindCmdRecsList( endpoint );
   \   00000D                ; Setup parameters for call to function zclFindCmdRecsList
   \   00000D   12....       LCALL     `??zclFindCmdRecsList::?relay`; Banked call to: zclFindCmdRecsList
   \   000010   8A..         MOV       ?V4,R2
   \   000012   8B..         MOV       ?V5,R3
   2853            uint8 i;
   2854          
   2855            if ( pRec != NULL )
   \   000014   EA           MOV       A,R2
   \   000015   4B           ORL       A,R3
   \   000016   7003         JNZ       $+5
   \   000018   02....       LJMP      ??zclFindNextCmdRec_0 & 0xFFFF
   2856            {
   2857              for ( i = 0; i < pRec->numCommands; i++ )
   \   00001B   75..00       MOV       ?V3,#0x0
   \   00001E   7410         MOV       A,#0x10
   \   000020   12....       LCALL     ?XSTACK_DISP0_8
   \   000023   12....       LCALL     ??Subroutine247_0 & 0xFFFF
   \                     ??CrossCallReturnLabel_529:
   \   000026   E8           MOV       A,R0
   \   000027   FA           MOV       R2,A
   \   000028   E9           MOV       A,R1
   \   000029   FB           MOV       R3,A
   \   00002A   8012         SJMP      ??zclFindNextCmdRec_1
   2858              {
   2859                if ( ( pRec->pCmdRecs[i].clusterID == clusterID ) &&
   2860                    ( pRec->pCmdRecs[i].cmdID >= *pCmdID ) )
   2861                {
   2862                  if ( commandID == ZCL_CMD_DISCOVER_CMDS_RECEIVED )
   2863                  {
   2864                    if ( ( direction == ZCL_FRAME_SERVER_CLIENT_DIR ) && ( pRec->pCmdRecs[i].flag & CMD_DIR_CLIENT_RECEIVED ) )
   \                     ??zclFindNextCmdRec_2:
   \   00002C   8C82         MOV       DPL,R4
   \   00002E   8D83         MOV       DPH,R5
   \   000030   A3           INC       DPTR
   \   000031   A3           INC       DPTR
   \   000032   A3           INC       DPTR
   \   000033   E4           CLR       A
   \   000034   93           MOVC      A,@A+DPTR
   \   000035   A2E3         MOV       C,0xE0 /* A   */.3
   \   000037   5003         JNC       $+5
   \   000039   02....       LJMP      ??zclFindNextCmdRec_3 & 0xFFFF
   \                     ??zclFindNextCmdRec_4:
   \   00003C   05..         INC       ?V3
   \                     ??zclFindNextCmdRec_1:
   \   00003E   85..82       MOV       DPL,?V4
   \   000041   85..83       MOV       DPH,?V5
   \   000044   A3           INC       DPTR
   \   000045   A3           INC       DPTR
   \   000046   A3           INC       DPTR
   \   000047   E0           MOVX      A,@DPTR
   \   000048   F8           MOV       R0,A
   \   000049   E5..         MOV       A,?V3
   \   00004B   C3           CLR       C
   \   00004C   98           SUBB      A,R0
   \   00004D   4003         JC        $+5
   \   00004F   02....       LJMP      ??zclFindNextCmdRec_0 & 0xFFFF
   \   000052   E5..         MOV       A,?V3
   \   000054   F5..         MOV       ?V6,A
   \   000056   75..00       MOV       ?V7,#0x0
   \   000059   7402         MOV       A,#0x2
   \   00005B   78..         MOV       R0,#?V6
   \   00005D   12....       LCALL     ?S_SHL
   \   000060   85..82       MOV       DPL,?V4
   \   000063   85..83       MOV       DPH,?V5
   \   000066   12....       LCALL     ?Subroutine121 & 0xFFFF
   \                     ??CrossCallReturnLabel_206:
   \   000069   12....       LCALL     ?Subroutine158 & 0xFFFF
   \                     ??CrossCallReturnLabel_267:
   \   00006C   7002         JNZ       ??zclFindNextCmdRec_5
   \   00006E   EF           MOV       A,R7
   \   00006F   69           XRL       A,R1
   \                     ??zclFindNextCmdRec_5:
   \   000070   70CA         JNZ       ??zclFindNextCmdRec_4
   \   000072   8A82         MOV       DPL,R2
   \   000074   8B83         MOV       DPH,R3
   \   000076   E0           MOVX      A,@DPTR
   \   000077   F8           MOV       R0,A
   \   000078   8C82         MOV       DPL,R4
   \   00007A   8D83         MOV       DPH,R5
   \   00007C   A3           INC       DPTR
   \   00007D   A3           INC       DPTR
   \   00007E   E4           CLR       A
   \   00007F   93           MOVC      A,@A+DPTR
   \   000080   C3           CLR       C
   \   000081   98           SUBB      A,R0
   \   000082   40B8         JC        ??zclFindNextCmdRec_4
   \   000084   7411         MOV       A,#0x11
   \   000086   65..         XRL       A,?V1
   \   000088   7019         JNZ       ??zclFindNextCmdRec_6
   \   00008A   7401         MOV       A,#0x1
   \   00008C   65..         XRL       A,?V2
   \   00008E   609C         JZ        ??zclFindNextCmdRec_2
   2865                    {
   2866                      *pCmd = pRec->pCmdRecs[i];
   2867          
   2868                      // Update command ID
   2869                      *pCmdID = pCmd->cmdID;
   2870          
   2871                      return ( TRUE ); // EMBEDDED RETURN
   2872                    }
   2873                    else if ( ( direction == ZCL_FRAME_CLIENT_SERVER_DIR ) && ( pRec->pCmdRecs[i].flag & CMD_DIR_SERVER_RECEIVED ) )
   \   000090   E5..         MOV       A,?V2
   \   000092   70A8         JNZ       ??zclFindNextCmdRec_4
   \   000094   8C82         MOV       DPL,R4
   \   000096   8D83         MOV       DPH,R5
   \   000098   A3           INC       DPTR
   \   000099   A3           INC       DPTR
   \   00009A   A3           INC       DPTR
   \   00009B   E4           CLR       A
   \   00009C   93           MOVC      A,@A+DPTR
   \   00009D   A2E2         MOV       C,0xE0 /* A   */.2
   \                     ??zclFindNextCmdRec_7:
   \   00009F   4032         JC        ??zclFindNextCmdRec_3
   \   0000A1   8099         SJMP      ??zclFindNextCmdRec_4
   2874                    {
   2875                      *pCmd = pRec->pCmdRecs[i];
   2876          
   2877                      // Update command ID
   2878                      *pCmdID = pCmd->cmdID;
   2879          
   2880                      return ( TRUE ); // EMBEDDED RETURN
   2881                    }
   2882                  }
   2883                  else if ( commandID == ZCL_CMD_DISCOVER_CMDS_GEN )
   \                     ??zclFindNextCmdRec_6:
   \   0000A3   7413         MOV       A,#0x13
   \   0000A5   65..         XRL       A,?V1
   \   0000A7   7044         JNZ       ??zclFindNextCmdRec_0
   2884                  {
   2885                    if ( ( direction == ZCL_FRAME_CLIENT_SERVER_DIR ) && ( pRec->pCmdRecs[i].flag & CMD_DIR_SERVER_GENERATED ) )
   \   0000A9   E5..         MOV       A,?V2
   \   0000AB   700D         JNZ       ??zclFindNextCmdRec_8
   \   0000AD   8C82         MOV       DPL,R4
   \   0000AF   8D83         MOV       DPH,R5
   \   0000B1   A3           INC       DPTR
   \   0000B2   A3           INC       DPTR
   \   0000B3   A3           INC       DPTR
   \   0000B4   E4           CLR       A
   \   0000B5   93           MOVC      A,@A+DPTR
   \   0000B6   A2E0         MOV       C,0xE0 /* A   */.0
   \   0000B8   80E5         SJMP      ??zclFindNextCmdRec_7
   2886                    {
   2887                      *pCmd = pRec->pCmdRecs[i];
   2888          
   2889                      // Update command ID
   2890                      *pCmdID = pCmd->cmdID;
   2891          
   2892                      return ( TRUE ); // EMBEDDED RETURN
   2893                    }
   2894                    else if ( ( direction == ZCL_FRAME_SERVER_CLIENT_DIR ) && ( pRec->pCmdRecs[i].flag & CMD_DIR_CLIENT_GENERATED ) )
   \                     ??zclFindNextCmdRec_8:
   \   0000BA   7401         MOV       A,#0x1
   \   0000BC   65..         XRL       A,?V2
   \   0000BE   6003         JZ        $+5
   \   0000C0   02....       LJMP      ??zclFindNextCmdRec_4 & 0xFFFF
   \   0000C3   8C82         MOV       DPL,R4
   \   0000C5   8D83         MOV       DPH,R5
   \   0000C7   A3           INC       DPTR
   \   0000C8   A3           INC       DPTR
   \   0000C9   A3           INC       DPTR
   \   0000CA   E4           CLR       A
   \   0000CB   93           MOVC      A,@A+DPTR
   \   0000CC   A2E1         MOV       C,0xE0 /* A   */.1
   \   0000CE   4003         JC        $+5
   \   0000D0   02....       LJMP      ??zclFindNextCmdRec_4 & 0xFFFF
   \                     ??zclFindNextCmdRec_3:
   \   0000D3   7412         MOV       A,#0x12
   \   0000D5   12....       LCALL     ?XSTACK_DISP0_8
   \   0000D8   12....       LCALL     ?Subroutine80 & 0xFFFF
   2895                    {
   2896                      *pCmd = pRec->pCmdRecs[i];
   \                     ??CrossCallReturnLabel_134:
   \   0000DB   7404         MOV       A,#0x4
   \   0000DD   12....       LCALL     ?MOVE_LONG8_XDATA_CODE
   2897          
   2898                      // Update command ID
   2899                      *pCmdID = pCmd->cmdID;
   \   0000E0   8882         MOV       DPL,R0
   \   0000E2   8983         MOV       DPH,R1
   \   0000E4   A3           INC       DPTR
   \   0000E5   A3           INC       DPTR
   \   0000E6   12....       LCALL     ?Subroutine92 & 0xFFFF
   2900          
   2901                      return ( TRUE ); // EMBEDDED RETURN
   \                     ??CrossCallReturnLabel_154:
   \   0000E9   7901         MOV       R1,#0x1
   \   0000EB   8002         SJMP      ??zclFindNextCmdRec_9
   2902                    }
   2903                  }
   2904                  else
   2905                  {
   2906                    return ( FALSE ); // Incorrect Command ID
   2907                  }
   2908                }
   2909              }
   2910            }
   2911          
   2912            return ( FALSE );
   \                     ??zclFindNextCmdRec_0:
   \   0000ED   7900         MOV       R1,#0x0
   \                     ??zclFindNextCmdRec_9:
   \   0000EF   02....       LJMP      ??Subroutine233_0 & 0xFFFF
   2913          }

   \                                 In  segment BANKED_CODE, align 1, keep-with-next
   \                     ?Subroutine158:
   \   000000   E8           MOV       A,R0
   \   000001   FC           MOV       R4,A
   \   000002   E9           MOV       A,R1
   \   000003   FD           MOV       R5,A
   \   000004   8882         MOV       DPL,R0
   \   000006   F583         MOV       DPH,A
   \   000008   E4           CLR       A
   \   000009   93           MOVC      A,@A+DPTR
   \   00000A   F8           MOV       R0,A
   \   00000B   7401         MOV       A,#0x1
   \   00000D   93           MOVC      A,@A+DPTR
   \   00000E   F9           MOV       R1,A
   \   00000F   EE           MOV       A,R6
   \   000010   68           XRL       A,R0
   \   000011   22           RET

   \                                 In  segment BANKED_CODE, align 1, keep-with-next
   \                     ?Subroutine80:
   \   000000   12....       LCALL     ?Subroutine185 & 0xFFFF
   \                     ??CrossCallReturnLabel_540:
   \   000003   8C82         MOV       DPL,R4
   \   000005   8D83         MOV       DPH,R5
   \   000007   E8           MOV       A,R0
   \   000008   FC           MOV       R4,A
   \   000009   E9           MOV       A,R1
   \   00000A   FD           MOV       R5,A
   \   00000B   22           RET
   2914          
   2915          /*********************************************************************
   2916           * @fn      zclFindNextAttrRec
   2917           *
   2918           * @brief   Find the attribute (or next) record that matchs the parameters
   2919           *
   2920           * @param   endpoint - Application's endpoint
   2921           * @param   clusterID - cluster ID
   2922           * @param   attr - attribute looking for
   2923           *
   2924           * @return  pointer to attribute record, NULL if not found
   2925           */

   \                                 In  segment BANKED_CODE, align 1, keep-with-next
   2926          static uint8 zclFindNextAttrRec( uint8 endpoint, uint16 clusterID, uint8 direction,
   \                     zclFindNextAttrRec:
   2927                                           uint16 *attrId, zclAttrRec_t *pAttr )
   2928          {
   \   000000                REQUIRE ?V0
   \   000000                REQUIRE ?V1
   \   000000                REQUIRE ?V2
   \   000000                REQUIRE ?V3
   \   000000                REQUIRE ?V4
   \   000000                REQUIRE ?V5
   \   000000                REQUIRE ?V6
   \   000000                REQUIRE ?V7
   \   000000   74F0         MOV       A,#-0x10
   \   000002   12....       LCALL     ?BANKED_ENTER_XDATA
   \   000005                ; Saved register size: 16
   \   000005                ; Auto size: 0
   \   000005   EA           MOV       A,R2
   \   000006   FE           MOV       R6,A
   \   000007   EB           MOV       A,R3
   \   000008   FF           MOV       R7,A
   \   000009   8C..         MOV       ?V1,R4
   2929            zclAttrRecsList *pRec = zclFindAttrRecsList( endpoint );
   \   00000B                ; Setup parameters for call to function zclFindAttrRecsList
   \   00000B   12....       LCALL     `??zclFindAttrRecsList::?relay`; Banked call to: zclFindAttrRecsList
   \   00000E   8A..         MOV       ?V6,R2
   \   000010   8B..         MOV       ?V7,R3
   2930            uint8 attrDir;
   2931          
   2932            if ( pRec != NULL )
   \   000012   EA           MOV       A,R2
   \   000013   4B           ORL       A,R3
   \   000014   7003         JNZ       $+5
   \   000016   02....       LJMP      ??zclFindNextAttrRec_0 & 0xFFFF
   2933            {
   2934              uint16 x;
   2935          
   2936              for ( x = 0; x < pRec->numAttributes; x++ )
   \   000019   7A00         MOV       R2,#0x0
   \   00001B   7B00         MOV       R3,#0x0
   \   00001D   7410         MOV       A,#0x10
   \   00001F   12....       LCALL     ?XSTACK_DISP0_8
   \   000022   12....       LCALL     ?Subroutine205 & 0xFFFF
   \                     ??CrossCallReturnLabel_544:
   \   000025   88..         MOV       ?V2,R0
   \   000027   F5..         MOV       ?V3,A
   \   000029   8005         SJMP      ??zclFindNextAttrRec_1
   \                     ??zclFindNextAttrRec_2:
   \   00002B   0A           INC       R2
   \   00002C   EA           MOV       A,R2
   \   00002D   7001         JNZ       ??zclFindNextAttrRec_1
   \   00002F   0B           INC       R3
   \                     ??zclFindNextAttrRec_1:
   \   000030   85..82       MOV       DPL,?V6
   \   000033   85..83       MOV       DPH,?V7
   \   000036   A3           INC       DPTR
   \   000037   A3           INC       DPTR
   \   000038   A3           INC       DPTR
   \   000039   A3           INC       DPTR
   \   00003A   A3           INC       DPTR
   \   00003B   A3           INC       DPTR
   \   00003C   A3           INC       DPTR
   \   00003D   E0           MOVX      A,@DPTR
   \   00003E   F8           MOV       R0,A
   \   00003F   C3           CLR       C
   \   000040   EA           MOV       A,R2
   \   000041   98           SUBB      A,R0
   \   000042   EB           MOV       A,R3
   \   000043   9400         SUBB      A,#0x0
   \   000045   5074         JNC       ??zclFindNextAttrRec_0
   2937              {
   2938                if ( ( pRec->attrs[x].clusterID == clusterID ) &&
   2939                     ( pRec->attrs[x].attr.attrId >= *attrId ) )
   \   000047   8A..         MOV       ?V4,R2
   \   000049   8B..         MOV       ?V5,R3
   \   00004B   7403         MOV       A,#0x3
   \   00004D   78..         MOV       R0,#?V4
   \   00004F   12....       LCALL     ?S_SHL
   \   000052   85..82       MOV       DPL,?V6
   \   000055   85..83       MOV       DPH,?V7
   \   000058   A3           INC       DPTR
   \   000059   A3           INC       DPTR
   \   00005A   A3           INC       DPTR
   \   00005B   A3           INC       DPTR
   \   00005C   12....       LCALL     ?Subroutine120 & 0xFFFF
   \                     ??CrossCallReturnLabel_204:
   \   00005F   12....       LCALL     ?Subroutine158 & 0xFFFF
   \                     ??CrossCallReturnLabel_268:
   \   000062   7002         JNZ       ??zclFindNextAttrRec_3
   \   000064   EF           MOV       A,R7
   \   000065   69           XRL       A,R1
   \                     ??zclFindNextAttrRec_3:
   \   000066   70C3         JNZ       ??zclFindNextAttrRec_2
   \   000068   A3           INC       DPTR
   \   000069   A3           INC       DPTR
   \   00006A   E4           CLR       A
   \   00006B   93           MOVC      A,@A+DPTR
   \   00006C   F5..         MOV       ?V4,A
   \   00006E   7401         MOV       A,#0x1
   \   000070   93           MOVC      A,@A+DPTR
   \   000071   F5..         MOV       ?V5,A
   \   000073   85..82       MOV       DPL,?V2
   \   000076   85..83       MOV       DPH,?V3
   \   000079   12....       LCALL     ??Subroutine247_0 & 0xFFFF
   \                     ??CrossCallReturnLabel_530:
   \   00007C   C3           CLR       C
   \   00007D   E5..         MOV       A,?V4
   \   00007F   98           SUBB      A,R0
   \   000080   E5..         MOV       A,?V5
   \   000082   99           SUBB      A,R1
   \   000083   40A6         JC        ??zclFindNextAttrRec_2
   2940                {
   2941                  // also make sure direction is right
   2942                  attrDir = (pRec->attrs[x].attr.accessControl & ACCESS_CLIENT) ? 1 : 0;
   2943                  if ( (attrDir == direction) || (pRec->attrs[x].attr.accessControl & ACCESS_GLOBAL))
   \   000085   EC           MOV       A,R4
   \   000086   2405         ADD       A,#0x5
   \   000088   F582         MOV       DPL,A
   \   00008A   E4           CLR       A
   \   00008B   3D           ADDC      A,R5
   \   00008C   F583         MOV       DPH,A
   \   00008E   E4           CLR       A
   \   00008F   93           MOVC      A,@A+DPTR
   \   000090   A2E7         MOV       C,0xE0 /* A   */.7
   \   000092   E4           CLR       A
   \   000093   33           RLC       A
   \   000094   65..         XRL       A,?V1
   \   000096   6006         JZ        ??zclFindNextAttrRec_4
   \   000098   E4           CLR       A
   \   000099   93           MOVC      A,@A+DPTR
   \   00009A   A2E6         MOV       C,0xE0 /* A   */.6
   \   00009C   508D         JNC       ??zclFindNextAttrRec_2
   \                     ??zclFindNextAttrRec_4:
   \   00009E   7412         MOV       A,#0x12
   \   0000A0   12....       LCALL     ?XSTACK_DISP0_8
   \   0000A3   12....       LCALL     ?Subroutine80 & 0xFFFF
   2944                  {
   2945                    // return attribute and found attribute ID
   2946                    *pAttr = pRec->attrs[x];
   \                     ??CrossCallReturnLabel_135:
   \   0000A6   7408         MOV       A,#0x8
   \   0000A8   12....       LCALL     ?MOVE_LONG8_XDATA_CODE
   2947                    *attrId = pAttr->attr.attrId;
   \   0000AB   8882         MOV       DPL,R0
   \   0000AD   8983         MOV       DPH,R1
   \   0000AF   A3           INC       DPTR
   \   0000B0   A3           INC       DPTR
   \   0000B1   12....       LCALL     ?Subroutine88 & 0xFFFF
   \                     ??CrossCallReturnLabel_148:
   \   0000B4   12....       LCALL     ??Subroutine236_0 & 0xFFFF
   2948          
   2949                    return ( TRUE ); // EMBEDDED RETURN
   \                     ??CrossCallReturnLabel_474:
   \   0000B7   7901         MOV       R1,#0x1
   \   0000B9   8002         SJMP      ??zclFindNextAttrRec_5
   2950                  }
   2951                }
   2952              }
   2953            }
   2954          
   2955            return ( FALSE );
   \                     ??zclFindNextAttrRec_0:
   \   0000BB   7900         MOV       R1,#0x0
   \                     ??zclFindNextAttrRec_5:
   \   0000BD   02....       LJMP      ??Subroutine233_0 & 0xFFFF
   2956          }

   \                                 In  segment BANKED_CODE, align 1, keep-with-next
   \                     ?Subroutine88:
   \   000000   12....       LCALL     ?Subroutine175 & 0xFFFF
   \                     ??CrossCallReturnLabel_515:
   \   000003   22           RET

   \                                 In  segment BANKED_CODE, align 1, keep-with-next
   \                     ?Subroutine175:
   \   000000   E0           MOVX      A,@DPTR
   \   000001   F8           MOV       R0,A
   \   000002   A3           INC       DPTR
   \   000003                REQUIRE ??Subroutine243_0
   \   000003                ; // Fall through to label ??Subroutine243_0

   \                                 In  segment BANKED_CODE, align 1, keep-with-next
   \                     ??Subroutine243_0:
   \   000000   E0           MOVX      A,@DPTR
   \   000001   F9           MOV       R1,A
   \   000002                ; Setup parameters for call to function zclWriteAttrDataUsingCB
   \   000002                ; Setup parameters for call to function zclGetAttrDataLengthUsingCB
   \   000002   85..82       MOV       DPL,?V2
   \   000005   85..83       MOV       DPH,?V3
   \   000008   22           RET
   2957          #endif // ZCL_DISCOVER
   2958          
   2959          /*********************************************************************
   2960           * @fn      zclSerializeData
   2961           *
   2962           * @brief   Builds a buffer from the attribute data to sent out over
   2963           *          the air.
   2964           *          NOTE - Not compatible with application's attributes callbacks.
   2965           *
   2966           * @param   dataType - data types defined in zcl.h
   2967           * @param   attrData - pointer to the attribute data
   2968           * @param   buf - where to put the serialized data
   2969           *
   2970           * @return  pointer to end of destination buffer
   2971           */

   \                                 In  segment BANKED_CODE, align 1, keep-with-next
   \                     ?Subroutine93:
   \   000000   8E82         MOV       DPL,R6
   \   000002   8F83         MOV       DPH,R7
   \   000004                REQUIRE ??Subroutine223_0
   \   000004                ; // Fall through to label ??Subroutine223_0

   \                                 In  segment BANKED_CODE, align 1, keep-with-next
   2972          uint8 *zclSerializeData( uint8 dataType, void *attrData, uint8 *buf )
   \                     zclSerializeData:
   2973          {
   \   000000                REQUIRE ?V0
   \   000000                REQUIRE ?V1
   \   000000                REQUIRE ?V2
   \   000000                REQUIRE ?V3
   \   000000                REQUIRE ?V4
   \   000000                REQUIRE ?V5
   \   000000                REQUIRE ?V6
   \   000000   74F1         MOV       A,#-0xf
   \   000002   12....       LCALL     ?BANKED_ENTER_XDATA
   \   000005                ; Saved register size: 15
   \   000005                ; Auto size: 0
   \   000005   EA           MOV       A,R2
   \   000006   FE           MOV       R6,A
   \   000007   EB           MOV       A,R3
   \   000008   FF           MOV       R7,A
   \   000009   EC           MOV       A,R4
   \   00000A   FA           MOV       R2,A
   \   00000B   ED           MOV       A,R5
   \   00000C   FB           MOV       R3,A
   2974            uint8 *pStr;
   2975            uint16 len;
   2976          
   2977            if ( attrData == NULL )
   \   00000D   EE           MOV       A,R6
   \   00000E   4F           ORL       A,R7
   \   00000F   7003         JNZ       $+5
   \   000011   02....       LJMP      ??zclSerializeData_0 & 0xFFFF
   2978            {
   2979              return ( buf );
   2980            }
   2981          
   2982            switch ( dataType )
   \   000014   EC           MOV       A,R4
   \   000015   2402         ADD       A,#0x2
   \   000017   F5..         MOV       ?V4,A
   \   000019   E4           CLR       A
   \   00001A   3B           ADDC      A,R3
   \   00001B   F5..         MOV       ?V5,A
   \   00001D   8C82         MOV       DPL,R4
   \   00001F   8D83         MOV       DPH,R5
   \   000021   A3           INC       DPTR
   \   000022   AC82         MOV       R4,DPL
   \   000024   AD83         MOV       R5,DPH
   \   000026   8E..         MOV       ?V0,R6
   \   000028   8F..         MOV       ?V1,R7
   \   00002A   75..00       MOV       ?V2,#0x0
   \   00002D   E9           MOV       A,R1
   \   00002E   12....       LCALL     ?UC_SWITCH_SPARSE
   \                     `?<Jumptable for zclSerializeData>_0`:
   \   000031   04           DB        4
   \   000032   41           DB        65
   \   000033   42           DB        66
   \   000034   ....         DW        ??zclSerializeData_1
   \   000036   43           DB        67
   \   000037   44           DB        68
   \   000038   ....         DW        ??zclSerializeData_2
   \   00003A   E0           DB        224
   \   00003B   E2           DB        226
   \   00003C   ....         DW        ??zclSerializeData_3
   \   00003E   E8           DB        232
   \   00003F   E9           DB        233
   \   000040   ....         DW        ??zclSerializeData_4
   \   000042   25           DB        37
   \   000043   08           DB        8
   \   000044   ....         DW        ??zclSerializeData_5
   \   000046   09           DB        9
   \   000047   ....         DW        ??zclSerializeData_4
   \   000049   0A           DB        10
   \   00004A   ....         DW        ??zclSerializeData_6
   \   00004C   0B           DB        11
   \   00004D   ....         DW        ??zclSerializeData_3
   \   00004F   10           DB        16
   \   000050   ....         DW        ??zclSerializeData_5
   \   000052   18           DB        24
   \   000053   ....         DW        ??zclSerializeData_5
   \   000055   19           DB        25
   \   000056   ....         DW        ??zclSerializeData_4
   \   000058   1A           DB        26
   \   000059   ....         DW        ??zclSerializeData_6
   \   00005B   1B           DB        27
   \   00005C   ....         DW        ??zclSerializeData_3
   \   00005E   1C           DB        28
   \   00005F   ....         DW        ??zclSerializeData_7
   \   000061   1D           DB        29
   \   000062   ....         DW        ??zclSerializeData_8
   \   000064   1E           DB        30
   \   000065   ....         DW        ??zclSerializeData_9
   \   000067   1F           DB        31
   \   000068   ....         DW        ??zclSerializeData_10
   \   00006A   20           DB        32
   \   00006B   ....         DW        ??zclSerializeData_5
   \   00006D   21           DB        33
   \   00006E   ....         DW        ??zclSerializeData_4
   \   000070   22           DB        34
   \   000071   ....         DW        ??zclSerializeData_6
   \   000073   23           DB        35
   \   000074   ....         DW        ??zclSerializeData_3
   \   000076   24           DB        36
   \   000077   ....         DW        ??zclSerializeData_7
   \   000079   25           DB        37
   \   00007A   ....         DW        ??zclSerializeData_8
   \   00007C   26           DB        38
   \   00007D   ....         DW        ??zclSerializeData_9
   \   00007F   27           DB        39
   \   000080   ....         DW        ??zclSerializeData_10
   \   000082   28           DB        40
   \   000083   ....         DW        ??zclSerializeData_5
   \   000085   29           DB        41
   \   000086   ....         DW        ??zclSerializeData_4
   \   000088   2A           DB        42
   \   000089   ....         DW        ??zclSerializeData_6
   \   00008B   2B           DB        43
   \   00008C   ....         DW        ??zclSerializeData_3
   \   00008E   2C           DB        44
   \   00008F   ....         DW        ??zclSerializeData_7
   \   000091   2D           DB        45
   \   000092   ....         DW        ??zclSerializeData_8
   \   000094   2E           DB        46
   \   000095   ....         DW        ??zclSerializeData_9
   \   000097   2F           DB        47
   \   000098   ....         DW        ??zclSerializeData_10
   \   00009A   30           DB        48
   \   00009B   ....         DW        ??zclSerializeData_5
   \   00009D   31           DB        49
   \   00009E   ....         DW        ??zclSerializeData_4
   \   0000A0   38           DB        56
   \   0000A1   ....         DW        ??zclSerializeData_4
   \   0000A3   39           DB        57
   \   0000A4   ....         DW        ??zclSerializeData_3
   \   0000A6   3A           DB        58
   \   0000A7   ....         DW        ??zclSerializeData_10
   \   0000A9   EA           DB        234
   \   0000AA   ....         DW        ??zclSerializeData_3
   \   0000AC   F0           DB        240
   \   0000AD   ....         DW        ??zclSerializeData_10
   \   0000AF   F1           DB        241
   \   0000B0   ....         DW        ??zclSerializeData_11
   \   0000B2   ....         DW        ??zclSerializeData_0
   2983            {
   2984              case ZCL_DATATYPE_DATA8:
   2985              case ZCL_DATATYPE_BOOLEAN:
   2986              case ZCL_DATATYPE_BITMAP8:
   2987              case ZCL_DATATYPE_INT8:
   2988              case ZCL_DATATYPE_UINT8:
   2989              case ZCL_DATATYPE_ENUM8:
   2990                *buf++ = *((uint8 *)attrData);
   \                     ??zclSerializeData_5:
   \   0000B4   8E82         MOV       DPL,R6
   \   0000B6   8F83         MOV       DPH,R7
   \   0000B8   12....       LCALL     ?Subroutine92 & 0xFFFF
   \                     ??CrossCallReturnLabel_155:
   \   0000BB   EC           MOV       A,R4
   \   0000BC   FA           MOV       R2,A
   \   0000BD   ED           MOV       A,R5
   \   0000BE   FB           MOV       R3,A
   2991                 break;
   \   0000BF   02....       LJMP      ??zclSerializeData_0 & 0xFFFF
   2992          
   2993              case ZCL_DATATYPE_DATA16:
   2994              case ZCL_DATATYPE_BITMAP16:
   2995              case ZCL_DATATYPE_UINT16:
   2996              case ZCL_DATATYPE_INT16:
   2997              case ZCL_DATATYPE_ENUM16:
   2998              case ZCL_DATATYPE_SEMI_PREC:
   2999              case ZCL_DATATYPE_CLUSTER_ID:
   3000              case ZCL_DATATYPE_ATTR_ID:
   3001                *buf++ = LO_UINT16( *((uint16*)attrData) );
   \                     ??zclSerializeData_4:
   \   0000C2   12....       LCALL     ?Subroutine93 & 0xFFFF
   \                     ??CrossCallReturnLabel_417:
   \   0000C5   12....       LCALL     ?Subroutine39 & 0xFFFF
   3002                *buf++ = HI_UINT16( *((uint16*)attrData) );
   \                     ??CrossCallReturnLabel_49:
   \   0000C8   12....       LCALL     ??Subroutine238_0 & 0xFFFF
   \                     ??CrossCallReturnLabel_484:
   \   0000CB   F0           MOVX      @DPTR,A
   \   0000CC   0A           INC       R2
   \   0000CD   0A           INC       R2
   \   0000CE   AB..         MOV       R3,?V5
   3003                break;
   \   0000D0   02....       LJMP      ??zclSerializeData_0 & 0xFFFF
   3004          
   3005              case ZCL_DATATYPE_DATA24:
   3006              case ZCL_DATATYPE_BITMAP24:
   3007              case ZCL_DATATYPE_UINT24:
   3008              case ZCL_DATATYPE_INT24:
   3009                *buf++ = BREAK_UINT32( *((uint32*)attrData), 0 );
   \                     ??zclSerializeData_6:
   \   0000D3   8E82         MOV       DPL,R6
   \   0000D5   8F83         MOV       DPH,R7
   \   0000D7   78..         MOV       R0,#?V0
   \   0000D9   12....       LCALL     ?L_MOV_X
   \   0000DC   8A82         MOV       DPL,R2
   \   0000DE   8B83         MOV       DPH,R3
   \   0000E0   E5..         MOV       A,?V0
   \   0000E2   12....       LCALL     ?Subroutine169 & 0xFFFF
   3010                *buf++ = BREAK_UINT32( *((uint32*)attrData), 1 );
   \                     ??CrossCallReturnLabel_288:
   \   0000E5   78..         MOV       R0,#?V0
   \   0000E7   12....       LCALL     ?L_MOV_X
   \   0000EA   E5..         MOV       A,?V1
   \   0000EC   8C82         MOV       DPL,R4
   \   0000EE   8D83         MOV       DPH,R5
   \   0000F0   12....       LCALL     ?Subroutine169 & 0xFFFF
   3011                *buf++ = BREAK_UINT32( *((uint32*)attrData), 2 );
   \                     ??CrossCallReturnLabel_289:
   \   0000F3   78..         MOV       R0,#?V0
   \   0000F5   12....       LCALL     ?L_MOV_X
   \   0000F8   7410         MOV       A,#0x10
   \   0000FA   78..         MOV       R0,#?V0
   \   0000FC   12....       LCALL     ?UL_SHR
   \   0000FF   85..82       MOV       DPL,?V4
   \   000102   85..83       MOV       DPH,?V5
   \   000105   E5..         MOV       A,?V0
   \   000107   F0           MOVX      @DPTR,A
   \   000108   EA           MOV       A,R2
   \   000109   2403         ADD       A,#0x3
   \   00010B   FA           MOV       R2,A
   \   00010C   506B         JNC       ??zclSerializeData_0
   \   00010E   0B           INC       R3
   3012                break;
   \   00010F   8068         SJMP      ??zclSerializeData_0
   3013          
   3014              case ZCL_DATATYPE_DATA32:
   3015              case ZCL_DATATYPE_BITMAP32:
   3016              case ZCL_DATATYPE_UINT32:
   3017              case ZCL_DATATYPE_INT32:
   3018              case ZCL_DATATYPE_SINGLE_PREC:
   3019              case ZCL_DATATYPE_TOD:
   3020              case ZCL_DATATYPE_DATE:
   3021              case ZCL_DATATYPE_UTC:
   3022              case ZCL_DATATYPE_BAC_OID:
   3023                buf = zcl_buffer_uint32( buf, *((uint32*)attrData) );
   \                     ??zclSerializeData_3:
   \   000111                ; Setup parameters for call to function osal_buffer_uint32
   \   000111   8E82         MOV       DPL,R6
   \   000113   8F83         MOV       DPH,R7
   \   000115   12....       LCALL     ?PUSH_XSTACK8_X_FOUR
   \   000118   12....       LCALL     `??osal_buffer_uint32::?relay`; Banked call to: osal_buffer_uint32
   \   00011B   7404         MOV       A,#0x4
   \   00011D   12....       LCALL     ?DEALLOC_XSTACK8
   3024                break;
   \   000120   8057         SJMP      ??zclSerializeData_0
   3025          
   3026              case ZCL_DATATYPE_BITMAP40:
   3027              case ZCL_DATATYPE_UINT40:
   3028              case ZCL_DATATYPE_INT40:
   3029                pStr = (uint8*)attrData;
   3030                buf = zcl_memcpy( buf, pStr, 5 );
   \                     ??zclSerializeData_7:
   \   000122                ; Setup parameters for call to function osal_memcpy
   \   000122   78..         MOV       R0,#?V0
   \   000124   12....       LCALL     ?PUSH_XSTACK_I_THREE
   \   000127   7C05         MOV       R4,#0x5
   \   000129   8046         SJMP      ??zclSerializeData_12
   3031                break;
   3032          
   3033              case ZCL_DATATYPE_BITMAP48:
   3034              case ZCL_DATATYPE_UINT48:
   3035              case ZCL_DATATYPE_INT48:
   3036                pStr = (uint8*)attrData;
   3037                buf = zcl_memcpy( buf, pStr, 6 );
   \                     ??zclSerializeData_8:
   \   00012B                ; Setup parameters for call to function osal_memcpy
   \   00012B   78..         MOV       R0,#?V0
   \   00012D   12....       LCALL     ?PUSH_XSTACK_I_THREE
   \   000130   7C06         MOV       R4,#0x6
   \   000132   803D         SJMP      ??zclSerializeData_12
   3038                break;
   3039          
   3040              case ZCL_DATATYPE_BITMAP56:
   3041              case ZCL_DATATYPE_UINT56:
   3042              case ZCL_DATATYPE_INT56:
   3043                pStr = (uint8*)attrData;
   3044                buf = zcl_memcpy( buf, pStr, 7 );
   \                     ??zclSerializeData_9:
   \   000134                ; Setup parameters for call to function osal_memcpy
   \   000134   78..         MOV       R0,#?V0
   \   000136   12....       LCALL     ?PUSH_XSTACK_I_THREE
   \   000139   7C07         MOV       R4,#0x7
   \   00013B   8034         SJMP      ??zclSerializeData_12
   3045                break;
   3046          
   3047              case ZCL_DATATYPE_BITMAP64:
   3048              case ZCL_DATATYPE_DOUBLE_PREC:
   3049              case ZCL_DATATYPE_IEEE_ADDR:
   3050              case ZCL_DATATYPE_UINT64:
   3051              case ZCL_DATATYPE_INT64:
   3052                pStr = (uint8*)attrData;
   3053                buf = zcl_memcpy( buf, pStr, 8 );
   \                     ??zclSerializeData_10:
   \   00013D                ; Setup parameters for call to function osal_memcpy
   \   00013D   78..         MOV       R0,#?V0
   \   00013F   12....       LCALL     ?PUSH_XSTACK_I_THREE
   \   000142   7C08         MOV       R4,#0x8
   \   000144   802B         SJMP      ??zclSerializeData_12
   3054                break;
   3055          
   3056              case ZCL_DATATYPE_CHAR_STR:
   3057              case ZCL_DATATYPE_OCTET_STR:
   3058                pStr = (uint8*)attrData;
   3059                len = *pStr;
   3060                buf = zcl_memcpy( buf, pStr, len+1 ); // Including length field
   \                     ??zclSerializeData_1:
   \   000146                ; Setup parameters for call to function osal_memcpy
   \   000146   78..         MOV       R0,#?V0
   \   000148   12....       LCALL     ?PUSH_XSTACK_I_THREE
   \   00014B   8E82         MOV       DPL,R6
   \   00014D   8F83         MOV       DPH,R7
   \   00014F   E0           MOVX      A,@DPTR
   \   000150   2401         ADD       A,#0x1
   \   000152   FC           MOV       R4,A
   \   000153   E4           CLR       A
   \   000154   3400         ADDC      A,#0x0
   \   000156   800F         SJMP      ??zclSerializeData_13
   3061                break;
   3062          
   3063              case ZCL_DATATYPE_LONG_CHAR_STR:
   3064              case ZCL_DATATYPE_LONG_OCTET_STR:
   3065                pStr = (uint8*)attrData;
   3066                len = BUILD_UINT16( pStr[0], pStr[1] );
   3067                buf = zcl_memcpy( buf, pStr, len+2 ); // Including length field
   \                     ??zclSerializeData_2:
   \   000158                ; Setup parameters for call to function osal_memcpy
   \   000158   78..         MOV       R0,#?V0
   \   00015A   12....       LCALL     ?PUSH_XSTACK_I_THREE
   \   00015D   8E82         MOV       DPL,R6
   \   00015F   8F83         MOV       DPH,R7
   \   000161   12....       LCALL     ?Subroutine124 & 0xFFFF
   \                     ??CrossCallReturnLabel_212:
   \   000164   FC           MOV       R4,A
   \   000165   E4           CLR       A
   \   000166   39           ADDC      A,R1
   \                     ??zclSerializeData_13:
   \   000167   FD           MOV       R5,A
   \   000168   8009         SJMP      ??zclSerializeData_14
   3068                break;
   3069          
   3070              case ZCL_DATATYPE_128_BIT_SEC_KEY:
   3071                pStr = (uint8*)attrData;
   3072                buf = zcl_memcpy( buf, pStr, SEC_KEY_LEN );
   \                     ??zclSerializeData_11:
   \   00016A                ; Setup parameters for call to function osal_memcpy
   \   00016A   78..         MOV       R0,#?V0
   \   00016C   12....       LCALL     ?PUSH_XSTACK_I_THREE
   \   00016F   7C10         MOV       R4,#0x10
   \                     ??zclSerializeData_12:
   \   000171   7D00         MOV       R5,#0x0
   \                     ??zclSerializeData_14:
   \   000173   12....       LCALL     ??Subroutine241_0 & 0xFFFF
   \                     ??CrossCallReturnLabel_504:
   \   000176   12....       LCALL     ?DEALLOC_XSTACK8
   3073                break;
   3074          
   3075              case ZCL_DATATYPE_NO_DATA:
   3076              case ZCL_DATATYPE_UNKNOWN:
   3077                // Fall through
   3078          
   3079              default:
   3080                break;
   3081            }
   3082          
   3083            return ( buf );
   \                     ??zclSerializeData_0:
   \   000179                REQUIRE ?Subroutine9
   \   000179                ; // Fall through to label ?Subroutine9
   3084          }

   \                                 In  segment BANKED_CODE, align 1, keep-with-next
   \                     ?Subroutine9:
   \   000000   7F07         MOV       R7,#0x7
   \   000002   02....       LJMP      ?BANKED_LEAVE_XDATA

   \                                 In  segment BANKED_CODE, align 1, keep-with-next
   \                     ?Subroutine124:
   \   000000   E0           MOVX      A,@DPTR
   \   000001   FC           MOV       R4,A
   \   000002   A3           INC       DPTR
   \   000003   E0           MOVX      A,@DPTR
   \   000004   F9           MOV       R1,A
   \   000005   EC           MOV       A,R4
   \   000006   2402         ADD       A,#0x2
   \   000008   22           RET
   3085          
   3086          #if defined ZCL_REPORTING_DEVICE || defined ZCL_REPORT_CONFIGURING_DEVICE
   3087          /*********************************************************************
   3088           * @fn      zclAnalogDataType
   3089           *
   3090           * @brief   Checks to see if Data Type is Analog
   3091           *
   3092           * @param   dataType - data type
   3093           *
   3094           * @return  TRUE if data type is analog
   3095           */

   \                                 In  segment BANKED_CODE, align 1, keep-with-next
   3096          uint8 zclAnalogDataType( uint8 dataType )
   \                     zclAnalogDataType:
   3097          {
   \   000000   C082         PUSH      DPL
   \   000002   C083         PUSH      DPH
   \   000004                ; Saved register size: 2
   \   000004                ; Auto size: 0
   \   000004   E9           MOV       A,R1
   3098            uint8 analog;
   3099          
   3100            switch ( dataType )
   \   000005   12....       LCALL     ?UC_SWITCH_SPARSE
   \                     `?<Jumptable for zclAnalogDataType>_0`:
   \   000008   03           DB        3
   \   000009   20           DB        32
   \   00000A   2F           DB        47
   \   00000B   ....         DW        ??zclAnalogDataType_0
   \   00000D   38           DB        56
   \   00000E   3A           DB        58
   \   00000F   ....         DW        ??zclAnalogDataType_0
   \   000011   E0           DB        224
   \   000012   E2           DB        226
   \   000013   ....         DW        ??zclAnalogDataType_0
   \   000015   00           DB        0
   \   000016   ....         DW        ??zclAnalogDataType_1
   3101            {
   3102              case ZCL_DATATYPE_UINT8:
   3103              case ZCL_DATATYPE_UINT16:
   3104              case ZCL_DATATYPE_UINT24:
   3105              case ZCL_DATATYPE_UINT32:
   3106              case ZCL_DATATYPE_UINT40:
   3107              case ZCL_DATATYPE_UINT48:
   3108              case ZCL_DATATYPE_UINT56:
   3109              case ZCL_DATATYPE_UINT64:
   3110              case ZCL_DATATYPE_INT8:
   3111              case ZCL_DATATYPE_INT16:
   3112              case ZCL_DATATYPE_INT24:
   3113              case ZCL_DATATYPE_INT32:
   3114              case ZCL_DATATYPE_INT40:
   3115              case ZCL_DATATYPE_INT48:
   3116              case ZCL_DATATYPE_INT56:
   3117              case ZCL_DATATYPE_INT64:
   3118              case ZCL_DATATYPE_SEMI_PREC:
   3119              case ZCL_DATATYPE_SINGLE_PREC:
   3120              case ZCL_DATATYPE_DOUBLE_PREC:
   3121              case ZCL_DATATYPE_TOD:
   3122              case ZCL_DATATYPE_DATE:
   3123              case ZCL_DATATYPE_UTC:
   3124                analog = TRUE;
   \                     ??zclAnalogDataType_0:
   \   000018   7901         MOV       R1,#0x1
   3125                break;
   \   00001A   8002         SJMP      ??zclAnalogDataType_2
   3126          
   3127              default:
   3128                analog = FALSE;
   \                     ??zclAnalogDataType_1:
   \   00001C   7900         MOV       R1,#0x0
   3129                break;
   3130            }
   3131          
   3132            return ( analog );
   \                     ??zclAnalogDataType_2:
   \   00001E   02....       LJMP      ?Subroutine0 & 0xFFFF
   3133          }
   3134          
   3135          /*********************************************************************
   3136           * @fn      zclIsLittleEndianMachine
   3137           *
   3138           * @brief   Verifies endianness in system.
   3139           *
   3140           * @param   none
   3141           *
   3142           * @return  MSB-00 or LSB-01 depending on endianness in the system
   3143           */
   3144          static int zclIsLittleEndianMachine(void)
   3145          {
   3146            uint16 test = 0x0001;
   3147          
   3148            return (*((uint8 *)(&test)));
   3149          }
   3150          
   3151          /*********************************************************************
   3152           * @fn      zcl_BuildAnalogData
   3153           *
   3154           * @brief   Build an analog arribute out of sequential bytes.
   3155           *
   3156           * @param   dataType - type of data
   3157           * @param   pData - pointer to data
   3158           * @param   pBuf - where to put the data
   3159           *
   3160           * @return  none
   3161           */
   3162          static void zcl_BuildAnalogData( uint8 dataType, uint8 *pData, uint8 *pBuf )
   3163          {
   3164            int current_byte_index;
   3165            int remaining_bytes;
   3166            int step;
   3167          
   3168            remaining_bytes = zclGetAttrDataLength(dataType, pData);
   3169          
   3170            // decide if move forward or backwards to copy data
   3171            if ( zclIsLittleEndianMachine() )
   3172            {
   3173              step = 1;
   3174              current_byte_index = 0;
   3175            }
   3176            else
   3177            {
   3178              step = -1;
   3179              current_byte_index = remaining_bytes - 1;
   3180            }
   3181          
   3182            while ( remaining_bytes-- )
   3183            {
   3184              pData[current_byte_index] = *(pBuf++);
   3185              current_byte_index += step;
   3186            }
   3187          }
   3188          #endif
   3189          
   3190          /*********************************************************************
   3191           * @fn      zclGetDataTypeLength
   3192           *
   3193           * @brief   Return the length of the datatype in octet.
   3194           *
   3195           *          NOTE: Should not be called for ZCL_DATATYPE_OCTECT_STR or
   3196           *                ZCL_DATATYPE_CHAR_STR data types.
   3197           *
   3198           * @param   dataType - data type
   3199           *
   3200           * @return  length of data
   3201           */

   \                                 In  segment BANKED_CODE, align 1, keep-with-next
   3202          uint8 zclGetDataTypeLength( uint8 dataType )
   \                     zclGetDataTypeLength:
   3203          {
   \   000000                ; Saved register size: 0
   \   000000                ; Auto size: 0
   \   000000   E9           MOV       A,R1
   3204            uint8 len;
   3205          
   3206            switch ( dataType )
   \   000001   24F8         ADD       A,#-0x8
   \   000003   6078         JZ        ??zclGetDataTypeLength_0
   \   000005   14           DEC       A
   \   000006   6079         JZ        ??zclGetDataTypeLength_1
   \   000008   14           DEC       A
   \   000009   607A         JZ        ??zclGetDataTypeLength_2
   \   00000B   14           DEC       A
   \   00000C   607B         JZ        ??zclGetDataTypeLength_3
   \   00000E   24FB         ADD       A,#-0x5
   \   000010   606B         JZ        ??zclGetDataTypeLength_0
   \   000012   24F8         ADD       A,#-0x8
   \   000014   6067         JZ        ??zclGetDataTypeLength_0
   \   000016   14           DEC       A
   \   000017   6068         JZ        ??zclGetDataTypeLength_1
   \   000019   14           DEC       A
   \   00001A   6069         JZ        ??zclGetDataTypeLength_2
   \   00001C   14           DEC       A
   \   00001D   606A         JZ        ??zclGetDataTypeLength_3
   \   00001F   24FB         ADD       A,#-0x5
   \   000021   605A         JZ        ??zclGetDataTypeLength_0
   \   000023   14           DEC       A
   \   000024   605B         JZ        ??zclGetDataTypeLength_1
   \   000026   14           DEC       A
   \   000027   605C         JZ        ??zclGetDataTypeLength_2
   \   000029   14           DEC       A
   \   00002A   605D         JZ        ??zclGetDataTypeLength_3
   \   00002C   14           DEC       A
   \   00002D   605E         JZ        ??zclGetDataTypeLength_4
   \   00002F   14           DEC       A
   \   000030   605F         JZ        ??zclGetDataTypeLength_5
   \   000032   14           DEC       A
   \   000033   6060         JZ        ??zclGetDataTypeLength_6
   \   000035   14           DEC       A
   \   000036   6061         JZ        ??zclGetDataTypeLength_7
   \   000038   14           DEC       A
   \   000039   6042         JZ        ??zclGetDataTypeLength_0
   \   00003B   14           DEC       A
   \   00003C   6043         JZ        ??zclGetDataTypeLength_1
   \   00003E   14           DEC       A
   \   00003F   6044         JZ        ??zclGetDataTypeLength_2
   \   000041   14           DEC       A
   \   000042   6045         JZ        ??zclGetDataTypeLength_3
   \   000044   14           DEC       A
   \   000045   6046         JZ        ??zclGetDataTypeLength_4
   \   000047   14           DEC       A
   \   000048   6047         JZ        ??zclGetDataTypeLength_5
   \   00004A   14           DEC       A
   \   00004B   6048         JZ        ??zclGetDataTypeLength_6
   \   00004D   14           DEC       A
   \   00004E   6049         JZ        ??zclGetDataTypeLength_7
   \   000050   14           DEC       A
   \   000051   602A         JZ        ??zclGetDataTypeLength_0
   \   000053   14           DEC       A
   \   000054   602B         JZ        ??zclGetDataTypeLength_1
   \   000056   24F9         ADD       A,#-0x7
   \   000058   6027         JZ        ??zclGetDataTypeLength_1
   \   00005A   14           DEC       A
   \   00005B   602C         JZ        ??zclGetDataTypeLength_3
   \   00005D   14           DEC       A
   \   00005E   6039         JZ        ??zclGetDataTypeLength_7
   \   000060   245A         ADD       A,#0x5a
   \   000062   6025         JZ        ??zclGetDataTypeLength_3
   \   000064   14           DEC       A
   \   000065   6022         JZ        ??zclGetDataTypeLength_3
   \   000067   14           DEC       A
   \   000068   601F         JZ        ??zclGetDataTypeLength_3
   \   00006A   24FA         ADD       A,#-0x6
   \   00006C   6013         JZ        ??zclGetDataTypeLength_1
   \   00006E   14           DEC       A
   \   00006F   6010         JZ        ??zclGetDataTypeLength_1
   \   000071   14           DEC       A
   \   000072   6015         JZ        ??zclGetDataTypeLength_3
   \   000074   24FA         ADD       A,#-0x6
   \   000076   6021         JZ        ??zclGetDataTypeLength_7
   \   000078   14           DEC       A
   \   000079   6022         JZ        ??zclGetDataTypeLength_8
   \   00007B   8024         SJMP      ??zclGetDataTypeLength_9
   3207            {
   3208              case ZCL_DATATYPE_DATA8:
   3209              case ZCL_DATATYPE_BOOLEAN:
   3210              case ZCL_DATATYPE_BITMAP8:
   3211              case ZCL_DATATYPE_INT8:
   3212              case ZCL_DATATYPE_UINT8:
   3213              case ZCL_DATATYPE_ENUM8:
   3214                len = 1;
   \                     ??zclGetDataTypeLength_0:
   \   00007D   7901         MOV       R1,#0x1
   3215                break;
   \   00007F   8022         SJMP      ??zclGetDataTypeLength_10
   3216          
   3217              case ZCL_DATATYPE_DATA16:
   3218              case ZCL_DATATYPE_BITMAP16:
   3219              case ZCL_DATATYPE_UINT16:
   3220              case ZCL_DATATYPE_INT16:
   3221              case ZCL_DATATYPE_ENUM16:
   3222              case ZCL_DATATYPE_SEMI_PREC:
   3223              case ZCL_DATATYPE_CLUSTER_ID:
   3224              case ZCL_DATATYPE_ATTR_ID:
   3225                len = 2;
   \                     ??zclGetDataTypeLength_1:
   \   000081   7902         MOV       R1,#0x2
   3226                break;
   \   000083   801E         SJMP      ??zclGetDataTypeLength_10
   3227          
   3228              case ZCL_DATATYPE_DATA24:
   3229              case ZCL_DATATYPE_BITMAP24:
   3230              case ZCL_DATATYPE_UINT24:
   3231              case ZCL_DATATYPE_INT24:
   3232                len = 3;
   \                     ??zclGetDataTypeLength_2:
   \   000085   7903         MOV       R1,#0x3
   3233                break;
   \   000087   801A         SJMP      ??zclGetDataTypeLength_10
   3234          
   3235              case ZCL_DATATYPE_DATA32:
   3236              case ZCL_DATATYPE_BITMAP32:
   3237              case ZCL_DATATYPE_UINT32:
   3238              case ZCL_DATATYPE_INT32:
   3239              case ZCL_DATATYPE_SINGLE_PREC:
   3240              case ZCL_DATATYPE_TOD:
   3241              case ZCL_DATATYPE_DATE:
   3242              case ZCL_DATATYPE_UTC:
   3243              case ZCL_DATATYPE_BAC_OID:
   3244                len = 4;
   \                     ??zclGetDataTypeLength_3:
   \   000089   7904         MOV       R1,#0x4
   3245                break;
   \   00008B   8016         SJMP      ??zclGetDataTypeLength_10
   3246          
   3247             case ZCL_DATATYPE_UINT40:
   3248             case ZCL_DATATYPE_INT40:
   3249                 len = 5;
   \                     ??zclGetDataTypeLength_4:
   \   00008D   7905         MOV       R1,#0x5
   3250                 break;
   \   00008F   8012         SJMP      ??zclGetDataTypeLength_10
   3251          
   3252             case ZCL_DATATYPE_UINT48:
   3253             case ZCL_DATATYPE_INT48:
   3254                 len = 6;
   \                     ??zclGetDataTypeLength_5:
   \   000091   7906         MOV       R1,#0x6
   3255                 break;
   \   000093   800E         SJMP      ??zclGetDataTypeLength_10
   3256          
   3257             case ZCL_DATATYPE_UINT56:
   3258             case ZCL_DATATYPE_INT56:
   3259                 len = 7;
   \                     ??zclGetDataTypeLength_6:
   \   000095   7907         MOV       R1,#0x7
   3260                 break;
   \   000097   800A         SJMP      ??zclGetDataTypeLength_10
   3261          
   3262             case ZCL_DATATYPE_DOUBLE_PREC:
   3263             case ZCL_DATATYPE_IEEE_ADDR:
   3264             case ZCL_DATATYPE_UINT64:
   3265             case ZCL_DATATYPE_INT64:
   3266               len = 8;
   \                     ??zclGetDataTypeLength_7:
   \   000099   7908         MOV       R1,#0x8
   3267               break;
   \   00009B   8006         SJMP      ??zclGetDataTypeLength_10
   3268          
   3269              case ZCL_DATATYPE_128_BIT_SEC_KEY:
   3270               len = SEC_KEY_LEN;
   \                     ??zclGetDataTypeLength_8:
   \   00009D   7910         MOV       R1,#0x10
   3271               break;
   \   00009F   8002         SJMP      ??zclGetDataTypeLength_10
   3272          
   3273              case ZCL_DATATYPE_NO_DATA:
   3274              case ZCL_DATATYPE_UNKNOWN:
   3275                // Fall through
   3276          
   3277              default:
   3278                len = 0;
   \                     ??zclGetDataTypeLength_9:
   \   0000A1   7900         MOV       R1,#0x0
   3279                break;
   3280            }
   3281          
   3282            return ( len );
   \                     ??zclGetDataTypeLength_10:
   \   0000A3   02....       LJMP      ?BRET
   3283          }
   3284          
   3285          /*********************************************************************
   3286           * @fn      zclGetAttrDataLength
   3287           *
   3288           * @brief   Return the length of the attribute.
   3289           *
   3290           * @param   dataType - data type
   3291           * @param   pData - pointer to data
   3292           *
   3293           * @return  returns atrribute length
   3294           */

   \                                 In  segment BANKED_CODE, align 1, keep-with-next
   3295          uint16 zclGetAttrDataLength( uint8 dataType, uint8 *pData )
   \                     zclGetAttrDataLength:
   3296          {
   \   000000   74F7         MOV       A,#-0x9
   \   000002   12....       LCALL     ?BANKED_ENTER_XDATA
   \   000005                ; Saved register size: 9
   \   000005                ; Auto size: 0
   \   000005   E9           MOV       A,R1
   \   000006   FE           MOV       R6,A
   3297            uint16 dataLen = 0;
   3298          
   3299            if ( dataType == ZCL_DATATYPE_LONG_CHAR_STR || dataType == ZCL_DATATYPE_LONG_OCTET_STR )
   \   000007   7444         MOV       A,#0x44
   \   000009   6E           XRL       A,R6
   \   00000A   6005         JZ        ??zclGetAttrDataLength_0
   \   00000C   7443         MOV       A,#0x43
   \   00000E   6E           XRL       A,R6
   \   00000F   700C         JNZ       ??zclGetAttrDataLength_1
   3300            {
   3301              dataLen = BUILD_UINT16( pData[0], pData[1] ) + 2; // long string length + 2 for length field
   \                     ??zclGetAttrDataLength_0:
   \   000011   8A82         MOV       DPL,R2
   \   000013   8B83         MOV       DPH,R3
   \   000015   12....       LCALL     ?Subroutine124 & 0xFFFF
   3302            }
   \                     ??CrossCallReturnLabel_213:
   \   000018   FA           MOV       R2,A
   \   000019   E4           CLR       A
   \   00001A   39           ADDC      A,R1
   \   00001B   8015         SJMP      ??zclGetAttrDataLength_2
   3303            else if ( dataType == ZCL_DATATYPE_CHAR_STR || dataType == ZCL_DATATYPE_OCTET_STR )
   \                     ??zclGetAttrDataLength_1:
   \   00001D   7442         MOV       A,#0x42
   \   00001F   6E           XRL       A,R6
   \   000020   6005         JZ        ??zclGetAttrDataLength_3
   \   000022   7441         MOV       A,#0x41
   \   000024   6E           XRL       A,R6
   \   000025   700E         JNZ       ??zclGetAttrDataLength_4
   3304            {
   3305              dataLen = *pData + 1; // string length + 1 for length field
   \                     ??zclGetAttrDataLength_3:
   \   000027   8A82         MOV       DPL,R2
   \   000029   8B83         MOV       DPH,R3
   \   00002B   E0           MOVX      A,@DPTR
   \   00002C   2401         ADD       A,#0x1
   \   00002E   FA           MOV       R2,A
   \   00002F   E4           CLR       A
   \   000030   3400         ADDC      A,#0x0
   \                     ??zclGetAttrDataLength_2:
   \   000032   FB           MOV       R3,A
   \   000033   8007         SJMP      ??zclGetAttrDataLength_5
   3306            }
   3307            else
   3308            {
   3309              dataLen = zclGetDataTypeLength( dataType );
   \                     ??zclGetAttrDataLength_4:
   \   000035                ; Setup parameters for call to function zclGetDataTypeLength
   \   000035   12....       LCALL     `??zclGetDataTypeLength::?relay`; Banked call to: zclGetDataTypeLength
   \   000038   E9           MOV       A,R1
   \   000039   FA           MOV       R2,A
   \   00003A   7B00         MOV       R3,#0x0
   3310            }
   3311          
   3312            return ( dataLen );
   \                     ??zclGetAttrDataLength_5:
   \   00003C   02....       LJMP      ??Subroutine232_0 & 0xFFFF
   3313          }
   3314          
   3315          #ifdef ZCL_READ
   3316          /*********************************************************************
   3317           * @fn      zclReadAttrData
   3318           *
   3319           * @brief   Read the attribute's current value into pAttrData.
   3320           *          NOTE - Not compatible with application's attributes callbacks.
   3321           *
   3322           * @param   pAttrData - where to put attribute data
   3323           * @param   pAttr - pointer to attribute
   3324           * @param   pDataLen - where to put attribute data length
   3325           *
   3326           * @return Success
   3327           */

   \                                 In  segment BANKED_CODE, align 1, keep-with-next
   3328          ZStatus_t zclReadAttrData( uint8 *pAttrData, zclAttrRec_t *pAttr, uint16 *pDataLen )
   \                     zclReadAttrData:
   3329          {
   \   000000                REQUIRE ?V0
   \   000000                REQUIRE ?V1
   \   000000                REQUIRE ?V2
   \   000000                REQUIRE ?V3
   \   000000                REQUIRE ?V4
   \   000000                REQUIRE ?V5
   \   000000                REQUIRE ?V6
   \   000000   74F1         MOV       A,#-0xf
   \   000002   12....       LCALL     ?BANKED_ENTER_XDATA
   \   000005                ; Saved register size: 15
   \   000005                ; Auto size: 0
   \   000005   EA           MOV       A,R2
   \   000006   FE           MOV       R6,A
   \   000007   EB           MOV       A,R3
   \   000008   FF           MOV       R7,A
   3330            uint16 dataLen;
   3331          
   3332            if ( pAttr->attr.dataPtr == NULL )
   \   000009   EC           MOV       A,R4
   \   00000A   2406         ADD       A,#0x6
   \   00000C   F8           MOV       R0,A
   \   00000D   E4           CLR       A
   \   00000E   3D           ADDC      A,R5
   \   00000F   88..         MOV       ?V0,R0
   \   000011   F5..         MOV       ?V1,A
   \   000013   8882         MOV       DPL,R0
   \   000015   F583         MOV       DPH,A
   \   000017   12....       LCALL     ??Subroutine215_0 & 0xFFFF
   \                     ??CrossCallReturnLabel_375:
   \   00001A   7004         JNZ       ??zclReadAttrData_0
   3333            {
   3334              return ( ZCL_STATUS_FAILURE );
   \   00001C   7901         MOV       R1,#0x1
   \   00001E   8041         SJMP      ??zclReadAttrData_1
   3335            }
   3336          
   3337            dataLen = zclGetAttrDataLength( pAttr->attr.dataType, (uint8*)(pAttr->attr.dataPtr) );
   \                     ??zclReadAttrData_0:
   \   000020                ; Setup parameters for call to function zclGetAttrDataLength
   \   000020   8C82         MOV       DPL,R4
   \   000022   8D83         MOV       DPH,R5
   \   000024   A3           INC       DPTR
   \   000025   12....       LCALL     ?Subroutine86 & 0xFFFF
   \                     ??CrossCallReturnLabel_594:
   \   000028   8A..         MOV       ?V2,R2
   \   00002A   8B..         MOV       ?V3,R3
   3338            zcl_memcpy( pAttrData, pAttr->attr.dataPtr, dataLen );
   \   00002C                ; Setup parameters for call to function osal_memcpy
   \   00002C   85..82       MOV       DPL,?V0
   \   00002F   85..83       MOV       DPH,?V1
   \   000032   E0           MOVX      A,@DPTR
   \   000033   F5..         MOV       ?V0,A
   \   000035   A3           INC       DPTR
   \   000036   E0           MOVX      A,@DPTR
   \   000037   85....       MOV       ?V4,?V0
   \   00003A   F5..         MOV       ?V5,A
   \   00003C   75..00       MOV       ?V6,#0x0
   \   00003F   78..         MOV       R0,#?V4
   \   000041   12....       LCALL     ?PUSH_XSTACK_I_THREE
   \   000044   AC..         MOV       R4,?V2
   \   000046   AD..         MOV       R5,?V3
   \   000048   12....       LCALL     ?Subroutine149 & 0xFFFF
   \                     ??CrossCallReturnLabel_501:
   \   00004B   12....       LCALL     ?DEALLOC_XSTACK8
   \   00004E   740F         MOV       A,#0xf
   \   000050   12....       LCALL     ?XSTACK_DISP0_8
   \   000053   12....       LCALL     ??Subroutine228_0 & 0xFFFF
   3339          
   3340            if ( pDataLen != NULL )
   \                     ??CrossCallReturnLabel_441:
   \   000056   6007         JZ        ??zclReadAttrData_2
   3341            {
   3342              *pDataLen = dataLen;
   \   000058   E5..         MOV       A,?V2
   \   00005A   F0           MOVX      @DPTR,A
   \   00005B   A3           INC       DPTR
   \   00005C   E5..         MOV       A,?V3
   \   00005E   F0           MOVX      @DPTR,A
   3343            }
   3344          
   3345            return ( ZCL_STATUS_SUCCESS );
   \                     ??zclReadAttrData_2:
   \   00005F   7900         MOV       R1,#0x0
   \                     ??zclReadAttrData_1:
   \   000061   02....       LJMP      ?Subroutine9 & 0xFFFF
   3346          }

   \                                 In  segment BANKED_CODE, align 1, keep-with-next
   \                     ?Subroutine149:
   \   000000   EE           MOV       A,R6
   \   000001   FA           MOV       R2,A
   \   000002   EF           MOV       A,R7
   \   000003   FB           MOV       R3,A
   \   000004                REQUIRE ??Subroutine241_0
   \   000004                ; // Fall through to label ??Subroutine241_0
   3347          
   3348          /*********************************************************************
   3349           * @fn      zcl_ReadAttrData
   3350           *
   3351           * @brief   Read the attribute's current value into pAttrData.
   3352           *          Use application's callback function if assigned to this attribute.
   3353           *
   3354           * @param   endpoint - application's endpoint
   3355           * @param   clusterId - cluster that attribute belongs to
   3356           * @param   attrId - attribute id
   3357           * @param   pAttrData - where to put attribute data
   3358           * @param   pDataLen - where to put attribute data length
   3359           *
   3360           * @return  Successful if data was read
   3361           */

   \                                 In  segment BANKED_CODE, align 1, keep-with-next
   3362          ZStatus_t zcl_ReadAttrData( uint8 endpoint, uint16 clusterId, uint16 attrId,
   \                     zcl_ReadAttrData:
   3363                                                   uint8 *pAttrData, uint16 *pDataLen )
   3364          {
   \   000000                REQUIRE ?V0
   \   000000                REQUIRE ?V1
   \   000000                REQUIRE ?V2
   \   000000                REQUIRE ?V4
   \   000000                REQUIRE ?V5
   \   000000                REQUIRE ?V6
   \   000000                REQUIRE ?V7
   \   000000   74F0         MOV       A,#-0x10
   \   000002   12....       LCALL     ?BANKED_ENTER_XDATA
   \   000005                ; Saved register size: 16
   \   000005                ; Auto size: 8
   \   000005   74F8         MOV       A,#-0x8
   \   000007   12....       LCALL     ?ALLOC_XSTACK8
   \   00000A   89..         MOV       ?V2,R1
   \   00000C   8A..         MOV       ?V0,R2
   \   00000E   8B..         MOV       ?V1,R3
   \   000010   EC           MOV       A,R4
   \   000011   FE           MOV       R6,A
   \   000012   ED           MOV       A,R5
   \   000013   FF           MOV       R7,A
   3365            zclAttrRec_t attrRec;
   3366          
   3367            if ( zclFindAttrRec( endpoint, clusterId, attrId, &attrRec ) == FALSE )
   \   000014                ; Setup parameters for call to function zclFindAttrRec
   \   000014   A8..         MOV       R0,?XSP + 0
   \   000016   A9..         MOV       R1,?XSP + 1
   \   000018   88..         MOV       ?V4,R0
   \   00001A   89..         MOV       ?V5,R1
   \   00001C   78..         MOV       R0,#?V4
   \   00001E   12....       LCALL     ?PUSH_XSTACK_I_TWO
   \   000021   A9..         MOV       R1,?V2
   \   000023   12....       LCALL     ??Subroutine214_0 & 0xFFFF
   \                     ??CrossCallReturnLabel_362:
   \   000026   12....       LCALL     ?DEALLOC_XSTACK8
   \   000029   E9           MOV       A,R1
   \   00002A   7004         JNZ       ??zcl_ReadAttrData_0
   3368            {
   3369              return ( ZCL_STATUS_FAILURE );
   \   00002C   7901         MOV       R1,#0x1
   \   00002E   804C         SJMP      ??zcl_ReadAttrData_1
   3370            }
   \                     ??zcl_ReadAttrData_0:
   \   000030   7418         MOV       A,#0x18
   \   000032   12....       LCALL     ?XSTACK_DISP0_8
   \   000035   12....       LCALL     ??Subroutine240_0 & 0xFFFF
   \                     ??CrossCallReturnLabel_495:
   \   000038   741A         MOV       A,#0x1a
   \   00003A   12....       LCALL     ?XSTACK_DISP0_8
   \   00003D   12....       LCALL     ?Subroutine114 & 0xFFFF
   3371          
   3372            if ( attrRec.attr.dataPtr != NULL )
   \                     ??CrossCallReturnLabel_191:
   \   000040   7406         MOV       A,#0x6
   \   000042   12....       LCALL     ?XSTACK_DISP0_8
   \   000045   12....       LCALL     ??Subroutine235_0 & 0xFFFF
   \                     ??CrossCallReturnLabel_461:
   \   000048   78..         MOV       R0,#?V4
   \   00004A   6016         JZ        ??zcl_ReadAttrData_2
   3373            {
   3374              return zclReadAttrData( pAttrData, &attrRec, pDataLen );
   \   00004C                ; Setup parameters for call to function zclReadAttrData
   \   00004C   12....       LCALL     ?PUSH_XSTACK_I_TWO
   \   00004F   7402         MOV       A,#0x2
   \   000051   12....       LCALL     ?XSTACK_DISP102_8
   \   000054   AA..         MOV       R2,?V6
   \   000056   AB..         MOV       R3,?V7
   \   000058   12....       LCALL     `??zclReadAttrData::?relay`; Banked call to: zclReadAttrData
   \   00005B   7402         MOV       A,#0x2
   \   00005D   12....       LCALL     ?DEALLOC_XSTACK8
   \   000060   801A         SJMP      ??zcl_ReadAttrData_1
   3375            }
   3376            else
   3377            {
   3378              return zclReadAttrDataUsingCB( endpoint, clusterId, attrId, pAttrData, pDataLen );
   \                     ??zcl_ReadAttrData_2:
   \   000062                ; Setup parameters for call to function zclReadAttrDataUsingCB
   \   000062   12....       LCALL     ?PUSH_XSTACK_I_TWO
   \   000065   78..         MOV       R0,#?V6
   \   000067   12....       LCALL     ?PUSH_XSTACK_I_TWO
   \   00006A   EE           MOV       A,R6
   \   00006B   FC           MOV       R4,A
   \   00006C   EF           MOV       A,R7
   \   00006D   FD           MOV       R5,A
   \   00006E   AA..         MOV       R2,?V0
   \   000070   AB..         MOV       R3,?V1
   \   000072   A9..         MOV       R1,?V2
   \   000074   12....       LCALL     `??zclReadAttrDataUsingCB::?relay`; Banked call to: zclReadAttrDataUsingCB
   \   000077   7404         MOV       A,#0x4
   \   000079   12....       LCALL     ?DEALLOC_XSTACK8
   \                     ??zcl_ReadAttrData_1:
   \   00007C   7408         MOV       A,#0x8
   3379            }
   \   00007E   02....       LJMP      ?Subroutine8 & 0xFFFF
   3380          }
   3381          
   3382          /*********************************************************************
   3383           * @fn      zclGetAttrDataLengthUsingCB
   3384           *
   3385           * @brief   Use application's callback to get the length of the attribute's
   3386           *          current value stored in the database.
   3387           *
   3388           * @param   endpoint - application's endpoint
   3389           * @param   clusterId - cluster that attribute belongs to
   3390           * @param   attrId - attribute id
   3391           *
   3392           * @return  returns attribute length
   3393           */

   \                                 In  segment BANKED_CODE, align 1, keep-with-next
   3394          static uint16 zclGetAttrDataLengthUsingCB( uint8 endpoint, uint16 clusterId, uint16 attrId )
   \                     zclGetAttrDataLengthUsingCB:
   3395          {
   \   000000                REQUIRE ?V0
   \   000000                REQUIRE ?V1
   \   000000                REQUIRE ?V2
   \   000000                REQUIRE ?V4
   \   000000                REQUIRE ?V5
   \   000000                REQUIRE ?V6
   \   000000                REQUIRE ?V7
   \   000000   74F0         MOV       A,#-0x10
   \   000002   12....       LCALL     ?BANKED_ENTER_XDATA
   \   000005                ; Saved register size: 16
   \   000005                ; Auto size: 2
   \   000005   74FE         MOV       A,#-0x2
   \   000007   12....       LCALL     ?ALLOC_XSTACK8
   \   00000A   8A..         MOV       ?V4,R2
   \   00000C   8B..         MOV       ?V5,R3
   \   00000E   EC           MOV       A,R4
   \   00000F   FE           MOV       R6,A
   \   000010   ED           MOV       A,R5
   \   000011   FF           MOV       R7,A
   3396            uint16 dataLen = 0;
   \   000012   85..82       MOV       DPL,?XSP + 0
   \   000015   85..83       MOV       DPH,?XSP + 1
   \   000018   E4           CLR       A
   \   000019   F0           MOVX      @DPTR,A
   \   00001A   A3           INC       DPTR
   \   00001B   F0           MOVX      @DPTR,A
   3397            zclReadWriteCB_t pfnReadWriteCB = zclGetReadWriteCB( endpoint );
   \   00001C                ; Setup parameters for call to function zclGetReadWriteCB
   \   00001C   12....       LCALL     `??zclGetReadWriteCB::?relay`; Banked call to: zclGetReadWriteCB
   \   00001F   8A..         MOV       ?V0,R2
   \   000021   8B..         MOV       ?V1,R3
   3398          
   3399            if ( pfnReadWriteCB != NULL )
   \   000023   EA           MOV       A,R2
   \   000024   4B           ORL       A,R3
   \   000025   602F         JZ        ??zclGetAttrDataLengthUsingCB_0
   3400            {
   3401              // Only get the attribute length
   3402              (*pfnReadWriteCB)( clusterId, attrId, ZCL_OPER_LEN, NULL, &dataLen );
   \   000027                ; Setup parameters for indirect call
   \   000027   A8..         MOV       R0,?XSP + 0
   \   000029   A9..         MOV       R1,?XSP + 1
   \   00002B   88..         MOV       ?V6,R0
   \   00002D   89..         MOV       ?V7,R1
   \   00002F   78..         MOV       R0,#?V6
   \   000031   12....       LCALL     ?PUSH_XSTACK_I_TWO
   \   000034   E4           CLR       A
   \   000035   F5..         MOV       ?V6,A
   \   000037   F5..         MOV       ?V7,A
   \   000039   78..         MOV       R0,#?V6
   \   00003B   12....       LCALL     ?PUSH_XSTACK_I_TWO
   \   00003E   7900         MOV       R1,#0x0
   \   000040   EE           MOV       A,R6
   \   000041   FC           MOV       R4,A
   \   000042   EF           MOV       A,R7
   \   000043   FD           MOV       R5,A
   \   000044   AA..         MOV       R2,?V4
   \   000046   AB..         MOV       R3,?V5
   \   000048   85..82       MOV       DPL,?V0
   \   00004B   85..83       MOV       DPH,?V1
   \   00004E   12....       LCALL     ?CALL_IND
   \   000051   7404         MOV       A,#0x4
   \   000053   12....       LCALL     ?DEALLOC_XSTACK8
   3403            }
   3404          
   3405            return ( dataLen );
   \                     ??zclGetAttrDataLengthUsingCB_0:
   \   000056   85..82       MOV       DPL,?XSP + 0
   \   000059   85..83       MOV       DPH,?XSP + 1
   \   00005C   12....       LCALL     ??Subroutine252_0 & 0xFFFF
   \                     ??CrossCallReturnLabel_576:
   \   00005F   7402         MOV       A,#0x2
   \   000061   02....       LJMP      ?Subroutine8 & 0xFFFF
   3406          }
   3407          
   3408          /*********************************************************************
   3409           * @fn      zclReadAttrDataUsingCB
   3410           *
   3411           * @brief   Use application's callback to read the attribute's current
   3412           *          value stored in the database.
   3413           *
   3414           * @param   endpoint - application's endpoint
   3415           * @param   clusterId - cluster that attribute belongs to
   3416           * @param   attrId - attribute id
   3417           * @param   pAttrData - where to put attribute data
   3418           * @param   pDataLen - where to put attribute data length
   3419           *
   3420           * @return  Successful if data was read
   3421           */

   \                                 In  segment BANKED_CODE, align 1, keep-with-next
   3422          static ZStatus_t zclReadAttrDataUsingCB( uint8 endpoint, uint16 clusterId, uint16 attrId,
   \                     zclReadAttrDataUsingCB:
   3423                                                   uint8 *pAttrData, uint16 *pDataLen )
   3424          {
   \   000000                REQUIRE ?V0
   \   000000                REQUIRE ?V1
   \   000000                REQUIRE ?V2
   \   000000                REQUIRE ?V3
   \   000000                REQUIRE ?V4
   \   000000                REQUIRE ?V6
   \   000000                REQUIRE ?V7
   \   000000   74F0         MOV       A,#-0x10
   \   000002   12....       LCALL     ?BANKED_ENTER_XDATA
   \   000005                ; Saved register size: 16
   \   000005                ; Auto size: 0
   \   000005   8A..         MOV       ?V0,R2
   \   000007   8B..         MOV       ?V1,R3
   \   000009   EC           MOV       A,R4
   \   00000A   FE           MOV       R6,A
   \   00000B   ED           MOV       A,R5
   \   00000C   FF           MOV       R7,A
   3425            zclReadWriteCB_t pfnReadWriteCB = zclGetReadWriteCB( endpoint );
   \   00000D                ; Setup parameters for call to function zclGetReadWriteCB
   \   00000D   12....       LCALL     `??zclGetReadWriteCB::?relay`; Banked call to: zclGetReadWriteCB
   \   000010   8A..         MOV       ?V2,R2
   \   000012   8B..         MOV       ?V3,R3
   \   000014   7412         MOV       A,#0x12
   \   000016   12....       LCALL     ?XSTACK_DISP0_8
   \   000019   12....       LCALL     ??Subroutine240_0 & 0xFFFF
   3426          
   3427            if ( pDataLen != NULL )
   \                     ??CrossCallReturnLabel_496:
   \   00001C   E5..         MOV       A,?V6
   \   00001E   45..         ORL       A,?V7
   \   000020   600A         JZ        ??zclReadAttrDataUsingCB_0
   3428            {
   3429              *pDataLen = 0; // Always initialize it to 0
   \   000022   85..82       MOV       DPL,?V6
   \   000025   85..83       MOV       DPH,?V7
   \   000028   E4           CLR       A
   \   000029   F0           MOVX      @DPTR,A
   \   00002A   A3           INC       DPTR
   \   00002B   F0           MOVX      @DPTR,A
   3430            }
   3431          
   3432            if ( pfnReadWriteCB != NULL )
   \                     ??zclReadAttrDataUsingCB_0:
   \   00002C   EA           MOV       A,R2
   \   00002D   4B           ORL       A,R3
   \   00002E   6027         JZ        ??zclReadAttrDataUsingCB_1
   3433            {
   3434              // Read the attribute value and its length
   3435              return ( (*pfnReadWriteCB)( clusterId, attrId, ZCL_OPER_READ, pAttrData, pDataLen ) );
   \   000030                ; Setup parameters for indirect call
   \   000030   78..         MOV       R0,#?V6
   \   000032   12....       LCALL     ?PUSH_XSTACK_I_TWO
   \   000035   7412         MOV       A,#0x12
   \   000037   12....       LCALL     ?XSTACK_DISP0_8
   \   00003A   12....       LCALL     ?PUSH_XSTACK8_X_TWO
   \   00003D   7901         MOV       R1,#0x1
   \   00003F   EE           MOV       A,R6
   \   000040   FC           MOV       R4,A
   \   000041   EF           MOV       A,R7
   \   000042   FD           MOV       R5,A
   \   000043   AA..         MOV       R2,?V0
   \   000045   AB..         MOV       R3,?V1
   \   000047   85..82       MOV       DPL,?V2
   \   00004A   85..83       MOV       DPH,?V3
   \   00004D   12....       LCALL     ?CALL_IND
   \   000050   7404         MOV       A,#0x4
   \   000052   12....       LCALL     ?DEALLOC_XSTACK8
   \   000055   8002         SJMP      ??zclReadAttrDataUsingCB_2
   3436            }
   3437          
   3438            return ( ZCL_STATUS_SOFTWARE_FAILURE );
   \                     ??zclReadAttrDataUsingCB_1:
   \   000057   79C1         MOV       R1,#-0x3f
   \                     ??zclReadAttrDataUsingCB_2:
   \   000059   02....       LJMP      ??Subroutine233_0 & 0xFFFF
   3439          }
   3440          
   3441          /*********************************************************************
   3442           * @fn      zclAuthorizeRead
   3443           *
   3444           * @brief   Use application's callback to authorize a Read operation
   3445           *          on a given attribute.
   3446           *
   3447           * @param   endpoint - application's endpoint
   3448           * @param   srcAddr - source Address
   3449           * @param   pAttr - pointer to attribute
   3450           *
   3451           * @return  ZCL_STATUS_SUCCESS: Operation authorized
   3452           *          ZCL_STATUS_NOT_AUTHORIZED: Operation not authorized
   3453           */
   3454          static ZStatus_t zclAuthorizeRead( uint8 endpoint, afAddrType_t *srcAddr, zclAttrRec_t *pAttr )
   3455          {
   3456            if ( zcl_AccessCtrlAuthRead( pAttr->attr.accessControl ) )
   3457            {
   3458              zclAuthorizeCB_t pfnAuthorizeCB = zclGetAuthorizeCB( endpoint );
   3459          
   3460              if ( pfnAuthorizeCB != NULL )
   3461              {
   3462                return ( (*pfnAuthorizeCB)( srcAddr, pAttr, ZCL_OPER_READ ) );
   3463              }
   3464            }
   3465          
   3466            return ( ZCL_STATUS_SUCCESS );
   3467          }
   3468          #endif // ZCL_READ
   3469          
   3470          #ifdef ZCL_WRITE
   3471          /*********************************************************************
   3472           * @fn      zclWriteAttrData
   3473           *
   3474           * @brief   Write the received data.
   3475           *
   3476           * @param   endpoint - application's endpoint
   3477           * @param   pAttr - where to write data to
   3478           * @param   pWriteRec - data to be written
   3479           *
   3480           * @return  Successful if data was written
   3481           */

   \                                 In  segment BANKED_CODE, align 1, keep-with-next
   3482          static ZStatus_t zclWriteAttrData( uint8 endpoint, afAddrType_t *srcAddr,
   \                     zclWriteAttrData:
   3483                                             zclAttrRec_t *pAttr, zclWriteRec_t *pWriteRec )
   3484          {
   \   000000                REQUIRE ?V0
   \   000000                REQUIRE ?V1
   \   000000                REQUIRE ?V2
   \   000000                REQUIRE ?V3
   \   000000                REQUIRE ?V4
   \   000000                REQUIRE ?V5
   \   000000                REQUIRE ?V6
   \   000000   74F1         MOV       A,#-0xf
   \   000002   12....       LCALL     ?BANKED_ENTER_XDATA
   \   000005                ; Saved register size: 15
   \   000005                ; Auto size: 0
   \   000005   EC           MOV       A,R4
   \   000006   FE           MOV       R6,A
   \   000007   ED           MOV       A,R5
   \   000008   FF           MOV       R7,A
   3485            uint8 status;
   3486          
   3487            if ( zcl_AccessCtrlWrite( pAttr->attr.accessControl ) )
   \   000009   8C82         MOV       DPL,R4
   \   00000B   F583         MOV       DPH,A
   \   00000D   A3           INC       DPTR
   \   00000E   A3           INC       DPTR
   \   00000F   A3           INC       DPTR
   \   000010   A3           INC       DPTR
   \   000011   A3           INC       DPTR
   \   000012   E0           MOVX      A,@DPTR
   \   000013   A2E1         MOV       C,0xE0 /* A   */.1
   \   000015   506A         JNC       ??zclWriteAttrData_0
   3488            {
   3489              status = zclAuthorizeWrite( endpoint, srcAddr, pAttr );
   \   000017                ; Setup parameters for call to function zclAuthorizeWrite
   \   000017   12....       LCALL     `??zclAuthorizeWrite::?relay`; Banked call to: zclAuthorizeWrite
   \   00001A   E9           MOV       A,R1
   \   00001B   F5..         MOV       ?V2,A
   3490              if ( status == ZCL_STATUS_SUCCESS )
   \   00001D   7065         JNZ       ??zclWriteAttrData_1
   \   00001F   740F         MOV       A,#0xf
   \   000021   12....       LCALL     ?XSTACK_DISP0_8
   \   000024   12....       LCALL     ??Subroutine242_0 & 0xFFFF
   3491              {
   3492                if ( ( zcl_ValidateAttrDataCB == NULL ) || zcl_ValidateAttrDataCB( pAttr, pWriteRec ) )
   \                     ??CrossCallReturnLabel_509:
   \   000027   90....       MOV       DPTR,#zcl_ValidateAttrDataCB
   \   00002A   12....       LCALL     ??Subroutine235_0 & 0xFFFF
   \                     ??CrossCallReturnLabel_462:
   \   00002D   6013         JZ        ??zclWriteAttrData_2
   \   00002F                ; Setup parameters for indirect call
   \   00002F   AC..         MOV       R4,?V0
   \   000031   AD..         MOV       R5,?V1
   \   000033   EE           MOV       A,R6
   \   000034   FA           MOV       R2,A
   \   000035   EF           MOV       A,R7
   \   000036   FB           MOV       R3,A
   \   000037   E0           MOVX      A,@DPTR
   \   000038   F583         MOV       DPH,A
   \   00003A   8882         MOV       DPL,R0
   \   00003C   12....       LCALL     ?CALL_IND
   \   00003F   E9           MOV       A,R1
   \   000040   603A         JZ        ??zclWriteAttrData_3
   3493                {
   3494                  // Write the attribute value
   3495                  uint16 len = zclGetAttrDataLength( pAttr->attr.dataType, pWriteRec->attrData );
   \                     ??zclWriteAttrData_2:
   \   000042   E5..         MOV       A,?V0
   \   000044   2403         ADD       A,#0x3
   \   000046   F8           MOV       R0,A
   \   000047   E4           CLR       A
   \   000048   35..         ADDC      A,?V1
   \   00004A   88..         MOV       ?V0,R0
   \   00004C   F5..         MOV       ?V1,A
   \   00004E                ; Setup parameters for call to function zclGetAttrDataLength
   \   00004E   8882         MOV       DPL,R0
   \   000050   F583         MOV       DPH,A
   \   000052   12....       LCALL     ?Subroutine82 & 0xFFFF
   \                     ??CrossCallReturnLabel_139:
   \   000055   12....       LCALL     ??Subroutine256_0 & 0xFFFF
   \                     ??CrossCallReturnLabel_595:
   \   000058   8A..         MOV       ?V4,R2
   \   00005A   8B..         MOV       ?V5,R3
   \   00005C   AC..         MOV       R4,?V4
   \   00005E   AD..         MOV       R5,?V5
   3496                  zcl_memcpy( pAttr->attr.dataPtr, pWriteRec->attrData, len );
   \   000060                ; Setup parameters for call to function osal_memcpy
   \   000060   85..82       MOV       DPL,?V0
   \   000063   85..83       MOV       DPH,?V1
   \   000066   12....       LCALL     ?Subroutine65 & 0xFFFF
   \                     ??CrossCallReturnLabel_105:
   \   000069   12....       LCALL     ?PUSH_XSTACK_I_THREE
   \   00006C   8E82         MOV       DPL,R6
   \   00006E   8F83         MOV       DPH,R7
   \   000070   A3           INC       DPTR
   \   000071   12....       LCALL     ?Subroutine110 & 0xFFFF
   \                     ??CrossCallReturnLabel_586:
   \   000074   12....       LCALL     ??Subroutine241_0 & 0xFFFF
   \                     ??CrossCallReturnLabel_505:
   \   000077   12....       LCALL     ?DEALLOC_XSTACK8
   3497          
   3498                  status = ZCL_STATUS_SUCCESS;
   \   00007A   8008         SJMP      ??zclWriteAttrData_1
   3499                }
   3500                else
   3501                {
   3502                  status = ZCL_STATUS_INVALID_VALUE;
   \                     ??zclWriteAttrData_3:
   \   00007C   75..87       MOV       ?V2,#-0x79
   \   00007F   8003         SJMP      ??zclWriteAttrData_1
   3503                }
   3504              }
   3505            }
   3506            else
   3507            {
   3508              status = ZCL_STATUS_READ_ONLY;
   \                     ??zclWriteAttrData_0:
   \   000081   75..88       MOV       ?V2,#-0x78
   3509            }
   3510          
   3511            return ( status );
   \                     ??zclWriteAttrData_1:
   \   000084   A9..         MOV       R1,?V2
   \   000086   02....       LJMP      ?Subroutine9 & 0xFFFF
   3512          }

   \                                 In  segment BANKED_CODE, align 1, keep-with-next
   \                     ??Subroutine242_0:
   \   000000   E0           MOVX      A,@DPTR
   \   000001   F5..         MOV       ?V0,A
   \   000003   A3           INC       DPTR
   \   000004   E0           MOVX      A,@DPTR
   \   000005   F5..         MOV       ?V1,A
   \   000007   22           RET
   3513          
   3514          /*********************************************************************
   3515           * @fn      zclWriteAttrDataUsingCB
   3516           *
   3517           * @brief   Use application's callback to write the attribute's current
   3518           *          value stored in the database.
   3519           *
   3520           * @param   endpoint - application's endpoint
   3521           * @param   pAttr - where to write data to
   3522           * @param   pAttrData - data to be written
   3523           *
   3524           * @return  Successful if data was written
   3525           */

   \                                 In  segment BANKED_CODE, align 1, keep-with-next
   3526          static ZStatus_t zclWriteAttrDataUsingCB( uint8 endpoint, afAddrType_t *srcAddr,
   \                     zclWriteAttrDataUsingCB:
   3527                                                    zclAttrRec_t *pAttr, uint8 *pAttrData )
   3528          {
   \   000000                REQUIRE ?V0
   \   000000                REQUIRE ?V2
   \   000000                REQUIRE ?V3
   \   000000                REQUIRE ?V4
   \   000000                REQUIRE ?V5
   \   000000   74F2         MOV       A,#-0xe
   \   000002   12....       LCALL     ?BANKED_ENTER_XDATA
   \   000005                ; Saved register size: 14
   \   000005                ; Auto size: 0
   \   000005   89..         MOV       ?V0,R1
   \   000007   EC           MOV       A,R4
   \   000008   FE           MOV       R6,A
   \   000009   ED           MOV       A,R5
   \   00000A   FF           MOV       R7,A
   3529            uint8 status;
   3530          
   3531            if ( zcl_AccessCtrlWrite( pAttr->attr.accessControl ) )
   \   00000B   8C82         MOV       DPL,R4
   \   00000D   F583         MOV       DPH,A
   \   00000F   A3           INC       DPTR
   \   000010   A3           INC       DPTR
   \   000011   A3           INC       DPTR
   \   000012   A3           INC       DPTR
   \   000013   A3           INC       DPTR
   \   000014   E0           MOVX      A,@DPTR
   \   000015   A2E1         MOV       C,0xE0 /* A   */.1
   \   000017   504C         JNC       ??zclWriteAttrDataUsingCB_0
   3532            {
   3533              status = zclAuthorizeWrite( endpoint, srcAddr, pAttr );
   \   000019                ; Setup parameters for call to function zclAuthorizeWrite
   \   000019   12....       LCALL     `??zclAuthorizeWrite::?relay`; Banked call to: zclAuthorizeWrite
   \   00001C   E9           MOV       A,R1
   \   00001D   F9           MOV       R1,A
   3534              if ( status == ZCL_STATUS_SUCCESS )
   \   00001E   7047         JNZ       ??zclWriteAttrDataUsingCB_1
   3535              {
   3536                zclReadWriteCB_t pfnReadWriteCB = zclGetReadWriteCB( endpoint );
   \   000020                ; Setup parameters for call to function zclGetReadWriteCB
   \   000020   A9..         MOV       R1,?V0
   \   000022   12....       LCALL     `??zclGetReadWriteCB::?relay`; Banked call to: zclGetReadWriteCB
   \   000025   8A..         MOV       ?V2,R2
   \   000027   8B..         MOV       ?V3,R3
   3537                if ( pfnReadWriteCB != NULL )
   \   000029   EA           MOV       A,R2
   \   00002A   4B           ORL       A,R3
   \   00002B   6034         JZ        ??zclWriteAttrDataUsingCB_2
   3538                {
   3539                  // Write the attribute value
   3540                  status = (*pfnReadWriteCB)( pAttr->clusterID, pAttr->attr.attrId,
   3541                                              ZCL_OPER_WRITE, pAttrData, NULL );
   \   00002D                ; Setup parameters for indirect call
   \   00002D   E4           CLR       A
   \   00002E   F5..         MOV       ?V4,A
   \   000030   F5..         MOV       ?V5,A
   \   000032   78..         MOV       R0,#?V4
   \   000034   12....       LCALL     ?PUSH_XSTACK_I_TWO
   \   000037   7410         MOV       A,#0x10
   \   000039   12....       LCALL     ?XSTACK_DISP0_8
   \   00003C   12....       LCALL     ?PUSH_XSTACK8_X_TWO
   \   00003F   7902         MOV       R1,#0x2
   \   000041   8E82         MOV       DPL,R6
   \   000043   8F83         MOV       DPH,R7
   \   000045   12....       LCALL     ??Subroutine262_0 & 0xFFFF
   3542                }
   \                     ??CrossCallReturnLabel_609:
   \   000048   8E82         MOV       DPL,R6
   \   00004A   8F83         MOV       DPH,R7
   \   00004C   12....       LCALL     ??Subroutine252_0 & 0xFFFF
   \                     ??CrossCallReturnLabel_577:
   \   00004F   85..82       MOV       DPL,?V2
   \   000052   85..83       MOV       DPH,?V3
   \   000055   12....       LCALL     ?CALL_IND
   \   000058   7404         MOV       A,#0x4
   \   00005A   12....       LCALL     ?DEALLOC_XSTACK8
   \   00005D   E9           MOV       A,R1
   \   00005E   F9           MOV       R1,A
   \   00005F   8006         SJMP      ??zclWriteAttrDataUsingCB_1
   3543                else
   3544                {
   3545                  status = ZCL_STATUS_SOFTWARE_FAILURE;
   \                     ??zclWriteAttrDataUsingCB_2:
   \   000061   79C1         MOV       R1,#-0x3f
   \   000063   8002         SJMP      ??zclWriteAttrDataUsingCB_1
   3546                }
   3547              }
   3548            }
   3549            else
   3550            {
   3551              status = ZCL_STATUS_READ_ONLY;
   \                     ??zclWriteAttrDataUsingCB_0:
   \   000065   7988         MOV       R1,#-0x78
   3552            }
   3553          
   3554            return ( status );
   \                     ??zclWriteAttrDataUsingCB_1:
   \   000067                REQUIRE ?Subroutine4
   \   000067                ; // Fall through to label ?Subroutine4
   3555          }

   \                                 In  segment BANKED_CODE, align 1, keep-with-next
   \                     ??Subroutine262_0:
   \   000000   A3           INC       DPTR
   \   000001   A3           INC       DPTR
   \   000002                REQUIRE ??Subroutine263_0
   \   000002                ; // Fall through to label ??Subroutine263_0
   3556          
   3557          /*********************************************************************
   3558           * @fn      zclAuthorizeWrite
   3559           *
   3560           * @brief   Use application's callback to authorize a Write operation
   3561           *          on a given attribute.
   3562           *
   3563           * @param   endpoint - application's endpoint
   3564           * @param   srcAddr - source Address
   3565           * @param   pAttr - pointer to attribute
   3566           *
   3567           * @return  ZCL_STATUS_SUCCESS: Operation authorized
   3568           *          ZCL_STATUS_NOT_AUTHORIZED: Operation not authorized
   3569           */

   \                                 In  segment BANKED_CODE, align 1, keep-with-next
   3570          static ZStatus_t zclAuthorizeWrite( uint8 endpoint, afAddrType_t *srcAddr, zclAttrRec_t *pAttr )
   \                     zclAuthorizeWrite:
   3571          {
   \   000000                REQUIRE ?V0
   \   000000                REQUIRE ?V1
   \   000000                REQUIRE ?V2
   \   000000                REQUIRE ?V4
   \   000000                REQUIRE ?V5
   \   000000   74F2         MOV       A,#-0xe
   \   000002   12....       LCALL     ?BANKED_ENTER_XDATA
   \   000005                ; Saved register size: 14
   \   000005                ; Auto size: 0
   \   000005   EA           MOV       A,R2
   \   000006   FE           MOV       R6,A
   \   000007   EB           MOV       A,R3
   \   000008   FF           MOV       R7,A
   \   000009   8C..         MOV       ?V0,R4
   \   00000B   8D..         MOV       ?V1,R5
   3572            if ( zcl_AccessCtrlAuthWrite( pAttr->attr.accessControl ) )
   \   00000D   8C82         MOV       DPL,R4
   \   00000F   8D83         MOV       DPH,R5
   \   000011   A3           INC       DPTR
   \   000012   A3           INC       DPTR
   \   000013   A3           INC       DPTR
   \   000014   A3           INC       DPTR
   \   000015   A3           INC       DPTR
   \   000016   E0           MOVX      A,@DPTR
   \   000017   A2E5         MOV       C,0xE0 /* A   */.5
   \   000019   5014         JNC       ??zclAuthorizeWrite_0
   3573            {
   3574              zclAuthorizeCB_t pfnAuthorizeCB = zclGetAuthorizeCB( endpoint );
   \   00001B                ; Setup parameters for call to function zclGetAuthorizeCB
   \   00001B   12....       LCALL     ?Subroutine160 & 0xFFFF
   3575          
   3576              if ( pfnAuthorizeCB != NULL )
   \                     ??CrossCallReturnLabel_271:
   \   00001E   600F         JZ        ??zclAuthorizeWrite_0
   3577              {
   3578                return ( (*pfnAuthorizeCB)( srcAddr, pAttr, ZCL_OPER_WRITE ) );
   \   000020                ; Setup parameters for indirect call
   \   000020   7902         MOV       R1,#0x2
   \   000022   AC..         MOV       R4,?V0
   \   000024   AD..         MOV       R5,?V1
   \   000026   EE           MOV       A,R6
   \   000027   FA           MOV       R2,A
   \   000028   EF           MOV       A,R7
   \   000029   FB           MOV       R3,A
   \   00002A   12....       LCALL     ?CALL_IND
   \   00002D   8002         SJMP      ??zclAuthorizeWrite_1
   3579              }
   3580            }
   3581          
   3582            return ( ZCL_STATUS_SUCCESS );
   \                     ??zclAuthorizeWrite_0:
   \   00002F   7900         MOV       R1,#0x0
   \                     ??zclAuthorizeWrite_1:
   \   000031   80..         SJMP      ?Subroutine4
   3583          }

   \                                 In  segment BANKED_CODE, align 1, keep-with-next
   \                     ?Subroutine160:
   \   000000   12....       LCALL     `??zclGetAuthorizeCB::?relay`; Banked call to: zclGetAuthorizeCB
   \   000003   8A82         MOV       DPL,R2
   \   000005   8B83         MOV       DPH,R3
   \   000007   E582         MOV       A,DPL
   \   000009   4583         ORL       A,DPH
   \   00000B   22           RET
   3584          #endif // ZCL_WRITE
   3585          
   3586          #ifdef ZCL_READ
   3587          /*********************************************************************
   3588           * @fn      zclParseInReadCmd
   3589           *
   3590           * @brief   Parse the "Profile" Read Commands
   3591           *
   3592           *      NOTE: THIS FUNCTION ALLOCATES THE RETURN BUFFER, SO THE CALLING
   3593           *            FUNCTION IS RESPONSIBLE TO FREE THE MEMORY.
   3594           *
   3595           * @param   pCmd - pointer to incoming data to parse
   3596           *
   3597           * @return  pointer to the parsed command structure
   3598           */

   \                                 In  segment BANKED_CODE, align 1, keep-with-next
   3599          void *zclParseInReadCmd( zclParseCmd_t *pCmd )
   \                     zclParseInReadCmd:
   3600          {
   \   000000                REQUIRE ?V0
   \   000000                REQUIRE ?V1
   \   000000                REQUIRE ?V2
   \   000000                REQUIRE ?V3
   \   000000   74F4         MOV       A,#-0xc
   \   000002   12....       LCALL     ?BANKED_ENTER_XDATA
   \   000005                ; Saved register size: 12
   \   000005                ; Auto size: 0
   3601            zclReadCmd_t *readCmd;
   3602            uint8 *pBuf = pCmd->pData;
   \   000005   12....       LCALL     ?Subroutine106 & 0xFFFF
   3603          
   3604            readCmd = (zclReadCmd_t *)zcl_mem_alloc( sizeof ( zclReadCmd_t ) + pCmd->dataLen );
   \                     ??CrossCallReturnLabel_179:
   \   000008   12....       LCALL     ?Subroutine79 & 0xFFFF
   3605            if ( readCmd != NULL )
   \                     ??CrossCallReturnLabel_132:
   \   00000B   6053         JZ        ??zclParseInReadCmd_0
   3606            {
   3607              uint8 i;
   3608              readCmd->numAttr = pCmd->dataLen / 2; // Atrribute ID
   \   00000D   85..82       MOV       DPL,?V0
   \   000010   85..83       MOV       DPH,?V1
   \   000013   12....       LCALL     ?Subroutine205 & 0xFFFF
   \                     ??CrossCallReturnLabel_545:
   \   000016   C3           CLR       C
   \   000017   13           RRC       A
   \   000018   E8           MOV       A,R0
   \   000019   13           RRC       A
   \   00001A   8A82         MOV       DPL,R2
   \   00001C   8B83         MOV       DPH,R3
   \   00001E   F0           MOVX      @DPTR,A
   3609              for ( i = 0; i < readCmd->numAttr; i++ )
   \   00001F   7C00         MOV       R4,#0x0
   \   000021   8032         SJMP      ??zclParseInReadCmd_1
   3610              {
   3611                readCmd->attrID[i] = BUILD_UINT16( pBuf[0], pBuf[1] );
   \                     ??zclParseInReadCmd_2:
   \   000023   8E82         MOV       DPL,R6
   \   000025   8F83         MOV       DPH,R7
   \   000027   E0           MOVX      A,@DPTR
   \   000028   F5..         MOV       ?V0,A
   \   00002A   A3           INC       DPTR
   \   00002B   E0           MOVX      A,@DPTR
   \   00002C   F8           MOV       R0,A
   \   00002D   E4           CLR       A
   \   00002E   C8           XCH       A,R0
   \   00002F   F9           MOV       R1,A
   \   000030   E5..         MOV       A,?V0
   \   000032   28           ADD       A,R0
   \   000033   E4           CLR       A
   \   000034   39           ADDC      A,R1
   \   000035   F5..         MOV       ?V1,A
   \   000037   EC           MOV       A,R4
   \   000038   25E0         ADD       A,0xE0 /* A   */
   \   00003A   F8           MOV       R0,A
   \   00003B   E4           CLR       A
   \   00003C   33           RLC       A
   \   00003D   F9           MOV       R1,A
   \   00003E   EA           MOV       A,R2
   \   00003F   28           ADD       A,R0
   \   000040   F582         MOV       DPL,A
   \   000042   EB           MOV       A,R3
   \   000043   12....       LCALL     ?Subroutine210 & 0xFFFF
   \                     ??CrossCallReturnLabel_351:
   \   000046   E5..         MOV       A,?V0
   \   000048   F0           MOVX      @DPTR,A
   \   000049   A3           INC       DPTR
   \   00004A   E5..         MOV       A,?V1
   \   00004C   F0           MOVX      @DPTR,A
   3612                pBuf += 2;
   \   00004D   EE           MOV       A,R6
   \   00004E   2402         ADD       A,#0x2
   \   000050   FE           MOV       R6,A
   \   000051   5001         JNC       ??zclParseInReadCmd_3
   \   000053   0F           INC       R7
   3613              }
   \                     ??zclParseInReadCmd_3:
   \   000054   0C           INC       R4
   \                     ??zclParseInReadCmd_1:
   \   000055   8A82         MOV       DPL,R2
   \   000057   8B83         MOV       DPH,R3
   \   000059   E0           MOVX      A,@DPTR
   \   00005A   F8           MOV       R0,A
   \   00005B   EC           MOV       A,R4
   \   00005C   C3           CLR       C
   \   00005D   98           SUBB      A,R0
   \   00005E   40C3         JC        ??zclParseInReadCmd_2
   3614            }
   3615          
   3616            return ( (void *)readCmd );
   \                     ??zclParseInReadCmd_0:
   \   000060   02....       LJMP      ??Subroutine213_0 & 0xFFFF
   3617          }

   \                                 In  segment BANKED_CODE, align 1, keep-with-next
   \                     ?Subroutine79:
   \   000000   8A82         MOV       DPL,R2
   \   000002   8B83         MOV       DPH,R3
   \   000004   A3           INC       DPTR
   \   000005   8582..       MOV       ?V0,DPL
   \   000008   8583..       MOV       ?V1,DPH
   \   00000B                ; Setup parameters for call to function osal_mem_alloc
   \   00000B                ; Setup parameters for call to function osal_mem_alloc
   \   00000B   E0           MOVX      A,@DPTR
   \   00000C   2401         ADD       A,#0x1
   \   00000E   FA           MOV       R2,A
   \   00000F   A3           INC       DPTR
   \   000010   E0           MOVX      A,@DPTR
   \   000011   3400         ADDC      A,#0x0
   \   000013   FB           MOV       R3,A
   \   000014   12....       LCALL     `??osal_mem_alloc::?relay`; Banked call to: osal_mem_alloc
   \   000017   EA           MOV       A,R2
   \   000018   4B           ORL       A,R3
   \   000019   22           RET

   \                                 In  segment BANKED_CODE, align 1, keep-with-next
   \                     ?Subroutine106:
   \   000000   12....       LCALL     ?Subroutine184 & 0xFFFF
   \                     ??CrossCallReturnLabel_314:
   \   000003   22           RET

   \                                 In  segment BANKED_CODE, align 1, keep-with-next
   \                     ?Subroutine184:
   \   000000   8A82         MOV       DPL,R2
   \   000002   8B83         MOV       DPH,R3
   \   000004   A3           INC       DPTR
   \   000005   A3           INC       DPTR
   \   000006   A3           INC       DPTR
   \   000007   12....       LCALL     ?Subroutine205 & 0xFFFF
   \                     ??CrossCallReturnLabel_550:
   \   00000A   F9           MOV       R1,A
   \   00000B   E8           MOV       A,R0
   \   00000C   FE           MOV       R6,A
   \   00000D   E9           MOV       A,R1
   \   00000E   FF           MOV       R7,A
   \   00000F   22           RET
   3618          
   3619          /*********************************************************************
   3620           * @fn      zclParseInReadRspCmd
   3621           *
   3622           * @brief   Parse the "Profile" Read Response Commands
   3623           *
   3624           *      NOTE: THIS FUNCTION ALLOCATES THE RETURN BUFFER, SO THE CALLING
   3625           *            FUNCTION IS RESPONSIBLE TO FREE THE MEMORY.
   3626           *
   3627           * @param   pCmd - pointer to incoming data to parse
   3628           *
   3629           * @return  pointer to the parsed command structure
   3630           */

   \                                 In  segment BANKED_CODE, align 1, keep-with-next
   3631          static void *zclParseInReadRspCmd( zclParseCmd_t *pCmd )
   \                     zclParseInReadRspCmd:
   3632          {
   \   000000                REQUIRE ?V0
   \   000000                REQUIRE ?V1
   \   000000                REQUIRE ?V2
   \   000000                REQUIRE ?V3
   \   000000                REQUIRE ?V4
   \   000000                REQUIRE ?V5
   \   000000                REQUIRE ?V6
   \   000000                REQUIRE ?V7
   \   000000                REQUIRE ?V8
   \   000000                REQUIRE ?V9
   \   000000                REQUIRE ?V10
   \   000000                REQUIRE ?V11
   \   000000                REQUIRE ?V12
   \   000000                REQUIRE ?V13
   \   000000   74EA         MOV       A,#-0x16
   \   000002   12....       LCALL     ?BANKED_ENTER_XDATA
   \   000005                ; Saved register size: 22
   \   000005                ; Auto size: 0
   \   000005   8A..         MOV       ?V8,R2
   \   000007   8B..         MOV       ?V9,R3
   3633            zclReadRspCmd_t *readRspCmd;
   3634            uint8 *pBuf = pCmd->pData;
   \   000009   EA           MOV       A,R2
   \   00000A   2403         ADD       A,#0x3
   \   00000C   F5..         MOV       ?V4,A
   \   00000E   E4           CLR       A
   \   00000F   35..         ADDC      A,?V9
   \   000011   F5..         MOV       ?V5,A
   \   000013   85..82       MOV       DPL,?V4
   \   000016   F583         MOV       DPH,A
   \   000018   12....       LCALL     ??Subroutine249_0 & 0xFFFF
   3635            uint8 *dataPtr;
   3636            uint8 numAttr = 0;
   \                     ??CrossCallReturnLabel_559:
   \   00001B   75..00       MOV       ?V2,#0x0
   3637            uint8 hdrLen;
   3638            uint16 dataLen = 0;
   \   00001E   75..00       MOV       ?V6,#0x0
   \   000021   75..00       MOV       ?V7,#0x0
   \   000024   8049         SJMP      ??zclParseInReadRspCmd_0
   3639            uint16 attrDataLen;
   3640          
   3641            // find out the number of attributes and the length of attribute data
   3642            while ( pBuf < ( pCmd->pData + pCmd->dataLen ) )
   3643            {
   3644              uint8 status;
   3645          
   3646              numAttr++;
   \                     ??zclParseInReadRspCmd_1:
   \   000026   05..         INC       ?V2
   3647              pBuf += 2; // move pass attribute id
   3648          
   3649              status = *pBuf++;
   \   000028   8E82         MOV       DPL,R6
   \   00002A   8F83         MOV       DPH,R7
   \   00002C   A3           INC       DPTR
   \   00002D   A3           INC       DPTR
   \   00002E   E0           MOVX      A,@DPTR
   \   00002F   F8           MOV       R0,A
   \   000030   EE           MOV       A,R6
   \   000031   2403         ADD       A,#0x3
   \   000033   FE           MOV       R6,A
   \   000034   5001         JNC       ??zclParseInReadRspCmd_2
   \   000036   0F           INC       R7
   3650              if ( status == ZCL_STATUS_SUCCESS )
   \                     ??zclParseInReadRspCmd_2:
   \   000037   E8           MOV       A,R0
   \   000038   7035         JNZ       ??zclParseInReadRspCmd_0
   3651              {
   3652                uint8 dataType = *pBuf++;
   \   00003A   8E82         MOV       DPL,R6
   \   00003C   8F83         MOV       DPH,R7
   \   00003E   E0           MOVX      A,@DPTR
   \   00003F   F9           MOV       R1,A
   \   000040   A3           INC       DPTR
   \   000041   AE82         MOV       R6,DPL
   \   000043   AF83         MOV       R7,DPH
   3653          
   3654                attrDataLen = zclGetAttrDataLength( dataType, pBuf );
   \   000045                ; Setup parameters for call to function zclGetAttrDataLength
   \   000045   EE           MOV       A,R6
   \   000046   FA           MOV       R2,A
   \   000047   EF           MOV       A,R7
   \   000048   FB           MOV       R3,A
   \   000049   12....       LCALL     `??zclGetAttrDataLength::?relay`; Banked call to: zclGetAttrDataLength
   \   00004C   8A..         MOV       ?V0,R2
   \   00004E   8B..         MOV       ?V1,R3
   3655                pBuf += attrDataLen; // move pass attribute data
   \   000050   EE           MOV       A,R6
   \   000051   2A           ADD       A,R2
   \   000052   FE           MOV       R6,A
   \   000053   EF           MOV       A,R7
   \   000054   35..         ADDC      A,?V1
   \   000056   FF           MOV       R7,A
   3656          
   3657                // add padding if needed
   3658                if ( PADDING_NEEDED( attrDataLen ) )
   \   000057   EA           MOV       A,R2
   \   000058   A2E0         MOV       C,0xE0 /* A   */.0
   \   00005A   5007         JNC       ??zclParseInReadRspCmd_3
   3659                {
   3660                  attrDataLen++;
   \   00005C   05..         INC       ?V0
   \   00005E   04           INC       A
   \   00005F   7002         JNZ       ??zclParseInReadRspCmd_3
   \   000061   05..         INC       ?V1
   3661                }
   3662          
   3663                dataLen += attrDataLen;
   \                     ??zclParseInReadRspCmd_3:
   \   000063   E5..         MOV       A,?V6
   \   000065   25..         ADD       A,?V0
   \   000067   F5..         MOV       ?V6,A
   \   000069   E5..         MOV       A,?V7
   \   00006B   35..         ADDC      A,?V1
   \   00006D   F5..         MOV       ?V7,A
   3664              }
   3665            }
   \                     ??zclParseInReadRspCmd_0:
   \   00006F   85..82       MOV       DPL,?V8
   \   000072   85..83       MOV       DPH,?V9
   \   000075   A3           INC       DPTR
   \   000076   12....       LCALL     ?Subroutine68 & 0xFFFF
   \                     ??CrossCallReturnLabel_112:
   \   000079   12....       LCALL     ?Subroutine66 & 0xFFFF
   \                     ??CrossCallReturnLabel_107:
   \   00007C   40A8         JC        ??zclParseInReadRspCmd_1
   3666          
   3667            // calculate the length of the response header
   3668            hdrLen = sizeof( zclReadRspCmd_t ) + ( numAttr * sizeof( zclReadRspStatus_t ) );
   \   00007E   75F006       MOV       B,#0x6
   \   000081   E5..         MOV       A,?V2
   \   000083   A4           MUL       AB
   \   000084   04           INC       A
   \   000085   F5..         MOV       ?V0,A
   3669          
   3670            readRspCmd = (zclReadRspCmd_t *)zcl_mem_alloc( hdrLen + dataLen );
   \   000087                ; Setup parameters for call to function osal_mem_alloc
   \   000087   25..         ADD       A,?V6
   \   000089   FA           MOV       R2,A
   \   00008A   E4           CLR       A
   \   00008B   35..         ADDC      A,?V7
   \   00008D   12....       LCALL     ?Subroutine137 & 0xFFFF
   3671            if ( readRspCmd != NULL )
   \                     ??CrossCallReturnLabel_235:
   \   000090   7003         JNZ       $+5
   \   000092   02....       LJMP      ??zclParseInReadRspCmd_4 & 0xFFFF
   3672            {
   3673              uint8 i;
   3674              pBuf = pCmd->pData;
   \   000095   12....       LCALL     ?Subroutine129 & 0xFFFF
   3675              dataPtr = (uint8 *)( (uint8 *)readRspCmd + hdrLen );
   \                     ??CrossCallReturnLabel_564:
   \   000098   A8..         MOV       R0,?V0
   \   00009A   EA           MOV       A,R2
   \   00009B   28           ADD       A,R0
   \   00009C   F5..         MOV       ?V8,A
   \   00009E   E4           CLR       A
   \   00009F   3B           ADDC      A,R3
   \   0000A0   F5..         MOV       ?V9,A
   3676          
   3677              readRspCmd->numAttr = numAttr;
   \   0000A2   8A82         MOV       DPL,R2
   \   0000A4   8B83         MOV       DPH,R3
   \   0000A6   E5..         MOV       A,?V2
   \   0000A8   F0           MOVX      @DPTR,A
   3678              for ( i = 0; i < numAttr; i++ )
   \   0000A9   75..00       MOV       ?V3,#0x0
   \   0000AC   02....       LJMP      ??zclParseInReadRspCmd_5 & 0xFFFF
   3679              {
   3680                zclReadRspStatus_t *statusRec = &(readRspCmd->attrList[i]);
   \                     ??zclParseInReadRspCmd_6:
   \   0000AF   E5..         MOV       A,?V3
   \   0000B1   75F006       MOV       B,#0x6
   \   0000B4   12....       LCALL     ?Subroutine150 & 0xFFFF
   3681          
   3682                statusRec->attrID = BUILD_UINT16( pBuf[0], pBuf[1] );
   \                     ??CrossCallReturnLabel_253:
   \   0000B7   8E82         MOV       DPL,R6
   \   0000B9   8F83         MOV       DPH,R7
   \   0000BB   12....       LCALL     ?Subroutine90 & 0xFFFF
   \                     ??CrossCallReturnLabel_151:
   \   0000BE   12....       LCALL     ?Subroutine32 & 0xFFFF
   3683                pBuf += 2;
   3684          
   3685                statusRec->status = *pBuf++;
   \                     ??CrossCallReturnLabel_36:
   \   0000C1   F8           MOV       R0,A
   \   0000C2   85..82       MOV       DPL,?V12
   \   0000C5   85..83       MOV       DPH,?V13
   \   0000C8   A3           INC       DPTR
   \   0000C9   A3           INC       DPTR
   \   0000CA   F0           MOVX      @DPTR,A
   \   0000CB   EE           MOV       A,R6
   \   0000CC   2403         ADD       A,#0x3
   \   0000CE   FE           MOV       R6,A
   \   0000CF   5001         JNC       ??zclParseInReadRspCmd_7
   \   0000D1   0F           INC       R7
   3686                if ( statusRec->status == ZCL_STATUS_SUCCESS )
   \                     ??zclParseInReadRspCmd_7:
   \   0000D2   E8           MOV       A,R0
   \   0000D3   7062         JNZ       ??zclParseInReadRspCmd_8
   3687                {
   3688                  statusRec->dataType = *pBuf++;
   \   0000D5   8E82         MOV       DPL,R6
   \   0000D7   8F83         MOV       DPH,R7
   \   0000D9   12....       LCALL     ?Subroutine100 & 0xFFFF
   \                     ??CrossCallReturnLabel_167:
   \   0000DC   A3           INC       DPTR
   \   0000DD   12....       LCALL     ?Subroutine22 & 0xFFFF
   3689          
   3690                  attrDataLen = zclGetAttrDataLength( statusRec->dataType, pBuf );
   \                     ??CrossCallReturnLabel_16:
   \   0000E0                ; Setup parameters for call to function zclGetAttrDataLength
   \   0000E0   EE           MOV       A,R6
   \   0000E1   FA           MOV       R2,A
   \   0000E2   EF           MOV       A,R7
   \   0000E3   FB           MOV       R3,A
   \   0000E4   12....       LCALL     `??zclGetAttrDataLength::?relay`; Banked call to: zclGetAttrDataLength
   \   0000E7   8A..         MOV       ?V0,R2
   \   0000E9   8B..         MOV       ?V1,R3
   3691                  zcl_memcpy( dataPtr, pBuf, attrDataLen);
   \   0000EB                ; Setup parameters for call to function osal_memcpy
   \   0000EB   8E..         MOV       ?V4,R6
   \   0000ED   8F..         MOV       ?V5,R7
   \   0000EF   75..00       MOV       ?V6,#0x0
   \   0000F2   78..         MOV       R0,#?V4
   \   0000F4   12....       LCALL     ?PUSH_XSTACK_I_THREE
   \   0000F7   AC..         MOV       R4,?V0
   \   0000F9   AD..         MOV       R5,?V1
   \   0000FB   AA..         MOV       R2,?V8
   \   0000FD   AB..         MOV       R3,?V9
   \   0000FF   12....       LCALL     ??Subroutine241_0 & 0xFFFF
   \                     ??CrossCallReturnLabel_506:
   \   000102   12....       LCALL     ?DEALLOC_XSTACK8
   3692                  statusRec->data = dataPtr;
   \   000105   85..82       MOV       DPL,?V12
   \   000108   85..83       MOV       DPH,?V13
   \   00010B   A3           INC       DPTR
   \   00010C   A3           INC       DPTR
   \   00010D   A3           INC       DPTR
   \   00010E   A3           INC       DPTR
   \   00010F   E5..         MOV       A,?V8
   \   000111   F0           MOVX      @DPTR,A
   \   000112   A3           INC       DPTR
   \   000113   E5..         MOV       A,?V9
   \   000115   F0           MOVX      @DPTR,A
   3693          
   3694                  pBuf += attrDataLen; // move pass attribute data
   \   000116   EE           MOV       A,R6
   \   000117   25..         ADD       A,?V0
   \   000119   FE           MOV       R6,A
   \   00011A   EF           MOV       A,R7
   \   00011B   35..         ADDC      A,?V1
   \   00011D   FF           MOV       R7,A
   3695          
   3696                  // advance attribute data pointer
   3697                  if ( PADDING_NEEDED( attrDataLen ) )
   \   00011E   E5..         MOV       A,?V0
   \   000120   A2E0         MOV       C,0xE0 /* A   */.0
   \   000122   5007         JNC       ??zclParseInReadRspCmd_9
   3698                  {
   3699                    attrDataLen++;
   \   000124   05..         INC       ?V0
   \   000126   04           INC       A
   \   000127   7002         JNZ       ??zclParseInReadRspCmd_9
   \   000129   05..         INC       ?V1
   3700                  }
   3701          
   3702                  dataPtr += attrDataLen;
   \                     ??zclParseInReadRspCmd_9:
   \   00012B   E5..         MOV       A,?V8
   \   00012D   25..         ADD       A,?V0
   \   00012F   F5..         MOV       ?V8,A
   \   000131   E5..         MOV       A,?V9
   \   000133   35..         ADDC      A,?V1
   \   000135   F5..         MOV       ?V9,A
   3703                }
   3704              }
   \                     ??zclParseInReadRspCmd_8:
   \   000137   05..         INC       ?V3
   \                     ??zclParseInReadRspCmd_5:
   \   000139   E5..         MOV       A,?V3
   \   00013B   C3           CLR       C
   \   00013C   95..         SUBB      A,?V2
   \   00013E   5003         JNC       $+5
   \   000140   02....       LJMP      ??zclParseInReadRspCmd_6 & 0xFFFF
   3705            }
   3706          
   3707            return ( (void *)readRspCmd );
   \                     ??zclParseInReadRspCmd_4:
   \   000143                REQUIRE ?Subroutine11
   \   000143                ; // Fall through to label ?Subroutine11
   3708          }

   \                                 In  segment BANKED_CODE, align 1, keep-with-next
   \                     ?Subroutine11:
   \   000000   AA..         MOV       R2,?V10
   \   000002   AB..         MOV       R3,?V11
   \   000004   02....       LJMP      ??Subroutine219_0 & 0xFFFF

   \                                 In  segment BANKED_CODE, align 1, keep-with-next
   \                     ?Subroutine150:
   \   000000   A4           MUL       AB
   \   000001   F8           MOV       R0,A
   \   000002   A9F0         MOV       R1,B
   \   000004   E5..         MOV       A,?V10
   \   000006   28           ADD       A,R0
   \   000007   F582         MOV       DPL,A
   \   000009   E5..         MOV       A,?V11
   \   00000B   12....       LCALL     ?Subroutine210 & 0xFFFF
   \                     ??CrossCallReturnLabel_352:
   \   00000E   8582..       MOV       ?V12,DPL
   \   000011   8583..       MOV       ?V13,DPH
   \   000014   22           RET

   \                                 In  segment BANKED_CODE, align 1, keep-with-next
   \                     ?Subroutine137:
   \   000000   FB           MOV       R3,A
   \   000001   12....       LCALL     `??osal_mem_alloc::?relay`; Banked call to: osal_mem_alloc
   \   000004   8A..         MOV       ?V10,R2
   \   000006   8B..         MOV       ?V11,R3
   \   000008   EA           MOV       A,R2
   \   000009   4B           ORL       A,R3
   \   00000A   22           RET

   \                                 In  segment BANKED_CODE, align 1, keep-with-next
   \                     ?Subroutine100:
   \   000000   E0           MOVX      A,@DPTR
   \   000001   F9           MOV       R1,A
   \   000002   85..82       MOV       DPL,?V12
   \   000005   85..83       MOV       DPH,?V13
   \   000008   A3           INC       DPTR
   \   000009   A3           INC       DPTR
   \   00000A   22           RET

   \                                 In  segment BANKED_CODE, align 1, keep-with-next
   \                     ?Subroutine90:
   \   000000   E0           MOVX      A,@DPTR
   \   000001   FA           MOV       R2,A
   \   000002   A3           INC       DPTR
   \   000003   E0           MOVX      A,@DPTR
   \   000004   F9           MOV       R1,A
   \   000005   EA           MOV       A,R2
   \   000006   85..82       MOV       DPL,?V12
   \   000009   85..83       MOV       DPH,?V13
   \   00000C   22           RET

   \                                 In  segment BANKED_CODE, align 1, keep-with-next
   \                     ?Subroutine66:
   \   000000   12....       LCALL     ?Subroutine198 & 0xFFFF
   \                     ??CrossCallReturnLabel_440:
   \   000003   C3           CLR       C
   \   000004   EE           MOV       A,R6
   \   000005   98           SUBB      A,R0
   \   000006   EF           MOV       A,R7
   \   000007   99           SUBB      A,R1
   \   000008   22           RET

   \                                 In  segment BANKED_CODE, align 1, keep-with-next
   \                     ?Subroutine32:
   \   000000   F0           MOVX      @DPTR,A
   \   000001   A3           INC       DPTR
   \   000002   E9           MOV       A,R1
   \   000003   12....       LCALL     ?Subroutine168 & 0xFFFF
   \                     ??CrossCallReturnLabel_285:
   \   000006   22           RET

   \                                 In  segment BANKED_CODE, align 1, keep-with-next
   \                     ?Subroutine168:
   \   000000   F0           MOVX      @DPTR,A
   \   000001   8E82         MOV       DPL,R6
   \   000003   8F83         MOV       DPH,R7
   \   000005   A3           INC       DPTR
   \   000006   A3           INC       DPTR
   \   000007   E0           MOVX      A,@DPTR
   \   000008   22           RET

   \                                 In  segment BANKED_CODE, align 1, keep-with-next
   \                     ?Subroutine68:
   \   000000   12....       LCALL     ?Subroutine185 & 0xFFFF
   \                     ??CrossCallReturnLabel_539:
   \   000003   85..82       MOV       DPL,?V4
   \   000006   85..83       MOV       DPH,?V5
   \   000009   22           RET

   \                                 In  segment BANKED_CODE, align 1, keep-with-next
   \                     ?Subroutine129:
   \   000000   85..82       MOV       DPL,?V4
   \   000003   85..83       MOV       DPH,?V5
   \   000006                REQUIRE ??Subroutine249_0
   \   000006                ; // Fall through to label ??Subroutine249_0

   \                                 In  segment BANKED_CODE, align 1, keep-with-next
   \                     ??Subroutine249_0:
   \   000000   E0           MOVX      A,@DPTR
   \   000001   FE           MOV       R6,A
   \   000002   A3           INC       DPTR
   \   000003   E0           MOVX      A,@DPTR
   \   000004   FF           MOV       R7,A
   \   000005   22           RET
   3709          #endif // ZCL_READ
   3710          
   3711          #ifdef ZCL_WRITE
   3712          /*********************************************************************
   3713           * @fn      zclParseInWriteCmd
   3714           *
   3715           * @brief   Parse the "Profile" Write, Write Undivided and Write No
   3716           *          Response Commands
   3717           *
   3718           *      NOTE: THIS FUNCTION ALLOCATES THE RETURN BUFFER, SO THE CALLING
   3719           *            FUNCTION IS RESPONSIBLE TO FREE THE MEMORY.
   3720           *
   3721           * @param   pCmd - pointer to incoming data to parse
   3722           *
   3723           * @return  pointer to the parsed command structure
   3724           */

   \                                 In  segment BANKED_CODE, align 1, keep-with-next
   3725          void *zclParseInWriteCmd( zclParseCmd_t *pCmd )
   \                     zclParseInWriteCmd:
   3726          {
   \   000000                REQUIRE ?V0
   \   000000                REQUIRE ?V1
   \   000000                REQUIRE ?V2
   \   000000                REQUIRE ?V3
   \   000000                REQUIRE ?V4
   \   000000                REQUIRE ?V5
   \   000000                REQUIRE ?V6
   \   000000                REQUIRE ?V7
   \   000000                REQUIRE ?V8
   \   000000                REQUIRE ?V9
   \   000000                REQUIRE ?V10
   \   000000                REQUIRE ?V11
   \   000000                REQUIRE ?V12
   \   000000                REQUIRE ?V13
   \   000000   74EA         MOV       A,#-0x16
   \   000002   12....       LCALL     ?BANKED_ENTER_XDATA
   \   000005                ; Saved register size: 22
   \   000005                ; Auto size: 0
   \   000005   8A..         MOV       ?V8,R2
   \   000007   8B..         MOV       ?V9,R3
   3727            zclWriteCmd_t *writeCmd;
   3728            uint8 *pBuf = pCmd->pData;
   \   000009   EA           MOV       A,R2
   \   00000A   2403         ADD       A,#0x3
   \   00000C   F5..         MOV       ?V2,A
   \   00000E   E4           CLR       A
   \   00000F   35..         ADDC      A,?V9
   \   000011   F5..         MOV       ?V3,A
   \   000013   85..82       MOV       DPL,?V2
   \   000016   12....       LCALL     ?Subroutine75 & 0xFFFF
   3729            uint16 attrDataLen;
   3730            uint8 *dataPtr;
   3731            uint8 numAttr = 0;
   \                     ??CrossCallReturnLabel_511:
   \   000019   75..00       MOV       ?V7,#0x0
   3732            uint8 hdrLen;
   3733            uint16 dataLen = 0;
   \   00001C   75..00       MOV       ?V4,#0x0
   \   00001F   75..00       MOV       ?V5,#0x0
   \   000022   8042         SJMP      ??zclParseInWriteCmd_0
   3734          
   3735            // find out the number of attributes and the length of attribute data
   3736            while ( pBuf < ( pCmd->pData + pCmd->dataLen ) )
   3737            {
   3738              uint8 dataType;
   3739          
   3740              numAttr++;
   \                     ??zclParseInWriteCmd_1:
   \   000024   05..         INC       ?V7
   3741              pBuf += 2; // move pass attribute id
   3742          
   3743              dataType = *pBuf++;
   \   000026   85..82       MOV       DPL,?V0
   \   000029   85..83       MOV       DPH,?V1
   \   00002C   A3           INC       DPTR
   \   00002D   A3           INC       DPTR
   \   00002E   E0           MOVX      A,@DPTR
   \   00002F   F9           MOV       R1,A
   \   000030   E5..         MOV       A,?V0
   \   000032   2403         ADD       A,#0x3
   \   000034   F5..         MOV       ?V0,A
   \   000036   5002         JNC       ??zclParseInWriteCmd_2
   \   000038   05..         INC       ?V1
   3744          
   3745              attrDataLen = zclGetAttrDataLength( dataType, pBuf );
   \                     ??zclParseInWriteCmd_2:
   \   00003A                ; Setup parameters for call to function zclGetAttrDataLength
   \   00003A   FA           MOV       R2,A
   \   00003B   AB..         MOV       R3,?V1
   \   00003D   12....       LCALL     `??zclGetAttrDataLength::?relay`; Banked call to: zclGetAttrDataLength
   \   000040   8A..         MOV       ?V10,R2
   \   000042   8B..         MOV       ?V11,R3
   \   000044   AE..         MOV       R6,?V10
   \   000046   AF..         MOV       R7,?V11
   3746              pBuf += attrDataLen; // move pass attribute data
   \   000048   E5..         MOV       A,?V0
   \   00004A   2A           ADD       A,R2
   \   00004B   F5..         MOV       ?V0,A
   \   00004D   E5..         MOV       A,?V1
   \   00004F   3F           ADDC      A,R7
   \   000050   F5..         MOV       ?V1,A
   3747          
   3748              // add padding if needed
   3749              if ( PADDING_NEEDED( attrDataLen ) )
   \   000052   EA           MOV       A,R2
   \   000053   A2E0         MOV       C,0xE0 /* A   */.0
   \   000055   5005         JNC       ??zclParseInWriteCmd_3
   3750              {
   3751                attrDataLen++;
   \   000057   0E           INC       R6
   \   000058   04           INC       A
   \   000059   7001         JNZ       ??zclParseInWriteCmd_3
   \   00005B   0F           INC       R7
   3752              }
   3753          
   3754              dataLen += attrDataLen;
   \                     ??zclParseInWriteCmd_3:
   \   00005C   E5..         MOV       A,?V4
   \   00005E   2E           ADD       A,R6
   \   00005F   F5..         MOV       ?V4,A
   \   000061   E5..         MOV       A,?V5
   \   000063   3F           ADDC      A,R7
   \   000064   F5..         MOV       ?V5,A
   3755            }
   \                     ??zclParseInWriteCmd_0:
   \   000066   85..82       MOV       DPL,?V8
   \   000069   85..83       MOV       DPH,?V9
   \   00006C   A3           INC       DPTR
   \   00006D   12....       LCALL     ?Subroutine87 & 0xFFFF
   \                     ??CrossCallReturnLabel_146:
   \   000070   12....       LCALL     ??Subroutine227_0 & 0xFFFF
   \                     ??CrossCallReturnLabel_438:
   \   000073   C3           CLR       C
   \   000074   E5..         MOV       A,?V0
   \   000076   98           SUBB      A,R0
   \   000077   E5..         MOV       A,?V1
   \   000079   99           SUBB      A,R1
   \   00007A   40A8         JC        ??zclParseInWriteCmd_1
   3756          
   3757            // calculate the length of the response header
   3758            hdrLen = sizeof( zclWriteCmd_t ) + ( numAttr * sizeof( zclWriteRec_t ) );
   \   00007C   75F005       MOV       B,#0x5
   \   00007F   E5..         MOV       A,?V7
   \   000081   A4           MUL       AB
   \   000082   04           INC       A
   \   000083   FE           MOV       R6,A
   3759          
   3760            writeCmd = (zclWriteCmd_t *)zcl_mem_alloc( hdrLen + dataLen );
   \   000084                ; Setup parameters for call to function osal_mem_alloc
   \   000084   25..         ADD       A,?V4
   \   000086   FA           MOV       R2,A
   \   000087   E4           CLR       A
   \   000088   35..         ADDC      A,?V5
   \   00008A   12....       LCALL     ?Subroutine137 & 0xFFFF
   3761            if ( writeCmd != NULL )
   \                     ??CrossCallReturnLabel_236:
   \   00008D   7003         JNZ       $+5
   \   00008F   02....       LJMP      ??zclParseInWriteCmd_4 & 0xFFFF
   3762            {
   3763              uint8 i;
   3764              pBuf = pCmd->pData;
   \   000092   85..82       MOV       DPL,?V2
   \   000095   85..83       MOV       DPH,?V3
   \   000098   12....       LCALL     ??Subroutine242_0 & 0xFFFF
   3765              dataPtr = (uint8 *)( (uint8 *)writeCmd + hdrLen );
   \                     ??CrossCallReturnLabel_510:
   \   00009B   EA           MOV       A,R2
   \   00009C   2E           ADD       A,R6
   \   00009D   F5..         MOV       ?V2,A
   \   00009F   E4           CLR       A
   \   0000A0   3B           ADDC      A,R3
   \   0000A1   F5..         MOV       ?V3,A
   3766          
   3767              writeCmd->numAttr = numAttr;
   \   0000A3   8A82         MOV       DPL,R2
   \   0000A5   8B83         MOV       DPH,R3
   \   0000A7   E5..         MOV       A,?V7
   \   0000A9   F0           MOVX      @DPTR,A
   3768              for ( i = 0; i < numAttr; i++ )
   \   0000AA   75..00       MOV       ?V8,#0x0
   \   0000AD   02....       LJMP      ??zclParseInWriteCmd_5 & 0xFFFF
   3769              {
   3770                zclWriteRec_t *statusRec = &(writeCmd->attrList[i]);
   \                     ??zclParseInWriteCmd_6:
   \   0000B0   E5..         MOV       A,?V8
   \   0000B2   75F005       MOV       B,#0x5
   \   0000B5   12....       LCALL     ?Subroutine150 & 0xFFFF
   3771          
   3772                statusRec->attrID = BUILD_UINT16( pBuf[0], pBuf[1] );
   \                     ??CrossCallReturnLabel_254:
   \   0000B8   85..82       MOV       DPL,?V0
   \   0000BB   85..83       MOV       DPH,?V1
   \   0000BE   12....       LCALL     ?Subroutine90 & 0xFFFF
   \                     ??CrossCallReturnLabel_152:
   \   0000C1   12....       LCALL     ??Subroutine237_0 & 0xFFFF
   3773                pBuf += 2;
   3774                statusRec->dataType = *pBuf++;
   \                     ??CrossCallReturnLabel_469:
   \   0000C4   85..82       MOV       DPL,?V0
   \   0000C7   85..83       MOV       DPH,?V1
   \   0000CA   A3           INC       DPTR
   \   0000CB   A3           INC       DPTR
   \   0000CC   12....       LCALL     ?Subroutine100 & 0xFFFF
   \                     ??CrossCallReturnLabel_168:
   \   0000CF   F0           MOVX      @DPTR,A
   \   0000D0   E5..         MOV       A,?V0
   \   0000D2   2403         ADD       A,#0x3
   \   0000D4   F5..         MOV       ?V0,A
   \   0000D6   5002         JNC       ??zclParseInWriteCmd_7
   \   0000D8   05..         INC       ?V1
   3775          
   3776                attrDataLen = zclGetAttrDataLength( statusRec->dataType, pBuf );
   \                     ??zclParseInWriteCmd_7:
   \   0000DA                ; Setup parameters for call to function zclGetAttrDataLength
   \   0000DA   FA           MOV       R2,A
   \   0000DB   AB..         MOV       R3,?V1
   \   0000DD   12....       LCALL     `??zclGetAttrDataLength::?relay`; Banked call to: zclGetAttrDataLength
   \   0000E0   8A..         MOV       ?V4,R2
   \   0000E2   8B..         MOV       ?V5,R3
   \   0000E4   AE..         MOV       R6,?V4
   \   0000E6   AF..         MOV       R7,?V5
   3777                zcl_memcpy( dataPtr, pBuf, attrDataLen);
   \   0000E8                ; Setup parameters for call to function osal_memcpy
   \   0000E8   85....       MOV       ?V4,?V0
   \   0000EB   85....       MOV       ?V5,?V1
   \   0000EE   75..00       MOV       ?V6,#0x0
   \   0000F1   78..         MOV       R0,#?V4
   \   0000F3   12....       LCALL     ?PUSH_XSTACK_I_THREE
   \   0000F6   EA           MOV       A,R2
   \   0000F7   FC           MOV       R4,A
   \   0000F8   EB           MOV       A,R3
   \   0000F9   FD           MOV       R5,A
   \   0000FA   AA..         MOV       R2,?V2
   \   0000FC   AB..         MOV       R3,?V3
   \   0000FE   12....       LCALL     ??Subroutine241_0 & 0xFFFF
   \                     ??CrossCallReturnLabel_507:
   \   000101   12....       LCALL     ?DEALLOC_XSTACK8
   3778                statusRec->attrData = dataPtr;
   \   000104   85..82       MOV       DPL,?V12
   \   000107   85..83       MOV       DPH,?V13
   \   00010A   A3           INC       DPTR
   \   00010B   A3           INC       DPTR
   \   00010C   A3           INC       DPTR
   \   00010D   E5..         MOV       A,?V2
   \   00010F   F0           MOVX      @DPTR,A
   \   000110   A3           INC       DPTR
   \   000111   E5..         MOV       A,?V3
   \   000113   F0           MOVX      @DPTR,A
   3779          
   3780                pBuf += attrDataLen; // move pass attribute data
   \   000114   E5..         MOV       A,?V0
   \   000116   2E           ADD       A,R6
   \   000117   F5..         MOV       ?V0,A
   \   000119   E5..         MOV       A,?V1
   \   00011B   3F           ADDC      A,R7
   \   00011C   F5..         MOV       ?V1,A
   3781          
   3782                // advance attribute data pointer
   3783                if ( PADDING_NEEDED( attrDataLen ) )
   \   00011E   EE           MOV       A,R6
   \   00011F   A2E0         MOV       C,0xE0 /* A   */.0
   \   000121   5005         JNC       ??zclParseInWriteCmd_8
   3784                {
   3785                  attrDataLen++;
   \   000123   0E           INC       R6
   \   000124   04           INC       A
   \   000125   7001         JNZ       ??zclParseInWriteCmd_8
   \   000127   0F           INC       R7
   3786                }
   3787          
   3788                dataPtr += attrDataLen;
   \                     ??zclParseInWriteCmd_8:
   \   000128   E5..         MOV       A,?V2
   \   00012A   2E           ADD       A,R6
   \   00012B   F5..         MOV       ?V2,A
   \   00012D   E5..         MOV       A,?V3
   \   00012F   3F           ADDC      A,R7
   \   000130   F5..         MOV       ?V3,A
   3789              }
   \   000132   05..         INC       ?V8
   \                     ??zclParseInWriteCmd_5:
   \   000134   E5..         MOV       A,?V8
   \   000136   C3           CLR       C
   \   000137   95..         SUBB      A,?V7
   \   000139   5003         JNC       $+5
   \   00013B   02....       LJMP      ??zclParseInWriteCmd_6 & 0xFFFF
   3790            }
   3791          
   3792            return ( (void *)writeCmd );
   \                     ??zclParseInWriteCmd_4:
   \   00013E   02....       LJMP      ?Subroutine11 & 0xFFFF
   3793          }

   \                                 In  segment BANKED_CODE, align 1, keep-with-next
   \                     ?Subroutine75:
   \   000000   F583         MOV       DPH,A
   \   000002                REQUIRE ??Subroutine242_0
   \   000002                ; // Fall through to label ??Subroutine242_0

   \                                 In  segment BANKED_CODE, align 1, keep-with-next
   \                     ?Subroutine87:
   \   000000   12....       LCALL     ?Subroutine175 & 0xFFFF
   \                     ??CrossCallReturnLabel_514:
   \   000003   E0           MOVX      A,@DPTR
   \   000004   22           RET
   3794          
   3795          /*********************************************************************
   3796           * @fn      zclParseInWriteRspCmd
   3797           *
   3798           * @brief   Parse the "Profile" Write Response Commands
   3799           *
   3800           *      NOTE: THIS FUNCTION ALLOCATES THE RETURN BUFFER, SO THE CALLING
   3801           *            FUNCTION IS RESPONSIBLE TO FREE THE MEMORY.
   3802           *
   3803           * @param   pCmd - pointer to incoming data to parse
   3804           *
   3805           * @return  pointer to the parsed command structure
   3806           */

   \                                 In  segment BANKED_CODE, align 1, keep-with-next
   3807          static void *zclParseInWriteRspCmd( zclParseCmd_t *pCmd )
   \                     zclParseInWriteRspCmd:
   3808          {
   \   000000                REQUIRE ?V0
   \   000000                REQUIRE ?V1
   \   000000                REQUIRE ?V2
   \   000000                REQUIRE ?V3
   \   000000                REQUIRE ?V4
   \   000000                REQUIRE ?V5
   \   000000                REQUIRE ?V6
   \   000000                REQUIRE ?V7
   \   000000   74F0         MOV       A,#-0x10
   \   000002   12....       LCALL     ?BANKED_ENTER_XDATA
   \   000005                ; Saved register size: 16
   \   000005                ; Auto size: 0
   3809            zclWriteRspCmd_t *writeRspCmd;
   3810            uint8 *pBuf = pCmd->pData;
   \   000005   EA           MOV       A,R2
   \   000006   2403         ADD       A,#0x3
   \   000008   F5..         MOV       ?V2,A
   \   00000A   E4           CLR       A
   \   00000B   3B           ADDC      A,R3
   \   00000C   F5..         MOV       ?V3,A
   \   00000E   85..82       MOV       DPL,?V2
   \   000011   12....       LCALL     ?Subroutine128 & 0xFFFF
   3811            uint8 i = 0;
   3812          
   3813            writeRspCmd = (zclWriteRspCmd_t *)zcl_mem_alloc( sizeof ( zclWriteRspCmd_t ) + pCmd->dataLen );
   \                     ??CrossCallReturnLabel_225:
   \   000014   12....       LCALL     ?Subroutine79 & 0xFFFF
   3814            if ( writeRspCmd != NULL )
   \                     ??CrossCallReturnLabel_133:
   \   000017   604D         JZ        ??zclParseInWriteRspCmd_0
   3815            {
   3816              if ( pCmd->dataLen == 1 )
   \   000019   85..82       MOV       DPL,?V0
   \   00001C   85..83       MOV       DPH,?V1
   \   00001F   E0           MOVX      A,@DPTR
   \   000020   6401         XRL       A,#0x1
   \   000022   7002         JNZ       ??zclParseInWriteRspCmd_1
   \   000024   A3           INC       DPTR
   \   000025   E0           MOVX      A,@DPTR
   \                     ??zclParseInWriteRspCmd_1:
   \   000026   7029         JNZ       ??zclParseInWriteRspCmd_2
   3817              {
   3818                // special case when all writes were successfull
   3819                writeRspCmd->attrList[i++].status = *pBuf;
   \   000028   12....       LCALL     ?Subroutine93 & 0xFFFF
   3820              }
   \                     ??CrossCallReturnLabel_418:
   \   00002B   A3           INC       DPTR
   \   00002C   F0           MOVX      @DPTR,A
   \   00002D   75..01       MOV       ?V4,#0x1
   \   000030   802D         SJMP      ??zclParseInWriteRspCmd_3
   3821              else
   3822              {
   3823                while ( pBuf < ( pCmd->pData + pCmd->dataLen ) )
   3824                {
   3825                  writeRspCmd->attrList[i].status = *pBuf++;
   \                     ??zclParseInWriteRspCmd_4:
   \   000032   E5..         MOV       A,?V4
   \   000034   12....       LCALL     ?Subroutine20 & 0xFFFF
   3826                  writeRspCmd->attrList[i++].attrID = BUILD_UINT16( pBuf[0], pBuf[1] );
   \                     ??CrossCallReturnLabel_516:
   \   000037   F5..         MOV       ?V6,A
   \   000039   A3           INC       DPTR
   \   00003A   E0           MOVX      A,@DPTR
   \   00003B   FD           MOV       R5,A
   \   00003C   E5..         MOV       A,?V6
   \   00003E   8882         MOV       DPL,R0
   \   000040   8983         MOV       DPH,R1
   \   000042   A3           INC       DPTR
   \   000043   A3           INC       DPTR
   \   000044   F0           MOVX      @DPTR,A
   \   000045   A3           INC       DPTR
   \   000046   ED           MOV       A,R5
   \   000047   F0           MOVX      @DPTR,A
   \   000048   05..         INC       ?V4
   3827                  pBuf += 2;
   \   00004A   EE           MOV       A,R6
   \   00004B   2402         ADD       A,#0x2
   \   00004D   FE           MOV       R6,A
   \   00004E   5001         JNC       ??zclParseInWriteRspCmd_2
   \   000050   0F           INC       R7
   3828                }
   \                     ??zclParseInWriteRspCmd_2:
   \   000051   85..82       MOV       DPL,?V0
   \   000054   85..83       MOV       DPH,?V1
   \   000057   12....       LCALL     ?Subroutine88 & 0xFFFF
   3829              }
   \                     ??CrossCallReturnLabel_149:
   \   00005A   12....       LCALL     ?Subroutine66 & 0xFFFF
   \                     ??CrossCallReturnLabel_108:
   \   00005D   40D3         JC        ??zclParseInWriteRspCmd_4
   3830          
   3831              writeRspCmd->numAttr = i;
   \                     ??zclParseInWriteRspCmd_3:
   \   00005F   8A82         MOV       DPL,R2
   \   000061   8B83         MOV       DPH,R3
   \   000063   E5..         MOV       A,?V4
   \   000065   F0           MOVX      @DPTR,A
   3832            }
   3833          
   3834            return ( (void *)writeRspCmd );
   \                     ??zclParseInWriteRspCmd_0:
   \   000066   02....       LJMP      ??Subroutine233_0 & 0xFFFF
   3835          }

   \                                 In  segment BANKED_CODE, align 1, keep-with-next
   \                     ?Subroutine20:
   \   000000   12....       LCALL     ?Subroutine199 & 0xFFFF
   \                     ??CrossCallReturnLabel_338:
   \   000003   12....       LCALL     ?Subroutine178 & 0xFFFF
   \                     ??CrossCallReturnLabel_301:
   \   000006                REQUIRE ??Subroutine244_0
   \   000006                ; // Fall through to label ??Subroutine244_0

   \                                 In  segment BANKED_CODE, align 1, keep-with-next
   \                     ??Subroutine244_0:
   \   000000   12....       LCALL     ?Subroutine161 & 0xFFFF
   \                     ??CrossCallReturnLabel_521:
   \   000003   E0           MOVX      A,@DPTR
   \   000004   22           RET

   \                                 In  segment BANKED_CODE, align 1, keep-with-next
   \                     ?Subroutine128:
   \   000000   F583         MOV       DPH,A
   \   000002   E0           MOVX      A,@DPTR
   \   000003   FE           MOV       R6,A
   \   000004   A3           INC       DPTR
   \   000005   E0           MOVX      A,@DPTR
   \   000006   FF           MOV       R7,A
   \   000007   75..00       MOV       ?V4,#0x0
   \   00000A   22           RET

   \                                 In  segment BANKED_CODE, align 1, keep-with-next
   \                     ?Subroutine199:
   \   000000   75F003       MOV       B,#0x3
   \   000003   A4           MUL       AB
   \   000004   F8           MOV       R0,A
   \   000005   A9F0         MOV       R1,B
   \   000007   EA           MOV       A,R2
   \   000008   28           ADD       A,R0
   \   000009   F8           MOV       R0,A
   \   00000A   EB           MOV       A,R3
   \   00000B   39           ADDC      A,R1
   \   00000C   F9           MOV       R1,A
   \   00000D   8E82         MOV       DPL,R6
   \   00000F   8F83         MOV       DPH,R7
   \   000011   22           RET
   3836          #endif // ZCL_WRITE
   3837          
   3838          #ifdef ZCL_REPORTING_DEVICE
   3839          /*********************************************************************
   3840           * @fn      zclParseInConfigReportCmd
   3841           *
   3842           * @brief   Parse the "Profile" Configure Reporting Command
   3843           *
   3844           *      NOTE: THIS FUNCTION ALLOCATES THE RETURN BUFFER, SO THE CALLING
   3845           *            FUNCTION IS RESPONSIBLE TO FREE THE MEMORY.
   3846           *
   3847           * @param   pCmd - pointer to incoming data to parse
   3848           *
   3849           * @return  pointer to the parsed command structure
   3850           */

   \                                 In  segment BANKED_CODE, align 1, keep-with-next
   3851          void *zclParseInConfigReportCmd( zclParseCmd_t *pCmd )
   \                     zclParseInConfigReportCmd:
   3852          {
   \   000000                REQUIRE ?V0
   \   000000                REQUIRE ?V1
   \   000000                REQUIRE ?V2
   \   000000                REQUIRE ?V3
   \   000000                REQUIRE ?V4
   \   000000                REQUIRE ?V5
   \   000000                REQUIRE ?V6
   \   000000                REQUIRE ?V7
   \   000000                REQUIRE ?V8
   \   000000                REQUIRE ?V9
   \   000000                REQUIRE ?V10
   \   000000                REQUIRE ?V11
   \   000000                REQUIRE ?V12
   \   000000                REQUIRE ?V13
   \   000000   74EA         MOV       A,#-0x16
   \   000002   12....       LCALL     ?BANKED_ENTER_XDATA
   \   000005                ; Saved register size: 22
   \   000005                ; Auto size: 2
   \   000005   74FE         MOV       A,#-0x2
   \   000007   12....       LCALL     ?ALLOC_XSTACK8
   \   00000A   8A..         MOV       ?V2,R2
   \   00000C   8B..         MOV       ?V3,R3
   3853            zclCfgReportCmd_t *cfgReportCmd;
   3854            uint8 *pBuf = pCmd->pData;
   \   00000E   EA           MOV       A,R2
   \   00000F   2403         ADD       A,#0x3
   \   000011   F5..         MOV       ?V0,A
   \   000013   E4           CLR       A
   \   000014   35..         ADDC      A,?V3
   \   000016   F5..         MOV       ?V1,A
   \   000018   85..82       MOV       DPL,?V0
   \   00001B   12....       LCALL     ?Subroutine128 & 0xFFFF
   3855            uint8 *dataPtr;
   3856            uint8 numAttr = 0;
   3857            uint8 dataType;
   3858            uint8 hdrLen;
   3859            uint16 dataLen = 0;
   \                     ??CrossCallReturnLabel_226:
   \   00001E   75..00       MOV       ?V6,#0x0
   \   000021   75..00       MOV       ?V7,#0x0
   \   000024   8007         SJMP      ??zclParseInConfigReportCmd_0
   3860            uint8 reportChangeLen; // length of Reportable Change field
   3861          
   3862            // Calculate the length of the Request command
   3863            while ( pBuf < ( pCmd->pData + pCmd->dataLen ) )
   3864            {
   3865              uint8 direction;
   3866          
   3867              numAttr++;
   3868              direction = *pBuf++;
   3869              pBuf += 2; // move pass the attribute ID
   3870          
   3871              // Is there a Reportable Change field?
   3872              if ( direction == ZCL_SEND_ATTR_REPORTS )
   3873              {
   3874                dataType = *pBuf++;
   3875                pBuf += 4; // move pass the Min and Max Reporting Intervals
   3876          
   3877                // For attributes of 'discrete' data types this field is omitted
   3878                if ( zclAnalogDataType( dataType ) )
   3879                {
   3880                  reportChangeLen = zclGetDataTypeLength( dataType );
   3881                  pBuf += reportChangeLen;
   3882          
   3883                  // add padding if needed
   3884                  if ( PADDING_NEEDED( reportChangeLen ) )
   3885                  {
   3886                    reportChangeLen++;
   3887                  }
   3888          
   3889                  dataLen += reportChangeLen;
   3890                }
   3891                else
   3892                {
   3893                  pBuf++; // move past reportable change field
   3894                }
   3895              }
   3896              else
   3897              {
   3898                pBuf += 2; // move pass the Timeout Period
   \                     ??zclParseInConfigReportCmd_1:
   \   000026   EE           MOV       A,R6
   \   000027   2405         ADD       A,#0x5
   \   000029   FE           MOV       R6,A
   \   00002A   5001         JNC       ??zclParseInConfigReportCmd_0
   \   00002C   0F           INC       R7
   3899              }
   \                     ??zclParseInConfigReportCmd_0:
   \   00002D   85..82       MOV       DPL,?V2
   \   000030   85..83       MOV       DPH,?V3
   \   000033   A3           INC       DPTR
   \   000034   12....       LCALL     ?Subroutine94 & 0xFFFF
   \                     ??CrossCallReturnLabel_157:
   \   000037   12....       LCALL     ?Subroutine66 & 0xFFFF
   \                     ??CrossCallReturnLabel_109:
   \   00003A   5036         JNC       ??zclParseInConfigReportCmd_2
   \   00003C   05..         INC       ?V4
   \   00003E   8E82         MOV       DPL,R6
   \   000040   8F83         MOV       DPH,R7
   \   000042   E0           MOVX      A,@DPTR
   \   000043   70E1         JNZ       ??zclParseInConfigReportCmd_1
   \   000045   A3           INC       DPTR
   \   000046   A3           INC       DPTR
   \   000047   A3           INC       DPTR
   \   000048   E0           MOVX      A,@DPTR
   \   000049   F5..         MOV       ?V5,A
   \   00004B   EE           MOV       A,R6
   \   00004C   2408         ADD       A,#0x8
   \   00004E   FE           MOV       R6,A
   \   00004F   5001         JNC       ??zclParseInConfigReportCmd_3
   \   000051   0F           INC       R7
   \                     ??zclParseInConfigReportCmd_3:
   \   000052                ; Setup parameters for call to function zclAnalogDataType
   \   000052   A9..         MOV       R1,?V5
   \   000054   12....       LCALL     `??zclAnalogDataType::?relay`; Banked call to: zclAnalogDataType
   \   000057   E9           MOV       A,R1
   \   000058   600D         JZ        ??zclParseInConfigReportCmd_4
   \   00005A                ; Setup parameters for call to function zclGetDataTypeLength
   \   00005A   A9..         MOV       R1,?V5
   \   00005C   12....       LCALL     ?Subroutine156 & 0xFFFF
   \                     ??CrossCallReturnLabel_263:
   \   00005F   5001         JNC       ??zclParseInConfigReportCmd_5
   \   000061   08           INC       R0
   \                     ??zclParseInConfigReportCmd_5:
   \   000062   12....       LCALL     ?Subroutine155 & 0xFFFF
   \                     ??CrossCallReturnLabel_261:
   \   000065   80C6         SJMP      ??zclParseInConfigReportCmd_0
   \                     ??zclParseInConfigReportCmd_4:
   \   000067   8E82         MOV       DPL,R6
   \   000069   8F83         MOV       DPH,R7
   \   00006B   A3           INC       DPTR
   \   00006C   AE82         MOV       R6,DPL
   \   00006E   AF83         MOV       R7,DPH
   \   000070   80BB         SJMP      ??zclParseInConfigReportCmd_0
   3900            } // while loop
   3901          
   3902            hdrLen = sizeof( zclCfgReportCmd_t ) + ( numAttr * sizeof( zclCfgReportRec_t ) );
   \                     ??zclParseInConfigReportCmd_2:
   \   000072   75F00C       MOV       B,#0xc
   \   000075   E5..         MOV       A,?V4
   \   000077   A4           MUL       AB
   \   000078   04           INC       A
   \   000079   F5..         MOV       ?V2,A
   3903          
   3904            cfgReportCmd = (zclCfgReportCmd_t *)zcl_mem_alloc( hdrLen + dataLen );
   \   00007B                ; Setup parameters for call to function osal_mem_alloc
   \   00007B   25..         ADD       A,?V6
   \   00007D   FA           MOV       R2,A
   \   00007E   E4           CLR       A
   \   00007F   35..         ADDC      A,?V7
   \   000081   12....       LCALL     ?Subroutine136 & 0xFFFF
   3905            if ( cfgReportCmd != NULL )
   \                     ??CrossCallReturnLabel_234:
   \   000084   7003         JNZ       $+5
   \   000086   02....       LJMP      ??zclParseInConfigReportCmd_6 & 0xFFFF
   3906            {
   3907              uint8 i;
   3908              pBuf = pCmd->pData;
   \   000089   85..82       MOV       DPL,?V0
   \   00008C   85..83       MOV       DPH,?V1
   \   00008F   12....       LCALL     ??Subroutine249_0 & 0xFFFF
   3909              dataPtr = (uint8 *)( (uint8 *)cfgReportCmd + hdrLen );
   \                     ??CrossCallReturnLabel_560:
   \   000092   A8..         MOV       R0,?V2
   \   000094   EA           MOV       A,R2
   \   000095   28           ADD       A,R0
   \   000096   F5..         MOV       ?V6,A
   \   000098   E4           CLR       A
   \   000099   3B           ADDC      A,R3
   \   00009A   F5..         MOV       ?V7,A
   3910          
   3911              cfgReportCmd->numAttr = numAttr;
   \   00009C   8A82         MOV       DPL,R2
   \   00009E   8B83         MOV       DPH,R3
   \   0000A0   E5..         MOV       A,?V4
   \   0000A2   F0           MOVX      @DPTR,A
   3912              for ( i = 0; i < numAttr; i++ )
   \   0000A3   75..00       MOV       ?V5,#0x0
   \   0000A6   8018         SJMP      ??zclParseInConfigReportCmd_7
   3913              {
   3914                zclCfgReportRec_t *reportRec = &(cfgReportCmd->attrList[i]);
   3915          
   3916                zcl_memset( reportRec, 0, sizeof( zclCfgReportRec_t ) );
   3917          
   3918                reportRec->direction = *pBuf++;
   3919                reportRec->attrID = BUILD_UINT16( pBuf[0], pBuf[1] );
   3920                pBuf += 2;
   3921                if ( reportRec->direction == ZCL_SEND_ATTR_REPORTS )
   3922                {
   3923                  // Attribute to be reported
   3924                  reportRec->dataType = *pBuf++;
   3925                  reportRec->minReportInt = BUILD_UINT16( pBuf[0], pBuf[1] );
   3926                  pBuf += 2;
   3927                  reportRec->maxReportInt = BUILD_UINT16( pBuf[0], pBuf[1] );
   3928                  pBuf += 2;
   3929          
   3930                  // For attributes of 'discrete' data types this field is omitted
   3931                  if ( zclAnalogDataType( reportRec->dataType ) )
   3932                  {
   3933                    zcl_BuildAnalogData( reportRec->dataType, dataPtr, pBuf);
   3934                    reportRec->reportableChange = dataPtr;
   3935          
   3936                    reportChangeLen = zclGetDataTypeLength( reportRec->dataType );
   3937                    pBuf += reportChangeLen;
   3938          
   3939                    // advance attribute data pointer
   3940                    if ( PADDING_NEEDED( reportChangeLen ) )
   3941                    {
   3942                      reportChangeLen++;
   3943                    }
   3944          
   3945                    dataPtr += reportChangeLen;
   3946                  }
   3947                }
   3948                else
   3949                {
   3950                  // Attribute reports to be received
   3951                  reportRec->timeoutPeriod = BUILD_UINT16( pBuf[0], pBuf[1] );
   \                     ??zclParseInConfigReportCmd_8:
   \   0000A8   8882         MOV       DPL,R0
   \   0000AA   8983         MOV       DPH,R1
   \   0000AC   12....       LCALL     ?Subroutine103 & 0xFFFF
   \                     ??CrossCallReturnLabel_174:
   \   0000AF   A3           INC       DPTR
   \   0000B0   A3           INC       DPTR
   \   0000B1   A3           INC       DPTR
   \   0000B2   A3           INC       DPTR
   \   0000B3   A3           INC       DPTR
   \   0000B4   A3           INC       DPTR
   \   0000B5   A3           INC       DPTR
   \   0000B6   A3           INC       DPTR
   \   0000B7   12....       LCALL     ??Subroutine237_0 & 0xFFFF
   3952                  pBuf += 2;
   \                     ??CrossCallReturnLabel_470:
   \   0000BA   0E           INC       R6
   \   0000BB   0E           INC       R6
   \   0000BC   ED           MOV       A,R5
   \   0000BD   FF           MOV       R7,A
   3953                }
   \                     ??zclParseInConfigReportCmd_9:
   \   0000BE   05..         INC       ?V5
   \                     ??zclParseInConfigReportCmd_7:
   \   0000C0   E5..         MOV       A,?V5
   \   0000C2   C3           CLR       C
   \   0000C3   95..         SUBB      A,?V4
   \   0000C5   4003         JC        $+5
   \   0000C7   02....       LJMP      ??zclParseInConfigReportCmd_6 & 0xFFFF
   \   0000CA   E5..         MOV       A,?V5
   \   0000CC   75F00C       MOV       B,#0xc
   \   0000CF   12....       LCALL     ?Subroutine197 & 0xFFFF
   \                     ??CrossCallReturnLabel_335:
   \   0000D2   12....       LCALL     ?Subroutine151 & 0xFFFF
   \                     ??CrossCallReturnLabel_255:
   \   0000D5                ; Setup parameters for call to function osal_memset
   \   0000D5   7C0C         MOV       R4,#0xc
   \   0000D7   7D00         MOV       R5,#0x0
   \   0000D9   7900         MOV       R1,#0x0
   \   0000DB   AA..         MOV       R2,?V0
   \   0000DD   AB..         MOV       R3,?V1
   \   0000DF   12....       LCALL     `??osal_memset::?relay`; Banked call to: osal_memset
   \   0000E2   8E82         MOV       DPL,R6
   \   0000E4   8F83         MOV       DPH,R7
   \   0000E6   E0           MOVX      A,@DPTR
   \   0000E7   FB           MOV       R3,A
   \   0000E8   85..82       MOV       DPL,?V0
   \   0000EB   85..83       MOV       DPH,?V1
   \   0000EE   12....       LCALL     ??Subroutine244_0 & 0xFFFF
   \                     ??CrossCallReturnLabel_518:
   \   0000F1   12....       LCALL     ?Subroutine104 & 0xFFFF
   \                     ??CrossCallReturnLabel_175:
   \   0000F4   12....       LCALL     ??Subroutine229_0 & 0xFFFF
   \                     ??CrossCallReturnLabel_446:
   \   0000F7   5001         JNC       ??zclParseInConfigReportCmd_10
   \   0000F9   0F           INC       R7
   \                     ??zclParseInConfigReportCmd_10:
   \   0000FA   2402         ADD       A,#0x2
   \   0000FC   FC           MOV       R4,A
   \   0000FD   E4           CLR       A
   \   0000FE   3F           ADDC      A,R7
   \   0000FF   FD           MOV       R5,A
   \   000100   8E82         MOV       DPL,R6
   \   000102   8F83         MOV       DPH,R7
   \   000104   A3           INC       DPTR
   \   000105   A882         MOV       R0,DPL
   \   000107   A983         MOV       R1,DPH
   \   000109   8E82         MOV       DPL,R6
   \   00010B   8F83         MOV       DPH,R7
   \   00010D   E0           MOVX      A,@DPTR
   \   00010E   FA           MOV       R2,A
   \   00010F   EB           MOV       A,R3
   \   000110   7096         JNZ       ??zclParseInConfigReportCmd_8
   \   000112   E5..         MOV       A,?V0
   \   000114   2403         ADD       A,#0x3
   \   000116   F5..         MOV       ?V12,A
   \   000118   E4           CLR       A
   \   000119   35..         ADDC      A,?V1
   \   00011B   F5..         MOV       ?V13,A
   \   00011D   EA           MOV       A,R2
   \   00011E   85..82       MOV       DPL,?V12
   \   000121   85..83       MOV       DPH,?V13
   \   000124   F0           MOVX      @DPTR,A
   \   000125   E9           MOV       A,R1
   \   000126   FF           MOV       R7,A
   \   000127   8882         MOV       DPL,R0
   \   000129   F583         MOV       DPH,A
   \   00012B   E0           MOVX      A,@DPTR
   \   00012C   F5..         MOV       ?V2,A
   \   00012E   8C82         MOV       DPL,R4
   \   000130   8D83         MOV       DPH,R5
   \   000132   E0           MOVX      A,@DPTR
   \   000133   F9           MOV       R1,A
   \   000134   E5..         MOV       A,?V2
   \   000136   85..82       MOV       DPL,?V0
   \   000139   85..83       MOV       DPH,?V1
   \   00013C   A3           INC       DPTR
   \   00013D   A3           INC       DPTR
   \   00013E   A3           INC       DPTR
   \   00013F   A3           INC       DPTR
   \   000140   12....       LCALL     ??Subroutine237_0 & 0xFFFF
   \                     ??CrossCallReturnLabel_471:
   \   000143   E8           MOV       A,R0
   \   000144   2402         ADD       A,#0x2
   \   000146   FE           MOV       R6,A
   \   000147   5001         JNC       ??zclParseInConfigReportCmd_11
   \   000149   0F           INC       R7
   \                     ??zclParseInConfigReportCmd_11:
   \   00014A   F582         MOV       DPL,A
   \   00014C   8F83         MOV       DPH,R7
   \   00014E   E0           MOVX      A,@DPTR
   \   00014F   12....       LCALL     ?Subroutine104 & 0xFFFF
   \                     ??CrossCallReturnLabel_176:
   \   000152   A3           INC       DPTR
   \   000153   A3           INC       DPTR
   \   000154   A3           INC       DPTR
   \   000155   A3           INC       DPTR
   \   000156   12....       LCALL     ?Subroutine25 & 0xFFFF
   \                     ??CrossCallReturnLabel_445:
   \   000159   5001         JNC       ??zclParseInConfigReportCmd_12
   \   00015B   0F           INC       R7
   \                     ??zclParseInConfigReportCmd_12:
   \   00015C                ; Setup parameters for call to function zclAnalogDataType
   \   00015C   EA           MOV       A,R2
   \   00015D   F9           MOV       R1,A
   \   00015E   12....       LCALL     `??zclAnalogDataType::?relay`; Banked call to: zclAnalogDataType
   \   000161   E9           MOV       A,R1
   \   000162   7003         JNZ       $+5
   \   000164   02....       LJMP      ??zclParseInConfigReportCmd_9 & 0xFFFF
   \   000167   8E..         MOV       ?V2,R6
   \   000169   8F..         MOV       ?V3,R7
   \   00016B                ; Setup parameters for call to function zclGetAttrDataLength
   \   00016B   AA..         MOV       R2,?V6
   \   00016D   AB..         MOV       R3,?V7
   \   00016F   85..82       MOV       DPL,?V12
   \   000172   85..83       MOV       DPH,?V13
   \   000175   12....       LCALL     ??Subroutine256_0 & 0xFFFF
   \                     ??CrossCallReturnLabel_596:
   \   000178   8A..         MOV       ?V10,R2
   \   00017A   8B..         MOV       ?V11,R3
   \   00017C   A8..         MOV       R0,?V10
   \   00017E   A9..         MOV       R1,?V11
   \   000180   85..82       MOV       DPL,?XSP + 0
   \   000183   85..83       MOV       DPH,?XSP + 1
   \   000186   7401         MOV       A,#0x1
   \   000188   F0           MOVX      @DPTR,A
   \   000189   A3           INC       DPTR
   \   00018A   E4           CLR       A
   \   00018B   F0           MOVX      @DPTR,A
   \   00018C   85..82       MOV       DPL,?XSP + 0
   \   00018F   85..83       MOV       DPH,?XSP + 1
   \   000192   E0           MOVX      A,@DPTR
   \   000193   600C         JZ        ??zclParseInConfigReportCmd_13
   \   000195   75..01       MOV       ?V10,#0x1
   \   000198   75..00       MOV       ?V11,#0x0
   \   00019B   7A00         MOV       R2,#0x0
   \   00019D   7B00         MOV       R3,#0x0
   \   00019F   8036         SJMP      ??zclParseInConfigReportCmd_14
   \                     ??zclParseInConfigReportCmd_13:
   \   0001A1   75..FF       MOV       ?V10,#-0x1
   \   0001A4   75..FF       MOV       ?V11,#-0x1
   \   0001A7   EA           MOV       A,R2
   \   0001A8   24FF         ADD       A,#-0x1
   \   0001AA   1A           DEC       R2
   \   0001AB   EB           MOV       A,R3
   \   0001AC   34FF         ADDC      A,#-0x1
   \   0001AE   8026         SJMP      ??zclParseInConfigReportCmd_15
   \                     ??zclParseInConfigReportCmd_16:
   \   0001B0   85..82       MOV       DPL,?V2
   \   0001B3   85..83       MOV       DPH,?V3
   \   0001B6   E0           MOVX      A,@DPTR
   \   0001B7   C0E0         PUSH      A
   \   0001B9   E5..         MOV       A,?V6
   \   0001BB   2A           ADD       A,R2
   \   0001BC   F582         MOV       DPL,A
   \   0001BE   E5..         MOV       A,?V7
   \   0001C0   3B           ADDC      A,R3
   \   0001C1   F583         MOV       DPH,A
   \   0001C3   D0E0         POP       A
   \   0001C5   12....       LCALL     ?Subroutine44 & 0xFFFF
   \                     ??CrossCallReturnLabel_56:
   \   0001C8   A3           INC       DPTR
   \   0001C9   8582..       MOV       ?V2,DPL
   \   0001CC   8583..       MOV       ?V3,DPH
   \   0001CF   EA           MOV       A,R2
   \   0001D0   25..         ADD       A,?V10
   \   0001D2   FA           MOV       R2,A
   \   0001D3   EB           MOV       A,R3
   \   0001D4   35..         ADDC      A,?V11
   \                     ??zclParseInConfigReportCmd_15:
   \   0001D6   FB           MOV       R3,A
   \                     ??zclParseInConfigReportCmd_14:
   \   0001D7   E8           MOV       A,R0
   \   0001D8   FC           MOV       R4,A
   \   0001D9   E9           MOV       A,R1
   \   0001DA   FD           MOV       R5,A
   \   0001DB   EC           MOV       A,R4
   \   0001DC   24FF         ADD       A,#-0x1
   \   0001DE   18           DEC       R0
   \   0001DF   ED           MOV       A,R5
   \   0001E0   34FF         ADDC      A,#-0x1
   \   0001E2   F9           MOV       R1,A
   \   0001E3   EC           MOV       A,R4
   \   0001E4   4D           ORL       A,R5
   \   0001E5   70C9         JNZ       ??zclParseInConfigReportCmd_16
   \   0001E7   85..82       MOV       DPL,?V0
   \   0001EA   85..83       MOV       DPH,?V1
   \   0001ED   A3           INC       DPTR
   \   0001EE   A3           INC       DPTR
   \   0001EF   A3           INC       DPTR
   \   0001F0   A3           INC       DPTR
   \   0001F1   A3           INC       DPTR
   \   0001F2   A3           INC       DPTR
   \   0001F3   A3           INC       DPTR
   \   0001F4   A3           INC       DPTR
   \   0001F5   A3           INC       DPTR
   \   0001F6   A3           INC       DPTR
   \   0001F7   E5..         MOV       A,?V6
   \   0001F9   F0           MOVX      @DPTR,A
   \   0001FA   A3           INC       DPTR
   \   0001FB   E5..         MOV       A,?V7
   \   0001FD   F0           MOVX      @DPTR,A
   \   0001FE                ; Setup parameters for call to function zclGetDataTypeLength
   \   0001FE   85..82       MOV       DPL,?V12
   \   000201   85..83       MOV       DPH,?V13
   \   000204   E0           MOVX      A,@DPTR
   \   000205   F9           MOV       R1,A
   \   000206   12....       LCALL     ?Subroutine156 & 0xFFFF
   \                     ??CrossCallReturnLabel_264:
   \   000209   5001         JNC       ??zclParseInConfigReportCmd_17
   \   00020B   08           INC       R0
   \                     ??zclParseInConfigReportCmd_17:
   \   00020C   12....       LCALL     ?Subroutine155 & 0xFFFF
   3954              } // while loop
   3955            }
   \                     ??CrossCallReturnLabel_262:
   \   00020F   02....       LJMP      ??zclParseInConfigReportCmd_9 & 0xFFFF
   3956          
   3957            return ( (void *)cfgReportCmd );
   \                     ??zclParseInConfigReportCmd_6:
   \   000212   AA..         MOV       R2,?V8
   \   000214   AB..         MOV       R3,?V9
   \   000216   02....       LJMP      ?Subroutine7 & 0xFFFF
   3958          }

   \                                 In  segment BANKED_CODE, align 1, keep-with-next
   \                     ?Subroutine156:
   \   000000   12....       LCALL     `??zclGetDataTypeLength::?relay`; Banked call to: zclGetDataTypeLength
   \   000003   E9           MOV       A,R1
   \   000004   F8           MOV       R0,A
   \   000005   EE           MOV       A,R6
   \   000006   29           ADD       A,R1
   \   000007   FE           MOV       R6,A
   \   000008   E4           CLR       A
   \   000009   3F           ADDC      A,R7
   \   00000A   FF           MOV       R7,A
   \   00000B   E9           MOV       A,R1
   \   00000C   A2E0         MOV       C,0xE0 /* A   */.0
   \   00000E   22           RET

   \                                 In  segment BANKED_CODE, align 1, keep-with-next
   \                     ?Subroutine155:
   \   000000   E5..         MOV       A,?V6
   \   000002   28           ADD       A,R0
   \   000003   F5..         MOV       ?V6,A
   \   000005   E4           CLR       A
   \   000006   35..         ADDC      A,?V7
   \   000008   F5..         MOV       ?V7,A
   \   00000A   22           RET

   \                                 In  segment BANKED_CODE, align 1, keep-with-next
   \                     ?Subroutine104:
   \   000000   FC           MOV       R4,A
   \   000001   A3           INC       DPTR
   \   000002   E0           MOVX      A,@DPTR
   \   000003   F9           MOV       R1,A
   \   000004   EC           MOV       A,R4
   \   000005   85..82       MOV       DPL,?V0
   \   000008   85..83       MOV       DPH,?V1
   \   00000B   22           RET

   \                                 In  segment BANKED_CODE, align 1, keep-with-next
   \                     ?Subroutine151:
   \   000000   12....       LCALL     ?Subroutine210 & 0xFFFF
   \                     ??CrossCallReturnLabel_353:
   \   000003   8582..       MOV       ?V0,DPL
   \   000006   8583..       MOV       ?V1,DPH
   \   000009   22           RET

   \                                 In  segment BANKED_CODE, align 1, keep-with-next
   \                     ?Subroutine94:
   \   000000   12....       LCALL     ?Subroutine185 & 0xFFFF
   \                     ??CrossCallReturnLabel_541:
   \   000003   85..82       MOV       DPL,?V0
   \   000006   85..83       MOV       DPH,?V1
   \   000009   22           RET
   3959          #endif
   3960          
   3961          #ifdef ZCL_REPORT_CONFIGURING_DEVICE
   3962          /*********************************************************************
   3963           * @fn      zclParseInConfigReportRspCmd
   3964           *
   3965           * @brief   Parse the "Profile" Configure Reporting Response Command
   3966           *
   3967           *      NOTE: THIS FUNCTION ALLOCATES THE RETURN BUFFER, SO THE CALLING
   3968           *            FUNCTION IS RESPONSIBLE TO FREE THE MEMORY.
   3969           *
   3970           * @param   pCmd - pointer to incoming data to parse
   3971           *
   3972           * @return  pointer to the parsed command structure
   3973           */
   3974          static void *zclParseInConfigReportRspCmd( zclParseCmd_t *pCmd )
   3975          {
   3976            zclCfgReportRspCmd_t *cfgReportRspCmd;
   3977            uint8 *pBuf = pCmd->pData;
   3978            uint8 numAttr;
   3979          
   3980            numAttr = pCmd->dataLen / ( 1 + 1 + 2 ); // Status + Direction + Attribute ID
   3981          
   3982            cfgReportRspCmd = (zclCfgReportRspCmd_t *)zcl_mem_alloc( sizeof( zclCfgReportRspCmd_t )
   3983                                                      + ( numAttr * sizeof( zclCfgReportStatus_t ) ) );
   3984            if ( cfgReportRspCmd != NULL )
   3985            {
   3986              uint8 i;
   3987              cfgReportRspCmd->numAttr = numAttr;
   3988              for ( i = 0; i < cfgReportRspCmd->numAttr; i++ )
   3989              {
   3990                cfgReportRspCmd->attrList[i].status = *pBuf++;
   3991                cfgReportRspCmd->attrList[i].direction = *pBuf++;
   3992                cfgReportRspCmd->attrList[i].attrID = BUILD_UINT16( pBuf[0], pBuf[1] );
   3993                pBuf += 2;
   3994              }
   3995            }
   3996          
   3997            return ( (void *)cfgReportRspCmd );
   3998          }
   3999          #endif
   4000          
   4001          #ifdef ZCL_REPORTING_DEVICE
   4002          /*********************************************************************
   4003           * @fn      zclParseInReadReportCfgCmd
   4004           *
   4005           * @brief   Parse the "Profile" Read Reporting Configuration Command
   4006           *
   4007           *      NOTE: THIS FUNCTION ALLOCATES THE RETURN BUFFER, SO THE CALLING
   4008           *            FUNCTION IS RESPONSIBLE TO FREE THE MEMORY.
   4009           *
   4010           * @param   pCmd - pointer to incoming data to parse
   4011           *
   4012           * @return  pointer to the parsed command structure
   4013           */

   \                                 In  segment BANKED_CODE, align 1, keep-with-next
   4014          void *zclParseInReadReportCfgCmd( zclParseCmd_t *pCmd )
   \                     zclParseInReadReportCfgCmd:
   4015          {
   \   000000                REQUIRE ?V0
   \   000000                REQUIRE ?V1
   \   000000                REQUIRE ?V2
   \   000000                REQUIRE ?V3
   \   000000   74F4         MOV       A,#-0xc
   \   000002   12....       LCALL     ?BANKED_ENTER_XDATA
   \   000005                ; Saved register size: 12
   \   000005                ; Auto size: 0
   4016            zclReadReportCfgCmd_t *readReportCfgCmd;
   4017            uint8 *pBuf = pCmd->pData;
   \   000005   12....       LCALL     ?Subroutine96 & 0xFFFF
   4018            uint8 numAttr;
   4019          
   4020            numAttr = pCmd->dataLen / ( 1 + 2 ); // Direction + Attribute ID
   \                     ??CrossCallReturnLabel_161:
   \   000008   F8           MOV       R0,A
   \   000009   A3           INC       DPTR
   \   00000A   E0           MOVX      A,@DPTR
   \   00000B   F9           MOV       R1,A
   \   00000C   7A03         MOV       R2,#0x3
   \   00000E   7B00         MOV       R3,#0x0
   \   000010   12....       LCALL     ?US_DIV_MOD
   \   000013   E8           MOV       A,R0
   \   000014   F5..         MOV       ?V0,A
   4021          
   4022            readReportCfgCmd = (zclReadReportCfgCmd_t *)zcl_mem_alloc( sizeof( zclReadReportCfgCmd_t )
   4023                                                            + ( numAttr * sizeof( zclReadReportCfgRec_t ) ) );
   \   000016                ; Setup parameters for call to function osal_mem_alloc
   \   000016   75F003       MOV       B,#0x3
   \   000019   A4           MUL       AB
   \   00001A   A9F0         MOV       R1,B
   \   00001C   2401         ADD       A,#0x1
   \   00001E   12....       LCALL     ?Subroutine135 & 0xFFFF
   4024            if ( readReportCfgCmd != NULL )
   \                     ??CrossCallReturnLabel_522:
   \   000021   6027         JZ        ??zclParseInReadReportCfgCmd_0
   4025            {
   4026              uint8 i;
   4027              readReportCfgCmd->numAttr = numAttr;
   \   000023   8A82         MOV       DPL,R2
   \   000025   8B83         MOV       DPH,R3
   \   000027   E5..         MOV       A,?V0
   \   000029   F0           MOVX      @DPTR,A
   4028              for ( i = 0; i < readReportCfgCmd->numAttr; i++)
   \   00002A   75..00       MOV       ?V0,#0x0
   \   00002D   8012         SJMP      ??zclParseInReadReportCfgCmd_1
   4029              {
   4030                readReportCfgCmd->attrList[i].direction = *pBuf++;;
   \                     ??zclParseInReadReportCfgCmd_2:
   \   00002F   E5..         MOV       A,?V0
   \   000031   12....       LCALL     ?Subroutine20 & 0xFFFF
   4031                readReportCfgCmd->attrList[i].attrID = BUILD_UINT16( pBuf[0], pBuf[1] );
   \                     ??CrossCallReturnLabel_517:
   \   000034   12....       LCALL     ?Subroutine84 & 0xFFFF
   \                     ??CrossCallReturnLabel_142:
   \   000037   F0           MOVX      @DPTR,A
   4032                pBuf += 2;
   \   000038   EE           MOV       A,R6
   \   000039   2402         ADD       A,#0x2
   \   00003B   FE           MOV       R6,A
   \   00003C   5001         JNC       ??zclParseInReadReportCfgCmd_3
   \   00003E   0F           INC       R7
   4033              }
   \                     ??zclParseInReadReportCfgCmd_3:
   \   00003F   05..         INC       ?V0
   \                     ??zclParseInReadReportCfgCmd_1:
   \   000041   8A82         MOV       DPL,R2
   \   000043   8B83         MOV       DPH,R3
   \   000045   12....       LCALL     ??Subroutine273_0 & 0xFFFF
   4034            }
   \                     ??CrossCallReturnLabel_685:
   \   000048   40E5         JC        ??zclParseInReadReportCfgCmd_2
   4035          
   4036            return ( (void *)readReportCfgCmd );
   \                     ??zclParseInReadReportCfgCmd_0:
   \   00004A   02....       LJMP      ??Subroutine213_0 & 0xFFFF
   4037          }

   \                                 In  segment BANKED_CODE, align 1, keep-with-next
   \                     ?Subroutine84:
   \   000000   F5..         MOV       ?V2,A
   \   000002   A3           INC       DPTR
   \   000003   E0           MOVX      A,@DPTR
   \   000004   FD           MOV       R5,A
   \   000005   E5..         MOV       A,?V2
   \   000007   8882         MOV       DPL,R0
   \   000009   8983         MOV       DPH,R1
   \   00000B   A3           INC       DPTR
   \   00000C   A3           INC       DPTR
   \   00000D   F0           MOVX      @DPTR,A
   \   00000E   A3           INC       DPTR
   \   00000F   ED           MOV       A,R5
   \   000010   22           RET

   \                                 In  segment BANKED_CODE, align 1, keep-with-next
   \                     ?Subroutine96:
   \   000000   12....       LCALL     ?Subroutine179 & 0xFFFF
   \                     ??CrossCallReturnLabel_304:
   \   000003   22           RET

   \                                 In  segment BANKED_CODE, align 1, keep-with-next
   \                     ?Subroutine179:
   \   000000   8A82         MOV       DPL,R2
   \   000002   8B83         MOV       DPH,R3
   \   000004   A3           INC       DPTR
   \   000005   A3           INC       DPTR
   \   000006   A3           INC       DPTR
   \   000007   E0           MOVX      A,@DPTR
   \   000008   FE           MOV       R6,A
   \   000009   A3           INC       DPTR
   \   00000A   E0           MOVX      A,@DPTR
   \   00000B   FF           MOV       R7,A
   \   00000C   8A82         MOV       DPL,R2
   \   00000E   8B83         MOV       DPH,R3
   \   000010   A3           INC       DPTR
   \   000011   E0           MOVX      A,@DPTR
   \   000012   22           RET

   \                                 In  segment BANKED_CODE, align 1, keep-with-next
   \                     ?Subroutine135:
   \   000000   FA           MOV       R2,A
   \   000001   E4           CLR       A
   \   000002   39           ADDC      A,R1
   \   000003                REQUIRE ??Subroutine245_0
   \   000003                ; // Fall through to label ??Subroutine245_0

   \                                 In  segment BANKED_CODE, align 1, keep-with-next
   \                     ??Subroutine245_0:
   \   000000   FB           MOV       R3,A
   \   000001                REQUIRE ??Subroutine246_0
   \   000001                ; // Fall through to label ??Subroutine246_0
   4038          #endif
   4039          
   4040          #ifdef ZCL_REPORT_CONFIGURING_DEVICE
   4041          /*********************************************************************
   4042           * @fn      zclParseInReadReportCfgRspCmd
   4043           *
   4044           * @brief   Parse the "Profile" Read Reporting Configuration Response Command
   4045           *
   4046           *      NOTE: THIS FUNCTION ALLOCATES THE RETURN BUFFER, SO THE CALLING
   4047           *            FUNCTION IS RESPONSIBLE TO FREE THE MEMORY.
   4048           *
   4049           * @param   pCmd - pointer to incoming data to parse
   4050           *
   4051           * @return  pointer to the parsed command structure
   4052           */
   4053          static void *zclParseInReadReportCfgRspCmd( zclParseCmd_t *pCmd )
   4054          {
   4055            zclReadReportCfgRspCmd_t *readReportCfgRspCmd;
   4056            uint8 reportChangeLen;
   4057            uint8 *pBuf = pCmd->pData;
   4058            uint8 *dataPtr;
   4059            uint8 numAttr = 0;
   4060            uint8 hdrLen;
   4061            uint16 dataLen = 0;
   4062          
   4063            // Calculate the length of the response command
   4064            while ( pBuf < ( pCmd->pData + pCmd->dataLen ) )
   4065            {
   4066              uint8 status;
   4067              uint8 direction;
   4068          
   4069              numAttr++;
   4070              status = *pBuf++;
   4071              direction = *pBuf++;
   4072              pBuf += 2; // move pass the attribute ID
   4073          
   4074              if ( status == ZCL_STATUS_SUCCESS )
   4075              {
   4076                if ( direction == ZCL_SEND_ATTR_REPORTS )
   4077                {
   4078                  uint8 dataType = *pBuf++;
   4079                  pBuf += 4; // move pass the Min and Max Reporting Intervals
   4080          
   4081                  // For attributes of 'discrete' data types this field is omitted
   4082                  if ( zclAnalogDataType( dataType ) )
   4083                  {
   4084                    reportChangeLen = zclGetDataTypeLength( dataType );
   4085                    pBuf += reportChangeLen;
   4086          
   4087                    // add padding if needed
   4088                    if ( PADDING_NEEDED( reportChangeLen ) )
   4089                    {
   4090                      reportChangeLen++;
   4091                    }
   4092          
   4093                    dataLen += reportChangeLen;
   4094                  }
   4095                }
   4096                else
   4097                {
   4098                  pBuf += 2; // move pass the Timeout field
   4099                }
   4100              }
   4101            } // while loop
   4102          
   4103            hdrLen = sizeof( zclReadReportCfgRspCmd_t ) + ( numAttr * sizeof( zclReportCfgRspRec_t ) );
   4104          
   4105            readReportCfgRspCmd = (zclReadReportCfgRspCmd_t *)zcl_mem_alloc( hdrLen + dataLen );
   4106            if ( readReportCfgRspCmd != NULL )
   4107            {
   4108              uint8 i;
   4109              pBuf = pCmd->pData;
   4110              dataPtr = (uint8 *)( (uint8 *)readReportCfgRspCmd + hdrLen );
   4111          
   4112              readReportCfgRspCmd->numAttr = numAttr;
   4113              for ( i = 0; i < numAttr; i++ )
   4114              {
   4115                zclReportCfgRspRec_t *reportRspRec = &(readReportCfgRspCmd->attrList[i]);
   4116          
   4117                reportRspRec->status = *pBuf++;
   4118                reportRspRec->direction = *pBuf++;
   4119                reportRspRec->attrID = BUILD_UINT16( pBuf[0], pBuf[1] );
   4120                pBuf += 2;
   4121          
   4122                if ( reportRspRec->status == ZCL_STATUS_SUCCESS )
   4123                {
   4124                  if ( reportRspRec->direction == ZCL_SEND_ATTR_REPORTS )
   4125                  {
   4126                    reportRspRec->dataType = *pBuf++;
   4127                    reportRspRec->minReportInt = BUILD_UINT16( pBuf[0], pBuf[1] );
   4128                    pBuf += 2;
   4129                    reportRspRec->maxReportInt = BUILD_UINT16( pBuf[0], pBuf[1] );
   4130                    pBuf += 2;
   4131          
   4132                    if ( zclAnalogDataType( reportRspRec->dataType ) )
   4133                    {
   4134                      zcl_BuildAnalogData( reportRspRec->dataType, dataPtr, pBuf);
   4135                      reportRspRec->reportableChange = dataPtr;
   4136          
   4137                      reportChangeLen = zclGetDataTypeLength( reportRspRec->dataType );
   4138                      pBuf += reportChangeLen;
   4139          
   4140                      // advance attribute data pointer
   4141                      if ( PADDING_NEEDED( reportChangeLen ) )
   4142                      {
   4143                        reportChangeLen++;
   4144                      }
   4145          
   4146                      dataPtr += reportChangeLen;
   4147                    }
   4148                  }
   4149                  else
   4150                  {
   4151                    reportRspRec->timeoutPeriod = BUILD_UINT16( pBuf[0], pBuf[1] );
   4152                    pBuf += 2;
   4153                  }
   4154                }
   4155              }
   4156            }
   4157          
   4158            return ( (void *)readReportCfgRspCmd );
   4159          }
   4160          #endif
   4161          
   4162          #ifdef ZCL_REPORT_DESTINATION_DEVICE
   4163          /*********************************************************************
   4164           * @fn      zclParseInReportCmd
   4165           *
   4166           * @brief   Parse the "Profile" Report Command
   4167           *
   4168           *      NOTE: THIS FUNCTION ALLOCATES THE RETURN BUFFER, SO THE CALLING
   4169           *            FUNCTION IS RESPONSIBLE TO FREE THE MEMORY.
   4170           *
   4171           * @param   pCmd - pointer to incoming data to parse
   4172           *
   4173           * @return  pointer to the parsed command structure
   4174           */
   4175          void *zclParseInReportCmd( zclParseCmd_t *pCmd )
   4176          {
   4177            zclReportCmd_t *reportCmd;
   4178            uint8 *pBuf = pCmd->pData;
   4179            uint16 attrDataLen;
   4180            uint8 *dataPtr;
   4181            uint8 numAttr = 0;
   4182            uint8 hdrLen;
   4183            uint16 dataLen = 0;
   4184          
   4185            // find out the number of attributes and the length of attribute data
   4186            while ( pBuf < ( pCmd->pData + pCmd->dataLen ) )
   4187            {
   4188              uint8 dataType;
   4189          
   4190              numAttr++;
   4191              pBuf += 2; // move pass attribute id
   4192          
   4193              dataType = *pBuf++;
   4194          
   4195              attrDataLen = zclGetAttrDataLength( dataType, pBuf );
   4196              pBuf += attrDataLen; // move pass attribute data
   4197          
   4198              // add padding if needed
   4199              if ( PADDING_NEEDED( attrDataLen ) )
   4200              {
   4201                attrDataLen++;
   4202              }
   4203          
   4204              dataLen += attrDataLen;
   4205            }
   4206          
   4207            hdrLen = sizeof( zclReportCmd_t ) + ( numAttr * sizeof( zclReport_t ) );
   4208          
   4209            reportCmd = (zclReportCmd_t *)zcl_mem_alloc( hdrLen + dataLen );
   4210            if (reportCmd != NULL )
   4211            {
   4212              uint8 i;
   4213              pBuf = pCmd->pData;
   4214              dataPtr = (uint8 *)( (uint8 *)reportCmd + hdrLen );
   4215          
   4216              reportCmd->numAttr = numAttr;
   4217              for ( i = 0; i < numAttr; i++ )
   4218              {
   4219                zclReport_t *reportRec = &(reportCmd->attrList[i]);
   4220          
   4221                reportRec->attrID = BUILD_UINT16( pBuf[0], pBuf[1] );
   4222                pBuf += 2;
   4223                reportRec->dataType = *pBuf++;
   4224          
   4225                attrDataLen = zclGetAttrDataLength( reportRec->dataType, pBuf );
   4226                zcl_memcpy( dataPtr, pBuf, attrDataLen );
   4227                reportRec->attrData = dataPtr;
   4228          
   4229                pBuf += attrDataLen; // move pass attribute data
   4230          
   4231                // advance attribute data pointer
   4232                if ( PADDING_NEEDED( attrDataLen ) )
   4233                {
   4234                  attrDataLen++;
   4235                }
   4236          
   4237                dataPtr += attrDataLen;
   4238              }
   4239            }
   4240          
   4241            return ( (void *)reportCmd );
   4242          }
   4243          #endif
   4244          
   4245          /*********************************************************************
   4246           * @fn      zclParseInDefaultRspCmd
   4247           *
   4248           * @brief   Parse the "Profile" Default Response Command
   4249           *
   4250           *      NOTE: THIS FUNCTION ALLOCATES THE RETURN BUFFER, SO THE CALLING
   4251           *            FUNCTION IS RESPONSIBLE TO FREE THE MEMORY.
   4252           *
   4253           * @param   pCmd - pointer to incoming data to parse
   4254           *
   4255           * @return  pointer to the parsed command structure
   4256           */

   \                                 In  segment BANKED_CODE, align 1, keep-with-next
   \                     ?Subroutine174:
   \   000000   8E82         MOV       DPL,R6
   \   000002   8F83         MOV       DPH,R7
   \   000004                REQUIRE ??Subroutine239_0
   \   000004                ; // Fall through to label ??Subroutine239_0

   \                                 In  segment BANKED_CODE, align 1, keep-with-next
   4257          static void *zclParseInDefaultRspCmd( zclParseCmd_t *pCmd )
   \                     zclParseInDefaultRspCmd:
   4258          {
   \   000000                REQUIRE ?V0
   \   000000                REQUIRE ?V1
   \   000000   74F6         MOV       A,#-0xa
   \   000002   12....       LCALL     ?BANKED_ENTER_XDATA
   \   000005                ; Saved register size: 10
   \   000005                ; Auto size: 0
   4259            zclDefaultRspCmd_t *defaultRspCmd;
   4260            uint8 *pBuf = pCmd->pData;
   \   000005   12....       LCALL     ?Subroutine70 & 0xFFFF
   4261          
   4262            defaultRspCmd = (zclDefaultRspCmd_t *)zcl_mem_alloc( sizeof ( zclDefaultRspCmd_t ) );
   4263            if ( defaultRspCmd != NULL )
   \                     ??CrossCallReturnLabel_117:
   \   000008   6003         JZ        ??CrossCallReturnLabel_20
   4264            {
   4265              defaultRspCmd->commandID = *pBuf++;
   \   00000A   12....       LCALL     ?Subroutine26 & 0xFFFF
   4266              defaultRspCmd->statusCode = *pBuf;
   4267            }
   4268          
   4269            return ( (void *)defaultRspCmd );
   \                     ??CrossCallReturnLabel_20:
   \   00000D   02....       LJMP      ?Subroutine3 & 0xFFFF
   4270          }

   \                                 In  segment BANKED_CODE, align 1, keep-with-next
   \                     ?Subroutine70:
   \   000000   12....       LCALL     ?Subroutine184 & 0xFFFF
   \                     ??CrossCallReturnLabel_313:
   \   000003                ; Setup parameters for call to function osal_mem_alloc
   \   000003                ; Setup parameters for call to function osal_mem_alloc
   \   000003   7A02         MOV       R2,#0x2
   \   000005   7B00         MOV       R3,#0x0
   \   000007   12....       LCALL     `??osal_mem_alloc::?relay`; Banked call to: osal_mem_alloc
   \   00000A   EA           MOV       A,R2
   \   00000B   4B           ORL       A,R3
   \   00000C   22           RET

   \                                 In  segment BANKED_CODE, align 1, keep-with-next
   \                     ?Subroutine26:
   \   000000   12....       LCALL     ?Subroutine174 & 0xFFFF
   \                     ??CrossCallReturnLabel_492:
   \   000003   12....       LCALL     ?Subroutine169 & 0xFFFF
   \                     ??CrossCallReturnLabel_290:
   \   000006   A3           INC       DPTR
   \   000007   12....       LCALL     ??Subroutine239_0 & 0xFFFF
   \                     ??CrossCallReturnLabel_487:
   \   00000A   A3           INC       DPTR
   \   00000B   F0           MOVX      @DPTR,A
   \   00000C   22           RET
   4271          
   4272          #ifdef ZCL_DISCOVER
   4273          /*********************************************************************
   4274           * @fn      zclParseInDiscAttrsCmd
   4275           *
   4276           * @brief   Parse the "Profile" Discovery Attributes and Attributes Extended Commands
   4277           *
   4278           *      NOTE: THIS FUNCTION ALLOCATES THE RETURN BUFFER, SO THE CALLING
   4279           *            FUNCTION IS RESPONSIBLE TO FREE THE MEMORY.
   4280           *
   4281           * @param   pCmd - pointer to incoming data to parse
   4282           *
   4283           * @return  pointer to the parsed command structure
   4284           */

   \                                 In  segment BANKED_CODE, align 1, keep-with-next
   4285          void *zclParseInDiscAttrsCmd( zclParseCmd_t *pCmd )
   \                     zclParseInDiscAttrsCmd:
   4286          {
   \   000000                REQUIRE ?V0
   \   000000                REQUIRE ?V1
   \   000000   74F6         MOV       A,#-0xa
   \   000002   12....       LCALL     ?BANKED_ENTER_XDATA
   \   000005                ; Saved register size: 10
   \   000005                ; Auto size: 0
   4287            zclDiscoverAttrsCmd_t *pDiscoverCmd;
   4288            uint8 *pBuf = pCmd->pData;
   \   000005   12....       LCALL     ?Subroutine106 & 0xFFFF
   4289          
   4290            pDiscoverCmd = (zclDiscoverAttrsCmd_t *)zcl_mem_alloc( sizeof ( zclDiscoverAttrsCmd_t ) );
   \                     ??CrossCallReturnLabel_180:
   \   000008                ; Setup parameters for call to function osal_mem_alloc
   \   000008   7A03         MOV       R2,#0x3
   \   00000A   7B00         MOV       R3,#0x0
   \   00000C   12....       LCALL     ??Subroutine246_0 & 0xFFFF
   4291            if ( pDiscoverCmd != NULL )
   \                     ??CrossCallReturnLabel_527:
   \   00000F   6017         JZ        ??zclParseInDiscAttrsCmd_0
   4292            {
   4293              pDiscoverCmd->startAttr = BUILD_UINT16( pBuf[0], pBuf[1] );
   \   000011   8E82         MOV       DPL,R6
   \   000013   8F83         MOV       DPH,R7
   \   000015   12....       LCALL     ?Subroutine125 & 0xFFFF
   4294              pBuf += 2;
   4295              pDiscoverCmd->maxAttrIDs = *pBuf;
   4296            }
   \                     ??CrossCallReturnLabel_219:
   \   000018   F9           MOV       R1,A
   \   000019   EC           MOV       A,R4
   \   00001A   8A82         MOV       DPL,R2
   \   00001C   8B83         MOV       DPH,R3
   \   00001E   12....       LCALL     ?Subroutine32 & 0xFFFF
   \                     ??CrossCallReturnLabel_37:
   \   000021   8A82         MOV       DPL,R2
   \   000023   8B83         MOV       DPH,R3
   \   000025   A3           INC       DPTR
   \   000026   A3           INC       DPTR
   \   000027   F0           MOVX      @DPTR,A
   4297          
   4298            return ( (void *)pDiscoverCmd );
   \                     ??zclParseInDiscAttrsCmd_0:
   \   000028   02....       LJMP      ?Subroutine3 & 0xFFFF
   4299          }
   4300          
   4301          /*********************************************************************
   4302           * @fn      zclParseInDiscAttrsRspCmd
   4303           *
   4304           * @brief   Parse the "Profile" Discovery Response Commands
   4305           *
   4306           *      NOTE: THIS FUNCTION ALLOCATES THE RETURN BUFFER, SO THE CALLING
   4307           *            FUNCTION IS RESPONSIBLE TO FREE THE MEMORY.
   4308           *
   4309           * @param   pCmd - pointer to incoming data to parse
   4310           *
   4311           * @return  pointer to the parsed command structure
   4312           */
   4313          #define ZCLDISCRSPCMD_DATALEN(a)  ((a)-1) // data len - Discovery Complete

   \                                 In  segment BANKED_CODE, align 1, keep-with-next
   4314          static void *zclParseInDiscAttrsRspCmd( zclParseCmd_t *pCmd )
   \                     zclParseInDiscAttrsRspCmd:
   4315          {
   \   000000                REQUIRE ?V0
   \   000000                REQUIRE ?V1
   \   000000                REQUIRE ?V2
   \   000000                REQUIRE ?V3
   \   000000   74F4         MOV       A,#-0xc
   \   000002   12....       LCALL     ?BANKED_ENTER_XDATA
   \   000005                ; Saved register size: 12
   \   000005                ; Auto size: 0
   4316            zclDiscoverAttrsRspCmd_t *pDiscoverRspCmd;
   4317            uint8 *pBuf = pCmd->pData;
   \   000005   12....       LCALL     ?Subroutine83 & 0xFFFF
   4318            uint8 numAttr = ZCLDISCRSPCMD_DATALEN(pCmd->dataLen) / ( 2 + 1 ); // Attr ID + Data Type
   \                     ??CrossCallReturnLabel_140:
   \   000008   F8           MOV       R0,A
   \   000009   A3           INC       DPTR
   \   00000A   E0           MOVX      A,@DPTR
   \   00000B   34FF         ADDC      A,#-0x1
   \   00000D   F9           MOV       R1,A
   \   00000E   7A03         MOV       R2,#0x3
   \   000010   7B00         MOV       R3,#0x0
   \   000012   12....       LCALL     ?US_DIV_MOD
   \   000015   E8           MOV       A,R0
   \   000016   F5..         MOV       ?V1,A
   4319          
   4320            pDiscoverRspCmd = (zclDiscoverAttrsRspCmd_t *)zcl_mem_alloc( sizeof ( zclDiscoverAttrsRspCmd_t ) +
   4321                              ( numAttr * sizeof(zclDiscoverAttrInfo_t) ) );
   \   000018                ; Setup parameters for call to function osal_mem_alloc
   \   000018   75F003       MOV       B,#0x3
   \   00001B   A4           MUL       AB
   \   00001C   A9F0         MOV       R1,B
   \   00001E   2402         ADD       A,#0x2
   \   000020   12....       LCALL     ?Subroutine135 & 0xFFFF
   4322          
   4323            if ( pDiscoverRspCmd != NULL )
   \                     ??CrossCallReturnLabel_523:
   \   000023   6027         JZ        ??zclParseInDiscAttrsRspCmd_0
   4324            {
   4325              uint8 i;
   4326          
   4327              pDiscoverRspCmd->discComplete = *pBuf++;
   \   000025   12....       LCALL     ?Subroutine17 & 0xFFFF
   4328              pDiscoverRspCmd->numAttr = numAttr;
   \                     ??CrossCallReturnLabel_6:
   \   000028   E5..         MOV       A,?V1
   \   00002A   F0           MOVX      @DPTR,A
   4329          
   4330              for ( i = 0; i < numAttr; i++ )
   \   00002B   75..00       MOV       ?V0,#0x0
   \   00002E   8015         SJMP      ??zclParseInDiscAttrsRspCmd_1
   4331              {
   4332                pDiscoverRspCmd->attrList[i].attrID = BUILD_UINT16( pBuf[0], pBuf[1] );
   \                     ??zclParseInDiscAttrsRspCmd_2:
   \   000030   E5..         MOV       A,?V0
   \   000032   12....       LCALL     ?Subroutine199 & 0xFFFF
   4333                pBuf += 2;
   4334                pDiscoverRspCmd->attrList[i].dataType = *pBuf++;
   4335              }
   \                     ??CrossCallReturnLabel_337:
   \   000035   E0           MOVX      A,@DPTR
   \   000036   12....       LCALL     ?Subroutine84 & 0xFFFF
   \                     ??CrossCallReturnLabel_143:
   \   000039   12....       LCALL     ?Subroutine21 & 0xFFFF
   \                     ??CrossCallReturnLabel_13:
   \   00003C   EE           MOV       A,R6
   \   00003D   2403         ADD       A,#0x3
   \   00003F   FE           MOV       R6,A
   \   000040   5001         JNC       ??zclParseInDiscAttrsRspCmd_3
   \   000042   0F           INC       R7
   \                     ??zclParseInDiscAttrsRspCmd_3:
   \   000043   05..         INC       ?V0
   \                     ??zclParseInDiscAttrsRspCmd_1:
   \   000045   E5..         MOV       A,?V0
   \   000047   C3           CLR       C
   \   000048   95..         SUBB      A,?V1
   \   00004A   40E4         JC        ??zclParseInDiscAttrsRspCmd_2
   4336            }
   4337          
   4338            return ( (void *)pDiscoverRspCmd );
   \                     ??zclParseInDiscAttrsRspCmd_0:
   \   00004C   02....       LJMP      ??Subroutine213_0 & 0xFFFF
   4339          }

   \                                 In  segment BANKED_CODE, align 1, keep-with-next
   \                     ?Subroutine17:
   \   000000   12....       LCALL     ?Subroutine174 & 0xFFFF
   \                     ??CrossCallReturnLabel_491:
   \   000003   12....       LCALL     ?Subroutine161 & 0xFFFF
   \                     ??CrossCallReturnLabel_520:
   \   000006   8A82         MOV       DPL,R2
   \   000008   8B83         MOV       DPH,R3
   \   00000A   A3           INC       DPTR
   \   00000B   22           RET

   \                                 In  segment BANKED_CODE, align 1, keep-with-next
   \                     ?Subroutine83:
   \   000000   12....       LCALL     ?Subroutine179 & 0xFFFF
   \                     ??CrossCallReturnLabel_305:
   \   000003   24FF         ADD       A,#-0x1
   \   000005   22           RET

   \                                 In  segment BANKED_CODE, align 1, keep-with-next
   \                     ?Subroutine21:
   \   000000   12....       LCALL     ?Subroutine168 & 0xFFFF
   \                     ??CrossCallReturnLabel_286:
   \   000003   8882         MOV       DPL,R0
   \   000005   8983         MOV       DPH,R1
   \   000007   A3           INC       DPTR
   \   000008   A3           INC       DPTR
   \   000009   A3           INC       DPTR
   \   00000A   A3           INC       DPTR
   \   00000B   F0           MOVX      @DPTR,A
   \   00000C   22           RET
   4340          
   4341          /*********************************************************************
   4342           * @fn      zclParseInDiscCmdsCmd
   4343           *
   4344           * @brief   Parse the "Profile" Discovery Commands
   4345           *
   4346           *      NOTE: THIS FUNCTION ALLOCATES THE RETURN BUFFER, SO THE CALLING
   4347           *            FUNCTION IS RESPONSIBLE TO FREE THE MEMORY.
   4348           *
   4349           * @param   pCmd - pointer to incoming data to parse
   4350           *
   4351           * @return  pointer to the parsed command structure
   4352           */

   \                                 In  segment BANKED_CODE, align 1, keep-with-next
   4353          void *zclParseInDiscCmdsCmd( zclParseCmd_t *pCmd )
   \                     zclParseInDiscCmdsCmd:
   4354          {
   \   000000                REQUIRE ?V0
   \   000000                REQUIRE ?V1
   \   000000   74F6         MOV       A,#-0xa
   \   000002   12....       LCALL     ?BANKED_ENTER_XDATA
   \   000005                ; Saved register size: 10
   \   000005                ; Auto size: 0
   4355            zclDiscoverCmdsCmd_t *pDiscoverCmd;
   4356            uint8 *pBuf = pCmd->pData;
   \   000005   12....       LCALL     ?Subroutine70 & 0xFFFF
   4357          
   4358            pDiscoverCmd = (zclDiscoverCmdsCmd_t *)zcl_mem_alloc( sizeof ( zclDiscoverCmdsCmd_t ) );
   4359            if ( pDiscoverCmd != NULL )
   \                     ??CrossCallReturnLabel_118:
   \   000008   6003         JZ        ??CrossCallReturnLabel_21
   4360            {
   4361              pDiscoverCmd->startCmdID = *pBuf++;
   \   00000A   12....       LCALL     ?Subroutine26 & 0xFFFF
   4362              pDiscoverCmd->maxCmdID = *pBuf++;
   4363            }
   4364          
   4365            return ( (void *)pDiscoverCmd );
   \                     ??CrossCallReturnLabel_21:
   \   00000D   02....       LJMP      ?Subroutine3 & 0xFFFF
   4366          }
   4367          
   4368          /*********************************************************************
   4369           * @fn      zclParseInDiscCmdsRspCmd
   4370           *
   4371           * @brief   Parse the Discover Commands Response Command
   4372           *
   4373           *      NOTE: THIS FUNCTION ALLOCATES THE RETURN BUFFER, SO THE CALLING
   4374           *            FUNCTION IS RESPONSIBLE TO FREE THE MEMORY.
   4375           *
   4376           * @param   pCmd - pointer to incoming data to parse
   4377           *
   4378           * @return  pointer to the parsed command structure
   4379           */
   4380          #define ZCLDISCRSPCMD_DATALEN(a)  ((a)-1) // data len - Discovery Complete

   \                                 In  segment BANKED_CODE, align 1, keep-with-next
   4381          static void *zclParseInDiscCmdsRspCmd( zclParseCmd_t *pCmd )
   \                     zclParseInDiscCmdsRspCmd:
   4382          {
   \   000000                REQUIRE ?V0
   \   000000                REQUIRE ?V2
   \   000000                REQUIRE ?V3
   \   000000   74F4         MOV       A,#-0xc
   \   000002   12....       LCALL     ?BANKED_ENTER_XDATA
   \   000005                ; Saved register size: 12
   \   000005                ; Auto size: 0
   4383            zclDiscoverCmdsCmdRsp_t *pDiscoverRspCmd;
   4384            uint8 *pBuf = pCmd->pData;
   \   000005   12....       LCALL     ?Subroutine96 & 0xFFFF
   4385            uint8 numCmds = ZCLDISCRSPCMD_DATALEN(pCmd->dataLen);  // length of command ID variable array
   \                     ??CrossCallReturnLabel_162:
   \   000008   14           DEC       A
   \   000009   F5..         MOV       ?V0,A
   4386          
   4387              // allocate memory for size of structure plus variable array
   4388            pDiscoverRspCmd = (zclDiscoverCmdsCmdRsp_t *)zcl_mem_alloc( sizeof ( zclDiscoverCmdsCmdRsp_t ) +
   4389                              ( numCmds * sizeof(uint8) ) );
   \   00000B                ; Setup parameters for call to function osal_mem_alloc
   \   00000B   2405         ADD       A,#0x5
   \   00000D   FA           MOV       R2,A
   \   00000E   E4           CLR       A
   \   00000F   3400         ADDC      A,#0x0
   \   000011   12....       LCALL     ??Subroutine245_0 & 0xFFFF
   4390            if ( pDiscoverRspCmd != NULL )
   \                     ??CrossCallReturnLabel_524:
   \   000014   6032         JZ        ??zclParseInDiscCmdsRspCmd_0
   4391            {
   4392              uint8 i;
   4393              pDiscoverRspCmd->discComplete = *pBuf++;
   \   000016   12....       LCALL     ?Subroutine17 & 0xFFFF
   4394              pDiscoverRspCmd->numCmd = numCmds;
   \                     ??CrossCallReturnLabel_7:
   \   000019   A3           INC       DPTR
   \   00001A   E5..         MOV       A,?V0
   \   00001C   F0           MOVX      @DPTR,A
   4395          
   4396              for ( i = 0; i < numCmds; i++ )
   \   00001D   7800         MOV       R0,#0x0
   \   00001F   8021         SJMP      ??zclParseInDiscCmdsRspCmd_1
   4397              {
   4398                pDiscoverRspCmd->pCmdID[i] = *pBuf++;
   \                     ??zclParseInDiscCmdsRspCmd_2:
   \   000021   8E82         MOV       DPL,R6
   \   000023   8F83         MOV       DPH,R7
   \   000025   E0           MOVX      A,@DPTR
   \   000026   C0E0         PUSH      A
   \   000028   E8           MOV       A,R0
   \   000029   FC           MOV       R4,A
   \   00002A   8A82         MOV       DPL,R2
   \   00002C   8B83         MOV       DPH,R3
   \   00002E   A3           INC       DPTR
   \   00002F   A3           INC       DPTR
   \   000030   A3           INC       DPTR
   \   000031   E0           MOVX      A,@DPTR
   \   000032   2C           ADD       A,R4
   \   000033   F9           MOV       R1,A
   \   000034   A3           INC       DPTR
   \   000035   E0           MOVX      A,@DPTR
   \   000036   3400         ADDC      A,#0x0
   \   000038   8982         MOV       DPL,R1
   \   00003A   F583         MOV       DPH,A
   \   00003C   D0E0         POP       A
   \   00003E   12....       LCALL     ?Subroutine22 & 0xFFFF
   4399              }
   \                     ??CrossCallReturnLabel_17:
   \   000041   08           INC       R0
   \                     ??zclParseInDiscCmdsRspCmd_1:
   \   000042   E8           MOV       A,R0
   \   000043   C3           CLR       C
   \   000044   95..         SUBB      A,?V0
   \   000046   40D9         JC        ??zclParseInDiscCmdsRspCmd_2
   4400            }
   4401          
   4402            return ( (void *)pDiscoverRspCmd );
   \                     ??zclParseInDiscCmdsRspCmd_0:
   \   000048   02....       LJMP      ??Subroutine213_0 & 0xFFFF
   4403          }
   4404          
   4405          /*********************************************************************
   4406           * @fn      zclParseInDiscAttrsExtRspCmd
   4407           *
   4408           * @brief   Parse the "Profile" Discovery Extended Attributes Response Commands
   4409           *
   4410           *      NOTE: THIS FUNCTION ALLOCATES THE RETURN BUFFER, SO THE CALLING
   4411           *            FUNCTION IS RESPONSIBLE TO FREE THE MEMORY.
   4412           *
   4413           * @param   pCmd - pointer to incoming data to parse
   4414           *
   4415           * @return  pointer to the parsed command structure
   4416           */
   4417          #define ZCLDISCRSPCMD_DATALEN(a)  ((a)-1) // data len - Discovery Complete

   \                                 In  segment BANKED_CODE, align 1, keep-with-next
   4418          static void *zclParseInDiscAttrsExtRspCmd( zclParseCmd_t *pCmd )
   \                     zclParseInDiscAttrsExtRspCmd:
   4419          {
   \   000000                REQUIRE ?V0
   \   000000                REQUIRE ?V1
   \   000000                REQUIRE ?V2
   \   000000                REQUIRE ?V3
   \   000000                REQUIRE ?V4
   \   000000                REQUIRE ?V5
   \   000000   74F2         MOV       A,#-0xe
   \   000002   12....       LCALL     ?BANKED_ENTER_XDATA
   \   000005                ; Saved register size: 14
   \   000005                ; Auto size: 0
   4420            zclDiscoverAttrsExtRsp_t *pDiscoverRspCmd;
   4421            uint8 i;
   4422            uint8 *pBuf = pCmd->pData;
   \   000005   12....       LCALL     ?Subroutine83 & 0xFFFF
   4423            uint8 numAttrs = ZCLDISCRSPCMD_DATALEN(pCmd->dataLen) / ( 2 + 1 + 1 ); // Attr ID + Data Type + Access Control
   \                     ??CrossCallReturnLabel_141:
   \   000008   F5..         MOV       ?V0,A
   \   00000A   A3           INC       DPTR
   \   00000B   E0           MOVX      A,@DPTR
   \   00000C   34FF         ADDC      A,#-0x1
   \   00000E   F5..         MOV       ?V1,A
   \   000010   7402         MOV       A,#0x2
   \   000012   78..         MOV       R0,#?V0
   \   000014   12....       LCALL     ?US_SHR
   \   000017   E5..         MOV       A,?V0
   \   000019   F5..         MOV       ?V0,A
   4424          
   4425            pDiscoverRspCmd = (zclDiscoverAttrsExtRsp_t *)zcl_mem_alloc( sizeof ( zclDiscoverAttrsExtRsp_t ) +
   4426                              ( numAttrs * sizeof(zclExtAttrInfo_t) ) );
   \   00001B                ; Setup parameters for call to function osal_mem_alloc
   \   00001B   F5..         MOV       ?V2,A
   \   00001D   75..00       MOV       ?V3,#0x0
   \   000020   7402         MOV       A,#0x2
   \   000022   78..         MOV       R0,#?V2
   \   000024   12....       LCALL     ?S_SHL
   \   000027   E5..         MOV       A,?V2
   \   000029   12....       LCALL     ?Subroutine194 & 0xFFFF
   \                     ??CrossCallReturnLabel_325:
   \   00002C   35..         ADDC      A,?V3
   \   00002E   12....       LCALL     ??Subroutine245_0 & 0xFFFF
   4427          
   4428            if ( pDiscoverRspCmd != NULL )
   \                     ??CrossCallReturnLabel_525:
   \   000031   6053         JZ        ??zclParseInDiscAttrsExtRspCmd_0
   4429            {
   4430              pDiscoverRspCmd->discComplete = *pBuf++;
   \   000033   12....       LCALL     ?Subroutine17 & 0xFFFF
   4431              pDiscoverRspCmd->numAttr = numAttrs;
   \                     ??CrossCallReturnLabel_8:
   \   000036   E5..         MOV       A,?V0
   \   000038   F0           MOVX      @DPTR,A
   4432          
   4433              for ( i = 0; i < numAttrs; i++ )
   \   000039   7C00         MOV       R4,#0x0
   \   00003B   8043         SJMP      ??zclParseInDiscAttrsExtRspCmd_1
   4434              {
   4435                pDiscoverRspCmd->aExtAttrInfo[i].attrID = BUILD_UINT16( pBuf[0], pBuf[1] );
   \                     ??zclParseInDiscAttrsExtRspCmd_2:
   \   00003D   EC           MOV       A,R4
   \   00003E   F5..         MOV       ?V2,A
   \   000040   75..00       MOV       ?V3,#0x0
   \   000043   7402         MOV       A,#0x2
   \   000045   78..         MOV       R0,#?V2
   \   000047   12....       LCALL     ?S_SHL
   \   00004A   EA           MOV       A,R2
   \   00004B   25..         ADD       A,?V2
   \   00004D   F8           MOV       R0,A
   \   00004E   EB           MOV       A,R3
   \   00004F   35..         ADDC      A,?V3
   \   000051   F9           MOV       R1,A
   \   000052   8E82         MOV       DPL,R6
   \   000054   8F83         MOV       DPH,R7
   \   000056   E0           MOVX      A,@DPTR
   \   000057   F5..         MOV       ?V4,A
   \   000059   A3           INC       DPTR
   \   00005A   E0           MOVX      A,@DPTR
   \   00005B   F5..         MOV       ?V3,A
   \   00005D   E5..         MOV       A,?V4
   \   00005F   8882         MOV       DPL,R0
   \   000061   8983         MOV       DPH,R1
   \   000063   A3           INC       DPTR
   \   000064   A3           INC       DPTR
   \   000065   F0           MOVX      @DPTR,A
   \   000066   A3           INC       DPTR
   \   000067   E5..         MOV       A,?V3
   \   000069   12....       LCALL     ?Subroutine21 & 0xFFFF
   4436                pBuf += 2;
   4437                pDiscoverRspCmd->aExtAttrInfo[i].attrDataType = *pBuf++;
   4438                pDiscoverRspCmd->aExtAttrInfo[i].attrAccessControl = *pBuf++;
   \                     ??CrossCallReturnLabel_14:
   \   00006C   8E82         MOV       DPL,R6
   \   00006E   8F83         MOV       DPH,R7
   \   000070   A3           INC       DPTR
   \   000071   A3           INC       DPTR
   \   000072   A3           INC       DPTR
   \   000073   12....       LCALL     ?Subroutine115 & 0xFFFF
   4439              }
   \                     ??CrossCallReturnLabel_193:
   \   000076   A3           INC       DPTR
   \   000077   F0           MOVX      @DPTR,A
   \   000078   EE           MOV       A,R6
   \   000079   2404         ADD       A,#0x4
   \   00007B   FE           MOV       R6,A
   \   00007C   5001         JNC       ??zclParseInDiscAttrsExtRspCmd_3
   \   00007E   0F           INC       R7
   \                     ??zclParseInDiscAttrsExtRspCmd_3:
   \   00007F   0C           INC       R4
   \                     ??zclParseInDiscAttrsExtRspCmd_1:
   \   000080   EC           MOV       A,R4
   \   000081   C3           CLR       C
   \   000082   95..         SUBB      A,?V0
   \   000084   40B7         JC        ??zclParseInDiscAttrsExtRspCmd_2
   4440            }
   4441          
   4442            return ( (void *)pDiscoverRspCmd );
   \                     ??zclParseInDiscAttrsExtRspCmd_0:
   \   000086   02....       LJMP      ?Subroutine4 & 0xFFFF
   4443          }

   \                                 In  segment BANKED_CODE, align 1, keep-with-next
   \                     ?Subroutine115:
   \   000000   12....       LCALL     ?Subroutine178 & 0xFFFF
   \                     ??CrossCallReturnLabel_303:
   \   000003   A3           INC       DPTR
   \   000004   A3           INC       DPTR
   \   000005   A3           INC       DPTR
   \   000006   22           RET
   4444          #endif // ZCL_DISCOVER
   4445          
   4446          #ifdef ZCL_READ
   4447          /*********************************************************************
   4448           * @fn      zclProcessInReadCmd
   4449           *
   4450           * @brief   Process the "Profile" Read Command
   4451           *
   4452           * @param   pInMsg - incoming message to process
   4453           *
   4454           * @return  TRUE if command processed. FALSE, otherwise.
   4455           */

   \                                 In  segment BANKED_CODE, align 1, keep-with-next
   \                     ?Subroutine54:
   \   000000   8E82         MOV       DPL,R6
   \   000002   8F83         MOV       DPH,R7
   \   000004                REQUIRE ??Subroutine224_0
   \   000004                ; // Fall through to label ??Subroutine224_0

   \                                 In  segment BANKED_CODE, align 1, keep-with-next
   \                     ??Subroutine224_0:
   \   000000   A3           INC       DPTR
   \   000001   A3           INC       DPTR
   \   000002   A3           INC       DPTR
   \   000003   A3           INC       DPTR
   \   000004   A3           INC       DPTR
   \   000005   A3           INC       DPTR
   \   000006                REQUIRE ??Subroutine225_0
   \   000006                ; // Fall through to label ??Subroutine225_0

   \                                 In  segment BANKED_CODE, align 1, keep-with-next
   4456          static uint8 zclProcessInReadCmd( zclIncoming_t *pInMsg )
   \                     zclProcessInReadCmd:
   4457          {
   \   000000                REQUIRE ?V0
   \   000000                REQUIRE ?V1
   \   000000                REQUIRE ?V2
   \   000000                REQUIRE ?V3
   \   000000                REQUIRE ?V4
   \   000000                REQUIRE ?V5
   \   000000                REQUIRE ?V6
   \   000000                REQUIRE ?V7
   \   000000                REQUIRE ?V8
   \   000000                REQUIRE ?V9
   \   000000                REQUIRE ?V10
   \   000000                REQUIRE ?V11
   \   000000                REQUIRE ?V12
   \   000000                REQUIRE ?V13
   \   000000                REQUIRE ?V14
   \   000000                REQUIRE ?V15
   \   000000   74E8         MOV       A,#-0x18
   \   000002   12....       LCALL     ?BANKED_ENTER_XDATA
   \   000005                ; Saved register size: 24
   \   000005                ; Auto size: 8
   \   000005   74F8         MOV       A,#-0x8
   \   000007   12....       LCALL     ?ALLOC_XSTACK8
   \   00000A   12....       LCALL     ?Subroutine145 & 0xFFFF
   4458            zclReadCmd_t *readCmd;
   4459            zclReadRspCmd_t *readRspCmd;
   4460            zclAttrRec_t attrRec;
   4461            uint16 len;
   4462            uint8 i;
   4463            uint8 attrFound;
   4464          
   4465            readCmd = (zclReadCmd_t *)pInMsg->attrCmd;
   \                     ??CrossCallReturnLabel_247:
   \   00000D   E0           MOVX      A,@DPTR
   \   00000E   F5..         MOV       ?V10,A
   \   000010   A3           INC       DPTR
   \   000011   E0           MOVX      A,@DPTR
   \   000012   F5..         MOV       ?V11,A
   4466          
   4467            // calculate the length of the response status record
   4468            len = sizeof( zclReadRspCmd_t ) + (readCmd->numAttr * sizeof( zclReadRspStatus_t ));
   4469          
   4470            readRspCmd = zcl_mem_alloc( len );
   \   000014                ; Setup parameters for call to function osal_mem_alloc
   \   000014   85..82       MOV       DPL,?V10
   \   000017   F583         MOV       DPH,A
   \   000019   E0           MOVX      A,@DPTR
   \   00001A   75F006       MOV       B,#0x6
   \   00001D   A4           MUL       AB
   \   00001E   A9F0         MOV       R1,B
   \   000020   2401         ADD       A,#0x1
   \   000022   FA           MOV       R2,A
   \   000023   E4           CLR       A
   \   000024   39           ADDC      A,R1
   \   000025   12....       LCALL     ??Subroutine267_0 & 0xFFFF
   4471            if ( readRspCmd == NULL )
   \                     ??CrossCallReturnLabel_635:
   \   000028   7005         JNZ       ??zclProcessInReadCmd_0
   4472            {
   4473              return FALSE; // EMBEDDED RETURN
   \   00002A   7900         MOV       R1,#0x0
   \   00002C   02....       LJMP      ??zclProcessInReadCmd_1 & 0xFFFF
   4474            }
   4475          
   4476            readRspCmd->numAttr = readCmd->numAttr;
   \                     ??zclProcessInReadCmd_0:
   \   00002F   85..82       MOV       DPL,?V10
   \   000032   85..83       MOV       DPH,?V11
   \   000035   12....       LCALL     ?Subroutine92 & 0xFFFF
   4477            for ( i = 0; i < readCmd->numAttr; i++ )
   \                     ??CrossCallReturnLabel_156:
   \   000038   75..00       MOV       ?V2,#0x0
   \   00003B   EE           MOV       A,R6
   \   00003C   2402         ADD       A,#0x2
   \   00003E   F5..         MOV       ?V14,A
   \   000040   E4           CLR       A
   \   000041   3F           ADDC      A,R7
   \   000042   F5..         MOV       ?V15,A
   \   000044   800B         SJMP      ??zclProcessInReadCmd_2
   4478            {
   4479              zclReadRspStatus_t *statusRec = &(readRspCmd->attrList[i]);
   4480          
   4481              statusRec->attrID = readCmd->attrID[i];
   4482              
   4483              attrFound = zclFindAttrRec( pInMsg->msg->endPoint, pInMsg->msg->clusterId, readCmd->attrID[i], &attrRec );
   4484              
   4485              //Validate the attribute is found and the access control
   4486              if ( ( attrFound == TRUE ) && 
   4487                   (  (attrRec.attr.accessControl & ACCESS_GLOBAL) || 
   4488                      (GET_BIT( &attrRec.attr.accessControl, ACCESS_CONTROL_MASK ) == pInMsg->hdr.fc.direction ) ) )
   4489              {
   4490                if ( zcl_AccessCtrlRead( attrRec.attr.accessControl ) )
   4491                {
   4492                  statusRec->status = zclAuthorizeRead( pInMsg->msg->endPoint,
   4493                                                        &(pInMsg->msg->srcAddr), &attrRec );
   4494                  if ( statusRec->status == ZCL_STATUS_SUCCESS )
   4495                  {
   4496                    statusRec->data = attrRec.attr.dataPtr;
   4497                    statusRec->dataType = attrRec.attr.dataType;
   4498                  }
   4499                }
   4500                else
   4501                {
   4502                  statusRec->status = ZCL_STATUS_WRITE_ONLY;
   4503                }
   4504              }
   4505              else
   4506              {
   4507                statusRec->status = ZCL_STATUS_UNSUPPORTED_ATTRIBUTE;
   \                     ??zclProcessInReadCmd_3:
   \   000046   85..82       MOV       DPL,?V6
   \   000049   85..83       MOV       DPH,?V7
   \   00004C   7486         MOV       A,#-0x7a
   \                     ??zclProcessInReadCmd_4:
   \   00004E   F0           MOVX      @DPTR,A
   4508              }
   \                     ??zclProcessInReadCmd_5:
   \   00004F   05..         INC       ?V2
   \                     ??zclProcessInReadCmd_2:
   \   000051   85..82       MOV       DPL,?V10
   \   000054   85..83       MOV       DPH,?V11
   \   000057   12....       LCALL     ??Subroutine248_0 & 0xFFFF
   \                     ??CrossCallReturnLabel_555:
   \   00005A   4003         JC        $+5
   \   00005C   02....       LJMP      ??zclProcessInReadCmd_6 & 0xFFFF
   \   00005F   A8..         MOV       R0,?V2
   \   000061   E8           MOV       A,R0
   \   000062   75F006       MOV       B,#0x6
   \   000065   A4           MUL       AB
   \   000066   FA           MOV       R2,A
   \   000067   ABF0         MOV       R3,B
   \   000069   E5..         MOV       A,?V0
   \   00006B   2A           ADD       A,R2
   \   00006C   F582         MOV       DPL,A
   \   00006E   E5..         MOV       A,?V1
   \   000070   3B           ADDC      A,R3
   \   000071   F583         MOV       DPH,A
   \   000073   A3           INC       DPTR
   \   000074   8582..       MOV       ?V4,DPL
   \   000077   8583..       MOV       ?V5,DPH
   \   00007A   E8           MOV       A,R0
   \   00007B   28           ADD       A,R0
   \   00007C   F8           MOV       R0,A
   \   00007D   E4           CLR       A
   \   00007E   33           RLC       A
   \   00007F   F9           MOV       R1,A
   \   000080   E5..         MOV       A,?V10
   \   000082   28           ADD       A,R0
   \   000083   F582         MOV       DPL,A
   \   000085   E5..         MOV       A,?V11
   \   000087   12....       LCALL     ?Subroutine153 & 0xFFFF
   \                     ??CrossCallReturnLabel_260:
   \   00008A   12....       LCALL     ?Subroutine68 & 0xFFFF
   \                     ??CrossCallReturnLabel_113:
   \   00008D   12....       LCALL     ??Subroutine236_0 & 0xFFFF
   \                     ??CrossCallReturnLabel_475:
   \   000090   E5..         MOV       A,?V4
   \   000092   2402         ADD       A,#0x2
   \   000094   F5..         MOV       ?V6,A
   \   000096   E4           CLR       A
   \   000097   35..         ADDC      A,?V5
   \   000099   F5..         MOV       ?V7,A
   \   00009B   12....       LCALL     ?Subroutine62 & 0xFFFF
   \                     ??CrossCallReturnLabel_591:
   \   00009E                ; Setup parameters for call to function zclFindAttrRec
   \   00009E   A8..         MOV       R0,?XSP + 0
   \   0000A0   A9..         MOV       R1,?XSP + 1
   \   0000A2   88..         MOV       ?V12,R0
   \   0000A4   89..         MOV       ?V13,R1
   \   0000A6   78..         MOV       R0,#?V12
   \   0000A8   12....       LCALL     ?PUSH_XSTACK_I_TWO
   \   0000AB   8A82         MOV       DPL,R2
   \   0000AD   8B83         MOV       DPH,R3
   \   0000AF   12....       LCALL     ??Subroutine263_0 & 0xFFFF
   \                     ??CrossCallReturnLabel_606:
   \   0000B2   85..82       MOV       DPL,?V8
   \   0000B5   85..83       MOV       DPH,?V9
   \   0000B8   12....       LCALL     ??Subroutine250_0 & 0xFFFF
   \                     ??CrossCallReturnLabel_581:
   \   0000BB   12....       LCALL     ?Subroutine139 & 0xFFFF
   \                     ??CrossCallReturnLabel_239:
   \   0000BE   12....       LCALL     ??Subroutine214_0 & 0xFFFF
   \                     ??CrossCallReturnLabel_363:
   \   0000C1   12....       LCALL     ?DEALLOC_XSTACK8
   \   0000C4   E9           MOV       A,R1
   \   0000C5   6401         XRL       A,#0x1
   \   0000C7   6003         JZ        $+5
   \   0000C9   02....       LJMP      ??zclProcessInReadCmd_3 & 0xFFFF
   \   0000CC   7405         MOV       A,#0x5
   \   0000CE   12....       LCALL     ?XSTACK_DISP0_8
   \   0000D1   E0           MOVX      A,@DPTR
   \   0000D2   A2E6         MOV       C,0xE0 /* A   */.6
   \   0000D4   401A         JC        ??zclProcessInReadCmd_7
   \   0000D6   85..82       MOV       DPL,?V14
   \   0000D9   85..83       MOV       DPH,?V15
   \   0000DC   12....       LCALL     ?Subroutine102 & 0xFFFF
   \                     ??CrossCallReturnLabel_171:
   \   0000DF   7405         MOV       A,#0x5
   \   0000E1   12....       LCALL     ?XSTACK_DISP0_8
   \   0000E4   E0           MOVX      A,@DPTR
   \   0000E5   A2E7         MOV       C,0xE0 /* A   */.7
   \   0000E7   20F001       JB        B.0,??zclProcessInReadCmd_8
   \   0000EA   B3           CPL       C
   \                     ??zclProcessInReadCmd_8:
   \   0000EB   4003         JC        $+5
   \   0000ED   02....       LJMP      ??zclProcessInReadCmd_3 & 0xFFFF
   \                     ??zclProcessInReadCmd_7:
   \   0000F0   A2E0         MOV       C,0xE0 /* A   */.0
   \   0000F2   5061         JNC       ??zclProcessInReadCmd_9
   \   0000F4   8E82         MOV       DPL,R6
   \   0000F6   8F83         MOV       DPH,R7
   \   0000F8   12....       LCALL     ??Subroutine247_0 & 0xFFFF
   \                     ??CrossCallReturnLabel_531:
   \   0000FB   E8           MOV       A,R0
   \   0000FC   2406         ADD       A,#0x6
   \   0000FE   F5..         MOV       ?V8,A
   \   000100   E4           CLR       A
   \   000101   39           ADDC      A,R1
   \   000102   F5..         MOV       ?V9,A
   \   000104   7405         MOV       A,#0x5
   \   000106   12....       LCALL     ?XSTACK_DISP0_8
   \   000109   E0           MOVX      A,@DPTR
   \   00010A   A2E4         MOV       C,0xE0 /* A   */.4
   \   00010C   5018         JNC       ??zclProcessInReadCmd_10
   \   00010E                ; Setup parameters for call to function zclGetAuthorizeCB
   \   00010E   12....       LCALL     ?Subroutine140 & 0xFFFF
   \                     ??CrossCallReturnLabel_241:
   \   000111   12....       LCALL     ?Subroutine160 & 0xFFFF
   \                     ??CrossCallReturnLabel_272:
   \   000114   6010         JZ        ??zclProcessInReadCmd_10
   \   000116                ; Setup parameters for indirect call
   \   000116   7901         MOV       R1,#0x1
   \   000118   AC..         MOV       R4,?XSP + 0
   \   00011A   AD..         MOV       R5,?XSP + 1
   \   00011C   AA..         MOV       R2,?V8
   \   00011E   AB..         MOV       R3,?V9
   \   000120   12....       LCALL     ?CALL_IND
   \   000123   E9           MOV       A,R1
   \   000124   8002         SJMP      ??zclProcessInReadCmd_11
   \                     ??zclProcessInReadCmd_10:
   \   000126   7400         MOV       A,#0x0
   \                     ??zclProcessInReadCmd_11:
   \   000128   85..82       MOV       DPL,?V6
   \   00012B   85..83       MOV       DPH,?V7
   \   00012E   F0           MOVX      @DPTR,A
   \   00012F   6003         JZ        $+5
   \   000131   02....       LJMP      ??zclProcessInReadCmd_5 & 0xFFFF
   \   000134   7406         MOV       A,#0x6
   \   000136   12....       LCALL     ?XSTACK_DISP0_8
   \   000139   12....       LCALL     ?Subroutine68 & 0xFFFF
   \                     ??CrossCallReturnLabel_114:
   \   00013C   A3           INC       DPTR
   \   00013D   A3           INC       DPTR
   \   00013E   A3           INC       DPTR
   \   00013F   A3           INC       DPTR
   \   000140   12....       LCALL     ??Subroutine236_0 & 0xFFFF
   \                     ??CrossCallReturnLabel_476:
   \   000143   7404         MOV       A,#0x4
   \   000145   12....       LCALL     ?XSTACK_DISP0_8
   \   000148   E0           MOVX      A,@DPTR
   \   000149   85..82       MOV       DPL,?V4
   \   00014C   85..83       MOV       DPH,?V5
   \   00014F   A3           INC       DPTR
   \   000150   A3           INC       DPTR
   \   000151   A3           INC       DPTR
   \   000152   02....       LJMP      ??zclProcessInReadCmd_4 & 0xFFFF
   \                     ??zclProcessInReadCmd_9:
   \   000155   85..82       MOV       DPL,?V6
   \   000158   85..83       MOV       DPH,?V7
   \   00015B   748F         MOV       A,#-0x71
   \   00015D   02....       LJMP      ??zclProcessInReadCmd_4 & 0xFFFF
   4509            }
   4510          
   4511            // Build and send Read Response command
   4512            zcl_SendReadRsp( pInMsg->msg->endPoint, &(pInMsg->msg->srcAddr), pInMsg->msg->clusterId,
   4513                             readRspCmd, !pInMsg->hdr.fc.direction,
   4514                             true, pInMsg->hdr.transSeqNum );
   \                     ??zclProcessInReadCmd_6:
   \   000160   12....       LCALL     ?Subroutine62 & 0xFFFF
   \                     ??CrossCallReturnLabel_592:
   \   000163                ; Setup parameters for call to function zcl_SendReadRsp
   \   000163   12....       LCALL     ?Subroutine54 & 0xFFFF
   \                     ??CrossCallReturnLabel_433:
   \   000166   12....       LCALL     ?PUSH_XSTACK_I_ONE
   \   000169   75..01       MOV       ?V2,#0x1
   \   00016C   78..         MOV       R0,#?V2
   \   00016E   12....       LCALL     ?PUSH_XSTACK_I_ONE
   \   000171   85..82       MOV       DPL,?V14
   \   000174   85..83       MOV       DPH,?V15
   \   000177   12....       LCALL     ?Subroutine59 & 0xFFFF
   \                     ??CrossCallReturnLabel_84:
   \   00017A   12....       LCALL     ?PUSH_XSTACK_I_ONE
   \   00017D   78..         MOV       R0,#?V0
   \   00017F   12....       LCALL     ?PUSH_XSTACK_I_TWO
   \   000182   85..82       MOV       DPL,?V8
   \   000185   85..83       MOV       DPH,?V9
   \   000188   12....       LCALL     ?Subroutine112 & 0xFFFF
   \                     ??CrossCallReturnLabel_610:
   \   00018B   E5..         MOV       A,?V8
   \   00018D   12....       LCALL     ??Subroutine272_0 & 0xFFFF
   \                     ??CrossCallReturnLabel_677:
   \   000190   35..         ADDC      A,?V9
   \   000192   FB           MOV       R3,A
   \   000193   12....       LCALL     ?Subroutine139 & 0xFFFF
   \                     ??CrossCallReturnLabel_240:
   \   000196   12....       LCALL     `??zcl_SendReadRsp::?relay`; Banked call to: zcl_SendReadRsp
   \   000199   7405         MOV       A,#0x5
   \   00019B   12....       LCALL     ?DEALLOC_XSTACK8
   4515            zcl_mem_free( readRspCmd );
   \   00019E                ; Setup parameters for call to function osal_mem_free
   \   00019E   AA..         MOV       R2,?V0
   \   0001A0   AB..         MOV       R3,?V1
   \   0001A2   12....       LCALL     `??osal_mem_free::?relay`; Banked call to: osal_mem_free
   4516          
   4517            return TRUE;
   \   0001A5   7901         MOV       R1,#0x1
   \                     ??zclProcessInReadCmd_1:
   \   0001A7   7408         MOV       A,#0x8
   \   0001A9   02....       LJMP      ?Subroutine5 & 0xFFFF
   4518          }

   \                                 In  segment BANKED_CODE, align 1, keep-with-next
   \                     ?Subroutine139:
   \   000000   E5..         MOV       A,?V8
   \   000002   12....       LCALL     ?Subroutine201 & 0xFFFF
   \                     ??CrossCallReturnLabel_653:
   \   000005   35..         ADDC      A,?V9
   \   000007   F583         MOV       DPH,A
   \   000009   E0           MOVX      A,@DPTR
   \   00000A   F9           MOV       R1,A
   \   00000B   22           RET

   \                                 In  segment BANKED_CODE, align 1, keep-with-next
   \                     ?Subroutine102:
   \   000000   12....       LCALL     ?Subroutine209 & 0xFFFF
   \                     ??CrossCallReturnLabel_657:
   \   000003   A2E0         MOV       C,0xE0 /* A   */.0
   \   000005   92F0         MOV       B.0,C
   \   000007   22           RET

   \                                 In  segment BANKED_CODE, align 1, keep-with-next
   \                     ?Subroutine62:
   \   000000   8E82         MOV       DPL,R6
   \   000002   8F83         MOV       DPH,R7
   \   000004                REQUIRE ??Subroutine255_0
   \   000004                ; // Fall through to label ??Subroutine255_0

   \                                 In  segment BANKED_CODE, align 1, keep-with-next
   \                     ?Subroutine112:
   \   000000   A3           INC       DPTR
   \   000001   A3           INC       DPTR
   \   000002                REQUIRE ??Subroutine262_0
   \   000002                ; // Fall through to label ??Subroutine262_0

   \                                 In  segment BANKED_CODE, align 1, keep-with-next
   \                     ?Subroutine59:
   \   000000   12....       LCALL     ?Subroutine182 & 0xFFFF
   \                     ??CrossCallReturnLabel_643:
   \   000003   F5..         MOV       ?V2,A
   \   000005   78..         MOV       R0,#?V2
   \   000007   22           RET

   \                                 In  segment BANKED_CODE, align 1, keep-with-next
   \                     ?Subroutine193:
   \   000000   EA           MOV       A,R2
   \   000001   FE           MOV       R6,A
   \   000002   EB           MOV       A,R3
   \   000003   FF           MOV       R7,A
   \   000004                REQUIRE ??Subroutine266_0
   \   000004                ; // Fall through to label ??Subroutine266_0

   \                                 In  segment BANKED_CODE, align 1, keep-with-next
   \                     ??Subroutine266_0:
   \   000000   EA           MOV       A,R2
   \   000001   240C         ADD       A,#0xc
   \   000003   F582         MOV       DPL,A
   \   000005   E4           CLR       A
   \   000006   22           RET

   \                                 In  segment BANKED_CODE, align 1, keep-with-next
   \                     ??Subroutine272_0:
   \   000000   2406         ADD       A,#0x6
   \   000002   FA           MOV       R2,A
   \   000003   E4           CLR       A
   \   000004   22           RET

   \                                 In  segment BANKED_CODE, align 1, keep-with-next
   \                     ?Subroutine145:
   \   000000   12....       LCALL     ?Subroutine193 & 0xFFFF
   \                     ??CrossCallReturnLabel_626:
   \   000003   3F           ADDC      A,R7
   \   000004   F583         MOV       DPH,A
   \   000006   22           RET
   4519          #endif // ZCL_READ
   4520          
   4521          #ifdef ZCL_WRITE
   4522          /*********************************************************************
   4523           * @fn      processInWriteCmd
   4524           *
   4525           * @brief   Process the "Profile" Write and Write No Response Commands
   4526           *
   4527           * @param   pInMsg - incoming message to process
   4528           *
   4529           * @return  TRUE if command processed. FALSE, otherwise.
   4530           */

   \                                 In  segment BANKED_CODE, align 1, keep-with-next
   \                     ?Subroutine119:
   \   000000   85..82       MOV       DPL,?V2
   \   000003   85..83       MOV       DPH,?V3
   \   000006                REQUIRE ??Subroutine240_0
   \   000006                ; // Fall through to label ??Subroutine240_0

   \                                 In  segment BANKED_CODE, align 1, keep-with-next
   4531          static uint8 zclProcessInWriteCmd( zclIncoming_t *pInMsg )
   \                     zclProcessInWriteCmd:
   4532          {
   \   000000                REQUIRE ?V0
   \   000000                REQUIRE ?V1
   \   000000                REQUIRE ?V2
   \   000000                REQUIRE ?V3
   \   000000                REQUIRE ?V4
   \   000000                REQUIRE ?V5
   \   000000                REQUIRE ?V6
   \   000000                REQUIRE ?V7
   \   000000                REQUIRE ?V8
   \   000000                REQUIRE ?V9
   \   000000                REQUIRE ?V10
   \   000000                REQUIRE ?V11
   \   000000                REQUIRE ?V12
   \   000000                REQUIRE ?V13
   \   000000                REQUIRE ?V14
   \   000000                REQUIRE ?V15
   \   000000   74E8         MOV       A,#-0x18
   \   000002   12....       LCALL     ?BANKED_ENTER_XDATA
   \   000005                ; Saved register size: 24
   \   000005                ; Auto size: 10
   \   000005   74F6         MOV       A,#-0xa
   \   000007   12....       LCALL     ?ALLOC_XSTACK8
   \   00000A   8A..         MOV       ?V2,R2
   \   00000C   8B..         MOV       ?V3,R3
   4533            zclWriteCmd_t *writeCmd;
   4534            zclWriteRspCmd_t *writeRspCmd;
   4535            uint8 sendRsp = FALSE;
   \   00000E   C2..         CLR       ?VB.0
   4536            uint8 j = 0;
   \   000010   7E00         MOV       R6,#0x0
   4537            uint8 i;
   4538          
   4539            writeCmd = (zclWriteCmd_t *)pInMsg->attrCmd;
   \   000012   12....       LCALL     ??Subroutine266_0 & 0xFFFF
   \                     ??CrossCallReturnLabel_627:
   \   000015   35..         ADDC      A,?V3
   \   000017   F583         MOV       DPH,A
   \   000019   E0           MOVX      A,@DPTR
   \   00001A   F5..         MOV       ?V14,A
   \   00001C   A3           INC       DPTR
   \   00001D   E0           MOVX      A,@DPTR
   \   00001E   F5..         MOV       ?V15,A
   4540            if ( pInMsg->hdr.commandID == ZCL_CMD_WRITE )
   \   000020   8A82         MOV       DPL,R2
   \   000022   8B83         MOV       DPH,R3
   \   000024   A3           INC       DPTR
   \   000025   A3           INC       DPTR
   \   000026   A3           INC       DPTR
   \   000027   A3           INC       DPTR
   \   000028   A3           INC       DPTR
   \   000029   A3           INC       DPTR
   \   00002A   A3           INC       DPTR
   \   00002B   E0           MOVX      A,@DPTR
   \   00002C   6402         XRL       A,#0x2
   \   00002E   7018         JNZ       ??zclProcessInWriteCmd_0
   4541            {
   4542              // We need to send a response back - allocate space for it
   4543              writeRspCmd = (zclWriteRspCmd_t *)zcl_mem_alloc( sizeof( zclWriteRspCmd_t )
   4544                      + sizeof( zclWriteRspStatus_t ) * writeCmd->numAttr );
   \   000030                ; Setup parameters for call to function osal_mem_alloc
   \   000030   85..82       MOV       DPL,?V14
   \   000033   85..83       MOV       DPH,?V15
   \   000036   12....       LCALL     ?Subroutine74 & 0xFFFF
   \                     ??CrossCallReturnLabel_123:
   \   000039   8A..         MOV       ?V4,R2
   \   00003B   8B..         MOV       ?V5,R3
   4545              if ( writeRspCmd == NULL )
   \   00003D   EA           MOV       A,R2
   \   00003E   4B           ORL       A,R3
   \   00003F   7005         JNZ       ??zclProcessInWriteCmd_1
   4546              {
   4547                return FALSE; // EMBEDDED RETURN
   \   000041   7900         MOV       R1,#0x0
   \   000043   02....       LJMP      ??zclProcessInWriteCmd_2 & 0xFFFF
   4548              }
   4549          
   4550              sendRsp = TRUE;
   \                     ??zclProcessInWriteCmd_1:
   \   000046   D2..         SETB      ?VB.0
   4551            }
   4552          
   4553            for ( i = 0; i < writeCmd->numAttr; i++ )
   \                     ??zclProcessInWriteCmd_0:
   \   000048   7F00         MOV       R7,#0x0
   \   00004A   8010         SJMP      ??zclProcessInWriteCmd_3
   4554            {
   4555              zclAttrRec_t attrRec;
   4556              zclWriteRec_t *statusRec = &(writeCmd->attrList[i]);
   4557          
   4558              if ( zclFindAttrRec( pInMsg->msg->endPoint, pInMsg->msg->clusterId,
   4559                                   statusRec->attrID, &attrRec ) )
   4560              {
   4561                if ( GET_BIT( &attrRec.attr.accessControl, ACCESS_CONTROLEXT_MASK ) != pInMsg->hdr.fc.direction )
   4562                {
   4563                  writeRspCmd->attrList[j].status = ZCL_STATUS_UNSUPPORTED_ATTRIBUTE;
   4564                  writeRspCmd->attrList[j++].attrID = statusRec->attrID;
   4565                  break;
   4566                }
   4567                if ( statusRec->dataType == attrRec.attr.dataType )
   4568                {
   4569                  uint8 status;
   4570          
   4571                  // Write the new attribute value
   4572                  if ( attrRec.attr.dataPtr != NULL )
   4573                  {
   4574                    //Handle special case for Identify
   4575                    if((pInMsg->msg->clusterId == ZCL_CLUSTER_ID_GEN_IDENTIFY) && (statusRec->attrID == ATTRID_IDENTIFY_TIME))
   4576                    {
   4577                      uint16 identifyTime; 
   4578                            
   4579                      osal_memcpy((uint8*)&identifyTime,statusRec->attrData,sizeof(uint16));
   4580                                  
   4581                      bdb_ZclIdentifyCmdInd(identifyTime, pInMsg->msg->endPoint);
   4582                      
   4583                      status = ZCL_STATUS_SUCCESS;
   4584                    }          
   4585                    else
   4586                    {                
   4587                      status = zclWriteAttrData( pInMsg->msg->endPoint, &(pInMsg->msg->srcAddr),
   4588                                                 &attrRec, statusRec );
   4589                    }
   4590                  }
   4591                  else // Use CB
   4592                  {
   4593                    status = zclWriteAttrDataUsingCB( pInMsg->msg->endPoint, &(pInMsg->msg->srcAddr),
   4594                                                      &attrRec, statusRec->attrData );
   4595                  }
   4596          
   4597                  // If successful, a write attribute status record shall NOT be generated
   4598                  if ( sendRsp && status != ZCL_STATUS_SUCCESS )
   4599                  {
   4600                    // Attribute is read only - move on to the next write attribute record
   4601                    writeRspCmd->attrList[j].status = status;
   4602                    writeRspCmd->attrList[j++].attrID = statusRec->attrID;
   4603                  }
   4604                }
   4605                else
   4606                {
   4607                  // Attribute data type is incorrect - move on to the next write attribute record
   4608                  if ( sendRsp )
   4609                  {
   4610                    writeRspCmd->attrList[j].status = ZCL_STATUS_INVALID_DATA_TYPE;
   4611                    writeRspCmd->attrList[j++].attrID = statusRec->attrID;
   4612                  }
   4613                }
   4614              }
   4615              else
   4616              {
   4617                // Attribute is not supported - move on to the next write attribute record
   4618                if ( sendRsp )
   \                     ??zclProcessInWriteCmd_4:
   \   00004C   A2..         MOV       C,?VB.0
   \   00004E   500B         JNC       ??CrossCallReturnLabel_9
   4619                {
   4620                  writeRspCmd->attrList[j].status = ZCL_STATUS_UNSUPPORTED_ATTRIBUTE;
   \   000050   85..82       MOV       DPL,?V12
   \   000053   85..83       MOV       DPH,?V13
   \   000056   7486         MOV       A,#-0x7a
   4621                  writeRspCmd->attrList[j++].attrID = statusRec->attrID;
   4622                }
   4623              }
   \                     ??zclProcessInWriteCmd_5:
   \   000058   12....       LCALL     ?Subroutine18 & 0xFFFF
   \                     ??CrossCallReturnLabel_9:
   \   00005B   0F           INC       R7
   \                     ??zclProcessInWriteCmd_3:
   \   00005C   85..82       MOV       DPL,?V14
   \   00005F   85..83       MOV       DPH,?V15
   \   000062   E0           MOVX      A,@DPTR
   \   000063   F8           MOV       R0,A
   \   000064   EF           MOV       A,R7
   \   000065   C3           CLR       C
   \   000066   98           SUBB      A,R0
   \   000067   507A         JNC       ??CrossCallReturnLabel_10
   \   000069   EF           MOV       A,R7
   \   00006A   75F005       MOV       B,#0x5
   \   00006D   A4           MUL       AB
   \   00006E   F8           MOV       R0,A
   \   00006F   A9F0         MOV       R1,B
   \   000071   E5..         MOV       A,?V14
   \   000073   28           ADD       A,R0
   \   000074   F582         MOV       DPL,A
   \   000076   E5..         MOV       A,?V15
   \   000078   12....       LCALL     ?Subroutine151 & 0xFFFF
   \                     ??CrossCallReturnLabel_256:
   \   00007B   EE           MOV       A,R6
   \   00007C   75F003       MOV       B,#0x3
   \   00007F   A4           MUL       AB
   \   000080   F8           MOV       R0,A
   \   000081   A9F0         MOV       R1,B
   \   000083   E5..         MOV       A,?V4
   \   000085   28           ADD       A,R0
   \   000086   F582         MOV       DPL,A
   \   000088   E5..         MOV       A,?V5
   \   00008A   39           ADDC      A,R1
   \   00008B   F583         MOV       DPH,A
   \   00008D   E582         MOV       A,DPL
   \   00008F   2402         ADD       A,#0x2
   \   000091   F5..         MOV       ?V8,A
   \   000093   E4           CLR       A
   \   000094   3583         ADDC      A,DPH
   \   000096   F5..         MOV       ?V9,A
   \   000098   A3           INC       DPTR
   \   000099   8582..       MOV       ?V12,DPL
   \   00009C   8583..       MOV       ?V13,DPH
   \   00009F   12....       LCALL     ?Subroutine119 & 0xFFFF
   \                     ??CrossCallReturnLabel_499:
   \   0000A2                ; Setup parameters for call to function zclFindAttrRec
   \   0000A2   7402         MOV       A,#0x2
   \   0000A4   12....       LCALL     ?XSTACK_DISP100_8
   \   0000A7   88..         MOV       ?V10,R0
   \   0000A9   89..         MOV       ?V11,R1
   \   0000AB   78..         MOV       R0,#?V10
   \   0000AD   12....       LCALL     ?PUSH_XSTACK_I_TWO
   \   0000B0   85..82       MOV       DPL,?V0
   \   0000B3   85..83       MOV       DPH,?V1
   \   0000B6   12....       LCALL     ??Subroutine264_0 & 0xFFFF
   \                     ??CrossCallReturnLabel_614:
   \   0000B9   12....       LCALL     ?DEALLOC_XSTACK8
   \   0000BC   E9           MOV       A,R1
   \   0000BD   608D         JZ        ??zclProcessInWriteCmd_4
   \   0000BF   85..82       MOV       DPL,?V2
   \   0000C2   85..83       MOV       DPH,?V3
   \   0000C5   A3           INC       DPTR
   \   0000C6   A3           INC       DPTR
   \   0000C7   12....       LCALL     ?Subroutine102 & 0xFFFF
   \                     ??CrossCallReturnLabel_172:
   \   0000CA   7407         MOV       A,#0x7
   \   0000CC   12....       LCALL     ?XSTACK_DISP0_8
   \   0000CF   E0           MOVX      A,@DPTR
   \   0000D0   A2E7         MOV       C,0xE0 /* A   */.7
   \   0000D2   20F001       JB        B.0,??zclProcessInWriteCmd_6
   \   0000D5   B3           CPL       C
   \                     ??zclProcessInWriteCmd_6:
   \   0000D6   406F         JC        ??zclProcessInWriteCmd_7
   \   0000D8   85..82       MOV       DPL,?V12
   \   0000DB   85..83       MOV       DPH,?V13
   \   0000DE   7486         MOV       A,#-0x7a
   \   0000E0   12....       LCALL     ?Subroutine18 & 0xFFFF
   4624            } // for loop
   4625          
   4626            if ( sendRsp )
   \                     ??CrossCallReturnLabel_10:
   \   0000E3   A2..         MOV       C,?VB.0
   \   0000E5   5059         JNC       ??zclProcessInWriteCmd_8
   4627            {
   4628              writeRspCmd->numAttr = j;
   \   0000E7   EE           MOV       A,R6
   \   0000E8   85..82       MOV       DPL,?V4
   \   0000EB   85..83       MOV       DPH,?V5
   \   0000EE   F0           MOVX      @DPTR,A
   4629              if ( writeRspCmd->numAttr == 0 )
   \   0000EF   700B         JNZ       ??zclProcessInWriteCmd_9
   4630              {
   4631                // Since all records were written successful, include a single status record
   4632                // in the resonse command with the status field set to SUCCESS and the
   4633                // attribute ID field omitted.
   4634                writeRspCmd->attrList[0].status = ZCL_STATUS_SUCCESS;
   \   0000F1   A3           INC       DPTR
   \   0000F2   E4           CLR       A
   \   0000F3   F0           MOVX      @DPTR,A
   4635                writeRspCmd->numAttr = 1;
   \   0000F4   85..82       MOV       DPL,?V4
   \   0000F7   85..83       MOV       DPH,?V5
   \   0000FA   04           INC       A
   \   0000FB   F0           MOVX      @DPTR,A
   4636              }
   4637          
   4638              zcl_SendWriteRsp( pInMsg->msg->endPoint, &(pInMsg->msg->srcAddr),
   4639                                pInMsg->msg->clusterId, writeRspCmd, !pInMsg->hdr.fc.direction,
   4640                                true, pInMsg->hdr.transSeqNum );
   \                     ??zclProcessInWriteCmd_9:
   \   0000FC   85..82       MOV       DPL,?V2
   \   0000FF   85..83       MOV       DPH,?V3
   \   000102   12....       LCALL     ??Subroutine249_0 & 0xFFFF
   \                     ??CrossCallReturnLabel_561:
   \   000105                ; Setup parameters for call to function zcl_SendWriteRsp
   \   000105   85..82       MOV       DPL,?V2
   \   000108   85..83       MOV       DPH,?V3
   \   00010B   A3           INC       DPTR
   \   00010C   A3           INC       DPTR
   \   00010D   A3           INC       DPTR
   \   00010E   A3           INC       DPTR
   \   00010F   A3           INC       DPTR
   \   000110   A3           INC       DPTR
   \   000111   12....       LCALL     ?Subroutine63 & 0xFFFF
   \                     ??CrossCallReturnLabel_103:
   \   000114   12....       LCALL     ?PUSH_XSTACK_I_ONE
   \   000117   75..01       MOV       ?V0,#0x1
   \   00011A   78..         MOV       R0,#?V0
   \   00011C   12....       LCALL     ?PUSH_XSTACK_I_ONE
   \   00011F   85..82       MOV       DPL,?V2
   \   000122   85..83       MOV       DPH,?V3
   \   000125   A3           INC       DPTR
   \   000126   A3           INC       DPTR
   \   000127   E0           MOVX      A,@DPTR
   \   000128   12....       LCALL     ?Subroutine148 & 0xFFFF
   \                     ??CrossCallReturnLabel_252:
   \   00012B   12....       LCALL     ?PUSH_XSTACK_I_ONE
   \   00012E   78..         MOV       R0,#?V4
   \   000130   12....       LCALL     ?PUSH_XSTACK_I_TWO
   \   000133   12....       LCALL     ?Subroutine55 & 0xFFFF
   \                     ??CrossCallReturnLabel_68:
   \   000136   12....       LCALL     ?DEALLOC_XSTACK8
   4641              zcl_mem_free( writeRspCmd );
   \   000139                ; Setup parameters for call to function osal_mem_free
   \   000139   AA..         MOV       R2,?V4
   \   00013B   AB..         MOV       R3,?V5
   \   00013D   12....       LCALL     `??osal_mem_free::?relay`; Banked call to: osal_mem_free
   4642            }
   4643          
   4644            return TRUE;
   \                     ??zclProcessInWriteCmd_8:
   \   000140   7901         MOV       R1,#0x1
   \                     ??zclProcessInWriteCmd_2:
   \   000142   740A         MOV       A,#0xa
   \   000144   02....       LJMP      ?Subroutine5 & 0xFFFF
   \                     ??zclProcessInWriteCmd_7:
   \   000147   85..82       MOV       DPL,?V0
   \   00014A   85..83       MOV       DPH,?V1
   \   00014D   A3           INC       DPTR
   \   00014E   A3           INC       DPTR
   \   00014F   E0           MOVX      A,@DPTR
   \   000150   F8           MOV       R0,A
   \   000151   7406         MOV       A,#0x6
   \   000153   12....       LCALL     ?XSTACK_DISP0_8
   \   000156   E0           MOVX      A,@DPTR
   \   000157   68           XRL       A,R0
   \   000158   6003         JZ        $+5
   \   00015A   02....       LJMP      ??zclProcessInWriteCmd_10 & 0xFFFF
   \   00015D   12....       LCALL     ?Subroutine119 & 0xFFFF
   \                     ??CrossCallReturnLabel_500:
   \   000160   7408         MOV       A,#0x8
   \   000162   12....       LCALL     ?XSTACK_DISP0_8
   \   000165   12....       LCALL     ??Subroutine235_0 & 0xFFFF
   \                     ??CrossCallReturnLabel_463:
   \   000168   6069         JZ        ??zclProcessInWriteCmd_11
   \   00016A   85..82       MOV       DPL,?V6
   \   00016D   85..83       MOV       DPH,?V7
   \   000170   A3           INC       DPTR
   \   000171   A3           INC       DPTR
   \   000172   A3           INC       DPTR
   \   000173   A3           INC       DPTR
   \   000174   E0           MOVX      A,@DPTR
   \   000175   6403         XRL       A,#0x3
   \   000177   7002         JNZ       ??zclProcessInWriteCmd_12
   \   000179   A3           INC       DPTR
   \   00017A   E0           MOVX      A,@DPTR
   \                     ??zclProcessInWriteCmd_12:
   \   00017B   7047         JNZ       ??zclProcessInWriteCmd_13
   \   00017D   85..82       MOV       DPL,?V0
   \   000180   85..83       MOV       DPH,?V1
   \   000183   12....       LCALL     ??Subroutine235_0 & 0xFFFF
   \                     ??CrossCallReturnLabel_464:
   \   000186   703C         JNZ       ??zclProcessInWriteCmd_13
   \   000188                ; Setup parameters for call to function osal_memcpy
   \   000188   85..82       MOV       DPL,?V0
   \   00018B   85..83       MOV       DPH,?V1
   \   00018E   A3           INC       DPTR
   \   00018F   A3           INC       DPTR
   \   000190   A3           INC       DPTR
   \   000191   12....       LCALL     ??Subroutine255_0 & 0xFFFF
   \                     ??CrossCallReturnLabel_589:
   \   000194   75..00       MOV       ?V10,#0x0
   \   000197   78..         MOV       R0,#?V8
   \   000199   12....       LCALL     ?PUSH_XSTACK_I_THREE
   \   00019C   7C02         MOV       R4,#0x2
   \   00019E   7D00         MOV       R5,#0x0
   \   0001A0   7403         MOV       A,#0x3
   \   0001A2   12....       LCALL     ?XSTACK_DISP101_8
   \   0001A5   12....       LCALL     ??Subroutine241_0 & 0xFFFF
   \                     ??CrossCallReturnLabel_508:
   \   0001A8   12....       LCALL     ?DEALLOC_XSTACK8
   \   0001AB                ; Setup parameters for call to function bdb_ZclIdentifyCmdInd
   \   0001AB   85..82       MOV       DPL,?V2
   \   0001AE   85..83       MOV       DPH,?V3
   \   0001B1   12....       LCALL     ?Subroutine77 & 0xFFFF
   \                     ??CrossCallReturnLabel_129:
   \   0001B4   F9           MOV       R1,A
   \   0001B5   85..82       MOV       DPL,?XSP + 0
   \   0001B8   85..83       MOV       DPH,?XSP + 1
   \   0001BB   12....       LCALL     ??Subroutine252_0 & 0xFFFF
   \                     ??CrossCallReturnLabel_578:
   \   0001BE   12....       LCALL     `??bdb_ZclIdentifyCmdInd::?relay`; Banked call to: bdb_ZclIdentifyCmdInd
   \   0001C1   02....       LJMP      ??CrossCallReturnLabel_9 & 0xFFFF
   \                     ??zclProcessInWriteCmd_13:
   \   0001C4                ; Setup parameters for call to function zclWriteAttrData
   \   0001C4   78..         MOV       R0,#?V0
   \   0001C6   12....       LCALL     ?PUSH_XSTACK_I_TWO
   \   0001C9   7404         MOV       A,#0x4
   \   0001CB   12....       LCALL     ?XSTACK_DISP102_8
   \   0001CE   12....       LCALL     ?Subroutine138 & 0xFFFF
   \                     ??CrossCallReturnLabel_237:
   \   0001D1   801F         SJMP      ??CrossCallReturnLabel_207
   \                     ??zclProcessInWriteCmd_11:
   \   0001D3                ; Setup parameters for call to function zclWriteAttrDataUsingCB
   \   0001D3   85..82       MOV       DPL,?V0
   \   0001D6   85..83       MOV       DPH,?V1
   \   0001D9   A3           INC       DPTR
   \   0001DA   A3           INC       DPTR
   \   0001DB   A3           INC       DPTR
   \   0001DC   12....       LCALL     ?PUSH_XSTACK8_X_TWO
   \   0001DF   7404         MOV       A,#0x4
   \   0001E1   12....       LCALL     ?XSTACK_DISP102_8
   \   0001E4   12....       LCALL     ?Subroutine202 & 0xFFFF
   \                     ??CrossCallReturnLabel_683:
   \   0001E7   35..         ADDC      A,?V7
   \   0001E9   FB           MOV       R3,A
   \   0001EA   12....       LCALL     ?Subroutine141 & 0xFFFF
   \                     ??CrossCallReturnLabel_603:
   \   0001ED   35..         ADDC      A,?V7
   \   0001EF   12....       LCALL     ?Subroutine122 & 0xFFFF
   \                     ??CrossCallReturnLabel_207:
   \   0001F2   7402         MOV       A,#0x2
   \   0001F4   12....       LCALL     ?DEALLOC_XSTACK8
   \   0001F7   E9           MOV       A,R1
   \   0001F8   A2..         MOV       C,?VB.0
   \   0001FA   4003         JC        $+5
   \   0001FC   02....       LJMP      ??CrossCallReturnLabel_9 & 0xFFFF
   \   0001FF   7003         JNZ       $+5
   \   000201   02....       LJMP      ??CrossCallReturnLabel_9 & 0xFFFF
   \   000204   85..82       MOV       DPL,?V12
   \   000207   85..83       MOV       DPH,?V13
   \   00020A   02....       LJMP      ??zclProcessInWriteCmd_5 & 0xFFFF
   \                     ??zclProcessInWriteCmd_10:
   \   00020D   A2..         MOV       C,?VB.0
   \   00020F   4003         JC        $+5
   \   000211   02....       LJMP      ??CrossCallReturnLabel_9 & 0xFFFF
   \   000214   85..82       MOV       DPL,?V12
   \   000217   85..83       MOV       DPH,?V13
   \   00021A   748D         MOV       A,#-0x73
   \   00021C   02....       LJMP      ??zclProcessInWriteCmd_5 & 0xFFFF
   4645          }

   \                                 In  segment BANKED_CODE, align 1, keep-with-next
   \                     ?Subroutine187:
   \   000000   A3           INC       DPTR
   \   000001                REQUIRE ??Subroutine253_0
   \   000001                ; // Fall through to label ??Subroutine253_0

   \                                 In  segment BANKED_CODE, align 1, keep-with-next
   \                     ?Subroutine18:
   \   000000   12....       LCALL     ?Subroutine163 & 0xFFFF
   \                     ??CrossCallReturnLabel_275:
   \   000003   12....       LCALL     ?Subroutine185 & 0xFFFF
   \                     ??CrossCallReturnLabel_537:
   \   000006   85..82       MOV       DPL,?V8
   \   000009   85..83       MOV       DPH,?V9
   \   00000C   E8           MOV       A,R0
   \   00000D   F0           MOVX      @DPTR,A
   \   00000E   A3           INC       DPTR
   \   00000F   E9           MOV       A,R1
   \   000010   F0           MOVX      @DPTR,A
   \   000011   0E           INC       R6
   \   000012   22           RET

   \                                 In  segment BANKED_CODE, align 1, keep-with-next
   \                     ?Subroutine122:
   \   000000   F583         MOV       DPH,A
   \   000002   E0           MOVX      A,@DPTR
   \   000003   F9           MOV       R1,A
   \   000004   12....       LCALL     `??zclWriteAttrDataUsingCB::?relay`; Banked call to: zclWriteAttrDataUsingCB
   \   000007   22           RET

   \                                 In  segment BANKED_CODE, align 1, keep-with-next
   \                     ?Subroutine141:
   \   000000   E5..         MOV       A,?V6
   \   000002                REQUIRE ??Subroutine260_0
   \   000002                ; // Fall through to label ??Subroutine260_0

   \                                 In  segment BANKED_CODE, align 1, keep-with-next
   \                     ?Subroutine138:
   \   000000   12....       LCALL     ?Subroutine202 & 0xFFFF
   \                     ??CrossCallReturnLabel_684:
   \   000003   35..         ADDC      A,?V7
   \   000005   FB           MOV       R3,A
   \   000006   12....       LCALL     ?Subroutine200 & 0xFFFF
   \                     ??CrossCallReturnLabel_616:
   \   000009   12....       LCALL     `??zclWriteAttrData::?relay`; Banked call to: zclWriteAttrData
   \   00000C   22           RET

   \                                 In  segment BANKED_CODE, align 1, keep-with-next
   \                     ?Subroutine200:
   \   000000   E5..         MOV       A,?V6
   \   000002   12....       LCALL     ?Subroutine211 & 0xFFFF
   \                     ??CrossCallReturnLabel_662:
   \   000005                REQUIRE ??Subroutine261_0
   \   000005                ; // Fall through to label ??Subroutine261_0

   \                                 In  segment BANKED_CODE, align 1, keep-with-next
   \                     ??Subroutine261_0:
   \   000000   35..         ADDC      A,?V7
   \   000002   F583         MOV       DPH,A
   \   000004   E0           MOVX      A,@DPTR
   \   000005   F9           MOV       R1,A
   \   000006   22           RET

   \                                 In  segment BANKED_CODE, align 1, keep-with-next
   \                     ?Subroutine74:
   \   000000   E0           MOVX      A,@DPTR
   \   000001   75F003       MOV       B,#0x3
   \   000004   A4           MUL       AB
   \   000005   A9F0         MOV       R1,B
   \   000007   2401         ADD       A,#0x1
   \   000009   FA           MOV       R2,A
   \   00000A   E4           CLR       A
   \   00000B   39           ADDC      A,R1
   \   00000C   FB           MOV       R3,A
   \   00000D   12....       LCALL     `??osal_mem_alloc::?relay`; Banked call to: osal_mem_alloc
   \   000010   22           RET

   \                                 In  segment BANKED_CODE, align 1, keep-with-next
   \                     ?Subroutine55:
   \   000000   8E82         MOV       DPL,R6
   \   000002   8F83         MOV       DPH,R7
   \   000004   12....       LCALL     ?Subroutine172 & 0xFFFF
   \                     ??CrossCallReturnLabel_620:
   \   000007   EE           MOV       A,R6
   \   000008   12....       LCALL     ??Subroutine272_0 & 0xFFFF
   \                     ??CrossCallReturnLabel_681:
   \   00000B   3F           ADDC      A,R7
   \   00000C   FB           MOV       R3,A
   \   00000D   EE           MOV       A,R6
   \   00000E   12....       LCALL     ?Subroutine201 & 0xFFFF
   \                     ??CrossCallReturnLabel_651:
   \   000011   3F           ADDC      A,R7
   \   000012   F583         MOV       DPH,A
   \   000014   E0           MOVX      A,@DPTR
   \   000015   F9           MOV       R1,A
   \   000016   12....       LCALL     `??zcl_SendWriteRsp::?relay`; Banked call to: zcl_SendWriteRsp
   \   000019   7405         MOV       A,#0x5
   \   00001B   22           RET

   \                                 In  segment BANKED_CODE, align 1, keep-with-next
   \                     ??Subroutine264_0:
   \   000000   12....       LCALL     ??Subroutine265_0 & 0xFFFF
   \                     ??CrossCallReturnLabel_624:
   \   000003   85..82       MOV       DPL,?V6
   \   000006   85..83       MOV       DPH,?V7
   \   000009   12....       LCALL     ?Subroutine187 & 0xFFFF
   \                     ??CrossCallReturnLabel_671:
   \   00000C   12....       LCALL     ?Subroutine200 & 0xFFFF
   \                     ??CrossCallReturnLabel_617:
   \   00000F   12....       LCALL     `??zclFindAttrRec::?relay`; Banked call to: zclFindAttrRec
   \   000012   7402         MOV       A,#0x2
   \   000014   22           RET

   \                                 In  segment BANKED_CODE, align 1, keep-with-next
   \                     ?Subroutine202:
   \   000000   E5..         MOV       A,?V6
   \   000002                REQUIRE ??Subroutine272_0
   \   000002                ; // Fall through to label ??Subroutine272_0
   4646          
   4647          /*********************************************************************
   4648           * @fn      zclRevertWriteUndividedCmd
   4649           *
   4650           * @brief   Revert the "Profile" Write Undevided Command
   4651           *
   4652           * @param   pInMsg - incoming message to process
   4653           * @param   curWriteRec - old data
   4654           * @param   numAttr - number of attributes to be reverted
   4655           *
   4656           * @return  none
   4657           */

   \                                 In  segment BANKED_CODE, align 1, keep-with-next
   4658          static void zclRevertWriteUndividedCmd( zclIncoming_t *pInMsg,
   \                     zclRevertWriteUndividedCmd:
   4659                                              zclWriteRec_t *curWriteRec, uint16 numAttr )
   4660          {
   \   000000                REQUIRE ?V0
   \   000000                REQUIRE ?V2
   \   000000                REQUIRE ?V3
   \   000000                REQUIRE ?V4
   \   000000                REQUIRE ?V5
   \   000000                REQUIRE ?V6
   \   000000                REQUIRE ?V7
   \   000000                REQUIRE ?V8
   \   000000                REQUIRE ?V9
   \   000000                REQUIRE ?V10
   \   000000                REQUIRE ?V11
   \   000000   74EC         MOV       A,#-0x14
   \   000002   12....       LCALL     ?BANKED_ENTER_XDATA
   \   000005                ; Saved register size: 20
   \   000005                ; Auto size: 8
   \   000005   74F8         MOV       A,#-0x8
   \   000007   12....       LCALL     ?ALLOC_XSTACK8
   \   00000A   8A..         MOV       ?V2,R2
   \   00000C   8B..         MOV       ?V3,R3
   \   00000E   8C..         MOV       ?V10,R4
   \   000010   8D..         MOV       ?V11,R5
   4661            uint8 i;
   4662          
   4663            for ( i = 0; i < numAttr; i++ )
   \   000012   75..00       MOV       ?V0,#0x0
   \   000015   741C         MOV       A,#0x1c
   \   000017   12....       LCALL     ?XSTACK_DISP0_8
   \   00001A   12....       LCALL     ??Subroutine255_0 & 0xFFFF
   \                     ??CrossCallReturnLabel_590:
   \   00001D   802C         SJMP      ??zclRevertWriteUndividedCmd_0
   4664            {
   4665              zclAttrRec_t attrRec;
   4666              zclWriteRec_t *statusRec = &(curWriteRec[i]);
   4667          
   4668              if ( !zclFindAttrRec( pInMsg->msg->endPoint, pInMsg->msg->clusterId,
   4669                                    statusRec->attrID, &attrRec ) )
   4670              {
   4671                break; // should never happen
   4672              }
   4673          
   4674              if ( attrRec.attr.dataPtr != NULL )
   4675              {
   4676                // Just copy the old data back - no need to validate the data
   4677                uint16 dataLen = zclGetAttrDataLength( attrRec.attr.dataType, statusRec->attrData );
   4678                zcl_memcpy( attrRec.attr.dataPtr, statusRec->attrData, dataLen );
   4679              }
   4680              else // Use CB
   4681              {
   4682                // Write the old data back
   4683                zclWriteAttrDataUsingCB( pInMsg->msg->endPoint, &(pInMsg->msg->srcAddr),
   4684                                         &attrRec, statusRec->attrData );
   \                     ??zclRevertWriteUndividedCmd_1:
   \   00001F   85..82       MOV       DPL,?V2
   \   000022   85..83       MOV       DPH,?V3
   \   000025   12....       LCALL     ??Subroutine249_0 & 0xFFFF
   4685              }
   \                     ??CrossCallReturnLabel_562:
   \   000028                ; Setup parameters for call to function zclWriteAttrDataUsingCB
   \   000028   8A..         MOV       ?V4,R2
   \   00002A   8B..         MOV       ?V5,R3
   \   00002C   78..         MOV       R0,#?V4
   \   00002E   12....       LCALL     ?PUSH_XSTACK_I_TWO
   \   000031   7402         MOV       A,#0x2
   \   000033   12....       LCALL     ?XSTACK_DISP102_8
   \   000036   EE           MOV       A,R6
   \   000037   12....       LCALL     ??Subroutine272_0 & 0xFFFF
   \                     ??CrossCallReturnLabel_678:
   \   00003A   3F           ADDC      A,R7
   \   00003B   FB           MOV       R3,A
   \   00003C   EE           MOV       A,R6
   \   00003D   12....       LCALL     ??Subroutine260_0 & 0xFFFF
   \                     ??CrossCallReturnLabel_599:
   \   000040   3F           ADDC      A,R7
   \   000041   12....       LCALL     ?Subroutine122 & 0xFFFF
   \                     ??CrossCallReturnLabel_208:
   \   000044   7402         MOV       A,#0x2
   \   000046   12....       LCALL     ?DEALLOC_XSTACK8
   \                     ??zclRevertWriteUndividedCmd_2:
   \   000049   05..         INC       ?V0
   \                     ??zclRevertWriteUndividedCmd_0:
   \   00004B   C3           CLR       C
   \   00004C   E5..         MOV       A,?V0
   \   00004E   95..         SUBB      A,?V8
   \   000050   E4           CLR       A
   \   000051   95..         SUBB      A,?V9
   \   000053   4003         JC        $+5
   \   000055   02....       LJMP      ??zclRevertWriteUndividedCmd_3 & 0xFFFF
   \   000058   E5..         MOV       A,?V0
   \   00005A   75F005       MOV       B,#0x5
   \   00005D   A4           MUL       AB
   \   00005E   F8           MOV       R0,A
   \   00005F   A9F0         MOV       R1,B
   \   000061   E5..         MOV       A,?V10
   \   000063   28           ADD       A,R0
   \   000064   FE           MOV       R6,A
   \   000065   E5..         MOV       A,?V11
   \   000067   39           ADDC      A,R1
   \   000068   FF           MOV       R7,A
   \   000069   85..82       MOV       DPL,?V2
   \   00006C   85..83       MOV       DPH,?V3
   \   00006F   12....       LCALL     ?Subroutine123 & 0xFFFF
   \                     ??CrossCallReturnLabel_210:
   \   000072                ; Setup parameters for call to function zclFindAttrRec
   \   000072   A8..         MOV       R0,?XSP + 0
   \   000074   A9..         MOV       R1,?XSP + 1
   \   000076   88..         MOV       ?V6,R0
   \   000078   89..         MOV       ?V7,R1
   \   00007A   78..         MOV       R0,#?V6
   \   00007C   12....       LCALL     ?PUSH_XSTACK_I_TWO
   \   00007F   8E82         MOV       DPL,R6
   \   000081   8F83         MOV       DPH,R7
   \   000083   12....       LCALL     ??Subroutine263_0 & 0xFFFF
   \                     ??CrossCallReturnLabel_607:
   \   000086   85..82       MOV       DPL,?V4
   \   000089   85..83       MOV       DPH,?V5
   \   00008C   12....       LCALL     ??Subroutine250_0 & 0xFFFF
   \                     ??CrossCallReturnLabel_582:
   \   00008F   E5..         MOV       A,?V4
   \   000091   12....       LCALL     ??Subroutine260_0 & 0xFFFF
   \                     ??CrossCallReturnLabel_600:
   \   000094   35..         ADDC      A,?V5
   \   000096   F583         MOV       DPH,A
   \   000098   E0           MOVX      A,@DPTR
   \   000099   12....       LCALL     ?Subroutine147 & 0xFFFF
   \                     ??CrossCallReturnLabel_361:
   \   00009C   12....       LCALL     ?DEALLOC_XSTACK8
   \   00009F   E9           MOV       A,R1
   \   0000A0   6045         JZ        ??zclRevertWriteUndividedCmd_3
   \   0000A2   EE           MOV       A,R6
   \   0000A3   2403         ADD       A,#0x3
   \   0000A5   F5..         MOV       ?V4,A
   \   0000A7   E4           CLR       A
   \   0000A8   3F           ADDC      A,R7
   \   0000A9   F5..         MOV       ?V5,A
   \   0000AB   85..82       MOV       DPL,?V4
   \   0000AE   F583         MOV       DPH,A
   \   0000B0   12....       LCALL     ??Subroutine252_0 & 0xFFFF
   \                     ??CrossCallReturnLabel_579:
   \   0000B3   7406         MOV       A,#0x6
   \   0000B5   12....       LCALL     ?XSTACK_DISP0_8
   \   0000B8   12....       LCALL     ??Subroutine249_0 & 0xFFFF
   \                     ??CrossCallReturnLabel_563:
   \   0000BB   EE           MOV       A,R6
   \   0000BC   4F           ORL       A,R7
   \   0000BD   7003         JNZ       $+5
   \   0000BF   02....       LJMP      ??zclRevertWriteUndividedCmd_1 & 0xFFFF
   \   0000C2                ; Setup parameters for call to function zclGetAttrDataLength
   \   0000C2   7404         MOV       A,#0x4
   \   0000C4   12....       LCALL     ?XSTACK_DISP0_8
   \   0000C7   12....       LCALL     ??Subroutine256_0 & 0xFFFF
   \                     ??CrossCallReturnLabel_597:
   \   0000CA   8A..         MOV       ?V6,R2
   \   0000CC   8B..         MOV       ?V7,R3
   \   0000CE   AC..         MOV       R4,?V6
   \   0000D0   AD..         MOV       R5,?V7
   \   0000D2                ; Setup parameters for call to function osal_memcpy
   \   0000D2   85..82       MOV       DPL,?V4
   \   0000D5   85..83       MOV       DPH,?V5
   \   0000D8   12....       LCALL     ?Subroutine65 & 0xFFFF
   4686            } // for loop
   \                     ??CrossCallReturnLabel_106:
   \   0000DB   12....       LCALL     ?PUSH_XSTACK_I_THREE
   \   0000DE   12....       LCALL     ?Subroutine149 & 0xFFFF
   \                     ??CrossCallReturnLabel_502:
   \   0000E1   12....       LCALL     ?DEALLOC_XSTACK8
   \   0000E4   02....       LJMP      ??zclRevertWriteUndividedCmd_2 & 0xFFFF
   4687          }
   \                     ??zclRevertWriteUndividedCmd_3:
   \   0000E7   7408         MOV       A,#0x8
   \   0000E9   80..         SJMP      ??Subroutine257_0

   \                                 In  segment BANKED_CODE, align 1, keep-with-next
   \                     ??Subroutine257_0:
   \   000000   12....       LCALL     ?DEALLOC_XSTACK8
   \   000003                REQUIRE ??Subroutine258_0
   \   000003                ; // Fall through to label ??Subroutine258_0

   \                                 In  segment BANKED_CODE, align 1, keep-with-next
   \                     ?Subroutine123:
   \   000000   12....       LCALL     ?Subroutine205 & 0xFFFF
   \                     ??CrossCallReturnLabel_547:
   \   000003   88..         MOV       ?V4,R0
   \   000005   F5..         MOV       ?V5,A
   \   000007   22           RET
   4688          
   4689          /*********************************************************************
   4690           * @fn      zclProcessInWriteUndividedCmd
   4691           *
   4692           * @brief   Process the "Profile" Write Undivided Command
   4693           *
   4694           * @param   pInMsg - incoming message to process
   4695           *
   4696           * @return  TRUE if command processed. FALSE, otherwise.
   4697           */

   \                                 In  segment BANKED_CODE, align 1, keep-with-next
   4698          static uint8 zclProcessInWriteUndividedCmd( zclIncoming_t *pInMsg )
   \                     zclProcessInWriteUndividedCmd:
   4699          {
   \   000000                REQUIRE ?V0
   \   000000                REQUIRE ?V1
   \   000000                REQUIRE ?V2
   \   000000                REQUIRE ?V3
   \   000000                REQUIRE ?V4
   \   000000                REQUIRE ?V5
   \   000000                REQUIRE ?V6
   \   000000                REQUIRE ?V7
   \   000000                REQUIRE ?V8
   \   000000                REQUIRE ?V9
   \   000000                REQUIRE ?V10
   \   000000                REQUIRE ?V11
   \   000000                REQUIRE ?V12
   \   000000                REQUIRE ?V13
   \   000000                REQUIRE ?V14
   \   000000                REQUIRE ?V15
   \   000000   74E8         MOV       A,#-0x18
   \   000002   12....       LCALL     ?BANKED_ENTER_XDATA
   \   000005                ; Saved register size: 24
   \   000005                ; Auto size: 12
   \   000005   74F4         MOV       A,#-0xc
   \   000007   12....       LCALL     ?ALLOC_XSTACK8
   \   00000A   8A..         MOV       ?V4,R2
   \   00000C   8B..         MOV       ?V5,R3
   4700            zclWriteCmd_t *writeCmd;
   4701            zclWriteRspCmd_t *writeRspCmd;
   4702            zclAttrRec_t attrRec;
   4703            uint16 dataLen;
   4704            uint16 curLen = 0;
   \   00000E   75..00       MOV       ?V8,#0x0
   \   000011   75..00       MOV       ?V9,#0x0
   4705            uint8 j = 0;
   \   000014   7E00         MOV       R6,#0x0
   4706            uint8 i;
   4707          
   4708            writeCmd = (zclWriteCmd_t *)pInMsg->attrCmd;
   \   000016   12....       LCALL     ??Subroutine266_0 & 0xFFFF
   \                     ??CrossCallReturnLabel_628:
   \   000019   35..         ADDC      A,?V5
   \   00001B   F583         MOV       DPH,A
   \   00001D   12....       LCALL     ??Subroutine247_0 & 0xFFFF
   \                     ??CrossCallReturnLabel_532:
   \   000020   7402         MOV       A,#0x2
   \   000022   12....       LCALL     ?XSTACK_DISP0_8
   \   000025   12....       LCALL     ??Subroutine236_0 & 0xFFFF
   4709          
   4710            // Allocate space for Write Response Command
   4711            writeRspCmd = (zclWriteRspCmd_t *)zcl_mem_alloc( sizeof( zclWriteRspCmd_t )
   4712                             + sizeof( zclWriteRspStatus_t )* writeCmd->numAttr );
   \                     ??CrossCallReturnLabel_477:
   \   000028                ; Setup parameters for call to function osal_mem_alloc
   \   000028   7402         MOV       A,#0x2
   \   00002A   12....       LCALL     ?XSTACK_DISP0_8
   \   00002D   12....       LCALL     ?Subroutine170 & 0xFFFF
   \                     ??CrossCallReturnLabel_292:
   \   000030   12....       LCALL     ?Subroutine74 & 0xFFFF
   \                     ??CrossCallReturnLabel_124:
   \   000033   8A..         MOV       ?V0,R2
   \   000035   8B..         MOV       ?V1,R3
   4713            if ( writeRspCmd == NULL )
   \   000037   EA           MOV       A,R2
   \   000038   4B           ORL       A,R3
   \   000039   7003         JNZ       $+5
   \   00003B   02....       LJMP      ??zclProcessInWriteUndividedCmd_0 & 0xFFFF
   4714            {
   4715              return FALSE; // EMBEDDED RETURN
   4716            }
   4717          
   4718            // If any attribute cannot be written, no attribute values are changed. Hence,
   4719            // make sure all the attributes are supported and writable
   4720            for ( i = 0; i < writeCmd->numAttr; i++ )
   \   00003E   7F00         MOV       R7,#0x0
   \   000040   8043         SJMP      ??zclProcessInWriteUndividedCmd_1
   4721            {
   4722              zclWriteRec_t *statusRec = &(writeCmd->attrList[i]);
   4723          
   4724              if ( !zclFindAttrRec( pInMsg->msg->endPoint, pInMsg->msg->clusterId,
   4725                                    statusRec->attrID, &attrRec ) )
   4726              {
   4727                // Attribute is not supported - stop here
   4728                writeRspCmd->attrList[j].status = ZCL_STATUS_UNSUPPORTED_ATTRIBUTE;
   4729                writeRspCmd->attrList[j++].attrID = statusRec->attrID;
   4730                break;
   4731              }
   4732          
   4733              if ( statusRec->dataType != attrRec.attr.dataType )
   4734              {
   4735                // Attribute data type is incorrect - stope here
   4736                writeRspCmd->attrList[j].status = ZCL_STATUS_INVALID_DATA_TYPE;
   4737                writeRspCmd->attrList[j++].attrID = statusRec->attrID;
   4738                break;
   4739              }
   4740          
   4741              if ( !zcl_AccessCtrlWrite( attrRec.attr.accessControl ) )
   4742              {
   4743                // Attribute is not writable - stop here
   4744                writeRspCmd->attrList[j].status = ZCL_STATUS_READ_ONLY;
   4745                writeRspCmd->attrList[j++].attrID = statusRec->attrID;
   4746                break;
   4747              }
   4748          
   4749              if ( zcl_AccessCtrlAuthWrite( attrRec.attr.accessControl ) )
   4750              {
   4751                // Not authorized to write - stop here
   4752                writeRspCmd->attrList[j].status = ZCL_STATUS_NOT_AUTHORIZED;
   4753                writeRspCmd->attrList[j++].attrID = statusRec->attrID;
   4754                break;
   4755              }
   4756          
   4757              // Attribute Data length
   4758              if ( attrRec.attr.dataPtr != NULL )
   4759              {
   4760                dataLen = zclGetAttrDataLength( attrRec.attr.dataType, attrRec.attr.dataPtr );
   4761              }
   4762              else // Use CB
   4763              {
   4764                dataLen = zclGetAttrDataLengthUsingCB( pInMsg->msg->endPoint, pInMsg->msg->clusterId,
   4765                                                       statusRec->attrID );
   \                     ??zclProcessInWriteUndividedCmd_2:
   \   000042   85..82       MOV       DPL,?V4
   \   000045   85..83       MOV       DPH,?V5
   \   000048   12....       LCALL     ?Subroutine87 & 0xFFFF
   4766              }
   \                     ??CrossCallReturnLabel_147:
   \   00004B   FC           MOV       R4,A
   \   00004C   A3           INC       DPTR
   \   00004D   E0           MOVX      A,@DPTR
   \   00004E   FD           MOV       R5,A
   \   00004F   8882         MOV       DPL,R0
   \   000051   8983         MOV       DPH,R1
   \   000053   12....       LCALL     ??Subroutine250_0 & 0xFFFF
   \                     ??CrossCallReturnLabel_583:
   \   000056   12....       LCALL     ?Subroutine140 & 0xFFFF
   \                     ??CrossCallReturnLabel_242:
   \   000059   12....       LCALL     `??zclGetAttrDataLengthUsingCB::?relay`; Banked call to: zclGetAttrDataLengthUsingCB
   \                     ??zclProcessInWriteUndividedCmd_3:
   \   00005C   85..82       MOV       DPL,?XSP + 0
   \   00005F   85..83       MOV       DPH,?XSP + 1
   \   000062   12....       LCALL     ??Subroutine275_0 & 0xFFFF
   4767          
   4768              // add padding if needed
   4769              if ( PADDING_NEEDED( dataLen ) )
   \                     ??CrossCallReturnLabel_698:
   \   000065   85..82       MOV       DPL,?XSP + 0
   \   000068   85..83       MOV       DPH,?XSP + 1
   \   00006B   E0           MOVX      A,@DPTR
   \   00006C   A2E0         MOV       C,0xE0 /* A   */.0
   \   00006E   5003         JNC       ??CrossCallReturnLabel_265
   4770              {
   4771                dataLen++;
   \   000070   12....       LCALL     ?Subroutine157 & 0xFFFF
   4772              }
   4773          
   4774              curLen += dataLen;
   \                     ??CrossCallReturnLabel_265:
   \   000073   85..82       MOV       DPL,?XSP + 0
   \   000076   85..83       MOV       DPH,?XSP + 1
   \   000079   E0           MOVX      A,@DPTR
   \   00007A   25..         ADD       A,?V8
   \   00007C   F5..         MOV       ?V8,A
   \   00007E   A3           INC       DPTR
   \   00007F   E0           MOVX      A,@DPTR
   \   000080   35..         ADDC      A,?V9
   \   000082   F5..         MOV       ?V9,A
   \   000084   0F           INC       R7
   \                     ??zclProcessInWriteUndividedCmd_1:
   \   000085   7402         MOV       A,#0x2
   \   000087   12....       LCALL     ?XSTACK_DISP0_8
   \   00008A   12....       LCALL     ?Subroutine81 & 0xFFFF
   \                     ??CrossCallReturnLabel_136:
   \   00008D   503E         JNC       ??zclProcessInWriteUndividedCmd_4
   \   00008F   EF           MOV       A,R7
   \   000090   75F005       MOV       B,#0x5
   \   000093   A4           MUL       AB
   \   000094   F8           MOV       R0,A
   \   000095   A9F0         MOV       R1,B
   \   000097   7402         MOV       A,#0x2
   \   000099   12....       LCALL     ?XSTACK_DISP0_8
   \   00009C   12....       LCALL     ?Subroutine73 & 0xFFFF
   \                     ??CrossCallReturnLabel_121:
   \   00009F   12....       LCALL     ?Subroutine118 & 0xFFFF
   \                     ??CrossCallReturnLabel_201:
   \   0000A2   12....       LCALL     ?XSTACK_DISP100_8
   \   0000A5   88..         MOV       ?V10,R0
   \   0000A7   89..         MOV       ?V11,R1
   \   0000A9   78..         MOV       R0,#?V10
   \   0000AB   12....       LCALL     ?PUSH_XSTACK_I_TWO
   \   0000AE   12....       LCALL     ?Subroutine49 & 0xFFFF
   \                     ??CrossCallReturnLabel_612:
   \   0000B1   12....       LCALL     ?DEALLOC_XSTACK8
   \   0000B4   E9           MOV       A,R1
   \   0000B5   7046         JNZ       ??zclProcessInWriteUndividedCmd_5
   \   0000B7   85..82       MOV       DPL,?V0
   \   0000BA   85..83       MOV       DPH,?V1
   \   0000BD   A3           INC       DPTR
   \   0000BE   7486         MOV       A,#-0x7a
   \                     ??zclProcessInWriteUndividedCmd_6:
   \   0000C0   12....       LCALL     ?Subroutine44 & 0xFFFF
   \                     ??CrossCallReturnLabel_54:
   \   0000C3   12....       LCALL     ?Subroutine94 & 0xFFFF
   \                     ??CrossCallReturnLabel_158:
   \   0000C6   A3           INC       DPTR
   \   0000C7   A3           INC       DPTR
   \   0000C8   12....       LCALL     ??Subroutine236_0 & 0xFFFF
   \                     ??CrossCallReturnLabel_478:
   \   0000CB   7E01         MOV       R6,#0x1
   4775            } // for loop
   4776          
   4777            writeRspCmd->numAttr = j;
   \                     ??zclProcessInWriteUndividedCmd_4:
   \   0000CD   EE           MOV       A,R6
   \   0000CE   85..82       MOV       DPL,?V0
   \   0000D1   85..83       MOV       DPH,?V1
   \   0000D4   F0           MOVX      @DPTR,A
   4778            if ( writeRspCmd->numAttr == 0 ) // All attributes can be written
   \   0000D5   6003         JZ        $+5
   \   0000D7   02....       LJMP      ??zclProcessInWriteUndividedCmd_7 & 0xFFFF
   4779            {
   4780              uint8 *curDataPtr;
   4781              zclWriteRec_t *curWriteRec;
   4782          
   4783              // calculate the length of the current data header
   4784              uint8 hdrLen = j * sizeof( zclWriteRec_t );
   \   0000DA   75F005       MOV       B,#0x5
   \   0000DD   A4           MUL       AB
   \   0000DE   FF           MOV       R7,A
   4785          
   4786              // Allocate space to keep a copy of the current data
   4787              curWriteRec = (zclWriteRec_t *) zcl_mem_alloc( hdrLen + curLen );
   \   0000DF                ; Setup parameters for call to function osal_mem_alloc
   \   0000DF   25..         ADD       A,?V8
   \   0000E1   FA           MOV       R2,A
   \   0000E2   E4           CLR       A
   \   0000E3   35..         ADDC      A,?V9
   \   0000E5   FB           MOV       R3,A
   \   0000E6   12....       LCALL     `??osal_mem_alloc::?relay`; Banked call to: osal_mem_alloc
   \   0000E9   8A..         MOV       ?V14,R2
   \   0000EB   8B..         MOV       ?V15,R3
   4788              if ( curWriteRec == NULL )
   \   0000ED   EA           MOV       A,R2
   \   0000EE   4B           ORL       A,R3
   \   0000EF   705C         JNZ       ??zclProcessInWriteUndividedCmd_8
   4789              {
   4790                zcl_mem_free(writeRspCmd );
   \   0000F1                ; Setup parameters for call to function osal_mem_free
   \   0000F1   AA..         MOV       R2,?V0
   \   0000F3   AB..         MOV       R3,?V1
   \   0000F5   12....       LCALL     `??osal_mem_free::?relay`; Banked call to: osal_mem_free
   4791                return FALSE; // EMBEDDED RETURN
   \                     ??zclProcessInWriteUndividedCmd_0:
   \   0000F8   7900         MOV       R1,#0x0
   \   0000FA   02....       LJMP      ??zclProcessInWriteUndividedCmd_9 & 0xFFFF
   4792              }
   \                     ??zclProcessInWriteUndividedCmd_5:
   \   0000FD   7408         MOV       A,#0x8
   \   0000FF   12....       LCALL     ?XSTACK_DISP0_8
   \   000102   12....       LCALL     ??Subroutine243_0 & 0xFFFF
   \                     ??CrossCallReturnLabel_513:
   \   000105   A3           INC       DPTR
   \   000106   A3           INC       DPTR
   \   000107   E0           MOVX      A,@DPTR
   \   000108   69           XRL       A,R1
   \   000109   600B         JZ        ??zclProcessInWriteUndividedCmd_10
   \   00010B   85..82       MOV       DPL,?V0
   \   00010E   85..83       MOV       DPH,?V1
   \   000111   A3           INC       DPTR
   \   000112   748D         MOV       A,#-0x73
   \   000114   80AA         SJMP      ??zclProcessInWriteUndividedCmd_6
   \                     ??zclProcessInWriteUndividedCmd_10:
   \   000116   7409         MOV       A,#0x9
   \   000118   12....       LCALL     ?XSTACK_DISP0_8
   \   00011B   E0           MOVX      A,@DPTR
   \   00011C   A2E1         MOV       C,0xE0 /* A   */.1
   \   00011E   400B         JC        ??zclProcessInWriteUndividedCmd_11
   \   000120   85..82       MOV       DPL,?V0
   \   000123   85..83       MOV       DPH,?V1
   \   000126   A3           INC       DPTR
   \   000127   7488         MOV       A,#-0x78
   \   000129   8095         SJMP      ??zclProcessInWriteUndividedCmd_6
   \                     ??zclProcessInWriteUndividedCmd_11:
   \   00012B   A2E5         MOV       C,0xE0 /* A   */.5
   \   00012D   500B         JNC       ??zclProcessInWriteUndividedCmd_12
   \   00012F   85..82       MOV       DPL,?V0
   \   000132   85..83       MOV       DPH,?V1
   \   000135   A3           INC       DPTR
   \   000136   747E         MOV       A,#0x7e
   \   000138   8086         SJMP      ??zclProcessInWriteUndividedCmd_6
   \                     ??zclProcessInWriteUndividedCmd_12:
   \   00013A   740A         MOV       A,#0xa
   \   00013C   12....       LCALL     ?XSTACK_DISP0_8
   \   00013F   12....       LCALL     ??Subroutine215_0 & 0xFFFF
   \                     ??CrossCallReturnLabel_376:
   \   000142   7003         JNZ       $+5
   \   000144   02....       LJMP      ??zclProcessInWriteUndividedCmd_2 & 0xFFFF
   \   000147                ; Setup parameters for call to function zclGetAttrDataLength
   \   000147   12....       LCALL     `??zclGetAttrDataLength::?relay`; Banked call to: zclGetAttrDataLength
   \   00014A   02....       LJMP      ??zclProcessInWriteUndividedCmd_3 & 0xFFFF
   4793          
   4794              curDataPtr = (uint8 *)((uint8 *)curWriteRec + hdrLen);
   \                     ??zclProcessInWriteUndividedCmd_8:
   \   00014D   EA           MOV       A,R2
   \   00014E   2F           ADD       A,R7
   \   00014F   F5..         MOV       ?V8,A
   \   000151   E4           CLR       A
   \   000152   3B           ADDC      A,R3
   \   000153   F5..         MOV       ?V9,A
   4795          
   4796              // Write the new data over
   4797              for ( i = 0; i < writeCmd->numAttr; i++ )
   \   000155   7F00         MOV       R7,#0x0
   \   000157   801C         SJMP      ??zclProcessInWriteUndividedCmd_13
   4798              {
   4799                uint8 status;
   4800                zclWriteRec_t *statusRec = &(writeCmd->attrList[i]);
   4801                zclWriteRec_t *curStatusRec = &(curWriteRec[i]);
   4802          
   4803                if ( !zclFindAttrRec( pInMsg->msg->endPoint, pInMsg->msg->clusterId,
   4804                                      statusRec->attrID, &attrRec ) )
   4805                {
   4806                  break; // should never happen
   4807                }
   4808          
   4809                // Keep a copy of the current data before before writing the new data over
   4810                curStatusRec->attrID = statusRec->attrID;
   4811                curStatusRec->attrData = curDataPtr;
   4812          
   4813                if ( attrRec.attr.dataPtr != NULL )
   4814                {
   4815                  // Read the current value
   4816                  zclReadAttrData( curDataPtr, &attrRec, &dataLen );
   4817          
   4818                  // Write the new attribute value
   4819                  status = zclWriteAttrData( pInMsg->msg->endPoint, &(pInMsg->msg->srcAddr),
   4820                                             &attrRec, statusRec );
   4821                }
   4822                else // Use CBs
   4823                {
   4824                  // Read the current value
   4825                  zclReadAttrDataUsingCB( pInMsg->msg->endPoint, pInMsg->msg->clusterId,
   4826                                          statusRec->attrID, curDataPtr, &dataLen );
   4827                  // Write the new attribute value
   4828                  status = zclWriteAttrDataUsingCB( pInMsg->msg->endPoint, &(pInMsg->msg->srcAddr),
   4829                                                    &attrRec, statusRec->attrData );
   4830                }
   4831          
   4832                // If successful, a write attribute status record shall NOT be generated
   4833                if ( status != ZCL_STATUS_SUCCESS )
   4834                {
   4835                  writeRspCmd->attrList[j].status = status;
   4836                  writeRspCmd->attrList[j++].attrID = statusRec->attrID;
   4837          
   4838                  // Since this write failed, we need to revert all the pervious writes
   4839                  zclRevertWriteUndividedCmd( pInMsg, curWriteRec, i);
   4840                  break;
   4841                }
   4842          
   4843                // add padding if needed
   4844                if ( PADDING_NEEDED( dataLen ) )
   \                     ??zclProcessInWriteUndividedCmd_14:
   \   000159   85..82       MOV       DPL,?XSP + 0
   \   00015C   85..83       MOV       DPH,?XSP + 1
   \   00015F   E0           MOVX      A,@DPTR
   \   000160   A2E0         MOV       C,0xE0 /* A   */.0
   \   000162   5003         JNC       ??CrossCallReturnLabel_266
   4845                {
   4846                  dataLen++;
   \   000164   12....       LCALL     ?Subroutine157 & 0xFFFF
   4847                }
   4848          
   4849                curDataPtr += dataLen;
   \                     ??CrossCallReturnLabel_266:
   \   000167   12....       LCALL     ?Subroutine107 & 0xFFFF
   \                     ??CrossCallReturnLabel_536:
   \   00016A   E5..         MOV       A,?V8
   \   00016C   28           ADD       A,R0
   \   00016D   F5..         MOV       ?V8,A
   \   00016F   E5..         MOV       A,?V9
   \   000171   39           ADDC      A,R1
   \   000172   F5..         MOV       ?V9,A
   \   000174   0F           INC       R7
   \                     ??zclProcessInWriteUndividedCmd_13:
   \   000175   7402         MOV       A,#0x2
   \   000177   12....       LCALL     ?XSTACK_DISP0_8
   \   00017A   12....       LCALL     ?Subroutine81 & 0xFFFF
   \                     ??CrossCallReturnLabel_137:
   \   00017D   4003         JC        $+5
   \   00017F   02....       LJMP      ??zclProcessInWriteUndividedCmd_15 & 0xFFFF
   \   000182   EF           MOV       A,R7
   \   000183   75F005       MOV       B,#0x5
   \   000186   A4           MUL       AB
   \   000187   F8           MOV       R0,A
   \   000188   A9F0         MOV       R1,B
   \   00018A   7402         MOV       A,#0x2
   \   00018C   12....       LCALL     ?XSTACK_DISP0_8
   \   00018F   12....       LCALL     ?Subroutine73 & 0xFFFF
   \                     ??CrossCallReturnLabel_122:
   \   000192   E5..         MOV       A,?V14
   \   000194   28           ADD       A,R0
   \   000195   F5..         MOV       ?V12,A
   \   000197   E5..         MOV       A,?V15
   \   000199   39           ADDC      A,R1
   \   00019A   F5..         MOV       ?V13,A
   \   00019C   12....       LCALL     ?Subroutine118 & 0xFFFF
   \                     ??CrossCallReturnLabel_202:
   \   00019F   12....       LCALL     ?XSTACK_DISP100_8
   \   0001A2   88..         MOV       ?V10,R0
   \   0001A4   89..         MOV       ?V11,R1
   \   0001A6   78..         MOV       R0,#?V10
   \   0001A8   12....       LCALL     ?PUSH_XSTACK_I_TWO
   \   0001AB   12....       LCALL     ?Subroutine49 & 0xFFFF
   \                     ??CrossCallReturnLabel_613:
   \   0001AE   12....       LCALL     ?DEALLOC_XSTACK8
   \   0001B1   E9           MOV       A,R1
   \   0001B2   7003         JNZ       $+5
   \   0001B4   02....       LJMP      ??zclProcessInWriteUndividedCmd_15 & 0xFFFF
   \   0001B7   85..82       MOV       DPL,?V2
   \   0001BA   85..83       MOV       DPH,?V3
   \   0001BD   12....       LCALL     ??Subroutine247_0 & 0xFFFF
   \                     ??CrossCallReturnLabel_533:
   \   0001C0   85..82       MOV       DPL,?V12
   \   0001C3   85..83       MOV       DPH,?V13
   \   0001C6   12....       LCALL     ??Subroutine236_0 & 0xFFFF
   \                     ??CrossCallReturnLabel_479:
   \   0001C9   85..82       MOV       DPL,?V12
   \   0001CC   85..83       MOV       DPH,?V13
   \   0001CF   A3           INC       DPTR
   \   0001D0   A3           INC       DPTR
   \   0001D1   A3           INC       DPTR
   \   0001D2   E5..         MOV       A,?V8
   \   0001D4   F0           MOVX      @DPTR,A
   \   0001D5   A3           INC       DPTR
   \   0001D6   E5..         MOV       A,?V9
   \   0001D8   F0           MOVX      @DPTR,A
   \   0001D9   740A         MOV       A,#0xa
   \   0001DB   12....       LCALL     ?XSTACK_DISP0_8
   \   0001DE   12....       LCALL     ??Subroutine235_0 & 0xFFFF
   \                     ??CrossCallReturnLabel_465:
   \   0001E1   6036         JZ        ??zclProcessInWriteUndividedCmd_16
   \   0001E3                ; Setup parameters for call to function zclReadAttrData
   \   0001E3   A8..         MOV       R0,?XSP + 0
   \   0001E5   A9..         MOV       R1,?XSP + 1
   \   0001E7   88..         MOV       ?V6,R0
   \   0001E9   89..         MOV       ?V7,R1
   \   0001EB   78..         MOV       R0,#?V6
   \   0001ED   12....       LCALL     ?PUSH_XSTACK_I_TWO
   \   0001F0   7406         MOV       A,#0x6
   \   0001F2   12....       LCALL     ?XSTACK_DISP102_8
   \   0001F5   AA..         MOV       R2,?V8
   \   0001F7   AB..         MOV       R3,?V9
   \   0001F9   12....       LCALL     `??zclReadAttrData::?relay`; Banked call to: zclReadAttrData
   \   0001FC   7402         MOV       A,#0x2
   \   0001FE   12....       LCALL     ?DEALLOC_XSTACK8
   \   000201   85..82       MOV       DPL,?V4
   \   000204   85..83       MOV       DPH,?V5
   \   000207   12....       LCALL     ??Subroutine240_0 & 0xFFFF
   \                     ??CrossCallReturnLabel_497:
   \   00020A                ; Setup parameters for call to function zclWriteAttrData
   \   00020A   78..         MOV       R0,#?V2
   \   00020C   12....       LCALL     ?PUSH_XSTACK_I_TWO
   \   00020F   7406         MOV       A,#0x6
   \   000211   12....       LCALL     ?XSTACK_DISP102_8
   \   000214   12....       LCALL     ?Subroutine138 & 0xFFFF
   \                     ??CrossCallReturnLabel_238:
   \   000217   805D         SJMP      ??CrossCallReturnLabel_209
   \                     ??zclProcessInWriteUndividedCmd_16:
   \   000219   85..82       MOV       DPL,?V4
   \   00021C   85..83       MOV       DPH,?V5
   \   00021F   12....       LCALL     ??Subroutine240_0 & 0xFFFF
   \                     ??CrossCallReturnLabel_498:
   \   000222                ; Setup parameters for call to function zclReadAttrDataUsingCB
   \   000222   A8..         MOV       R0,?XSP + 0
   \   000224   A9..         MOV       R1,?XSP + 1
   \   000226   88..         MOV       ?V10,R0
   \   000228   89..         MOV       ?V11,R1
   \   00022A   78..         MOV       R0,#?V10
   \   00022C   12....       LCALL     ?PUSH_XSTACK_I_TWO
   \   00022F   78..         MOV       R0,#?V8
   \   000231   12....       LCALL     ?PUSH_XSTACK_I_TWO
   \   000234   85..82       MOV       DPL,?V2
   \   000237   85..83       MOV       DPH,?V3
   \   00023A   12....       LCALL     ??Subroutine263_0 & 0xFFFF
   \                     ??CrossCallReturnLabel_608:
   \   00023D   85..82       MOV       DPL,?V6
   \   000240   85..83       MOV       DPH,?V7
   \   000243   12....       LCALL     ??Subroutine250_0 & 0xFFFF
   \                     ??CrossCallReturnLabel_584:
   \   000246   12....       LCALL     ?Subroutine141 & 0xFFFF
   \                     ??CrossCallReturnLabel_604:
   \   000249   12....       LCALL     ??Subroutine261_0 & 0xFFFF
   \                     ??CrossCallReturnLabel_615:
   \   00024C   12....       LCALL     `??zclReadAttrDataUsingCB::?relay`; Banked call to: zclReadAttrDataUsingCB
   \   00024F   7404         MOV       A,#0x4
   \   000251   12....       LCALL     ?DEALLOC_XSTACK8
   \   000254   85..82       MOV       DPL,?V4
   \   000257   85..83       MOV       DPH,?V5
   \   00025A   12....       LCALL     ?Subroutine88 & 0xFFFF
   \                     ??CrossCallReturnLabel_150:
   \   00025D   A3           INC       DPTR
   \   00025E   A3           INC       DPTR
   \   00025F   A3           INC       DPTR
   \   000260   12....       LCALL     ?PUSH_XSTACK8_X_TWO
   \   000263   7406         MOV       A,#0x6
   \   000265   12....       LCALL     ?XSTACK_DISP102_8
   \   000268   E8           MOV       A,R0
   \   000269   12....       LCALL     ??Subroutine272_0 & 0xFFFF
   \                     ??CrossCallReturnLabel_679:
   \   00026C   39           ADDC      A,R1
   \   00026D   FB           MOV       R3,A
   \   00026E   E8           MOV       A,R0
   \   00026F   12....       LCALL     ??Subroutine260_0 & 0xFFFF
   \                     ??CrossCallReturnLabel_601:
   \   000272   39           ADDC      A,R1
   \   000273   12....       LCALL     ?Subroutine122 & 0xFFFF
   \                     ??CrossCallReturnLabel_209:
   \   000276   7402         MOV       A,#0x2
   \   000278   12....       LCALL     ?DEALLOC_XSTACK8
   \   00027B   E9           MOV       A,R1
   \   00027C   FA           MOV       R2,A
   \   00027D   EA           MOV       A,R2
   \   00027E   7003         JNZ       $+5
   \   000280   02....       LJMP      ??zclProcessInWriteUndividedCmd_14 & 0xFFFF
   \   000283   EE           MOV       A,R6
   \   000284   75F003       MOV       B,#0x3
   \   000287   A4           MUL       AB
   \   000288   F8           MOV       R0,A
   \   000289   A9F0         MOV       R1,B
   \   00028B   E5..         MOV       A,?V0
   \   00028D   28           ADD       A,R0
   \   00028E   F8           MOV       R0,A
   \   00028F   E5..         MOV       A,?V1
   \   000291   39           ADDC      A,R1
   \   000292   F9           MOV       R1,A
   \   000293   EA           MOV       A,R2
   \   000294   8882         MOV       DPL,R0
   \   000296   8983         MOV       DPH,R1
   \   000298   A3           INC       DPTR
   \   000299   12....       LCALL     ?Subroutine44 & 0xFFFF
   \                     ??CrossCallReturnLabel_55:
   \   00029C   12....       LCALL     ?Subroutine43 & 0xFFFF
   \                     ??CrossCallReturnLabel_702:
   \   00029F   0E           INC       R6
   \   0002A0                ; Setup parameters for call to function zclRevertWriteUndividedCmd
   \   0002A0   EF           MOV       A,R7
   \   0002A1   F5..         MOV       ?V2,A
   \   0002A3   75..00       MOV       ?V3,#0x0
   \   0002A6   78..         MOV       R0,#?V2
   \   0002A8   12....       LCALL     ?PUSH_XSTACK_I_TWO
   \   0002AB   AC..         MOV       R4,?V14
   \   0002AD   AD..         MOV       R5,?V15
   \   0002AF   AA..         MOV       R2,?V4
   \   0002B1   AB..         MOV       R3,?V5
   \   0002B3   12....       LCALL     `??zclRevertWriteUndividedCmd::?relay`; Banked call to: zclRevertWriteUndividedCmd
   \   0002B6   7402         MOV       A,#0x2
   \   0002B8   12....       LCALL     ?DEALLOC_XSTACK8
   4850              } // for loop
   4851          
   4852              writeRspCmd->numAttr = j;
   \                     ??zclProcessInWriteUndividedCmd_15:
   \   0002BB   EE           MOV       A,R6
   \   0002BC   85..82       MOV       DPL,?V0
   \   0002BF   85..83       MOV       DPH,?V1
   \   0002C2   F0           MOVX      @DPTR,A
   4853              if ( writeRspCmd->numAttr  == 0 )
   \   0002C3   7007         JNZ       ??zclProcessInWriteUndividedCmd_17
   4854              {
   4855                // Since all records were written successful, include a single status record
   4856                // in the resonse command with the status field set to SUCCESS and the
   4857                // attribute ID field omitted.
   4858                writeRspCmd->attrList[0].status = ZCL_STATUS_SUCCESS;
   \   0002C5   A3           INC       DPTR
   \   0002C6   E4           CLR       A
   \   0002C7   12....       LCALL     ?Subroutine163 & 0xFFFF
   4859                writeRspCmd->numAttr = 1;
   4860              }
   \                     ??CrossCallReturnLabel_276:
   \   0002CA   04           INC       A
   \   0002CB   F0           MOVX      @DPTR,A
   4861          
   4862              zcl_mem_free( curWriteRec );
   \                     ??zclProcessInWriteUndividedCmd_17:
   \   0002CC                ; Setup parameters for call to function osal_mem_free
   \   0002CC   AA..         MOV       R2,?V14
   \   0002CE   AB..         MOV       R3,?V15
   \   0002D0   12....       LCALL     `??osal_mem_free::?relay`; Banked call to: osal_mem_free
   4863            }
   4864          
   4865            zcl_SendWriteRsp( pInMsg->msg->endPoint, &(pInMsg->msg->srcAddr),
   4866                              pInMsg->msg->clusterId, writeRspCmd, !pInMsg->hdr.fc.direction,
   4867                              true, pInMsg->hdr.transSeqNum );
   \                     ??zclProcessInWriteUndividedCmd_7:
   \   0002D3   12....       LCALL     ?Subroutine129 & 0xFFFF
   \                     ??CrossCallReturnLabel_565:
   \   0002D6                ; Setup parameters for call to function zcl_SendWriteRsp
   \   0002D6   85..82       MOV       DPL,?V4
   \   0002D9   85..83       MOV       DPH,?V5
   \   0002DC   12....       LCALL     ??Subroutine224_0 & 0xFFFF
   \                     ??CrossCallReturnLabel_432:
   \   0002DF   12....       LCALL     ?PUSH_XSTACK_I_ONE
   \   0002E2   75..01       MOV       ?V2,#0x1
   \   0002E5   78..         MOV       R0,#?V2
   \   0002E7   12....       LCALL     ?PUSH_XSTACK_I_ONE
   \   0002EA   85..82       MOV       DPL,?V4
   \   0002ED   85..83       MOV       DPH,?V5
   \   0002F0   A3           INC       DPTR
   \   0002F1   A3           INC       DPTR
   \   0002F2   12....       LCALL     ?Subroutine59 & 0xFFFF
   \                     ??CrossCallReturnLabel_85:
   \   0002F5   12....       LCALL     ?PUSH_XSTACK_I_ONE
   \   0002F8   78..         MOV       R0,#?V0
   \   0002FA   12....       LCALL     ?PUSH_XSTACK_I_TWO
   \   0002FD   12....       LCALL     ?Subroutine55 & 0xFFFF
   \                     ??CrossCallReturnLabel_69:
   \   000300   12....       LCALL     ?DEALLOC_XSTACK8
   4868            zcl_mem_free( writeRspCmd );
   \   000303                ; Setup parameters for call to function osal_mem_free
   \   000303   AA..         MOV       R2,?V0
   \   000305   AB..         MOV       R3,?V1
   \   000307   12....       LCALL     `??osal_mem_free::?relay`; Banked call to: osal_mem_free
   4869          
   4870            return TRUE;
   \   00030A   7901         MOV       R1,#0x1
   \                     ??zclProcessInWriteUndividedCmd_9:
   \   00030C   740C         MOV       A,#0xc
   \   00030E                REQUIRE ?Subroutine5
   \   00030E                ; // Fall through to label ?Subroutine5
   4871          }

   \                                 In  segment BANKED_CODE, align 1, keep-with-next
   \                     ?Subroutine157:
   \   000000   2401         ADD       A,#0x1
   \   000002   F0           MOVX      @DPTR,A
   \   000003   A3           INC       DPTR
   \   000004   E0           MOVX      A,@DPTR
   \   000005   3400         ADDC      A,#0x0
   \   000007   F0           MOVX      @DPTR,A
   \   000008   22           RET

   \                                 In  segment BANKED_CODE, align 1, keep-with-next
   \                     ?Subroutine140:
   \   000000   E8           MOV       A,R0
   \   000001   12....       LCALL     ?Subroutine201 & 0xFFFF
   \                     ??CrossCallReturnLabel_654:
   \   000004   39           ADDC      A,R1
   \   000005   F583         MOV       DPH,A
   \   000007   E0           MOVX      A,@DPTR
   \   000008   F9           MOV       R1,A
   \   000009   22           RET

   \                                 In  segment BANKED_CODE, align 1, keep-with-next
   \                     ?Subroutine118:
   \   000000   85..82       MOV       DPL,?V4
   \   000003   85..83       MOV       DPH,?V5
   \   000006   E0           MOVX      A,@DPTR
   \   000007   F5..         MOV       ?V6,A
   \   000009   A3           INC       DPTR
   \   00000A   E0           MOVX      A,@DPTR
   \   00000B   F5..         MOV       ?V7,A
   \   00000D                ; Setup parameters for call to function zclFindAttrRec
   \   00000D                ; Setup parameters for call to function zclFindAttrRec
   \   00000D   7404         MOV       A,#0x4
   \   00000F   22           RET

   \                                 In  segment BANKED_CODE, align 1, keep-with-next
   \                     ?Subroutine81:
   \   000000   12....       LCALL     ?Subroutine170 & 0xFFFF
   \                     ??CrossCallReturnLabel_295:
   \   000003   E0           MOVX      A,@DPTR
   \   000004   F8           MOV       R0,A
   \   000005   EF           MOV       A,R7
   \   000006   C3           CLR       C
   \   000007   98           SUBB      A,R0
   \   000008   22           RET

   \                                 In  segment BANKED_CODE, align 1, keep-with-next
   \                     ?Subroutine73:
   \   000000   E0           MOVX      A,@DPTR
   \   000001   28           ADD       A,R0
   \   000002   FA           MOV       R2,A
   \   000003   A3           INC       DPTR
   \   000004   E0           MOVX      A,@DPTR
   \   000005   39           ADDC      A,R1
   \   000006   8A82         MOV       DPL,R2
   \   000008   F583         MOV       DPH,A
   \   00000A   A3           INC       DPTR
   \   00000B   8582..       MOV       ?V2,DPL
   \   00000E   8583..       MOV       ?V3,DPH
   \   000011   22           RET

   \                                 In  segment BANKED_CODE, align 1, keep-with-next
   \                     ?Subroutine49:
   \   000000   85..82       MOV       DPL,?V2
   \   000003   85..83       MOV       DPH,?V3
   \   000006                REQUIRE ??Subroutine264_0
   \   000006                ; // Fall through to label ??Subroutine264_0

   \                                 In  segment BANKED_CODE, align 1, keep-with-next
   \                     ?Subroutine44:
   \   000000   F0           MOVX      @DPTR,A
   \   000001   85..82       MOV       DPL,?V2
   \   000004   85..83       MOV       DPH,?V3
   \   000007   22           RET

   \                                 In  segment BANKED_CODE, align 1, keep-with-next
   \                     ?Subroutine43:
   \   000000   12....       LCALL     ?Subroutine186 & 0xFFFF
   \                     ??CrossCallReturnLabel_315:
   \   000003                REQUIRE ??Subroutine274_0
   \   000003                ; // Fall through to label ??Subroutine274_0
   4872          #endif // ZCL_WRITE
   4873          
   4874          #ifdef ZCL_DISCOVER
   4875          /*********************************************************************
   4876           * @fn      zclProcessInDiscAttrs
   4877           *
   4878           * @brief   Process the "Profile" Discover Attributes Commands
   4879           *
   4880           * @param   pInMsg - incoming message to process
   4881           *
   4882           * @return  TRUE if command processed. FALSE, otherwise.
   4883           */

   \                                 In  segment BANKED_CODE, align 1, keep-with-next
   4884          static uint8 zclProcessInDiscAttrs( zclIncoming_t *pInMsg )
   \                     zclProcessInDiscAttrs:
   4885          {
   \   000000                REQUIRE ?V0
   \   000000                REQUIRE ?V1
   \   000000                REQUIRE ?V2
   \   000000                REQUIRE ?V4
   \   000000                REQUIRE ?V5
   \   000000                REQUIRE ?V6
   \   000000                REQUIRE ?V7
   \   000000   74F0         MOV       A,#-0x10
   \   000002   12....       LCALL     ?BANKED_ENTER_XDATA
   \   000005                ; Saved register size: 16
   \   000005                ; Auto size: 10
   \   000005   74F6         MOV       A,#-0xa
   \   000007   12....       LCALL     ?ALLOC_XSTACK8
   \   00000A   12....       LCALL     ?Subroutine193 & 0xFFFF
   4886            zclDiscoverAttrsCmd_t *pDiscoverCmd;
   4887            zclAttrRec_t attrRec;
   4888            uint16 attrID;
   4889            uint8 numAttrs;
   4890            uint8 i;
   4891          
   4892            pDiscoverCmd = (zclDiscoverAttrsCmd_t *)pInMsg->attrCmd;
   \                     ??CrossCallReturnLabel_625:
   \   00000D   3F           ADDC      A,R7
   \   00000E   12....       LCALL     ?Subroutine75 & 0xFFFF
   4893          
   4894            // Find out the number of attributes supported within the specified range
   4895            for ( i = 0, attrID = pDiscoverCmd->startAttr; i < pDiscoverCmd->maxAttrIDs; i++, attrID++ )
   \                     ??CrossCallReturnLabel_512:
   \   000011   75..00       MOV       ?V2,#0x0
   \   000014   85..82       MOV       DPL,?V0
   \   000017   F583         MOV       DPH,A
   \   000019   12....       LCALL     ??Subroutine247_0 & 0xFFFF
   \                     ??CrossCallReturnLabel_534:
   \   00001C   85..82       MOV       DPL,?XSP + 0
   \   00001F   85..83       MOV       DPH,?XSP + 1
   \   000022   E8           MOV       A,R0
   \   000023   F0           MOVX      @DPTR,A
   \   000024   A3           INC       DPTR
   \   000025   E9           MOV       A,R1
   \   000026   8010         SJMP      ??zclProcessInDiscAttrs_0
   \                     ??zclProcessInDiscAttrs_1:
   \   000028   05..         INC       ?V2
   \   00002A   85..82       MOV       DPL,?XSP + 0
   \   00002D   85..83       MOV       DPH,?XSP + 1
   \   000030   E0           MOVX      A,@DPTR
   \   000031   2401         ADD       A,#0x1
   \   000033   F0           MOVX      @DPTR,A
   \   000034   A3           INC       DPTR
   \   000035   E0           MOVX      A,@DPTR
   \   000036   3400         ADDC      A,#0x0
   \                     ??zclProcessInDiscAttrs_0:
   \   000038   12....       LCALL     ?Subroutine38 & 0xFFFF
   \                     ??CrossCallReturnLabel_46:
   \   00003B   12....       LCALL     ??Subroutine248_0 & 0xFFFF
   \                     ??CrossCallReturnLabel_556:
   \   00003E   5032         JNC       ??zclProcessInDiscAttrs_2
   4896            {
   4897              // finds the next attribute on this endpoint/cluster after the range.
   4898              // attributes must be in numerical order in the list.
   4899              if ( !zclFindNextAttrRec( pInMsg->msg->endPoint, pInMsg->msg->clusterId, pInMsg->hdr.fc.direction, &attrID, &attrRec ) )
   \   000040   8E82         MOV       DPL,R6
   \   000042   8F83         MOV       DPH,R7
   \   000044   12....       LCALL     ?Subroutine123 & 0xFFFF
   4900              {
   4901                break;
   4902              }
   4903            }
   \                     ??CrossCallReturnLabel_211:
   \   000047                ; Setup parameters for call to function zclFindNextAttrRec
   \   000047   7402         MOV       A,#0x2
   \   000049   12....       LCALL     ?XSTACK_DISP100_8
   \   00004C   88..         MOV       ?V6,R0
   \   00004E   89..         MOV       ?V7,R1
   \   000050   78..         MOV       R0,#?V6
   \   000052   12....       LCALL     ?PUSH_XSTACK_I_TWO
   \   000055   7402         MOV       A,#0x2
   \   000057   12....       LCALL     ?XSTACK_DISP100_8
   \   00005A   88..         MOV       ?V6,R0
   \   00005C   89..         MOV       ?V7,R1
   \   00005E   78..         MOV       R0,#?V6
   \   000060   12....       LCALL     ?PUSH_XSTACK_I_TWO
   \   000063   8E82         MOV       DPL,R6
   \   000065   8F83         MOV       DPH,R7
   \   000067   A3           INC       DPTR
   \   000068   A3           INC       DPTR
   \   000069   12....       LCALL     ??Subroutine270_0 & 0xFFFF
   \                     ??CrossCallReturnLabel_647:
   \   00006C   12....       LCALL     ?DEALLOC_XSTACK8
   \   00006F   E9           MOV       A,R1
   \   000070   70B6         JNZ       ??zclProcessInDiscAttrs_1
   4904          
   4905            numAttrs = i;  // store range of attributes in buffer
   4906          
   4907              // Process message for either attributes or extended attributes
   4908            if( pInMsg->hdr.commandID == ZCL_CMD_DISCOVER_ATTRS )
   \                     ??zclProcessInDiscAttrs_2:
   \   000072   8E82         MOV       DPL,R6
   \   000074   8F83         MOV       DPH,R7
   \   000076   A3           INC       DPTR
   \   000077   A3           INC       DPTR
   \   000078   A3           INC       DPTR
   \   000079   A3           INC       DPTR
   \   00007A   A3           INC       DPTR
   \   00007B   A3           INC       DPTR
   \   00007C   A3           INC       DPTR
   \   00007D   E0           MOVX      A,@DPTR
   \   00007E   F8           MOV       R0,A
   \   00007F   740C         MOV       A,#0xc
   \   000081   68           XRL       A,R0
   \   000082   700F         JNZ       ??zclProcessInDiscAttrs_3
   4909            {
   4910              zclProcessInDiscAttrsCmd( pInMsg, pDiscoverCmd, numAttrs );
   \   000084                ; Setup parameters for call to function zclProcessInDiscAttrsCmd
   \   000084   A9..         MOV       R1,?V2
   \   000086   AC..         MOV       R4,?V0
   \   000088   AD..         MOV       R5,?V1
   \   00008A   EE           MOV       A,R6
   \   00008B   FA           MOV       R2,A
   \   00008C   EF           MOV       A,R7
   \   00008D   FB           MOV       R3,A
   \   00008E   12....       LCALL     `??zclProcessInDiscAttrsCmd::?relay`; Banked call to: zclProcessInDiscAttrsCmd
   \   000091   8012         SJMP      ??zclProcessInDiscAttrs_4
   4911            }
   4912            else if ( pInMsg->hdr.commandID == ZCL_CMD_DISCOVER_ATTRS_EXT )
   \                     ??zclProcessInDiscAttrs_3:
   \   000093   7415         MOV       A,#0x15
   \   000095   68           XRL       A,R0
   \   000096   700D         JNZ       ??zclProcessInDiscAttrs_4
   4913            {
   4914              zclProcessInDiscAttrsExtCmd( pInMsg, pDiscoverCmd, numAttrs );
   \   000098                ; Setup parameters for call to function zclProcessInDiscAttrsExtCmd
   \   000098   A9..         MOV       R1,?V2
   \   00009A   AC..         MOV       R4,?V0
   \   00009C   AD..         MOV       R5,?V1
   \   00009E   EE           MOV       A,R6
   \   00009F   FA           MOV       R2,A
   \   0000A0   EF           MOV       A,R7
   \   0000A1   FB           MOV       R3,A
   \   0000A2   12....       LCALL     `??zclProcessInDiscAttrsExtCmd::?relay`; Banked call to: zclProcessInDiscAttrsExtCmd
   4915            }
   4916          
   4917            return TRUE;
   \                     ??zclProcessInDiscAttrs_4:
   \   0000A5   7901         MOV       R1,#0x1
   \   0000A7   740A         MOV       A,#0xa
   \   0000A9   02....       LJMP      ?Subroutine8 & 0xFFFF
   4918          }

   \                                 In  segment BANKED_CODE, align 1, keep-with-next
   \                     ??Subroutine270_0:
   \   000000   12....       LCALL     ?Subroutine176 & 0xFFFF
   \                     ??CrossCallReturnLabel_650:
   \   000003   FC           MOV       R4,A
   \   000004   85..82       MOV       DPL,?V4
   \   000007   85..83       MOV       DPH,?V5
   \   00000A   12....       LCALL     ?Subroutine187 & 0xFFFF
   \                     ??CrossCallReturnLabel_672:
   \   00000D   E5..         MOV       A,?V4
   \   00000F   12....       LCALL     ?Subroutine201 & 0xFFFF
   \                     ??CrossCallReturnLabel_656:
   \   000012   35..         ADDC      A,?V5
   \   000014   F583         MOV       DPH,A
   \   000016   E0           MOVX      A,@DPTR
   \   000017   F9           MOV       R1,A
   \   000018   12....       LCALL     `??zclFindNextAttrRec::?relay`; Banked call to: zclFindNextAttrRec
   \   00001B   7404         MOV       A,#0x4
   \   00001D   22           RET

   \                                 In  segment BANKED_CODE, align 1, keep-with-next
   \                     ?Subroutine176:
   \   000000   12....       LCALL     ?Subroutine209 & 0xFFFF
   \                     ??CrossCallReturnLabel_659:
   \   000003   5401         ANL       A,#0x1
   \   000005   22           RET
   4919          
   4920          /*********************************************************************
   4921           * @fn      zclProcessInDiscAttrsCmd
   4922           *
   4923           * @brief   Process the Discover Attributes Command
   4924           *
   4925           * @param   pInMsg - incoming message to process
   4926           *
   4927           * @param   pDiscoverCmd - structure from requesting command
   4928           *
   4929           * @param   attrLenBuf - describes the amount of attributes to be processed
   4930           *
   4931           * @return  none
   4932           */

   \                                 In  segment BANKED_CODE, align 1, keep-with-next
   \                     ?Subroutine33:
   \   000000   75..00       MOV       ?V2,#0x0
   \   000003   85..82       MOV       DPL,?V4
   \   000006   85..83       MOV       DPH,?V5
   \   000009   12....       LCALL     ?Subroutine185 & 0xFFFF
   \                     ??CrossCallReturnLabel_538:
   \   00000C   85..82       MOV       DPL,?XSP + 0
   \   00000F   85..83       MOV       DPH,?XSP + 1
   \   000012                REQUIRE ??Subroutine236_0
   \   000012                ; // Fall through to label ??Subroutine236_0

   \                                 In  segment BANKED_CODE, align 1, keep-with-next
   \                     ?Subroutine6:
   \   000000   740A         MOV       A,#0xa
   \   000002                REQUIRE ??Subroutine257_0
   \   000002                ; // Fall through to label ??Subroutine257_0

   \                                 In  segment BANKED_CODE, align 1, keep-with-next
   4933          static void zclProcessInDiscAttrsCmd( zclIncoming_t *pInMsg, zclDiscoverAttrsCmd_t *pDiscoverCmd, uint8 numAttrs )
   \                     zclProcessInDiscAttrsCmd:
   4934          {
   \   000000                REQUIRE ?V0
   \   000000                REQUIRE ?V1
   \   000000                REQUIRE ?V2
   \   000000                REQUIRE ?V3
   \   000000                REQUIRE ?V4
   \   000000                REQUIRE ?V5
   \   000000                REQUIRE ?V6
   \   000000                REQUIRE ?V7
   \   000000                REQUIRE ?V8
   \   000000                REQUIRE ?V9
   \   000000                REQUIRE ?V10
   \   000000                REQUIRE ?V11
   \   000000   74EC         MOV       A,#-0x14
   \   000002   12....       LCALL     ?BANKED_ENTER_XDATA
   \   000005                ; Saved register size: 20
   \   000005                ; Auto size: 10
   \   000005   74F6         MOV       A,#-0xa
   \   000007   12....       LCALL     ?ALLOC_XSTACK8
   \   00000A   8A..         MOV       ?V6,R2
   \   00000C   8B..         MOV       ?V7,R3
   \   00000E   8C..         MOV       ?V4,R4
   \   000010   8D..         MOV       ?V5,R5
   \   000012   E9           MOV       A,R1
   \   000013   FE           MOV       R6,A
   4935            zclDiscoverAttrsRspCmd_t *pDiscoverRsp;
   4936            uint8 discComplete = TRUE;
   \   000014   7F01         MOV       R7,#0x1
   4937            zclAttrRec_t attrRec;
   4938            uint16 attrID;
   4939            uint8 i;
   4940          
   4941            // Allocate space for the response command
   4942            pDiscoverRsp = (zclDiscoverAttrsRspCmd_t *)zcl_mem_alloc( sizeof (zclDiscoverAttrsRspCmd_t)
   4943                                                                    + sizeof ( zclDiscoverAttrInfo_t ) * numAttrs );
   \   000016                ; Setup parameters for call to function osal_mem_alloc
   \   000016   75F003       MOV       B,#0x3
   \   000019   A4           MUL       AB
   \   00001A   A9F0         MOV       R1,B
   \   00001C   12....       LCALL     ?Subroutine194 & 0xFFFF
   \                     ??CrossCallReturnLabel_326:
   \   00001F   39           ADDC      A,R1
   \   000020   12....       LCALL     ??Subroutine267_0 & 0xFFFF
   4944            if ( pDiscoverRsp == NULL )
   \                     ??CrossCallReturnLabel_636:
   \   000023   7003         JNZ       $+5
   \   000025   02....       LJMP      ??zclProcessInDiscAttrsCmd_0 & 0xFFFF
   4945            {
   4946              return; // EMBEDDED RETURN
   4947            }
   4948          
   4949            if ( numAttrs != 0 )
   \   000028   12....       LCALL     ?Subroutine144 & 0xFFFF
   \                     ??CrossCallReturnLabel_245:
   \   00002B   6077         JZ        ??zclProcessInDiscAttrsCmd_1
   4950            {
   4951              for ( i = 0, attrID = pDiscoverCmd->startAttr; i < numAttrs; i++, attrID++ )
   \   00002D   12....       LCALL     ?Subroutine33 & 0xFFFF
   4952              {
   4953                if ( !zclFindNextAttrRec( pInMsg->msg->endPoint, pInMsg->msg->clusterId, pInMsg->hdr.fc.direction, &attrID, &attrRec ) )
   \                     ??CrossCallReturnLabel_480:
   \   000030   12....       LCALL     ?Subroutine113 & 0xFFFF
   \                     ??CrossCallReturnLabel_187:
   \   000033   12....       LCALL     ?XSTACK_DISP100_8
   \   000036   88..         MOV       ?V10,R0
   \   000038   89..         MOV       ?V11,R1
   \   00003A   78..         MOV       R0,#?V10
   \   00003C   12....       LCALL     ?PUSH_XSTACK_I_TWO
   \   00003F   7402         MOV       A,#0x2
   \   000041   12....       LCALL     ?XSTACK_DISP100_8
   \   000044   88..         MOV       ?V10,R0
   \   000046   89..         MOV       ?V11,R1
   \   000048   78..         MOV       R0,#?V10
   \   00004A   12....       LCALL     ?PUSH_XSTACK_I_TWO
   \   00004D   12....       LCALL     ?Subroutine48 & 0xFFFF
   \                     ??CrossCallReturnLabel_645:
   \   000050   12....       LCALL     ?DEALLOC_XSTACK8
   \   000053   E9           MOV       A,R1
   \   000054   6026         JZ        ??zclProcessInDiscAttrsCmd_2
   4954                {
   4955                  break; // should not happen, as numAttrs already calculated
   4956                }
   4957          
   4958                pDiscoverRsp->attrList[i].attrID = attrRec.attr.attrId;
   \   000056   E5..         MOV       A,?V2
   \   000058   75F003       MOV       B,#0x3
   \   00005B   A4           MUL       AB
   \   00005C   F8           MOV       R0,A
   \   00005D   A9F0         MOV       R1,B
   \   00005F   E5..         MOV       A,?V0
   \   000061   28           ADD       A,R0
   \   000062   F8           MOV       R0,A
   \   000063   E5..         MOV       A,?V1
   \   000065   39           ADDC      A,R1
   \   000066   F9           MOV       R1,A
   \   000067   7404         MOV       A,#0x4
   \   000069   12....       LCALL     ?XSTACK_DISP0_8
   \   00006C   12....       LCALL     ?Subroutine43 & 0xFFFF
   4959                pDiscoverRsp->attrList[i].dataType = attrRec.attr.dataType;
   \                     ??CrossCallReturnLabel_703:
   \   00006F   7406         MOV       A,#0x6
   \   000071   12....       LCALL     ?XSTACK_DISP0_8
   \   000074   12....       LCALL     ?Subroutine116 & 0xFFFF
   4960              }
   \                     ??CrossCallReturnLabel_198:
   \   000077   12....       LCALL     ?Subroutine19 & 0xFFFF
   \                     ??CrossCallReturnLabel_11:
   \   00007A   40B4         JC        ??CrossCallReturnLabel_480
   4961          
   4962              // Are there more attributes to be discovered?
   4963              if ( zclFindNextAttrRec( pInMsg->msg->endPoint, pInMsg->msg->clusterId, pInMsg->hdr.fc.direction, &attrID, &attrRec ) )
   \                     ??zclProcessInDiscAttrsCmd_2:
   \   00007C   12....       LCALL     ?Subroutine117 & 0xFFFF
   \                     ??CrossCallReturnLabel_199:
   \   00007F   12....       LCALL     ?XSTACK_DISP100_8
   \   000082   88..         MOV       ?V4,R0
   \   000084   89..         MOV       ?V5,R1
   \   000086   78..         MOV       R0,#?V4
   \   000088   12....       LCALL     ?PUSH_XSTACK_I_TWO
   \   00008B   7402         MOV       A,#0x2
   \   00008D   12....       LCALL     ?XSTACK_DISP100_8
   \   000090   88..         MOV       ?V4,R0
   \   000092   89..         MOV       ?V5,R1
   \   000094   78..         MOV       R0,#?V4
   \   000096   12....       LCALL     ?PUSH_XSTACK_I_TWO
   \   000099   12....       LCALL     ?Subroutine52 & 0xFFFF
   \                     ??CrossCallReturnLabel_64:
   \   00009C   12....       LCALL     ?DEALLOC_XSTACK8
   \   00009F   E9           MOV       A,R1
   \   0000A0   6002         JZ        ??zclProcessInDiscAttrsCmd_1
   4964              {
   4965                discComplete = FALSE;
   \   0000A2   7F00         MOV       R7,#0x0
   4966              }
   4967            }
   4968          
   4969            pDiscoverRsp->discComplete = discComplete;
   \                     ??zclProcessInDiscAttrsCmd_1:
   \   0000A4   12....       LCALL     ?Subroutine16 & 0xFFFF
   4970            pDiscoverRsp->numAttr = numAttrs;
   4971          
   4972            zcl_SendDiscoverAttrsRspCmd( pInMsg->msg->endPoint, &pInMsg->msg->srcAddr,
   4973                                         pInMsg->msg->clusterId, pDiscoverRsp, !(pInMsg->hdr.fc.direction),
   4974                                         true, pInMsg->hdr.transSeqNum );
   \                     ??CrossCallReturnLabel_4:
   \   0000A7   12....       LCALL     ?PUSH_XSTACK_I_ONE
   \   0000AA   75..01       MOV       ?V4,#0x1
   \   0000AD   78..         MOV       R0,#?V4
   \   0000AF   12....       LCALL     ?PUSH_XSTACK_I_ONE
   \   0000B2   12....       LCALL     ?Subroutine58 & 0xFFFF
   \                     ??CrossCallReturnLabel_641:
   \   0000B5   12....       LCALL     ?PUSH_XSTACK_I_ONE
   \   0000B8   78..         MOV       R0,#?V0
   \   0000BA   12....       LCALL     ?PUSH_XSTACK_I_TWO
   \   0000BD   12....       LCALL     ?Subroutine56 & 0xFFFF
   \                     ??CrossCallReturnLabel_70:
   \   0000C0   12....       LCALL     `??zcl_SendDiscoverAttrsRspCmd::?relay`; Banked call to: zcl_SendDiscoverAttrsRspCmd
   \   0000C3   7405         MOV       A,#0x5
   \   0000C5   12....       LCALL     ?DEALLOC_XSTACK8
   4975            zcl_mem_free( pDiscoverRsp );
   \   0000C8                ; Setup parameters for call to function osal_mem_free
   \   0000C8   AA..         MOV       R2,?V0
   \   0000CA   AB..         MOV       R3,?V1
   \   0000CC   12....       LCALL     `??osal_mem_free::?relay`; Banked call to: osal_mem_free
   4976          
   4977            return;
   \                     ??zclProcessInDiscAttrsCmd_0:
   \   0000CF   02....       LJMP      ?Subroutine6 & 0xFFFF
   4978          }

   \                                 In  segment BANKED_CODE, align 1, keep-with-next
   \                     ?Subroutine58:
   \   000000   85..82       MOV       DPL,?V8
   \   000003   85..83       MOV       DPH,?V9
   \   000006                REQUIRE ??Subroutine269_0
   \   000006                ; // Fall through to label ??Subroutine269_0

   \                                 In  segment BANKED_CODE, align 1, keep-with-next
   \                     ?Subroutine48:
   \   000000   85..82       MOV       DPL,?V8
   \   000003   85..83       MOV       DPH,?V9
   \   000006                REQUIRE ??Subroutine270_0
   \   000006                ; // Fall through to label ??Subroutine270_0

   \                                 In  segment BANKED_CODE, align 1, keep-with-next
   \                     ?Subroutine144:
   \   000000   E5..         MOV       A,?V6
   \   000002   2402         ADD       A,#0x2
   \   000004   F5..         MOV       ?V8,A
   \   000006   E4           CLR       A
   \   000007   35..         ADDC      A,?V7
   \   000009   F5..         MOV       ?V9,A
   \   00000B   EE           MOV       A,R6
   \   00000C   22           RET

   \                                 In  segment BANKED_CODE, align 1, keep-with-next
   \                     ?Subroutine117:
   \   000000   12....       LCALL     ?Subroutine173 & 0xFFFF
   \                     ??CrossCallReturnLabel_676:
   \   000003                ; Setup parameters for call to function zclFindNextAttrRec
   \   000003                ; Setup parameters for call to function zclFindNextAttrRec
   \   000003   7402         MOV       A,#0x2
   \   000005   22           RET

   \                                 In  segment BANKED_CODE, align 1, keep-with-next
   \                     ?Subroutine173:
   \   000000   85..82       MOV       DPL,?V6
   \   000003   85..83       MOV       DPH,?V7
   \   000006                REQUIRE ??Subroutine271_0
   \   000006                ; // Fall through to label ??Subroutine271_0

   \                                 In  segment BANKED_CODE, align 1, keep-with-next
   \                     ?Subroutine113:
   \   000000   85..82       MOV       DPL,?V6
   \   000003   85..83       MOV       DPH,?V7
   \   000006   12....       LCALL     ?Subroutine180 & 0xFFFF
   \                     ??CrossCallReturnLabel_307:
   \   000009                ; Setup parameters for call to function zclFindNextAttrRec
   \   000009                ; Setup parameters for call to function zclFindNextAttrRec
   \   000009   7402         MOV       A,#0x2
   \   00000B   22           RET

   \                                 In  segment BANKED_CODE, align 1, keep-with-next
   \                     ?Subroutine56:
   \   000000   85..82       MOV       DPL,?V2
   \   000003   85..83       MOV       DPH,?V3
   \   000006   12....       LCALL     ?Subroutine172 & 0xFFFF
   \                     ??CrossCallReturnLabel_621:
   \   000009   E5..         MOV       A,?V2
   \   00000B   12....       LCALL     ??Subroutine272_0 & 0xFFFF
   \                     ??CrossCallReturnLabel_682:
   \   00000E   35..         ADDC      A,?V3
   \   000010   FB           MOV       R3,A
   \   000011   E5..         MOV       A,?V2
   \   000013   12....       LCALL     ?Subroutine201 & 0xFFFF
   \                     ??CrossCallReturnLabel_652:
   \   000016   35..         ADDC      A,?V3
   \   000018   F583         MOV       DPH,A
   \   00001A   E0           MOVX      A,@DPTR
   \   00001B   F9           MOV       R1,A
   \   00001C   22           RET

   \                                 In  segment BANKED_CODE, align 1, keep-with-next
   \                     ?Subroutine52:
   \   000000   85..82       MOV       DPL,?V8
   \   000003   85..83       MOV       DPH,?V9
   \   000006   12....       LCALL     ?Subroutine176 & 0xFFFF
   \                     ??CrossCallReturnLabel_649:
   \   000009   12....       LCALL     ?Subroutine171 & 0xFFFF
   \                     ??CrossCallReturnLabel_297:
   \   00000C   12....       LCALL     `??zclFindNextAttrRec::?relay`; Banked call to: zclFindNextAttrRec
   \   00000F   7404         MOV       A,#0x4
   \   000011   22           RET

   \                                 In  segment BANKED_CODE, align 1, keep-with-next
   \                     ?Subroutine19:
   \   000000   A3           INC       DPTR
   \   000001   A3           INC       DPTR
   \   000002   A3           INC       DPTR
   \   000003   A3           INC       DPTR
   \   000004   F0           MOVX      @DPTR,A
   \   000005   05..         INC       ?V2
   \   000007   85..82       MOV       DPL,?XSP + 0
   \   00000A   85..83       MOV       DPH,?XSP + 1
   \   00000D   E0           MOVX      A,@DPTR
   \   00000E   2F           ADD       A,R7
   \   00000F   F0           MOVX      @DPTR,A
   \   000010   A3           INC       DPTR
   \   000011   E0           MOVX      A,@DPTR
   \   000012   3400         ADDC      A,#0x0
   \   000014   F0           MOVX      @DPTR,A
   \   000015   E5..         MOV       A,?V2
   \   000017   C3           CLR       C
   \   000018   9E           SUBB      A,R6
   \   000019   22           RET

   \                                 In  segment BANKED_CODE, align 1, keep-with-next
   \                     ?Subroutine16:
   \   000000   EF           MOV       A,R7
   \   000001   85..82       MOV       DPL,?V0
   \   000004   85..83       MOV       DPH,?V1
   \   000007   F0           MOVX      @DPTR,A
   \   000008   EE           MOV       A,R6
   \   000009   A3           INC       DPTR
   \   00000A   F0           MOVX      @DPTR,A
   \   00000B   12....       LCALL     ?Subroutine173 & 0xFFFF
   \                     ??CrossCallReturnLabel_675:
   \   00000E                ; Setup parameters for call to function zcl_SendDiscoverAttrsRspCmd
   \   00000E                ; Setup parameters for call to function zcl_SendDiscoverAttrsExtRsp
   \   00000E   85..82       MOV       DPL,?V6
   \   000011   85..83       MOV       DPH,?V7
   \   000014   A3           INC       DPTR
   \   000015   A3           INC       DPTR
   \   000016   A3           INC       DPTR
   \   000017   A3           INC       DPTR
   \   000018   A3           INC       DPTR
   \   000019   A3           INC       DPTR
   \   00001A   E0           MOVX      A,@DPTR
   \   00001B   F5..         MOV       ?V4,A
   \   00001D   78..         MOV       R0,#?V4
   \   00001F   22           RET

   \                                 In  segment BANKED_CODE, align 1, keep-with-next
   \                     ?Subroutine171:
   \   000000   FC           MOV       R4,A
   \   000001   85..82       MOV       DPL,?V2
   \   000004   85..83       MOV       DPH,?V3
   \   000007   A3           INC       DPTR
   \   000008   A3           INC       DPTR
   \   000009   A3           INC       DPTR
   \   00000A   A3           INC       DPTR
   \   00000B   E0           MOVX      A,@DPTR
   \   00000C   FA           MOV       R2,A
   \   00000D   A3           INC       DPTR
   \   00000E   E0           MOVX      A,@DPTR
   \   00000F   FB           MOV       R3,A
   \   000010   E5..         MOV       A,?V2
   \   000012   12....       LCALL     ?Subroutine211 & 0xFFFF
   \                     ??CrossCallReturnLabel_660:
   \   000015   35..         ADDC      A,?V3
   \   000017   F583         MOV       DPH,A
   \   000019   E0           MOVX      A,@DPTR
   \   00001A   F9           MOV       R1,A
   \   00001B   22           RET
   4979          
   4980          /*********************************************************************
   4981           * @fn      zclProcessInDiscAttrsExtCmd
   4982           *
   4983           * @brief   Process the Discover Attributes Extended Command
   4984           *
   4985           * @param   pInMsg - incoming message to process
   4986           *
   4987           * @param   pDiscoverCmd - structure from requesting command
   4988           *
   4989           * @param   attrLenBuf - describes the amount of attributes to be processed
   4990           *
   4991           * @return  none
   4992           */

   \                                 In  segment BANKED_CODE, align 1, keep-with-next
   4993          static void zclProcessInDiscAttrsExtCmd( zclIncoming_t *pInMsg, zclDiscoverAttrsCmd_t *pDiscoverCmd, uint8 numAttrs )
   \                     zclProcessInDiscAttrsExtCmd:
   4994          {
   \   000000                REQUIRE ?V0
   \   000000                REQUIRE ?V1
   \   000000                REQUIRE ?V2
   \   000000                REQUIRE ?V3
   \   000000                REQUIRE ?V4
   \   000000                REQUIRE ?V5
   \   000000                REQUIRE ?V6
   \   000000                REQUIRE ?V7
   \   000000                REQUIRE ?V8
   \   000000                REQUIRE ?V9
   \   000000                REQUIRE ?V10
   \   000000                REQUIRE ?V11
   \   000000   74EC         MOV       A,#-0x14
   \   000002   12....       LCALL     ?BANKED_ENTER_XDATA
   \   000005                ; Saved register size: 20
   \   000005                ; Auto size: 10
   \   000005   74F6         MOV       A,#-0xa
   \   000007   12....       LCALL     ?ALLOC_XSTACK8
   \   00000A   8A..         MOV       ?V6,R2
   \   00000C   8B..         MOV       ?V7,R3
   \   00000E   8C..         MOV       ?V4,R4
   \   000010   8D..         MOV       ?V5,R5
   \   000012   E9           MOV       A,R1
   \   000013   FE           MOV       R6,A
   4995            zclDiscoverAttrsExtRsp_t *pDiscoverExtRsp;
   4996            uint8 discComplete = TRUE;
   \   000014   7F01         MOV       R7,#0x1
   4997            zclAttrRec_t attrRec;
   4998            uint16 attrID;
   4999            uint8 i;
   5000          
   5001              // Allocate space for the response command
   5002            pDiscoverExtRsp = (zclDiscoverAttrsExtRsp_t *)zcl_mem_alloc( sizeof (zclDiscoverAttrsExtRsp_t)
   5003                                                                   + sizeof ( zclExtAttrInfo_t ) * numAttrs );
   \   000016                ; Setup parameters for call to function osal_mem_alloc
   \   000016   F5..         MOV       ?V0,A
   \   000018   75..00       MOV       ?V1,#0x0
   \   00001B   7402         MOV       A,#0x2
   \   00001D   78..         MOV       R0,#?V0
   \   00001F   12....       LCALL     ?S_SHL
   \   000022   E5..         MOV       A,?V0
   \   000024   12....       LCALL     ?Subroutine194 & 0xFFFF
   \                     ??CrossCallReturnLabel_327:
   \   000027   35..         ADDC      A,?V1
   \   000029   12....       LCALL     ??Subroutine267_0 & 0xFFFF
   5004            if ( pDiscoverExtRsp == NULL )
   \                     ??CrossCallReturnLabel_637:
   \   00002C   7003         JNZ       $+5
   \   00002E   02....       LJMP      ??zclProcessInDiscAttrsExtCmd_0 & 0xFFFF
   5005            {
   5006              return; // EMBEDDED RETURN
   5007            }
   5008          
   5009          
   5010            if ( numAttrs != 0 )
   \   000031   12....       LCALL     ?Subroutine144 & 0xFFFF
   \                     ??CrossCallReturnLabel_246:
   \   000034   7003         JNZ       $+5
   \   000036   02....       LJMP      ??zclProcessInDiscAttrsExtCmd_1 & 0xFFFF
   5011            {
   5012              for ( i = 0, attrID = pDiscoverCmd->startAttr; i < numAttrs; i++, attrID++ )
   \   000039   12....       LCALL     ?Subroutine33 & 0xFFFF
   5013              {
   5014                if ( !zclFindNextAttrRec( pInMsg->msg->endPoint, pInMsg->msg->clusterId, pInMsg->hdr.fc.direction, &attrID, &attrRec ) )
   \                     ??CrossCallReturnLabel_481:
   \   00003C   12....       LCALL     ?Subroutine113 & 0xFFFF
   \                     ??CrossCallReturnLabel_188:
   \   00003F   12....       LCALL     ?XSTACK_DISP100_8
   \   000042   88..         MOV       ?V10,R0
   \   000044   89..         MOV       ?V11,R1
   \   000046   78..         MOV       R0,#?V10
   \   000048   12....       LCALL     ?PUSH_XSTACK_I_TWO
   \   00004B   7402         MOV       A,#0x2
   \   00004D   12....       LCALL     ?XSTACK_DISP100_8
   \   000050   88..         MOV       ?V10,R0
   \   000052   89..         MOV       ?V11,R1
   \   000054   78..         MOV       R0,#?V10
   \   000056   12....       LCALL     ?PUSH_XSTACK_I_TWO
   \   000059   12....       LCALL     ?Subroutine48 & 0xFFFF
   \                     ??CrossCallReturnLabel_646:
   \   00005C   12....       LCALL     ?DEALLOC_XSTACK8
   \   00005F   E9           MOV       A,R1
   \   000060   603B         JZ        ??zclProcessInDiscAttrsExtCmd_2
   5015                {
   5016                  break; // Should not happen, as numAttrs already calculated
   5017                }
   5018          
   5019                pDiscoverExtRsp->aExtAttrInfo[i].attrID = attrRec.attr.attrId;
   \   000062   E5..         MOV       A,?V2
   \   000064   F5..         MOV       ?V4,A
   \   000066   75..00       MOV       ?V5,#0x0
   \   000069   7402         MOV       A,#0x2
   \   00006B   78..         MOV       R0,#?V4
   \   00006D   12....       LCALL     ?S_SHL
   \   000070   E5..         MOV       A,?V0
   \   000072   25..         ADD       A,?V4
   \   000074   F8           MOV       R0,A
   \   000075   E5..         MOV       A,?V1
   \   000077   35..         ADDC      A,?V5
   \   000079   F9           MOV       R1,A
   \   00007A   7404         MOV       A,#0x4
   \   00007C   12....       LCALL     ?XSTACK_DISP0_8
   \   00007F   12....       LCALL     ?Subroutine43 & 0xFFFF
   5020                pDiscoverExtRsp->aExtAttrInfo[i].attrDataType = attrRec.attr.dataType;
   \                     ??CrossCallReturnLabel_704:
   \   000082   7406         MOV       A,#0x6
   \   000084   12....       LCALL     ?XSTACK_DISP0_8
   \   000087   12....       LCALL     ?Subroutine115 & 0xFFFF
   \                     ??CrossCallReturnLabel_194:
   \   00008A   F0           MOVX      @DPTR,A
   5021                pDiscoverExtRsp->aExtAttrInfo[i].attrAccessControl = attrRec.attr.accessControl & ACCESS_CONTROLEXT_MASK;
   \   00008B   7407         MOV       A,#0x7
   \   00008D   12....       LCALL     ?XSTACK_DISP0_8
   \   000090   E0           MOVX      A,@DPTR
   \   000091   5407         ANL       A,#0x7
   \   000093   8882         MOV       DPL,R0
   \   000095   8983         MOV       DPH,R1
   \   000097   A3           INC       DPTR
   \   000098   12....       LCALL     ?Subroutine19 & 0xFFFF
   5022              }
   \                     ??CrossCallReturnLabel_12:
   \   00009B   409F         JC        ??CrossCallReturnLabel_481
   5023          
   5024              // Are there more attributes to be discovered?
   5025              if ( zclFindNextAttrRec( pInMsg->msg->endPoint, pInMsg->msg->clusterId, pInMsg->hdr.fc.direction, &attrID, &attrRec ) )
   \                     ??zclProcessInDiscAttrsExtCmd_2:
   \   00009D   12....       LCALL     ?Subroutine117 & 0xFFFF
   \                     ??CrossCallReturnLabel_200:
   \   0000A0   12....       LCALL     ?XSTACK_DISP100_8
   \   0000A3   88..         MOV       ?V4,R0
   \   0000A5   89..         MOV       ?V5,R1
   \   0000A7   78..         MOV       R0,#?V4
   \   0000A9   12....       LCALL     ?PUSH_XSTACK_I_TWO
   \   0000AC   7402         MOV       A,#0x2
   \   0000AE   12....       LCALL     ?XSTACK_DISP100_8
   \   0000B1   88..         MOV       ?V4,R0
   \   0000B3   89..         MOV       ?V5,R1
   \   0000B5   78..         MOV       R0,#?V4
   \   0000B7   12....       LCALL     ?PUSH_XSTACK_I_TWO
   \   0000BA   12....       LCALL     ?Subroutine52 & 0xFFFF
   \                     ??CrossCallReturnLabel_65:
   \   0000BD   12....       LCALL     ?DEALLOC_XSTACK8
   \   0000C0   E9           MOV       A,R1
   \   0000C1   6002         JZ        ??zclProcessInDiscAttrsExtCmd_1
   5026              {
   5027                discComplete = FALSE;
   \   0000C3   7F00         MOV       R7,#0x0
   5028              }
   5029            }
   5030          
   5031            pDiscoverExtRsp->discComplete = discComplete;
   \                     ??zclProcessInDiscAttrsExtCmd_1:
   \   0000C5   12....       LCALL     ?Subroutine16 & 0xFFFF
   5032            pDiscoverExtRsp->numAttr = numAttrs;
   5033          
   5034            zcl_SendDiscoverAttrsExtRsp( pInMsg->msg->endPoint, &pInMsg->msg->srcAddr,
   5035                                         pInMsg->msg->clusterId, pDiscoverExtRsp, !(pInMsg->hdr.fc.direction),
   5036                                         true, pInMsg->hdr.transSeqNum );
   \                     ??CrossCallReturnLabel_5:
   \   0000C8   12....       LCALL     ?PUSH_XSTACK_I_ONE
   \   0000CB   75..01       MOV       ?V4,#0x1
   \   0000CE   78..         MOV       R0,#?V4
   \   0000D0   12....       LCALL     ?PUSH_XSTACK_I_ONE
   \   0000D3   12....       LCALL     ?Subroutine58 & 0xFFFF
   \                     ??CrossCallReturnLabel_642:
   \   0000D6   12....       LCALL     ?PUSH_XSTACK_I_ONE
   \   0000D9   78..         MOV       R0,#?V0
   \   0000DB   12....       LCALL     ?PUSH_XSTACK_I_TWO
   \   0000DE   12....       LCALL     ?Subroutine56 & 0xFFFF
   \                     ??CrossCallReturnLabel_71:
   \   0000E1   12....       LCALL     `??zcl_SendDiscoverAttrsExtRsp::?relay`; Banked call to: zcl_SendDiscoverAttrsExtRsp
   \   0000E4   7405         MOV       A,#0x5
   \   0000E6   12....       LCALL     ?DEALLOC_XSTACK8
   5037          
   5038            zcl_mem_free( pDiscoverExtRsp );
   \   0000E9                ; Setup parameters for call to function osal_mem_free
   \   0000E9   AA..         MOV       R2,?V0
   \   0000EB   AB..         MOV       R3,?V1
   \   0000ED   12....       LCALL     `??osal_mem_free::?relay`; Banked call to: osal_mem_free
   5039          
   5040            return;
   \                     ??zclProcessInDiscAttrsExtCmd_0:
   \   0000F0   02....       LJMP      ?Subroutine6 & 0xFFFF
   5041          }
   5042          
   5043          /*********************************************************************
   5044           * @fn      zclProcessInDiscCmd
   5045           *
   5046           * @brief   Process the "Profile" Discover Command
   5047           *
   5048           * @param   pInMsg - incoming message to process
   5049           *
   5050           * @return  TRUE if command processed. FALSE, otherwise.
   5051           */

   \                                 In  segment BANKED_CODE, align 1, keep-with-next
   5052          static uint8 zclProcessInDiscCmd( zclIncoming_t *pInMsg )
   \                     zclProcessInDiscCmd:
   5053          {
   \   000000                REQUIRE ?V0
   \   000000                REQUIRE ?V1
   \   000000                REQUIRE ?V2
   \   000000                REQUIRE ?V3
   \   000000                REQUIRE ?V4
   \   000000                REQUIRE ?V5
   \   000000                REQUIRE ?V6
   \   000000                REQUIRE ?V7
   \   000000                REQUIRE ?V8
   \   000000                REQUIRE ?V9
   \   000000                REQUIRE ?V10
   \   000000                REQUIRE ?V11
   \   000000   74EC         MOV       A,#-0x14
   \   000002   12....       LCALL     ?BANKED_ENTER_XDATA
   \   000005                ; Saved register size: 20
   \   000005                ; Auto size: 10
   \   000005   74F6         MOV       A,#-0xa
   \   000007   12....       LCALL     ?ALLOC_XSTACK8
   \   00000A   12....       LCALL     ?Subroutine145 & 0xFFFF
   5054            zclDiscoverCmdsCmd_t *pDiscoverCmd;
   5055            zclDiscoverCmdsCmdRsp_t cmdRsp;
   5056            ZStatus_t status;
   5057            zclCommandRec_t cmdRec;
   5058            uint8 cmdID;
   5059            uint8 i;
   5060            uint8 j;
   5061          
   5062            pDiscoverCmd = (zclDiscoverCmdsCmd_t *)pInMsg->attrCmd;
   \                     ??CrossCallReturnLabel_248:
   \   00000D   12....       LCALL     ?Subroutine114 & 0xFFFF
   5063          
   5064            // Find out the number of commands supported within the specified range
   5065            for ( i = 0, cmdID = pDiscoverCmd->startCmdID; i < pDiscoverCmd->maxCmdID; i++, cmdID++ )
   \                     ??CrossCallReturnLabel_192:
   \   000010   75..00       MOV       ?V0,#0x0
   \   000013   85..82       MOV       DPL,?V4
   \   000016   F583         MOV       DPH,A
   \   000018   12....       LCALL     ?Subroutine126 & 0xFFFF
   \                     ??CrossCallReturnLabel_220:
   \   00001B   EA           MOV       A,R2
   \   00001C   2407         ADD       A,#0x7
   \   00001E   F5..         MOV       ?V8,A
   \   000020   E4           CLR       A
   \   000021   3F           ADDC      A,R7
   \   000022   F5..         MOV       ?V9,A
   \   000024   EA           MOV       A,R2
   \   000025   2402         ADD       A,#0x2
   \   000027   F5..         MOV       ?V6,A
   \   000029   E4           CLR       A
   \   00002A   3F           ADDC      A,R7
   \   00002B   F5..         MOV       ?V7,A
   \   00002D   800B         SJMP      ??zclProcessInDiscCmd_0
   \                     ??zclProcessInDiscCmd_1:
   \   00002F   05..         INC       ?V0
   \   000031   85..82       MOV       DPL,?XSP + 0
   \   000034   85..83       MOV       DPH,?XSP + 1
   \   000037   E0           MOVX      A,@DPTR
   \   000038   04           INC       A
   \   000039   F0           MOVX      @DPTR,A
   \                     ??zclProcessInDiscCmd_0:
   \   00003A   85..82       MOV       DPL,?V4
   \   00003D   85..83       MOV       DPH,?V5
   \   000040   A3           INC       DPTR
   \   000041   12....       LCALL     ??Subroutine273_0 & 0xFFFF
   \                     ??CrossCallReturnLabel_686:
   \   000044   5026         JNC       ??zclProcessInDiscCmd_2
   5066            {
   5067              if ( !zclFindNextCmdRec( pInMsg->msg->endPoint, pInMsg->msg->clusterId, pInMsg->hdr.commandID, pInMsg->hdr.fc.direction, &cmdID, &cmdRec ) )
   \   000046   12....       LCALL     ?Subroutine76 & 0xFFFF
   5068              {
   5069                break;  // Command not supported
   5070              }
   5071            }
   \                     ??CrossCallReturnLabel_125:
   \   000049   12....       LCALL     ?XSTACK_DISP100_8
   \   00004C   88..         MOV       ?V10,R0
   \   00004E   89..         MOV       ?V11,R1
   \   000050   78..         MOV       R0,#?V10
   \   000052   12....       LCALL     ?PUSH_XSTACK_I_TWO
   \   000055   7402         MOV       A,#0x2
   \   000057   12....       LCALL     ?XSTACK_DISP100_8
   \   00005A   88..         MOV       ?V10,R0
   \   00005C   89..         MOV       ?V11,R1
   \   00005E   78..         MOV       R0,#?V10
   \   000060   12....       LCALL     ?PUSH_XSTACK_I_TWO
   \   000063   12....       LCALL     ?Subroutine47 & 0xFFFF
   \                     ??CrossCallReturnLabel_61:
   \   000066   12....       LCALL     ?DEALLOC_XSTACK8
   \   000069   E9           MOV       A,R1
   \   00006A   70C3         JNZ       ??zclProcessInDiscCmd_1
   5072          
   5073            // Allocate space for the response command
   5074            cmdRsp.pCmdID = zcl_mem_alloc( i ); // size of number of commands returned
   \                     ??zclProcessInDiscCmd_2:
   \   00006C                ; Setup parameters for call to function osal_mem_alloc
   \   00006C   AA..         MOV       R2,?V0
   \   00006E   7B00         MOV       R3,#0x0
   \   000070   12....       LCALL     `??osal_mem_alloc::?relay`; Banked call to: osal_mem_alloc
   \   000073   8B..         MOV       ?V3,R3
   \   000075   A9..         MOV       R1,?V3
   \   000077   7404         MOV       A,#0x4
   \   000079   12....       LCALL     ?XSTACK_DISP0_8
   \   00007C   12....       LCALL     ??Subroutine275_0 & 0xFFFF
   5075          
   5076            if ( cmdRsp.pCmdID == NULL )
   \                     ??CrossCallReturnLabel_699:
   \   00007F   EA           MOV       A,R2
   \   000080   49           ORL       A,R1
   \   000081   7003         JNZ       $+5
   \   000083   02....       LJMP      ??zclProcessInDiscCmd_3 & 0xFFFF
   5077            {
   5078              return FALSE; // EMBEDDED RETURN
   5079            }
   5080          
   5081            if ( i != 0 )
   \   000086   E5..         MOV       A,?V0
   \   000088   6061         JZ        ??zclProcessInDiscCmd_4
   5082            {
   5083              for ( j = 0, cmdID = pDiscoverCmd->startCmdID; j < i; j++, cmdID++ )
   \   00008A   75..00       MOV       ?V1,#0x0
   \   00008D   85..82       MOV       DPL,?V4
   \   000090   85..83       MOV       DPH,?V5
   \   000093   12....       LCALL     ?Subroutine126 & 0xFFFF
   5084              {
   5085                if ( !zclFindNextCmdRec( pInMsg->msg->endPoint, pInMsg->msg->clusterId, pInMsg->hdr.commandID, pInMsg->hdr.fc.direction, &cmdID, &cmdRec ) )
   \                     ??CrossCallReturnLabel_221:
   \   000096   12....       LCALL     ?Subroutine76 & 0xFFFF
   \                     ??CrossCallReturnLabel_126:
   \   000099   12....       LCALL     ?XSTACK_DISP100_8
   \   00009C   88..         MOV       ?V4,R0
   \   00009E   89..         MOV       ?V5,R1
   \   0000A0   78..         MOV       R0,#?V4
   \   0000A2   12....       LCALL     ?PUSH_XSTACK_I_TWO
   \   0000A5   7402         MOV       A,#0x2
   \   0000A7   12....       LCALL     ?XSTACK_DISP100_8
   \   0000AA   88..         MOV       ?V4,R0
   \   0000AC   89..         MOV       ?V5,R1
   \   0000AE   78..         MOV       R0,#?V4
   \   0000B0   12....       LCALL     ?PUSH_XSTACK_I_TWO
   \   0000B3   12....       LCALL     ?Subroutine47 & 0xFFFF
   \                     ??CrossCallReturnLabel_62:
   \   0000B6   12....       LCALL     ?DEALLOC_XSTACK8
   \   0000B9   E9           MOV       A,R1
   \   0000BA   602F         JZ        ??zclProcessInDiscCmd_4
   5086                {
   5087                  break; // Attribute not supported
   5088                }
   5089          
   5090                cmdRsp.pCmdID[j] = cmdRec.cmdID;
   \   0000BC   7408         MOV       A,#0x8
   \   0000BE   12....       LCALL     ?XSTACK_DISP0_8
   \   0000C1   E0           MOVX      A,@DPTR
   \   0000C2   C0E0         PUSH      A
   \   0000C4   A8..         MOV       R0,?V1
   \   0000C6   7404         MOV       A,#0x4
   \   0000C8   12....       LCALL     ?XSTACK_DISP0_8
   \   0000CB   E0           MOVX      A,@DPTR
   \   0000CC   28           ADD       A,R0
   \   0000CD   FA           MOV       R2,A
   \   0000CE   A3           INC       DPTR
   \   0000CF   E0           MOVX      A,@DPTR
   \   0000D0   3400         ADDC      A,#0x0
   \   0000D2   8A82         MOV       DPL,R2
   \   0000D4   F583         MOV       DPH,A
   \   0000D6   D0E0         POP       A
   \   0000D8   F0           MOVX      @DPTR,A
   5091              }
   \   0000D9   05..         INC       ?V1
   \   0000DB   85..82       MOV       DPL,?XSP + 0
   \   0000DE   85..83       MOV       DPH,?XSP + 1
   \   0000E1   E0           MOVX      A,@DPTR
   \   0000E2   04           INC       A
   \   0000E3   F0           MOVX      @DPTR,A
   \   0000E4   E5..         MOV       A,?V1
   \   0000E6   C3           CLR       C
   \   0000E7   95..         SUBB      A,?V0
   \   0000E9   40AB         JC        ??CrossCallReturnLabel_221
   5092            }
   5093          
   5094            // Are there more commands to be discovered?
   5095            if ( zclFindNextCmdRec( pInMsg->msg->endPoint, pInMsg->msg->clusterId, pInMsg->hdr.commandID, pInMsg->hdr.fc.direction, &cmdID, &cmdRec ) )
   \                     ??zclProcessInDiscCmd_4:
   \   0000EB   12....       LCALL     ?Subroutine76 & 0xFFFF
   \                     ??CrossCallReturnLabel_127:
   \   0000EE   12....       LCALL     ?XSTACK_DISP100_8
   \   0000F1   88..         MOV       ?V4,R0
   \   0000F3   89..         MOV       ?V5,R1
   \   0000F5   78..         MOV       R0,#?V4
   \   0000F7   12....       LCALL     ?PUSH_XSTACK_I_TWO
   \   0000FA   7402         MOV       A,#0x2
   \   0000FC   12....       LCALL     ?XSTACK_DISP100_8
   \   0000FF   88..         MOV       ?V4,R0
   \   000101   89..         MOV       ?V5,R1
   \   000103   78..         MOV       R0,#?V4
   \   000105   12....       LCALL     ?PUSH_XSTACK_I_TWO
   \   000108   12....       LCALL     ?Subroutine47 & 0xFFFF
   \                     ??CrossCallReturnLabel_63:
   \   00010B   12....       LCALL     ?DEALLOC_XSTACK8
   \   00010E   E9           MOV       A,R1
   \   00010F   6008         JZ        ??zclProcessInDiscCmd_5
   5096            {
   5097              cmdRsp.discComplete = FALSE;
   \   000111   7401         MOV       A,#0x1
   \   000113   12....       LCALL     ?XSTACK_DISP0_8
   \   000116   E4           CLR       A
   \   000117   8007         SJMP      ??zclProcessInDiscCmd_6
   5098            }
   5099            else
   5100            {
   5101              cmdRsp.discComplete = TRUE;
   \                     ??zclProcessInDiscCmd_5:
   \   000119   7401         MOV       A,#0x1
   \   00011B   12....       LCALL     ?XSTACK_DISP0_8
   \   00011E   7401         MOV       A,#0x1
   \                     ??zclProcessInDiscCmd_6:
   \   000120   F0           MOVX      @DPTR,A
   5102            }
   5103          
   5104            // pass the command requested
   5105            cmdRsp.cmdType = pInMsg->hdr.commandID;
   \   000121   85..82       MOV       DPL,?V8
   \   000124   85..83       MOV       DPH,?V9
   \   000127   E0           MOVX      A,@DPTR
   \   000128   C0E0         PUSH      A
   \   00012A   7402         MOV       A,#0x2
   \   00012C   12....       LCALL     ?XSTACK_DISP0_8
   \   00012F   D0E0         POP       A
   \   000131   F0           MOVX      @DPTR,A
   5106          
   5107            // store number of commands returned
   5108            cmdRsp.numCmd = j;
   \   000132   7403         MOV       A,#0x3
   \   000134   12....       LCALL     ?XSTACK_DISP0_8
   \   000137   E5..         MOV       A,?V1
   \   000139   12....       LCALL     ?Subroutine31 & 0xFFFF
   5109          
   5110            status = zcl_SendDiscoverCmdsRspCmd( pInMsg->msg->endPoint, &pInMsg->msg->srcAddr,
   5111                                                pInMsg->msg->clusterId, &cmdRsp, !(pInMsg->hdr.fc.direction),
   5112                                                true, pInMsg->hdr.transSeqNum );
   \                     ??CrossCallReturnLabel_35:
   \   00013C   F5..         MOV       ?V0,A
   \   00013E   A3           INC       DPTR
   \   00013F   E0           MOVX      A,@DPTR
   \   000140   F5..         MOV       ?V1,A
   \   000142                ; Setup parameters for call to function zcl_SendDiscoverCmdsRspCmd
   \   000142   12....       LCALL     ?Subroutine54 & 0xFFFF
   \                     ??CrossCallReturnLabel_434:
   \   000145   12....       LCALL     ?PUSH_XSTACK_I_ONE
   \   000148   75..01       MOV       ?V2,#0x1
   \   00014B   78..         MOV       R0,#?V2
   \   00014D   12....       LCALL     ?PUSH_XSTACK_I_ONE
   \   000150   85..82       MOV       DPL,?V6
   \   000153   85..83       MOV       DPH,?V7
   \   000156   12....       LCALL     ?Subroutine59 & 0xFFFF
   \                     ??CrossCallReturnLabel_86:
   \   000159   12....       LCALL     ?PUSH_XSTACK_I_ONE
   \   00015C   7404         MOV       A,#0x4
   \   00015E   12....       LCALL     ?XSTACK_DISP100_8
   \   000161   88..         MOV       ?V2,R0
   \   000163   89..         MOV       ?V3,R1
   \   000165   78..         MOV       R0,#?V2
   \   000167   12....       LCALL     ?PUSH_XSTACK_I_TWO
   \   00016A   85..82       MOV       DPL,?V0
   \   00016D   85..83       MOV       DPH,?V1
   \   000170   12....       LCALL     ?Subroutine112 & 0xFFFF
   \                     ??CrossCallReturnLabel_611:
   \   000173   E5..         MOV       A,?V0
   \   000175   12....       LCALL     ??Subroutine272_0 & 0xFFFF
   \                     ??CrossCallReturnLabel_680:
   \   000178   35..         ADDC      A,?V1
   \   00017A   FB           MOV       R3,A
   \   00017B   E5..         MOV       A,?V0
   \   00017D   12....       LCALL     ??Subroutine260_0 & 0xFFFF
   \                     ??CrossCallReturnLabel_602:
   \   000180   35..         ADDC      A,?V1
   \   000182   F583         MOV       DPH,A
   \   000184   E0           MOVX      A,@DPTR
   \   000185   F9           MOV       R1,A
   \   000186   12....       LCALL     `??zcl_SendDiscoverCmdsRspCmd::?relay`; Banked call to: zcl_SendDiscoverCmdsRspCmd
   \   000189   7405         MOV       A,#0x5
   \   00018B   12....       LCALL     ?DEALLOC_XSTACK8
   \   00018E   E9           MOV       A,R1
   \   00018F   FE           MOV       R6,A
   5113          
   5114            zcl_mem_free( cmdRsp.pCmdID );
   \   000190                ; Setup parameters for call to function osal_mem_free
   \   000190   7404         MOV       A,#0x4
   \   000192   12....       LCALL     ?XSTACK_DISP0_8
   \   000195   12....       LCALL     ?Subroutine109 & 0xFFFF
   5115          
   5116            if ( status == ZSuccess )
   \                     ??CrossCallReturnLabel_184:
   \   000198   EE           MOV       A,R6
   \   000199   7004         JNZ       ??zclProcessInDiscCmd_3
   5117            {
   5118              return TRUE;
   \   00019B   7901         MOV       R1,#0x1
   \   00019D   8002         SJMP      ??zclProcessInDiscCmd_7
   5119            }
   5120            else
   5121            {
   5122              return FALSE;
   \                     ??zclProcessInDiscCmd_3:
   \   00019F   7900         MOV       R1,#0x0
   5123            }
   \                     ??zclProcessInDiscCmd_7:
   \   0001A1   02....       LJMP      ?Subroutine6 & 0xFFFF
   5124          }

   \                                 In  segment BANKED_CODE, align 1, keep-with-next
   \                     ?Subroutine126:
   \   000000   12....       LCALL     ?Subroutine189 & 0xFFFF
   \                     ??CrossCallReturnLabel_318:
   \   000003   22           RET

   \                                 In  segment BANKED_CODE, align 1, keep-with-next
   \                     ?Subroutine76:
   \   000000   8E82         MOV       DPL,R6
   \   000002   8F83         MOV       DPH,R7
   \   000004   12....       LCALL     ??Subroutine271_0 & 0xFFFF
   \                     ??CrossCallReturnLabel_674:
   \   000007                ; Setup parameters for call to function zclFindNextCmdRec
   \   000007                ; Setup parameters for call to function zclFindNextCmdRec
   \   000007                ; Setup parameters for call to function zclFindNextCmdRec
   \   000007   7406         MOV       A,#0x6
   \   000009   22           RET

   \                                 In  segment BANKED_CODE, align 1, keep-with-next
   \                     ?Subroutine47:
   \   000000   85..82       MOV       DPL,?V6
   \   000003   85..83       MOV       DPH,?V7
   \   000006   12....       LCALL     ?Subroutine176 & 0xFFFF
   \                     ??CrossCallReturnLabel_648:
   \   000009   FD           MOV       R5,A
   \   00000A   85..82       MOV       DPL,?V8
   \   00000D   85..83       MOV       DPH,?V9
   \   000010   E0           MOVX      A,@DPTR
   \   000011   12....       LCALL     ?Subroutine171 & 0xFFFF
   \                     ??CrossCallReturnLabel_296:
   \   000014   12....       LCALL     `??zclFindNextCmdRec::?relay`; Banked call to: zclFindNextCmdRec
   \   000017   7404         MOV       A,#0x4
   \   000019   22           RET

   \                                 In  segment XDATA_ID, align 1, keep-with-next
   \                     `?<Initializer for zcl_radius>`:
   \   000000   1E           DB 30
   5125          
   5126          #endif // ZCL_DISCOVER
   5127          
   5128          
   5129          /*********************************************************************
   5130          *********************************************************************/

   Maximum stack usage in bytes:

   ISTACK XSTACK Function
   ------ ------ --------
      2     26   zclAnalogDataType
      0     29   zclAuthorizeWrite
        0     14   -> zclGetAuthorizeCB
      1     39   zclBuildHdr
      2     54   zclFindAttrRec
        0     16   -> zclFindAttrRecsList
      2     16   zclFindAttrRecsList
      0     19   zclFindClusterOption
      2     16   zclFindCmdRec
        0     14   -> zclFindCmdRecsList
      2     16   zclFindCmdRecsList
      0     50   zclFindNextAttrRec
        0     16   -> zclFindAttrRecsList
      1     50   zclFindNextCmdRec
        0     16   -> zclFindCmdRecsList
      0     45   zclGetAttrDataLength
        0      9   -> zclGetDataTypeLength
      0     58   zclGetAttrDataLengthUsingCB
        0     18   -> zclGetReadWriteCB
      0     42   zclGetAuthorizeCB
        0     10   -> zclFindAttrRecsList
      0     47   zclGetClusterOption
        0     10   -> zclFindClusterOption
      0     26   zclGetDataTypeLength
      0     28   zclGetReadWriteCB
        0     10   -> zclFindAttrRecsList
      1     49   zclParseHdr
        0     12   -> osal_memset
      1     24   zclParseInConfigReportCmd
        0     24   -> osal_mem_alloc
        0     24   -> osal_memset
        0     24   -> zclAnalogDataType
        0     24   -> zclGetAttrDataLength
        0     24   -> zclGetDataTypeLength
      1     10   zclParseInDefaultRspCmd
        0     10   -> osal_mem_alloc
      1     10   zclParseInDiscAttrsCmd
        0     10   -> osal_mem_alloc
      1     14   zclParseInDiscAttrsExtRspCmd
        0     14   -> osal_mem_alloc
      1     12   zclParseInDiscAttrsRspCmd
        0     12   -> osal_mem_alloc
      1     10   zclParseInDiscCmdsCmd
        0     10   -> osal_mem_alloc
      1     12   zclParseInDiscCmdsRspCmd
        0     12   -> osal_mem_alloc
      1     12   zclParseInReadCmd
        0     12   -> osal_mem_alloc
      1     12   zclParseInReadReportCfgCmd
        0     12   -> osal_mem_alloc
      1     25   zclParseInReadRspCmd
        0     22   -> osal_mem_alloc
        0     25   -> osal_memcpy
        0     22   -> zclGetAttrDataLength
      1     25   zclParseInWriteCmd
        0     22   -> osal_mem_alloc
        0     25   -> osal_memcpy
        0     22   -> zclGetAttrDataLength
      1     16   zclParseInWriteRspCmd
        0     16   -> osal_mem_alloc
      0     30   zclProcessInDiscAttrs
        0     30   -> zclFindNextAttrRec
        0     26   -> zclProcessInDiscAttrsCmd
        0     26   -> zclProcessInDiscAttrsExtCmd
      1     61   zclProcessInDiscAttrsCmd
        0     30   -> osal_mem_alloc
        0     30   -> osal_mem_free
        0     34   -> zclFindNextAttrRec
        0     35   -> zcl_SendDiscoverAttrsRspCmd
      1     61   zclProcessInDiscAttrsExtCmd
        0     30   -> osal_mem_alloc
        0     30   -> osal_mem_free
        0     34   -> zclFindNextAttrRec
        0     35   -> zcl_SendDiscoverAttrsExtRsp
      1     35   zclProcessInDiscCmd
        0     30   -> osal_mem_alloc
        0     30   -> osal_mem_free
        0     34   -> zclFindNextCmdRec
        0     35   -> zcl_SendDiscoverCmdsRspCmd
      1     37   zclProcessInReadCmd
        0     32   -> osal_mem_alloc
        0     32   -> osal_mem_free
        0     34   -> zclFindAttrRec
        0     32   -> zclGetAuthorizeCB
        0     37   -> zcl_SendReadRsp
      1     39   zclProcessInWriteCmd
        0     34   -> bdb_ZclIdentifyCmdInd
        0     34   -> osal_mem_alloc
        0     34   -> osal_mem_free
        0     37   -> osal_memcpy
        0     36   -> zclFindAttrRec
        0     36   -> zclWriteAttrData
        0     36   -> zclWriteAttrDataUsingCB
        0     39   -> zcl_SendWriteRsp
      1     41   zclProcessInWriteUndividedCmd
        0     36   -> osal_mem_alloc
        0     36   -> osal_mem_free
        0     38   -> zclFindAttrRec
        0     36   -> zclGetAttrDataLength
        0     36   -> zclGetAttrDataLengthUsingCB
        0     38   -> zclReadAttrData
        0     40   -> zclReadAttrDataUsingCB
        0     38   -> zclRevertWriteUndividedCmd
        0     38   -> zclWriteAttrData
        0     38   -> zclWriteAttrDataUsingCB
        0     41   -> zcl_SendWriteRsp
      0     56   zclReadAttrData
        0     18   -> osal_memcpy
        0     15   -> zclGetAttrDataLength
      0     60   zclReadAttrDataUsingCB
        0     16   -> zclGetReadWriteCB
      0     69   zclRevertWriteUndividedCmd
        0     31   -> osal_memcpy
        0     30   -> zclFindAttrRec
        0     28   -> zclGetAttrDataLength
        0     30   -> zclWriteAttrDataUsingCB
      1     45   zclSerializeData
        0     19   -> osal_buffer_uint32
        0     18   -> osal_memcpy
      0     47   zclSetSecurityOption
        0     10   -> zclFindClusterOption
      0     56   zclWriteAttrData
        0     18   -> osal_memcpy
        0     15   -> zclAuthorizeWrite
        0     15   -> zclGetAttrDataLength
      0     56   zclWriteAttrDataUsingCB
        0     14   -> zclAuthorizeWrite
        0     14   -> zclGetReadWriteCB
      0     62   zcl_DeviceOperational
        0     23   -> zclFindAttrRec
        0     23   -> zclReadAttrData
      1     14   zcl_HandleExternal
        0     14   -> bdb_ProcessInReadReportCfgCmd
        0     14   -> osal_msg_allocate
        0     14   -> osal_msg_deallocate
        0     14   -> osal_msg_send
        0     14   -> zcl_getExternalFoundationHandler
      2      0   zcl_Init
      1     56   zcl_ProcessMessageMSG
        0     37   -> StubAPS_InterPan
        0     37   -> afFindEndPointDesc
        0     37   -> osal_mem_free
        0     37   -> zclGetClusterOption
        0     37   -> zclParseHdr
        0     37   -> zclSetSecurityOption
        0     39   -> zcl_DeviceOperational
        0     44   -> zcl_SendDefaultRspCmd
      0     32   zcl_ReadAttrData
        0     26   -> zclFindAttrRec
        0     26   -> zclReadAttrData
        0     28   -> zclReadAttrDataUsingCB
      1     76   zcl_SendCommand
        0     39   -> AF_DataRequest
        0     30   -> StubAPS_InterPan
        0     30   -> afFindEndPointDesc
        0     30   -> osal_mem_alloc
        0     30   -> osal_mem_free
        0     33   -> osal_memcpy
        0     30   -> osal_memset
        0     30   -> zclBuildHdr
        0     30   -> zclGetClusterOption
        0     32   -> zcl_DeviceOperational
      1     36   zcl_SendConfigReportRspCmd
        0     20   -> osal_mem_alloc
        0     20   -> osal_mem_free
        0     31   -> zcl_SendCommand
      1     67   zcl_SendDefaultRspCmd
        0     23   -> zcl_SendCommand
      1     32   zcl_SendDiscoverAttrsCmd
        0     16   -> osal_mem_alloc
        0     16   -> osal_mem_free
        0     27   -> zcl_SendCommand
      1     31   zcl_SendDiscoverAttrsExt
        0     26   -> zcl_SendCommand
      1     70   zcl_SendDiscoverAttrsExtRsp
        0     24   -> osal_mem_alloc
        0     24   -> osal_mem_free
        0     35   -> zcl_SendCommand
      1     70   zcl_SendDiscoverAttrsRspCmd
        0     24   -> osal_mem_alloc
        0     24   -> osal_mem_free
        0     35   -> zcl_SendCommand
      1     31   zcl_SendDiscoverCmdsCmd
        0     25   -> zcl_SendCommand
      1     68   zcl_SendDiscoverCmdsRspCmd
        0     22   -> osal_mem_alloc
        0     22   -> osal_mem_free
        0     33   -> zcl_SendCommand
      1     36   zcl_SendRead
        0     20   -> osal_mem_alloc
        0     20   -> osal_mem_free
        0     31   -> zcl_SendCommand
      1     42   zcl_SendReadReportCfgRspCmd
        0     26   -> osal_mem_alloc
        0     26   -> osal_mem_free
        0     26   -> zclAnalogDataType
        0     26   -> zclGetDataTypeLength
        0     26   -> zclSerializeData
        0     37   -> zcl_SendCommand
      1     72   zcl_SendReadRsp
        0     24   -> osal_mem_alloc
        0     24   -> osal_mem_free
        0     24   -> zclGetAttrDataLength
        0     24   -> zclGetAttrDataLengthUsingCB
        0     28   -> zclReadAttrDataUsingCB
        0     24   -> zclSerializeData
        0     35   -> zcl_SendCommand
      1     38   zcl_SendReportCmd
        0     22   -> osal_mem_alloc
        0     22   -> osal_mem_free
        0     22   -> zclGetAttrDataLength
        0     22   -> zclSerializeData
        0     33   -> zcl_SendCommand
      1     39   zcl_SendWriteRequest
        0     22   -> osal_mem_alloc
        0     22   -> osal_mem_free
        0     22   -> zclGetAttrDataLength
        0     22   -> zclSerializeData
        0     33   -> zcl_SendCommand
      1     72   zcl_SendWriteRsp
        0     20   -> osal_mem_alloc
        0     20   -> osal_mem_free
        0     31   -> zcl_SendCommand
      1     19   zcl_addExternalFoundationHandler
        0     10   -> osal_mem_alloc
        0     10   -> osal_mem_free
      0     12   zcl_event_loop
        0     12   -> osal_msg_deallocate
        0     12   -> osal_msg_receive
        0     12   -> osal_msg_send
        0     12   -> zcl_ProcessMessageMSG
        0     12   -> zcl_getExternalFoundationHandler
      2     14   zcl_getExternalFoundationHandler
      2      0   zcl_getParsedTransSeqNum
      2      0   zcl_getRawAFMsg
      1     12   zcl_registerAttrList
        0     12   -> osal_mem_alloc
      1     12   zcl_registerClusterOptionList
        0     12   -> osal_mem_alloc
      1     12   zcl_registerCmdList
        0     12   -> osal_mem_alloc
      0      9   zcl_registerForMsg
        0      9   -> zcl_addExternalFoundationHandler
      0      9   zcl_registerForMsgExt
        0      9   -> zcl_addExternalFoundationHandler
      0     14   zcl_registerPlugin
        0     12   -> osal_mem_alloc
      0     14   zcl_registerReadWriteCB
        0     14   -> zclFindAttrRecsList
      2      0   zcl_registerValidateAttrData


   Segment part sizes:

   Bytes  Function/Label
   -----  --------------
       1  ?<Initializer for zcl_radius>
      16  ??Subroutine212_0
       5  ??Subroutine213_0
       6  ??Subroutine214_0
       6  ??Subroutine215_0
       8  ??Subroutine216_0
       6  ??Subroutine217_0
       5  ??Subroutine218_0
       5  ??Subroutine219_0
       5  ??Subroutine220_0
       2  ??Subroutine221_0
       6  ??Subroutine222_0
       4  ??Subroutine223_0
       6  ??Subroutine224_0
       6  ??Subroutine225_0
       7  ??Subroutine226_0
       7  ??Subroutine227_0
      12  ??Subroutine228_0
      10  ??Subroutine229_0
       8  ??Subroutine230_0
       7  ??Subroutine231_0
       5  ??Subroutine232_0
       5  ??Subroutine233_0
       2  ??Subroutine234_0
       6  ??Subroutine235_0
       1  ??Subroutine236_0
       5  ??Subroutine237_0
       6  ??Subroutine238_0
       6  ??Subroutine239_0
       8  ??Subroutine240_0
       6  ??Subroutine241_0
       8  ??Subroutine242_0
       9  ??Subroutine243_0
       5  ??Subroutine244_0
       1  ??Subroutine245_0
       6  ??Subroutine246_0
       4  ??Subroutine247_0
       7  ??Subroutine248_0
       6  ??Subroutine249_0
       1  ??Subroutine250_0
       3  ??Subroutine251_0
       4  ??Subroutine252_0
       3  ??Subroutine253_0
       6  ??Subroutine254_0
       8  ??Subroutine255_0
       6  ??Subroutine256_0
       3  ??Subroutine257_0
       5  ??Subroutine258_0
       5  ??Subroutine259_0
       4  ??Subroutine260_0
       7  ??Subroutine261_0
       2  ??Subroutine262_0
       4  ??Subroutine263_0
      21  ??Subroutine264_0
       6  ??Subroutine265_0
       7  ??Subroutine266_0
       1  ??Subroutine267_0
      10  ??Subroutine268_0
       8  ??Subroutine269_0
      30  ??Subroutine270_0
       8  ??Subroutine271_0
       5  ??Subroutine272_0
       7  ??Subroutine273_0
       2  ??Subroutine274_0
       6  ??Subroutine275_0
       7  ?Subroutine0
       3  ?Subroutine1
       5  ?Subroutine10
      11  ?Subroutine100
       6  ?Subroutine101
       8  ?Subroutine102
      10  ?Subroutine103
      12  ?Subroutine104
       4  ?Subroutine105
       4  ?Subroutine106
       6  ?Subroutine107
       8  ?Subroutine108
       7  ?Subroutine109
       7  ?Subroutine11
       1  ?Subroutine110
       8  ?Subroutine111
       2  ?Subroutine112
      12  ?Subroutine113
       4  ?Subroutine114
       7  ?Subroutine115
       4  ?Subroutine116
       6  ?Subroutine117
      16  ?Subroutine118
       6  ?Subroutine119
       5  ?Subroutine12
      14  ?Subroutine120
      14  ?Subroutine121
       8  ?Subroutine122
       8  ?Subroutine123
       9  ?Subroutine124
       5  ?Subroutine125
       4  ?Subroutine126
       4  ?Subroutine127
      11  ?Subroutine128
       6  ?Subroutine129
       5  ?Subroutine13
       4  ?Subroutine130
       5  ?Subroutine131
       4  ?Subroutine132
       4  ?Subroutine133
      10  ?Subroutine134
       3  ?Subroutine135
      11  ?Subroutine136
      11  ?Subroutine137
      13  ?Subroutine138
      12  ?Subroutine139
      80  ?Subroutine14
      10  ?Subroutine140
       2  ?Subroutine141
       4  ?Subroutine142
      16  ?Subroutine143
      13  ?Subroutine144
       7  ?Subroutine145
      12  ?Subroutine146
       1  ?Subroutine147
      14  ?Subroutine148
       4  ?Subroutine149
      24  ?Subroutine15
      21  ?Subroutine150
      10  ?Subroutine151
       8  ?Subroutine152
       8  ?Subroutine153
       8  ?Subroutine154
      11  ?Subroutine155
      15  ?Subroutine156
       9  ?Subroutine157
      18  ?Subroutine158
      10  ?Subroutine159
      32  ?Subroutine16
      12  ?Subroutine160
      11  ?Subroutine161
      15  ?Subroutine162
       8  ?Subroutine163
       8  ?Subroutine164
       4  ?Subroutine165
       5  ?Subroutine166
       7  ?Subroutine167
       9  ?Subroutine168
       6  ?Subroutine169
      12  ?Subroutine17
       8  ?Subroutine170
      28  ?Subroutine171
       4  ?Subroutine172
       6  ?Subroutine173
       4  ?Subroutine174
       3  ?Subroutine175
       6  ?Subroutine176
      13  ?Subroutine177
       5  ?Subroutine178
      19  ?Subroutine179
      19  ?Subroutine18
       8  ?Subroutine180
      11  ?Subroutine181
       8  ?Subroutine182
       9  ?Subroutine183
      16  ?Subroutine184
       5  ?Subroutine185
      10  ?Subroutine186
       1  ?Subroutine187
       6  ?Subroutine188
       5  ?Subroutine189
      26  ?Subroutine19
       5  ?Subroutine190
       9  ?Subroutine191
       2  ?Subroutine192
       4  ?Subroutine193
       5  ?Subroutine194
      12  ?Subroutine195
       8  ?Subroutine196
      12  ?Subroutine197
       1  ?Subroutine198
      18  ?Subroutine199
       3  ?Subroutine2
       6  ?Subroutine20
       5  ?Subroutine200
       4  ?Subroutine201
       2  ?Subroutine202
       7  ?Subroutine203
       9  ?Subroutine204
       5  ?Subroutine205
       8  ?Subroutine206
       8  ?Subroutine207
       6  ?Subroutine208
       7  ?Subroutine209
      13  ?Subroutine21
       5  ?Subroutine210
       6  ?Subroutine211
       4  ?Subroutine22
      11  ?Subroutine23
       6  ?Subroutine24
       1  ?Subroutine25
      13  ?Subroutine26
       6  ?Subroutine27
       7  ?Subroutine28
       4  ?Subroutine29
       5  ?Subroutine3
       8  ?Subroutine30
       5  ?Subroutine31
       7  ?Subroutine32
      18  ?Subroutine33
       4  ?Subroutine34
      12  ?Subroutine35
       4  ?Subroutine36
       7  ?Subroutine37
       6  ?Subroutine38
       5  ?Subroutine39
       5  ?Subroutine4
       4  ?Subroutine40
       6  ?Subroutine41
       9  ?Subroutine42
       3  ?Subroutine43
       8  ?Subroutine44
      12  ?Subroutine45
       6  ?Subroutine46
      26  ?Subroutine47
       6  ?Subroutine48
       6  ?Subroutine49
       3  ?Subroutine5
       3  ?Subroutine50
       5  ?Subroutine51
      18  ?Subroutine52
      51  ?Subroutine53
       4  ?Subroutine54
      28  ?Subroutine55
      29  ?Subroutine56
       6  ?Subroutine57
       6  ?Subroutine58
       8  ?Subroutine59
       2  ?Subroutine6
      18  ?Subroutine60
       5  ?Subroutine61
       4  ?Subroutine62
       6  ?Subroutine63
       4  ?Subroutine64
       9  ?Subroutine65
       9  ?Subroutine66
      12  ?Subroutine67
      10  ?Subroutine68
       9  ?Subroutine69
       5  ?Subroutine7
      13  ?Subroutine70
       6  ?Subroutine71
      10  ?Subroutine72
      18  ?Subroutine73
      17  ?Subroutine74
       2  ?Subroutine75
      10  ?Subroutine76
       6  ?Subroutine77
      14  ?Subroutine78
      26  ?Subroutine79
       3  ?Subroutine8
      12  ?Subroutine80
       9  ?Subroutine81
      12  ?Subroutine82
       6  ?Subroutine83
      17  ?Subroutine84
      12  ?Subroutine85
       3  ?Subroutine86
       5  ?Subroutine87
       4  ?Subroutine88
       6  ?Subroutine89
       5  ?Subroutine9
      13  ?Subroutine90
       2  ?Subroutine91
       5  ?Subroutine92
       4  ?Subroutine93
      10  ?Subroutine94
      10  ?Subroutine95
       4  ?Subroutine96
       7  ?Subroutine97
       1  ?Subroutine98
      12  ?Subroutine99
       2  attrList
       2  clusterOptionList
       2  externalEndPointHandlerList
       2  gpCmdList
       2  plugins
       2  rawAFMsg
       1  savedZCLTransSeqNum
      33  zclAnalogDataType
      51  zclAuthorizeWrite
     101  zclBuildHdr
      92  zclCmdTable
     128  zclFindAttrRec
      37  zclFindAttrRecsList
     102  zclFindClusterOption
     108  zclFindCmdRec
      37  zclFindCmdRecsList
     192  zclFindNextAttrRec
     242  zclFindNextCmdRec
      63  zclGetAttrDataLength
     100  zclGetAttrDataLengthUsingCB
      22  zclGetAuthorizeCB
      26  zclGetClusterOption
     166  zclGetDataTypeLength
      22  zclGetReadWriteCB
     209  zclParseHdr
     537  zclParseInConfigReportCmd
      16  zclParseInDefaultRspCmd
      43  zclParseInDiscAttrsCmd
     137  zclParseInDiscAttrsExtRspCmd
      79  zclParseInDiscAttrsRspCmd
      16  zclParseInDiscCmdsCmd
      75  zclParseInDiscCmdsRspCmd
      99  zclParseInReadCmd
      77  zclParseInReadReportCfgCmd
     323  zclParseInReadRspCmd
     321  zclParseInWriteCmd
     105  zclParseInWriteRspCmd
     172  zclProcessInDiscAttrs
     210  zclProcessInDiscAttrsCmd
     243  zclProcessInDiscAttrsExtCmd
     420  zclProcessInDiscCmd
     428  zclProcessInReadCmd
     543  zclProcessInWriteCmd
     782  zclProcessInWriteUndividedCmd
     100  zclReadAttrData
      92  zclReadAttrDataUsingCB
     235  zclRevertWriteUndividedCmd
     377  zclSerializeData
      41  zclSetSecurityOption
     137  zclWriteAttrData
     103  zclWriteAttrDataUsingCB
     118  zcl_DeviceOperational
     227  zcl_HandleExternal
       1  zcl_InSeqNum
      12  zcl_Init
    1134  zcl_ProcessMessageMSG
     129  zcl_ReadAttrData
     462  zcl_SendCommand
     238  zcl_SendConfigReportRspCmd
     127  zcl_SendDefaultRspCmd
     164  zcl_SendDiscoverAttrsCmd
     142  zcl_SendDiscoverAttrsExt
     236  zcl_SendDiscoverAttrsExtRsp
     211  zcl_SendDiscoverAttrsRspCmd
     197  zcl_SendDiscoverCmdsCmd
     306  zcl_SendDiscoverCmdsRspCmd
     172  zcl_SendRead
     519  zcl_SendReadReportCfgRspCmd
     401  zcl_SendReadRsp
     185  zcl_SendReportCmd
     188  zcl_SendWriteRequest
     218  zcl_SendWriteRsp
       1  zcl_TaskID
       2  zcl_ValidateAttrDataCB
     132  zcl_addExternalFoundationHandler
     105  zcl_event_loop
      60  zcl_getExternalFoundationHandler
      12  zcl_getParsedTransSeqNum
      13  zcl_getRawAFMsg
       1  zcl_radius
      84  zcl_registerAttrList
      50  zcl_registerClusterOptionList
      51  zcl_registerCmdList
      10  zcl_registerForMsg
       8  zcl_registerForMsgExt
      94  zcl_registerPlugin
      54  zcl_registerReadWriteCB
      12  zcl_registerValidateAttrData
     456  -- Other

 
 15 746 bytes in segment BANKED_CODE
    456 bytes in segment BANK_RELAYS
     92 bytes in segment CODE_C
      1 byte  in segment XDATA_I
      1 byte  in segment XDATA_ID
     17 bytes in segment XDATA_Z
 
    549 bytes of CODE     memory
 15 746 bytes of HUGECODE memory
     18 bytes of XDATA    memory

Errors: none
Warnings: none
